
samg55_ac057tc1__4_1_5.elf:     file format elf32-littlearm

Sections:
Idx Name          Size      VMA       LMA       File off  Algn
  0 .text         000289e0  00400000  00400000  00010000  2**2
                  CONTENTS, ALLOC, LOAD, READONLY, CODE
  1 .relocate     00000378  20000000  004289e0  00040000  2**2
                  CONTENTS, ALLOC, LOAD, DATA
  2 .bss          000000bc  20000378  00428d58  00040378  2**2
                  ALLOC
  3 .heap         00000204  20000434  00428e14  00040378  2**0
                  ALLOC
  4 .stack        00000400  20000638  00429018  00040378  2**0
                  ALLOC
  5 .ARM.attributes 0000002e  00000000  00000000  00040378  2**0
                  CONTENTS, READONLY
  6 .comment      00000059  00000000  00000000  000403a6  2**0
                  CONTENTS, READONLY
  7 .debug_info   00010fd6  00000000  00000000  000403ff  2**0
                  CONTENTS, READONLY, DEBUGGING
  8 .debug_abbrev 0000162c  00000000  00000000  000513d5  2**0
                  CONTENTS, READONLY, DEBUGGING
  9 .debug_loc    00007656  00000000  00000000  00052a01  2**0
                  CONTENTS, READONLY, DEBUGGING
 10 .debug_aranges 000004d0  00000000  00000000  0005a057  2**0
                  CONTENTS, READONLY, DEBUGGING
 11 .debug_ranges 000005b0  00000000  00000000  0005a527  2**0
                  CONTENTS, READONLY, DEBUGGING
 12 .debug_macro  000046cb  00000000  00000000  0005aad7  2**0
                  CONTENTS, READONLY, DEBUGGING
 13 .debug_line   00008401  00000000  00000000  0005f1a2  2**0
                  CONTENTS, READONLY, DEBUGGING
 14 .debug_str    0009feb5  00000000  00000000  000675a3  2**0
                  CONTENTS, READONLY, DEBUGGING
 15 .debug_frame  000010ac  00000000  00000000  00107458  2**2
                  CONTENTS, READONLY, DEBUGGING

Disassembly of section .text:

00400000 <exception_table>:
  400000:	38 0a 00 20 79 01 40 00 75 01 40 00 75 01 40 00     8.. y.@.u.@.u.@.
  400010:	75 01 40 00 75 01 40 00 75 01 40 00 00 00 00 00     u.@.u.@.u.@.....
	...
  40002c:	75 01 40 00 75 01 40 00 00 00 00 00 75 01 40 00     u.@.u.@.....u.@.
  40003c:	75 01 40 00 75 01 40 00 75 01 40 00 75 01 40 00     u.@.u.@.u.@.u.@.
  40004c:	75 01 40 00 75 01 40 00 75 01 40 00 75 01 40 00     u.@.u.@.u.@.u.@.
  40005c:	75 01 40 00 75 01 40 00 75 01 40 00 00 00 00 00     u.@.u.@.u.@.....
  40006c:	75 01 40 00 75 01 40 00 75 01 40 00 75 01 40 00     u.@.u.@.u.@.u.@.
  40007c:	75 01 40 00 75 01 40 00 75 01 40 00 75 01 40 00     u.@.u.@.u.@.u.@.
  40008c:	75 01 40 00 75 01 40 00 75 01 40 00 75 01 40 00     u.@.u.@.u.@.u.@.
  40009c:	75 01 40 00 75 01 40 00 75 01 40 00 75 01 40 00     u.@.u.@.u.@.u.@.
  4000ac:	75 01 40 00 75 01 40 00 75 01 40 00 00 00 00 00     u.@.u.@.u.@.....
	...
  4000fc:	75 01 40 00 75 01 40 00 75 01 40 00                 u.@.u.@.u.@.

00400108 <__do_global_dtors_aux>:
  400108:	b510      	push	{r4, lr}
  40010a:	4c05      	ldr	r4, [pc, #20]	; (400120 <__do_global_dtors_aux+0x18>)
  40010c:	7823      	ldrb	r3, [r4, #0]
  40010e:	b933      	cbnz	r3, 40011e <__do_global_dtors_aux+0x16>
  400110:	4b04      	ldr	r3, [pc, #16]	; (400124 <__do_global_dtors_aux+0x1c>)
  400112:	b113      	cbz	r3, 40011a <__do_global_dtors_aux+0x12>
  400114:	4804      	ldr	r0, [pc, #16]	; (400128 <__do_global_dtors_aux+0x20>)
  400116:	f3af 8000 	nop.w
  40011a:	2301      	movs	r3, #1
  40011c:	7023      	strb	r3, [r4, #0]
  40011e:	bd10      	pop	{r4, pc}
  400120:	20000378 	.word	0x20000378
  400124:	00000000 	.word	0x00000000
  400128:	004289e0 	.word	0x004289e0

0040012c <frame_dummy>:
  40012c:	4b0c      	ldr	r3, [pc, #48]	; (400160 <frame_dummy+0x34>)
  40012e:	b143      	cbz	r3, 400142 <frame_dummy+0x16>
  400130:	480c      	ldr	r0, [pc, #48]	; (400164 <frame_dummy+0x38>)
  400132:	490d      	ldr	r1, [pc, #52]	; (400168 <frame_dummy+0x3c>)
  400134:	b510      	push	{r4, lr}
  400136:	f3af 8000 	nop.w
  40013a:	480c      	ldr	r0, [pc, #48]	; (40016c <frame_dummy+0x40>)
  40013c:	6803      	ldr	r3, [r0, #0]
  40013e:	b923      	cbnz	r3, 40014a <frame_dummy+0x1e>
  400140:	bd10      	pop	{r4, pc}
  400142:	480a      	ldr	r0, [pc, #40]	; (40016c <frame_dummy+0x40>)
  400144:	6803      	ldr	r3, [r0, #0]
  400146:	b933      	cbnz	r3, 400156 <frame_dummy+0x2a>
  400148:	4770      	bx	lr
  40014a:	4b09      	ldr	r3, [pc, #36]	; (400170 <frame_dummy+0x44>)
  40014c:	2b00      	cmp	r3, #0
  40014e:	d0f7      	beq.n	400140 <frame_dummy+0x14>
  400150:	e8bd 4010 	ldmia.w	sp!, {r4, lr}
  400154:	4718      	bx	r3
  400156:	4b06      	ldr	r3, [pc, #24]	; (400170 <frame_dummy+0x44>)
  400158:	2b00      	cmp	r3, #0
  40015a:	d0f5      	beq.n	400148 <frame_dummy+0x1c>
  40015c:	4718      	bx	r3
  40015e:	bf00      	nop
  400160:	00000000 	.word	0x00000000
  400164:	004289e0 	.word	0x004289e0
  400168:	2000037c 	.word	0x2000037c
  40016c:	004289e0 	.word	0x004289e0
  400170:	00000000 	.word	0x00000000

00400174 <Dummy_Handler>:

/**
 * \brief Default interrupt handler for unused IRQs.
 */
void Dummy_Handler(void)
{
  400174:	e7fe      	b.n	400174 <Dummy_Handler>
	...

00400178 <Reset_Handler>:
{
  400178:	b508      	push	{r3, lr}
        if (pSrc != pDest) {
  40017a:	4b17      	ldr	r3, [pc, #92]	; (4001d8 <Reset_Handler+0x60>)
  40017c:	4a17      	ldr	r2, [pc, #92]	; (4001dc <Reset_Handler+0x64>)
  40017e:	429a      	cmp	r2, r3
  400180:	d010      	beq.n	4001a4 <Reset_Handler+0x2c>
                for (; pDest < &_erelocate;) {
  400182:	4b17      	ldr	r3, [pc, #92]	; (4001e0 <Reset_Handler+0x68>)
  400184:	4a14      	ldr	r2, [pc, #80]	; (4001d8 <Reset_Handler+0x60>)
  400186:	429a      	cmp	r2, r3
  400188:	d20c      	bcs.n	4001a4 <Reset_Handler+0x2c>
  40018a:	3b01      	subs	r3, #1
  40018c:	1a9b      	subs	r3, r3, r2
  40018e:	f023 0303 	bic.w	r3, r3, #3
  400192:	3304      	adds	r3, #4
  400194:	4413      	add	r3, r2
  400196:	4911      	ldr	r1, [pc, #68]	; (4001dc <Reset_Handler+0x64>)
                        *pDest++ = *pSrc++;
  400198:	f851 0b04 	ldr.w	r0, [r1], #4
  40019c:	f842 0b04 	str.w	r0, [r2], #4
                for (; pDest < &_erelocate;) {
  4001a0:	429a      	cmp	r2, r3
  4001a2:	d1f9      	bne.n	400198 <Reset_Handler+0x20>
        for (pDest = &_szero; pDest < &_ezero;) {
  4001a4:	4b0f      	ldr	r3, [pc, #60]	; (4001e4 <Reset_Handler+0x6c>)
  4001a6:	4a10      	ldr	r2, [pc, #64]	; (4001e8 <Reset_Handler+0x70>)
  4001a8:	429a      	cmp	r2, r3
  4001aa:	d20a      	bcs.n	4001c2 <Reset_Handler+0x4a>
  4001ac:	3b01      	subs	r3, #1
  4001ae:	1a9b      	subs	r3, r3, r2
  4001b0:	f023 0303 	bic.w	r3, r3, #3
  4001b4:	3304      	adds	r3, #4
  4001b6:	4413      	add	r3, r2
                *pDest++ = 0;
  4001b8:	2100      	movs	r1, #0
  4001ba:	f842 1b04 	str.w	r1, [r2], #4
        for (pDest = &_szero; pDest < &_ezero;) {
  4001be:	4293      	cmp	r3, r2
  4001c0:	d1fb      	bne.n	4001ba <Reset_Handler+0x42>
        SCB->VTOR = ((uint32_t) pSrc & SCB_VTOR_TBLOFF_Msk);
  4001c2:	4a0a      	ldr	r2, [pc, #40]	; (4001ec <Reset_Handler+0x74>)
  4001c4:	4b0a      	ldr	r3, [pc, #40]	; (4001f0 <Reset_Handler+0x78>)
  4001c6:	f023 037f 	bic.w	r3, r3, #127	; 0x7f
  4001ca:	6093      	str	r3, [r2, #8]
        __libc_init_array();
  4001cc:	4b09      	ldr	r3, [pc, #36]	; (4001f4 <Reset_Handler+0x7c>)
  4001ce:	4798      	blx	r3
        main();
  4001d0:	4b09      	ldr	r3, [pc, #36]	; (4001f8 <Reset_Handler+0x80>)
  4001d2:	4798      	blx	r3
  4001d4:	e7fe      	b.n	4001d4 <Reset_Handler+0x5c>
  4001d6:	bf00      	nop
  4001d8:	20000000 	.word	0x20000000
  4001dc:	004289e0 	.word	0x004289e0
  4001e0:	20000378 	.word	0x20000378
  4001e4:	20000434 	.word	0x20000434
  4001e8:	20000378 	.word	0x20000378
  4001ec:	e000ed00 	.word	0xe000ed00
  4001f0:	00400000 	.word	0x00400000
  4001f4:	00402cd1 	.word	0x00402cd1
  4001f8:	00402c65 	.word	0x00402c65

004001fc <delay_driver_init>:
#include <hpl_pmc.h>
#include <peripheral_clk_config.h>
#include <utils.h>

void delay_driver_init(void)
{
  4001fc:	b508      	push	{r3, lr}
	delay_init(SysTick);
  4001fe:	4802      	ldr	r0, [pc, #8]	; (400208 <delay_driver_init+0xc>)
  400200:	4b02      	ldr	r3, [pc, #8]	; (40020c <delay_driver_init+0x10>)
  400202:	4798      	blx	r3
  400204:	bd08      	pop	{r3, pc}
  400206:	bf00      	nop
  400208:	e000e010 	.word	0xe000e010
  40020c:	00400319 	.word	0x00400319

00400210 <system_init>:
}

void system_init(void)
{
  400210:	b508      	push	{r3, lr}
 * Currently the following initialization functions are supported:
 *  - System clock initialization
 */
static inline void init_mcu(void)
{
	_init_chip();
  400212:	4b35      	ldr	r3, [pc, #212]	; (4002e8 <system_init+0xd8>)
  400214:	4798      	blx	r3
}

static inline hri_pmc_pcsr0_reg_t hri_pmc_get_PCSR0_reg(const void *const hw, hri_pmc_pcsr0_reg_t mask)
{
	uint32_t tmp;
	tmp = ((Pmc *)hw)->PMC_PCSR0;
  400216:	4b35      	ldr	r3, [pc, #212]	; (4002ec <system_init+0xdc>)
  400218:	699b      	ldr	r3, [r3, #24]
 *
 */
static inline void _pmc_enable_periph_clock(uint32_t periph_id)
{
	if (periph_id < 32) {
		if (!hri_pmc_get_PCSR0_reg(PMC, (1 << periph_id))) {
  40021a:	f413 6f00 	tst.w	r3, #2048	; 0x800
  40021e:	d103      	bne.n	400228 <system_init+0x18>
	((Pmc *)hw)->PMC_PCER0 = mask;
  400220:	f44f 6200 	mov.w	r2, #2048	; 0x800
  400224:	4b31      	ldr	r3, [pc, #196]	; (4002ec <system_init+0xdc>)
  400226:	611a      	str	r2, [r3, #16]
	tmp = ((Pmc *)hw)->PMC_PCSR0;
  400228:	4b30      	ldr	r3, [pc, #192]	; (4002ec <system_init+0xdc>)
  40022a:	699b      	ldr	r3, [r3, #24]
  40022c:	f413 5f80 	tst.w	r3, #4096	; 0x1000
  400230:	d103      	bne.n	40023a <system_init+0x2a>
	((Pmc *)hw)->PMC_PCER0 = mask;
  400232:	f44f 5280 	mov.w	r2, #4096	; 0x1000
  400236:	4b2d      	ldr	r3, [pc, #180]	; (4002ec <system_init+0xdc>)
  400238:	611a      	str	r2, [r3, #16]
}

static inline void hri_wdt_set_MR_WDDIS_bit(const void *const hw)
{
	WDT_CRITICAL_SECTION_ENTER();
	((Wdt *)hw)->WDT_MR |= WDT_MR_WDDIS;
  40023a:	4a2d      	ldr	r2, [pc, #180]	; (4002f0 <system_init+0xe0>)
  40023c:	6853      	ldr	r3, [r2, #4]
  40023e:	f443 4300 	orr.w	r3, r3, #32768	; 0x8000
  400242:	6053      	str	r3, [r2, #4]
	((Pio *)hw)->PIO_ODR = ~data;
}

static inline void hri_pio_clear_OSR_reg(const void *const hw, hri_pio_osr_reg_t mask)
{
	((Pio *)hw)->PIO_ODR = mask;
  400244:	4b2b      	ldr	r3, [pc, #172]	; (4002f4 <system_init+0xe4>)
  400246:	2201      	movs	r2, #1
  400248:	615a      	str	r2, [r3, #20]
	((Pio *)hw)->PIO_PPDDR = ~data;
}

static inline void hri_pio_clear_PPDSR_reg(const void *const hw, hri_pio_ppdsr_reg_t mask)
{
	((Pio *)hw)->PIO_PPDDR = mask;
  40024a:	f8c3 2090 	str.w	r2, [r3, #144]	; 0x90
	((Pio *)hw)->PIO_PUER = mask;
  40024e:	665a      	str	r2, [r3, #100]	; 0x64
	((Pio *)hw)->PIO_PER = mask;
  400250:	601a      	str	r2, [r3, #0]
	((Pio *)hw)->PIO_ODR = mask;
  400252:	f44f 7200 	mov.w	r2, #512	; 0x200
  400256:	615a      	str	r2, [r3, #20]
	((Pio *)hw)->PIO_PPDDR = mask;
  400258:	f8c3 2090 	str.w	r2, [r3, #144]	; 0x90
	((Pio *)hw)->PIO_PUER = mask;
  40025c:	665a      	str	r2, [r3, #100]	; 0x64
	((Pio *)hw)->PIO_PER = mask;
  40025e:	601a      	str	r2, [r3, #0]
	((Pio *)hw)->PIO_SODR = mask;
  400260:	f44f 6180 	mov.w	r1, #1024	; 0x400
  400264:	6319      	str	r1, [r3, #48]	; 0x30
	((Pio *)hw)->PIO_OER = mask;
  400266:	6119      	str	r1, [r3, #16]
	((Pio *)hw)->PIO_PER = mask;
  400268:	6019      	str	r1, [r3, #0]
	((Pio *)hw)->PIO_CODR = mask;
  40026a:	f44f 6200 	mov.w	r2, #2048	; 0x800
  40026e:	635a      	str	r2, [r3, #52]	; 0x34
	((Pio *)hw)->PIO_OER = mask;
  400270:	611a      	str	r2, [r3, #16]
	((Pio *)hw)->PIO_PER = mask;
  400272:	601a      	str	r2, [r3, #0]
	((Pio *)hw)->PIO_CODR = mask;
  400274:	f44f 5080 	mov.w	r0, #4096	; 0x1000
  400278:	6358      	str	r0, [r3, #52]	; 0x34
	((Pio *)hw)->PIO_OER = mask;
  40027a:	6118      	str	r0, [r3, #16]
	((Pio *)hw)->PIO_PER = mask;
  40027c:	6018      	str	r0, [r3, #0]
	((Pio *)hw)->PIO_CODR = mask;
  40027e:	f44f 5000 	mov.w	r0, #8192	; 0x2000
  400282:	6358      	str	r0, [r3, #52]	; 0x34
	((Pio *)hw)->PIO_OER = mask;
  400284:	6118      	str	r0, [r3, #16]
	((Pio *)hw)->PIO_PER = mask;
  400286:	6018      	str	r0, [r3, #0]
	((Pio *)hw)->PIO_CODR = mask;
  400288:	f44f 4080 	mov.w	r0, #16384	; 0x4000
  40028c:	6358      	str	r0, [r3, #52]	; 0x34
	((Pio *)hw)->PIO_OER = mask;
  40028e:	6118      	str	r0, [r3, #16]
	((Pio *)hw)->PIO_PER = mask;
  400290:	6018      	str	r0, [r3, #0]
	((Pio *)hw)->PIO_CODR = mask;
  400292:	f44f 3000 	mov.w	r0, #131072	; 0x20000
  400296:	6358      	str	r0, [r3, #52]	; 0x34
	((Pio *)hw)->PIO_OER = mask;
  400298:	6118      	str	r0, [r3, #16]
	((Pio *)hw)->PIO_PER = mask;
  40029a:	6018      	str	r0, [r3, #0]
	((Pio *)hw)->PIO_CODR = mask;
  40029c:	f44f 0000 	mov.w	r0, #8388608	; 0x800000
  4002a0:	6358      	str	r0, [r3, #52]	; 0x34
	((Pio *)hw)->PIO_OER = mask;
  4002a2:	6118      	str	r0, [r3, #16]
	((Pio *)hw)->PIO_PER = mask;
  4002a4:	6018      	str	r0, [r3, #0]
	((Pio *)hw)->PIO_ODR = mask;
  4002a6:	f04f 7080 	mov.w	r0, #16777216	; 0x1000000
  4002aa:	6158      	str	r0, [r3, #20]
	((Pio *)hw)->PIO_PPDDR = mask;
  4002ac:	f8c3 0090 	str.w	r0, [r3, #144]	; 0x90
	((Pio *)hw)->PIO_PUER = mask;
  4002b0:	6658      	str	r0, [r3, #100]	; 0x64
	((Pio *)hw)->PIO_PER = mask;
  4002b2:	6018      	str	r0, [r3, #0]
	((Pio *)hw)->PIO_CODR = mask;
  4002b4:	f04f 7000 	mov.w	r0, #33554432	; 0x2000000
  4002b8:	6358      	str	r0, [r3, #52]	; 0x34
	((Pio *)hw)->PIO_OER = mask;
  4002ba:	6118      	str	r0, [r3, #16]
	((Pio *)hw)->PIO_PER = mask;
  4002bc:	6018      	str	r0, [r3, #0]
	((Pio *)hw)->PIO_CODR = mask;
  4002be:	f04f 6080 	mov.w	r0, #67108864	; 0x4000000
  4002c2:	6358      	str	r0, [r3, #52]	; 0x34
	((Pio *)hw)->PIO_OER = mask;
  4002c4:	6118      	str	r0, [r3, #16]
	((Pio *)hw)->PIO_PER = mask;
  4002c6:	6018      	str	r0, [r3, #0]
	((Pio *)hw)->PIO_SODR = mask;
  4002c8:	f04f 5000 	mov.w	r0, #536870912	; 0x20000000
  4002cc:	6318      	str	r0, [r3, #48]	; 0x30
	((Pio *)hw)->PIO_OER = mask;
  4002ce:	6118      	str	r0, [r3, #16]
	((Pio *)hw)->PIO_PER = mask;
  4002d0:	6018      	str	r0, [r3, #0]
	((Pio *)hw)->PIO_CODR = mask;
  4002d2:	f503 7300 	add.w	r3, r3, #512	; 0x200
  4002d6:	6359      	str	r1, [r3, #52]	; 0x34
	((Pio *)hw)->PIO_OER = mask;
  4002d8:	6119      	str	r1, [r3, #16]
	((Pio *)hw)->PIO_PER = mask;
  4002da:	6019      	str	r1, [r3, #0]
	((Pio *)hw)->PIO_CODR = mask;
  4002dc:	635a      	str	r2, [r3, #52]	; 0x34
	((Pio *)hw)->PIO_OER = mask;
  4002de:	611a      	str	r2, [r3, #16]
	((Pio *)hw)->PIO_PER = mask;
  4002e0:	601a      	str	r2, [r3, #0]
	// Set pin direction to output
	gpio_set_pin_direction(EINK_MFCSB, GPIO_DIRECTION_OUT);

	gpio_set_pin_function(EINK_MFCSB, GPIO_PIN_FUNCTION_OFF);

	delay_driver_init();
  4002e2:	4b05      	ldr	r3, [pc, #20]	; (4002f8 <system_init+0xe8>)
  4002e4:	4798      	blx	r3
  4002e6:	bd08      	pop	{r3, pc}
  4002e8:	0040037d 	.word	0x0040037d
  4002ec:	400e0400 	.word	0x400e0400
  4002f0:	400e1450 	.word	0x400e1450
  4002f4:	400e0e00 	.word	0x400e0e00
  4002f8:	004001fd 	.word	0x004001fd

004002fc <atomic_enter_critical>:
 */
__attribute__((always_inline)) __STATIC_INLINE uint32_t __get_PRIMASK(void)
{
  uint32_t result;

  __ASM volatile ("MRS %0, primask" : "=r" (result) );
  4002fc:	f3ef 8310 	mrs	r3, PRIMASK
/**
 * \brief Disable interrupts, enter critical section
 */
void atomic_enter_critical(hal_atomic_t volatile *atomic)
{
	*atomic = __get_PRIMASK();
  400300:	6003      	str	r3, [r0, #0]
  __ASM volatile ("cpsid i" : : : "memory");
  400302:	b672      	cpsid	i
  \details Ensures the apparent order of the explicit memory operations before
           and after the instruction, without ensuring their completion.
 */
__attribute__((always_inline)) __STATIC_INLINE void __DMB(void)
{
  __ASM volatile ("dmb 0xF":::"memory");
  400304:	f3bf 8f5f 	dmb	sy
  400308:	4770      	bx	lr

0040030a <atomic_leave_critical>:
  40030a:	f3bf 8f5f 	dmb	sy
 * \brief Exit atomic section
 */
void atomic_leave_critical(hal_atomic_t volatile *atomic)
{
	__DMB();
	__set_PRIMASK(*atomic);
  40030e:	6803      	ldr	r3, [r0, #0]
  __ASM volatile ("MSR primask, %0" : : "r" (priMask) : "memory");
  400310:	f383 8810 	msr	PRIMASK, r3
  400314:	4770      	bx	lr
	...

00400318 <delay_init>:

/**
 * \brief Initialize Delay driver
 */
void delay_init(void *const hw)
{
  400318:	b508      	push	{r3, lr}
	_delay_init(hardware = hw);
  40031a:	4b02      	ldr	r3, [pc, #8]	; (400324 <delay_init+0xc>)
  40031c:	6018      	str	r0, [r3, #0]
  40031e:	4b02      	ldr	r3, [pc, #8]	; (400328 <delay_init+0x10>)
  400320:	4798      	blx	r3
  400322:	bd08      	pop	{r3, pc}
  400324:	20000394 	.word	0x20000394
  400328:	00400441 	.word	0x00400441

0040032c <delay_ms>:

/**
 * \brief Perform delay in ms
 */
void delay_ms(const uint16_t ms)
{
  40032c:	b510      	push	{r4, lr}
	_delay_cycles(hardware, _get_cycles_for_ms(ms));
  40032e:	4b04      	ldr	r3, [pc, #16]	; (400340 <delay_ms+0x14>)
  400330:	681c      	ldr	r4, [r3, #0]
  400332:	4b04      	ldr	r3, [pc, #16]	; (400344 <delay_ms+0x18>)
  400334:	4798      	blx	r3
  400336:	4601      	mov	r1, r0
  400338:	4620      	mov	r0, r4
  40033a:	4b03      	ldr	r3, [pc, #12]	; (400348 <delay_ms+0x1c>)
  40033c:	4798      	blx	r3
  40033e:	bd10      	pop	{r4, pc}
  400340:	20000394 	.word	0x20000394
  400344:	00400371 	.word	0x00400371
  400348:	00400455 	.word	0x00400455

0040034c <_sbrk>:

/**
 * \brief Replacement of C library of _sbrk
 */
extern caddr_t _sbrk(int incr)
{
  40034c:	4603      	mov	r3, r0
	static unsigned char *heap = NULL;
	unsigned char *       prev_heap;

	if (heap == NULL) {
  40034e:	4a06      	ldr	r2, [pc, #24]	; (400368 <_sbrk+0x1c>)
  400350:	6812      	ldr	r2, [r2, #0]
  400352:	b122      	cbz	r2, 40035e <_sbrk+0x12>
		heap = (unsigned char *)&_end;
	}
	prev_heap = heap;
  400354:	4a04      	ldr	r2, [pc, #16]	; (400368 <_sbrk+0x1c>)
  400356:	6810      	ldr	r0, [r2, #0]

	heap += incr;
  400358:	4403      	add	r3, r0
  40035a:	6013      	str	r3, [r2, #0]

	return (caddr_t)prev_heap;
}
  40035c:	4770      	bx	lr
		heap = (unsigned char *)&_end;
  40035e:	4903      	ldr	r1, [pc, #12]	; (40036c <_sbrk+0x20>)
  400360:	4a01      	ldr	r2, [pc, #4]	; (400368 <_sbrk+0x1c>)
  400362:	6011      	str	r1, [r2, #0]
  400364:	e7f6      	b.n	400354 <_sbrk+0x8>
  400366:	bf00      	nop
  400368:	20000398 	.word	0x20000398
  40036c:	20000a38 	.word	0x20000a38

00400370 <_get_cycles_for_ms>:
 * \brief Retrieve the amount of cycles to delay for the given amount of ms
 */
uint32_t _get_cycles_for_ms(const uint16_t ms)
{
	return _get_cycles_for_ms_internal(ms, CONF_CPU_FREQUENCY, CPU_FREQ_POWER);
}
  400370:	f645 53c0 	movw	r3, #24000	; 0x5dc0
  400374:	fb03 f000 	mul.w	r0, r3, r0
  400378:	4770      	bx	lr
	...

0040037c <_init_chip>:

/**
 * \brief Initialize the hardware abstraction layer
 */
void _init_chip(void)
{
  40037c:	b500      	push	{lr}
  40037e:	b083      	sub	sp, #12
/**
 * \brief Enable FPU
 */
static inline void _fpu_enable(void)
{
	CRITICAL_SECTION_ENTER()
  400380:	a801      	add	r0, sp, #4
  400382:	4b0d      	ldr	r3, [pc, #52]	; (4003b8 <_init_chip+0x3c>)
  400384:	4798      	blx	r3
	/** Set bits 20-23 to enable CP10 and CP11 coprocessors */
	SCB->CPACR |= (0xFu << 20);
  400386:	4a0d      	ldr	r2, [pc, #52]	; (4003bc <_init_chip+0x40>)
  400388:	f8d2 3088 	ldr.w	r3, [r2, #136]	; 0x88
  40038c:	f443 0370 	orr.w	r3, r3, #15728640	; 0xf00000
  400390:	f8c2 3088 	str.w	r3, [r2, #136]	; 0x88
  __ASM volatile ("dsb 0xF":::"memory");
  400394:	f3bf 8f4f 	dsb	sy
  __ASM volatile ("isb 0xF":::"memory");
  400398:	f3bf 8f6f 	isb	sy
	__DSB();
	__ISB();
	CRITICAL_SECTION_LEAVE()
  40039c:	a801      	add	r0, sp, #4
  40039e:	4b08      	ldr	r3, [pc, #32]	; (4003c0 <_init_chip+0x44>)
  4003a0:	4798      	blx	r3

static inline void hri_efc_write_EEFC_FMR_FWS_bf(const void *const hw, hri_efc_eefc_fmr_reg_t data)
{
	uint32_t tmp;
	EFC_CRITICAL_SECTION_ENTER();
	tmp = ((Efc *)hw)->EEFC_FMR;
  4003a2:	4a08      	ldr	r2, [pc, #32]	; (4003c4 <_init_chip+0x48>)
  4003a4:	6813      	ldr	r3, [r2, #0]
	tmp &= ~EEFC_FMR_FWS_Msk;
  4003a6:	f423 6370 	bic.w	r3, r3, #3840	; 0xf00
	tmp |= EEFC_FMR_FWS(data);
	((Efc *)hw)->EEFC_FMR = tmp;
  4003aa:	6013      	str	r3, [r2, #0]
#if CONF_MEM2MEM_ENABLE
	_pmc_enable_periph_clock(ID_MEM2MEM);
	_dma_init();

#endif
	_pmc_init();
  4003ac:	4b06      	ldr	r3, [pc, #24]	; (4003c8 <_init_chip+0x4c>)
  4003ae:	4798      	blx	r3
}
  4003b0:	b003      	add	sp, #12
  4003b2:	f85d fb04 	ldr.w	pc, [sp], #4
  4003b6:	bf00      	nop
  4003b8:	004002fd 	.word	0x004002fd
  4003bc:	e000ed00 	.word	0xe000ed00
  4003c0:	0040030b 	.word	0x0040030b
  4003c4:	400e0a00 	.word	0x400e0a00
  4003c8:	004003cd 	.word	0x004003cd

004003cc <_pmc_init>:
}

static inline void hri_pmc_set_CKGR_MOR_reg(const void *const hw, hri_pmc_ckgr_mor_reg_t mask)
{
	PMC_CRITICAL_SECTION_ENTER();
	((Pmc *)hw)->CKGR_MOR |= mask;
  4003cc:	4a1b      	ldr	r2, [pc, #108]	; (40043c <_pmc_init+0x70>)
  4003ce:	6a13      	ldr	r3, [r2, #32]
  4003d0:	f443 135c 	orr.w	r3, r3, #3604480	; 0x370000
  4003d4:	f043 0308 	orr.w	r3, r3, #8
  4003d8:	6213      	str	r3, [r2, #32]
	return (((Pmc *)hw)->PMC_SR & PMC_SR_MOSCSELS) > 0;
}

static inline bool hri_pmc_get_SR_MOSCRCS_bit(const void *const hw)
{
	return (((Pmc *)hw)->PMC_SR & PMC_SR_MOSCRCS) > 0;
  4003da:	6e93      	ldr	r3, [r2, #104]	; 0x68
#if (CONF_PMC_MAINCK_ENABLE == 1)
	uint32_t data = 0;
#if (CONF_PMC_OSC24M_ENABLE && (CONF_PMC_MAINCK_SRC == 0))
	/* Enable Fast RC oscillator but DO NOT switch to RC now */
	hri_pmc_set_CKGR_MOR_reg(PMC, (CKGR_MOR_KEY_PASSWD | CKGR_MOR_MOSCRCEN));
	while (!hri_pmc_get_SR_MOSCRCS_bit(PMC)) {
  4003dc:	f413 3f00 	tst.w	r3, #131072	; 0x20000
  4003e0:	d0fb      	beq.n	4003da <_pmc_init+0xe>
	return ((Pmc *)hw)->CKGR_MOR;
  4003e2:	4a16      	ldr	r2, [pc, #88]	; (40043c <_pmc_init+0x70>)
  4003e4:	6a13      	ldr	r3, [r2, #32]
		/* Wait until the Fast RC to stabilize */
	}
	/* Change Fast RC oscillator frequency */
	data = hri_pmc_read_CKGR_MOR_reg(PMC) & ~CKGR_MOR_MOSCRCF_Msk;
  4003e6:	f023 0370 	bic.w	r3, r3, #112	; 0x70
	data |= CKGR_MOR_KEY_PASSWD | CKGR_MOR_MOSCRCF(CONF_PMC_OSC24M_SELECTOR);
  4003ea:	f443 135c 	orr.w	r3, r3, #3604480	; 0x370000
  4003ee:	f043 0320 	orr.w	r3, r3, #32
	((Pmc *)hw)->CKGR_MOR = data;
  4003f2:	6213      	str	r3, [r2, #32]
	return (((Pmc *)hw)->PMC_SR & PMC_SR_MOSCRCS) > 0;
  4003f4:	6e93      	ldr	r3, [r2, #104]	; 0x68
	hri_pmc_write_CKGR_MOR_reg(PMC, data);
	while (!hri_pmc_get_SR_MOSCRCS_bit(PMC)) {
  4003f6:	f413 3f00 	tst.w	r3, #131072	; 0x20000
  4003fa:	d0fb      	beq.n	4003f4 <_pmc_init+0x28>
	return ((Pmc *)hw)->CKGR_MOR;
  4003fc:	4a0f      	ldr	r2, [pc, #60]	; (40043c <_pmc_init+0x70>)
  4003fe:	6a13      	ldr	r3, [r2, #32]
		/* Wait until the Fast RC to stabilize */
	}
	/* Switch to Fast RC */
	data = hri_pmc_read_CKGR_MOR_reg(PMC) & ~CKGR_MOR_MOSCSEL;
  400400:	f023 7380 	bic.w	r3, r3, #16777216	; 0x1000000
	data |= CKGR_MOR_KEY_PASSWD;
  400404:	f443 135c 	orr.w	r3, r3, #3604480	; 0x370000
	((Pmc *)hw)->CKGR_MOR = data;
  400408:	6213      	str	r3, [r2, #32]
	tmp = ((Pmc *)hw)->PMC_MCKR;
  40040a:	6b13      	ldr	r3, [r2, #48]	; 0x30
	tmp &= ~PMC_MCKR_CSS_Msk;
  40040c:	f023 0303 	bic.w	r3, r3, #3
	tmp |= PMC_MCKR_CSS(data);
  400410:	f043 0301 	orr.w	r3, r3, #1
	((Pmc *)hw)->PMC_MCKR = tmp;
  400414:	6313      	str	r3, [r2, #48]	; 0x30
	return (((Pmc *)hw)->PMC_SR & PMC_SR_MCKRDY) > 0;
  400416:	6e93      	ldr	r3, [r2, #104]	; 0x68
	}
#endif

#if ((CONF_PMC_MCK_SRC == PMC_MCKR_CSS_SLOW_CLK_Val) || (CONF_PMC_MCK_SRC == PMC_MCKR_CSS_MAIN_CLK_Val))
	hri_pmc_write_MCKR_CSS_bf(PMC, CONF_PMC_MCK_SRC);
	while (!hri_pmc_get_SR_MCKRDY_bit(PMC)) {
  400418:	f013 0f08 	tst.w	r3, #8
  40041c:	d0fb      	beq.n	400416 <_pmc_init+0x4a>
	tmp = ((Pmc *)hw)->PMC_MCKR;
  40041e:	4a07      	ldr	r2, [pc, #28]	; (40043c <_pmc_init+0x70>)
  400420:	6b13      	ldr	r3, [r2, #48]	; 0x30
	tmp &= ~PMC_MCKR_PRES_Msk;
  400422:	f023 0370 	bic.w	r3, r3, #112	; 0x70
	((Pmc *)hw)->PMC_MCKR = tmp;
  400426:	6313      	str	r3, [r2, #48]	; 0x30
	return (((Pmc *)hw)->PMC_SR & PMC_SR_MCKRDY) > 0;
  400428:	6e93      	ldr	r3, [r2, #104]	; 0x68
		/* Wait until master clock is ready */
	}
	hri_pmc_write_MCKR_PRES_bf(PMC, CONF_PMC_MCK_PRESC);
	while (!hri_pmc_get_SR_MCKRDY_bit(PMC)) {
  40042a:	f013 0f08 	tst.w	r3, #8
  40042e:	d0fb      	beq.n	400428 <_pmc_init+0x5c>
	((Pmc *)hw)->PMC_USB = data;
  400430:	4b02      	ldr	r3, [pc, #8]	; (40043c <_pmc_init+0x70>)
  400432:	2200      	movs	r2, #0
  400434:	639a      	str	r2, [r3, #56]	; 0x38
	((Pmc *)hw)->PMC_SCER = PMC_SCSR_UDP;
  400436:	2280      	movs	r2, #128	; 0x80
  400438:	601a      	str	r2, [r3, #0]
  40043a:	4770      	bx	lr
  40043c:	400e0400 	.word	0x400e0400

00400440 <_delay_init>:
 * \brief Initialize system time module
 */
void _system_time_init(void *const hw)
{
	(void)hw;
	SysTick->LOAD = (0xFFFFFF << SysTick_LOAD_RELOAD_Pos);
  400440:	4b03      	ldr	r3, [pc, #12]	; (400450 <_delay_init+0x10>)
  400442:	f06f 427f 	mvn.w	r2, #4278190080	; 0xff000000
  400446:	605a      	str	r2, [r3, #4]
	SysTick->CTRL = (1 << SysTick_CTRL_ENABLE_Pos) | (CONF_SYSTICK_TICKINT << SysTick_CTRL_TICKINT_Pos)
  400448:	2205      	movs	r2, #5
  40044a:	601a      	str	r2, [r3, #0]
  40044c:	4770      	bx	lr
  40044e:	bf00      	nop
  400450:	e000e010 	.word	0xe000e010

00400454 <_delay_cycles>:
 * \brief Delay loop to delay n number of cycles
 */
void _delay_cycles(void *const hw, uint32_t cycles)
{
	(void)hw;
	uint8_t  n   = cycles >> 24;
  400454:	0e0b      	lsrs	r3, r1, #24
	uint32_t buf = cycles;

	while (n--) {
  400456:	b303      	cbz	r3, 40049a <_delay_cycles+0x46>
{
  400458:	b430      	push	{r4, r5}
  40045a:	1e5d      	subs	r5, r3, #1
  40045c:	b2ed      	uxtb	r5, r5
	while (n--) {
  40045e:	4628      	mov	r0, r5
		SysTick->LOAD = 0xFFFFFF;
  400460:	4a12      	ldr	r2, [pc, #72]	; (4004ac <_delay_cycles+0x58>)
  400462:	f06f 447f 	mvn.w	r4, #4278190080	; 0xff000000
  400466:	6054      	str	r4, [r2, #4]
		SysTick->VAL  = 0xFFFFFF;
  400468:	6094      	str	r4, [r2, #8]
		while (!(SysTick->CTRL & SysTick_CTRL_COUNTFLAG_Msk))
  40046a:	6813      	ldr	r3, [r2, #0]
  40046c:	f413 3f80 	tst.w	r3, #65536	; 0x10000
  400470:	d0fb      	beq.n	40046a <_delay_cycles+0x16>
	while (n--) {
  400472:	3801      	subs	r0, #1
  400474:	b2c0      	uxtb	r0, r0
  400476:	28ff      	cmp	r0, #255	; 0xff
  400478:	d1f5      	bne.n	400466 <_delay_cycles+0x12>
  40047a:	eba5 6505 	sub.w	r5, r5, r5, lsl #24
  40047e:	f101 417f 	add.w	r1, r1, #4278190080	; 0xff000000
  400482:	3101      	adds	r1, #1
  400484:	4429      	add	r1, r5
			;
		buf -= 0xFFFFFF;
	}

	SysTick->LOAD = buf;
  400486:	4b09      	ldr	r3, [pc, #36]	; (4004ac <_delay_cycles+0x58>)
  400488:	6059      	str	r1, [r3, #4]
	SysTick->VAL  = buf;
  40048a:	6099      	str	r1, [r3, #8]
	while (!(SysTick->CTRL & SysTick_CTRL_COUNTFLAG_Msk))
  40048c:	461a      	mov	r2, r3
  40048e:	6813      	ldr	r3, [r2, #0]
  400490:	f413 3f80 	tst.w	r3, #65536	; 0x10000
  400494:	d0fb      	beq.n	40048e <_delay_cycles+0x3a>
		;
}
  400496:	bc30      	pop	{r4, r5}
  400498:	4770      	bx	lr
	SysTick->LOAD = buf;
  40049a:	4b04      	ldr	r3, [pc, #16]	; (4004ac <_delay_cycles+0x58>)
  40049c:	6059      	str	r1, [r3, #4]
	SysTick->VAL  = buf;
  40049e:	6099      	str	r1, [r3, #8]
	while (!(SysTick->CTRL & SysTick_CTRL_COUNTFLAG_Msk))
  4004a0:	461a      	mov	r2, r3
  4004a2:	6813      	ldr	r3, [r2, #0]
  4004a4:	f413 3f80 	tst.w	r3, #65536	; 0x10000
  4004a8:	d0fb      	beq.n	4004a2 <_delay_cycles+0x4e>
  4004aa:	4770      	bx	lr
  4004ac:	e000e010 	.word	0xe000e010

004004b0 <eink_ite_wait_for_hrdy>:
 * to use. 
 */
/**
 * \brief Wait For Host Ready function.
 */
static void eink_ite_wait_for_hrdy(void) {
  4004b0:	b508      	push	{r3, lr}
	ptr_eink_ite_config->wait_for_hrdy();
  4004b2:	4b02      	ldr	r3, [pc, #8]	; (4004bc <eink_ite_wait_for_hrdy+0xc>)
  4004b4:	681b      	ldr	r3, [r3, #0]
  4004b6:	681b      	ldr	r3, [r3, #0]
  4004b8:	4798      	blx	r3
  4004ba:	bd08      	pop	{r3, pc}
  4004bc:	200003ac 	.word	0x200003ac

004004c0 <gfx_eink_put_display_buffer>:
}

/**
 * \brief Put Display Buffer function.
 */
static void gfx_eink_put_display_buffer(bool refresh_display) {
  4004c0:	b508      	push	{r3, lr}
    ptr_eink_gfx_config->put_display_buffer(refresh_display);
  4004c2:	4b02      	ldr	r3, [pc, #8]	; (4004cc <gfx_eink_put_display_buffer+0xc>)
  4004c4:	681b      	ldr	r3, [r3, #0]
  4004c6:	6a5b      	ldr	r3, [r3, #36]	; 0x24
  4004c8:	4798      	blx	r3
  4004ca:	bd08      	pop	{r3, pc}
  4004cc:	2000042c 	.word	0x2000042c

004004d0 <gfx_eink_set_pixel>:
}

/**
 * \brief Set Pixel function.
 */
static void gfx_eink_set_pixel(eink_coordinate x_set, eink_coordinate y_set, enum eink_pixel_colour pixel_colour) {
  4004d0:	b508      	push	{r3, lr}
    ptr_eink_gfx_config->set_pixel(x_set, y_set, pixel_colour);
  4004d2:	4b02      	ldr	r3, [pc, #8]	; (4004dc <gfx_eink_set_pixel+0xc>)
  4004d4:	681b      	ldr	r3, [r3, #0]
  4004d6:	6adb      	ldr	r3, [r3, #44]	; 0x2c
  4004d8:	4798      	blx	r3
  4004da:	bd08      	pop	{r3, pc}
  4004dc:	2000042c 	.word	0x2000042c

004004e0 <gfx_eink_set_pixel_raw>:
}

/**
 * \brief Set Pixel with raw value function.
 */
static void gfx_eink_set_pixel_raw(eink_coordinate x_set, eink_coordinate y_set, uint8_t pixel_value) {
  4004e0:	b508      	push	{r3, lr}
    ptr_eink_gfx_config->set_pixel_raw(x_set, y_set, pixel_value);
  4004e2:	4b02      	ldr	r3, [pc, #8]	; (4004ec <gfx_eink_set_pixel_raw+0xc>)
  4004e4:	681b      	ldr	r3, [r3, #0]
  4004e6:	6b1b      	ldr	r3, [r3, #48]	; 0x30
  4004e8:	4798      	blx	r3
  4004ea:	bd08      	pop	{r3, pc}
  4004ec:	2000042c 	.word	0x2000042c

004004f0 <gfx_eink_load_mono_image>:
}

/**
 * \brief Load Mono Image function.
 */
static void gfx_eink_load_mono_image(uint8_t *img_array, uint16_t array_size, eink_coordinate image_width_px, eink_coordinate image_height_bytes, eink_coordinate x_place, eink_coordinate y_place, enum eink_pixel_colour foreground_colour, enum eink_pixel_colour background_colour) {
  4004f0:	b530      	push	{r4, r5, lr}
  4004f2:	b085      	sub	sp, #20
    ptr_eink_gfx_config->load_mono_image(img_array, array_size, image_width_px, image_height_bytes, x_place, y_place, foreground_colour, background_colour);
  4004f4:	4c08      	ldr	r4, [pc, #32]	; (400518 <gfx_eink_load_mono_image+0x28>)
  4004f6:	6824      	ldr	r4, [r4, #0]
  4004f8:	f89d 502c 	ldrb.w	r5, [sp, #44]	; 0x2c
  4004fc:	9503      	str	r5, [sp, #12]
  4004fe:	f89d 5028 	ldrb.w	r5, [sp, #40]	; 0x28
  400502:	9502      	str	r5, [sp, #8]
  400504:	f8bd 5024 	ldrh.w	r5, [sp, #36]	; 0x24
  400508:	9501      	str	r5, [sp, #4]
  40050a:	f8bd 5020 	ldrh.w	r5, [sp, #32]
  40050e:	9500      	str	r5, [sp, #0]
  400510:	6b64      	ldr	r4, [r4, #52]	; 0x34
  400512:	47a0      	blx	r4
}
  400514:	b005      	add	sp, #20
  400516:	bd30      	pop	{r4, r5, pc}
  400518:	2000042c 	.word	0x2000042c

0040051c <eink_ed029tc1_graphics_load_mono_image>:
 * \param y_place Y location to place with bitmap.
 * \param foreground_colour Color of the foreground - where bit is equal to 1 in the array.
 * \param eink_pixel_colour Color of the background - where bit is equal to 0 in the array.
 */
void eink_ed029tc1_graphics_load_mono_image(uint8_t *img_array, uint16_t array_size, eink_coordinate image_width_px, eink_coordinate image_height_bytes, eink_coordinate x_place, eink_coordinate y_place, enum eink_pixel_colour foreground_colour, enum eink_pixel_colour background_colour)
{
  40051c:	e92d 4ff0 	stmdb	sp!, {r4, r5, r6, r7, r8, r9, sl, fp, lr}
  400520:	b087      	sub	sp, #28
  400522:	f8bd 9040 	ldrh.w	r9, [sp, #64]	; 0x40
  400526:	f8bd 1044 	ldrh.w	r1, [sp, #68]	; 0x44
  40052a:	9105      	str	r1, [sp, #20]
  40052c:	f89d 7048 	ldrb.w	r7, [sp, #72]	; 0x48
  400530:	f89d 804c 	ldrb.w	r8, [sp, #76]	; 0x4c
    uint16_t buffer_index, i, j;
    uint16_t k, l, m, bit_value;
    
    if(foreground_colour != background_colour) {
  400534:	4547      	cmp	r7, r8
  400536:	d045      	beq.n	4005c4 <eink_ed029tc1_graphics_load_mono_image+0xa8>
        /* Scan pixels by column */
        for (i = 0; i < image_width_px; i++) {
  400538:	2a00      	cmp	r2, #0
  40053a:	d043      	beq.n	4005c4 <eink_ed029tc1_graphics_load_mono_image+0xa8>
  40053c:	4619      	mov	r1, r3
  40053e:	9304      	str	r3, [sp, #16]
  400540:	4613      	mov	r3, r2
  400542:	9102      	str	r1, [sp, #8]
  400544:	1842      	adds	r2, r0, r1
  400546:	9201      	str	r2, [sp, #4]
  400548:	444b      	add	r3, r9
  40054a:	b29b      	uxth	r3, r3
  40054c:	9303      	str	r3, [sp, #12]
                    
                    bit_value = ((img_array[(i*image_height_bytes)+j-1] >> k) & 0x1);
                    if(bit_value) {
                        if(foreground_colour != PIXEL_NONE) gfx_eink_set_pixel((x_place+i), (y_place+(m*8)+k), foreground_colour);
                    } else {
                        if(background_colour != PIXEL_NONE) gfx_eink_set_pixel((x_place+i), (y_place+(m*8)+k), background_colour);
  40054e:	f8df a07c 	ldr.w	sl, [pc, #124]	; 4005cc <eink_ed029tc1_graphics_load_mono_image+0xb0>
  400552:	e02a      	b.n	4005aa <eink_ed029tc1_graphics_load_mono_image+0x8e>
  400554:	f1b8 0f04 	cmp.w	r8, #4
  400558:	d004      	beq.n	400564 <eink_ed029tc1_graphics_load_mono_image+0x48>
  40055a:	1931      	adds	r1, r6, r4
  40055c:	4642      	mov	r2, r8
  40055e:	b289      	uxth	r1, r1
  400560:	4648      	mov	r0, r9
  400562:	47d0      	blx	sl
  400564:	3401      	adds	r4, #1
                for (k = 0; k < 8; k++) {
  400566:	2c08      	cmp	r4, #8
  400568:	d00d      	beq.n	400586 <eink_ed029tc1_graphics_load_mono_image+0x6a>
                    bit_value = ((img_array[(i*image_height_bytes)+j-1] >> k) & 0x1);
  40056a:	f815 3c01 	ldrb.w	r3, [r5, #-1]
  40056e:	4123      	asrs	r3, r4
                    if(bit_value) {
  400570:	f013 0f01 	tst.w	r3, #1
  400574:	d0ee      	beq.n	400554 <eink_ed029tc1_graphics_load_mono_image+0x38>
                        if(foreground_colour != PIXEL_NONE) gfx_eink_set_pixel((x_place+i), (y_place+(m*8)+k), foreground_colour);
  400576:	2f04      	cmp	r7, #4
  400578:	d0f4      	beq.n	400564 <eink_ed029tc1_graphics_load_mono_image+0x48>
  40057a:	1931      	adds	r1, r6, r4
  40057c:	463a      	mov	r2, r7
  40057e:	b289      	uxth	r1, r1
  400580:	4648      	mov	r0, r9
  400582:	47d0      	blx	sl
  400584:	e7ee      	b.n	400564 <eink_ed029tc1_graphics_load_mono_image+0x48>
  400586:	3608      	adds	r6, #8
  400588:	b2b6      	uxth	r6, r6
  40058a:	3d01      	subs	r5, #1
            for (j = image_height_bytes; j > 0; j--) {
  40058c:	455d      	cmp	r5, fp
  40058e:	d001      	beq.n	400594 <eink_ed029tc1_graphics_load_mono_image+0x78>
{
  400590:	2400      	movs	r4, #0
  400592:	e7ea      	b.n	40056a <eink_ed029tc1_graphics_load_mono_image+0x4e>
  400594:	f109 0901 	add.w	r9, r9, #1
  400598:	fa1f f989 	uxth.w	r9, r9
  40059c:	9b01      	ldr	r3, [sp, #4]
  40059e:	9a02      	ldr	r2, [sp, #8]
  4005a0:	4413      	add	r3, r2
  4005a2:	9301      	str	r3, [sp, #4]
        for (i = 0; i < image_width_px; i++) {
  4005a4:	9b03      	ldr	r3, [sp, #12]
  4005a6:	4599      	cmp	r9, r3
  4005a8:	d00c      	beq.n	4005c4 <eink_ed029tc1_graphics_load_mono_image+0xa8>
            for (j = image_height_bytes; j > 0; j--) {
  4005aa:	9b04      	ldr	r3, [sp, #16]
  4005ac:	2b00      	cmp	r3, #0
  4005ae:	d0f1      	beq.n	400594 <eink_ed029tc1_graphics_load_mono_image+0x78>
  4005b0:	f1c3 0b00 	rsb	fp, r3, #0
  4005b4:	ea6f 4b0b 	mvn.w	fp, fp, lsl #16
  4005b8:	ea6f 4b1b 	mvn.w	fp, fp, lsr #16
  4005bc:	9d01      	ldr	r5, [sp, #4]
  4005be:	44ab      	add	fp, r5
  4005c0:	9e05      	ldr	r6, [sp, #20]
  4005c2:	e7e5      	b.n	400590 <eink_ed029tc1_graphics_load_mono_image+0x74>
                m++;
            }
        }
    }
    return;
  4005c4:	b007      	add	sp, #28
  4005c6:	e8bd 8ff0 	ldmia.w	sp!, {r4, r5, r6, r7, r8, r9, sl, fp, pc}
  4005ca:	bf00      	nop
  4005cc:	004004d1 	.word	0x004004d1

004005d0 <eink_el026tr1_graphics_load_mono_image>:
 * \param y_place Y location to place with bitmap.
 * \param foreground_colour Color of the foreground - where bit is equal to 1 in the array.
 * \param eink_pixel_colour Color of the background - where bit is equal to 0 in the array.
 */
void eink_el026tr1_graphics_load_mono_image(uint8_t *img_array, uint16_t array_size, eink_coordinate image_width_px, eink_coordinate image_height_bytes, eink_coordinate x_place, eink_coordinate y_place, enum eink_pixel_colour foreground_colour, enum eink_pixel_colour background_colour)
{
  4005d0:	b510      	push	{r4, lr}
  4005d2:	b084      	sub	sp, #16
    /** Calls the equivalent function but for the ED029TC1 - avoid code repetition */
    eink_ed029tc1_graphics_load_mono_image(img_array, array_size, image_width_px, image_height_bytes, x_place, y_place, foreground_colour, background_colour);
  4005d4:	f89d 4024 	ldrb.w	r4, [sp, #36]	; 0x24
  4005d8:	9403      	str	r4, [sp, #12]
  4005da:	f89d 4020 	ldrb.w	r4, [sp, #32]
  4005de:	9402      	str	r4, [sp, #8]
  4005e0:	f8bd 401c 	ldrh.w	r4, [sp, #28]
  4005e4:	9401      	str	r4, [sp, #4]
  4005e6:	f8bd 4018 	ldrh.w	r4, [sp, #24]
  4005ea:	9400      	str	r4, [sp, #0]
  4005ec:	4c01      	ldr	r4, [pc, #4]	; (4005f4 <eink_el026tr1_graphics_load_mono_image+0x24>)
  4005ee:	47a0      	blx	r4
  4005f0:	b004      	add	sp, #16
  4005f2:	bd10      	pop	{r4, pc}
  4005f4:	0040051d 	.word	0x0040051d

004005f8 <eink_hink_e0154a05_graphics_load_mono_image>:
 * \param y_place Y location to place with bitmap.
 * \param foreground_colour Color of the foreground - where bit is equal to 1 in the array.
 * \param eink_pixel_colour Color of the background - where bit is equal to 0 in the array.
 */
void eink_hink_e0154a05_graphics_load_mono_image(uint8_t *img_array, uint16_t array_size, eink_coordinate image_width_px, eink_coordinate image_height_bytes, eink_coordinate x_place, eink_coordinate y_place, enum eink_pixel_colour foreground_colour, enum eink_pixel_colour background_colour)
{
  4005f8:	e92d 4ff0 	stmdb	sp!, {r4, r5, r6, r7, r8, r9, sl, fp, lr}
  4005fc:	b087      	sub	sp, #28
  4005fe:	f8bd 9040 	ldrh.w	r9, [sp, #64]	; 0x40
  400602:	f8bd 1044 	ldrh.w	r1, [sp, #68]	; 0x44
  400606:	9105      	str	r1, [sp, #20]
  400608:	f89d 7048 	ldrb.w	r7, [sp, #72]	; 0x48
  40060c:	f89d 804c 	ldrb.w	r8, [sp, #76]	; 0x4c
    uint16_t buffer_index, i, j;
    uint16_t k, l, m, bit_value;
    
    if(foreground_colour != background_colour) {
  400610:	4547      	cmp	r7, r8
  400612:	d045      	beq.n	4006a0 <eink_hink_e0154a05_graphics_load_mono_image+0xa8>
        /* Scan pixels by column */
        for (i = 0; i < image_width_px; i++) {
  400614:	2a00      	cmp	r2, #0
  400616:	d043      	beq.n	4006a0 <eink_hink_e0154a05_graphics_load_mono_image+0xa8>
  400618:	4619      	mov	r1, r3
  40061a:	9304      	str	r3, [sp, #16]
  40061c:	4613      	mov	r3, r2
  40061e:	9102      	str	r1, [sp, #8]
  400620:	1842      	adds	r2, r0, r1
  400622:	9201      	str	r2, [sp, #4]
  400624:	444b      	add	r3, r9
  400626:	b29b      	uxth	r3, r3
  400628:	9303      	str	r3, [sp, #12]
                    
                    bit_value = ((img_array[(i*image_height_bytes)+j-1] >> k) & 0x1);
                    if(bit_value) {
                        if(foreground_colour != PIXEL_NONE) gfx_eink_set_pixel((x_place+i), (y_place+(m*8)+k), foreground_colour);
                        } else {
                        if(background_colour != PIXEL_NONE) gfx_eink_set_pixel((x_place+i), (y_place+(m*8)+k), background_colour);
  40062a:	f8df a07c 	ldr.w	sl, [pc, #124]	; 4006a8 <eink_hink_e0154a05_graphics_load_mono_image+0xb0>
  40062e:	e02a      	b.n	400686 <eink_hink_e0154a05_graphics_load_mono_image+0x8e>
  400630:	f1b8 0f04 	cmp.w	r8, #4
  400634:	d004      	beq.n	400640 <eink_hink_e0154a05_graphics_load_mono_image+0x48>
  400636:	1931      	adds	r1, r6, r4
  400638:	4642      	mov	r2, r8
  40063a:	b289      	uxth	r1, r1
  40063c:	4648      	mov	r0, r9
  40063e:	47d0      	blx	sl
  400640:	3401      	adds	r4, #1
                for (k = 0; k < 8; k++) {
  400642:	2c08      	cmp	r4, #8
  400644:	d00d      	beq.n	400662 <eink_hink_e0154a05_graphics_load_mono_image+0x6a>
                    bit_value = ((img_array[(i*image_height_bytes)+j-1] >> k) & 0x1);
  400646:	f815 3c01 	ldrb.w	r3, [r5, #-1]
  40064a:	4123      	asrs	r3, r4
                    if(bit_value) {
  40064c:	f013 0f01 	tst.w	r3, #1
  400650:	d0ee      	beq.n	400630 <eink_hink_e0154a05_graphics_load_mono_image+0x38>
                        if(foreground_colour != PIXEL_NONE) gfx_eink_set_pixel((x_place+i), (y_place+(m*8)+k), foreground_colour);
  400652:	2f04      	cmp	r7, #4
  400654:	d0f4      	beq.n	400640 <eink_hink_e0154a05_graphics_load_mono_image+0x48>
  400656:	1931      	adds	r1, r6, r4
  400658:	463a      	mov	r2, r7
  40065a:	b289      	uxth	r1, r1
  40065c:	4648      	mov	r0, r9
  40065e:	47d0      	blx	sl
  400660:	e7ee      	b.n	400640 <eink_hink_e0154a05_graphics_load_mono_image+0x48>
  400662:	3608      	adds	r6, #8
  400664:	b2b6      	uxth	r6, r6
  400666:	3d01      	subs	r5, #1
            for (j = (image_height_bytes); j > 0; j--) {
  400668:	455d      	cmp	r5, fp
  40066a:	d001      	beq.n	400670 <eink_hink_e0154a05_graphics_load_mono_image+0x78>
{
  40066c:	2400      	movs	r4, #0
  40066e:	e7ea      	b.n	400646 <eink_hink_e0154a05_graphics_load_mono_image+0x4e>
  400670:	f109 0901 	add.w	r9, r9, #1
  400674:	fa1f f989 	uxth.w	r9, r9
  400678:	9b01      	ldr	r3, [sp, #4]
  40067a:	9a02      	ldr	r2, [sp, #8]
  40067c:	4413      	add	r3, r2
  40067e:	9301      	str	r3, [sp, #4]
        for (i = 0; i < image_width_px; i++) {
  400680:	9b03      	ldr	r3, [sp, #12]
  400682:	4599      	cmp	r9, r3
  400684:	d00c      	beq.n	4006a0 <eink_hink_e0154a05_graphics_load_mono_image+0xa8>
            for (j = (image_height_bytes); j > 0; j--) {
  400686:	9b04      	ldr	r3, [sp, #16]
  400688:	2b00      	cmp	r3, #0
  40068a:	d0f1      	beq.n	400670 <eink_hink_e0154a05_graphics_load_mono_image+0x78>
  40068c:	f1c3 0b00 	rsb	fp, r3, #0
  400690:	ea6f 4b0b 	mvn.w	fp, fp, lsl #16
  400694:	ea6f 4b1b 	mvn.w	fp, fp, lsr #16
  400698:	9d01      	ldr	r5, [sp, #4]
  40069a:	44ab      	add	fp, r5
  40069c:	9e05      	ldr	r6, [sp, #20]
  40069e:	e7e5      	b.n	40066c <eink_hink_e0154a05_graphics_load_mono_image+0x74>
                m++;
            }
        }
    }
    return;
  4006a0:	b007      	add	sp, #28
  4006a2:	e8bd 8ff0 	ldmia.w	sp!, {r4, r5, r6, r7, r8, r9, sl, fp, pc}
  4006a6:	bf00      	nop
  4006a8:	004004d1 	.word	0x004004d1

004006ac <eink_ac057tc1_graphics_load_mono_image>:
 * \param y_place Y location to place with bitmap.
 * \param foreground_colour Color of the foreground - where bit is equal to 1 in the array.
 * \param eink_pixel_colour Color of the background - where bit is equal to 0 in the array.
 */
void eink_ac057tc1_graphics_load_mono_image(uint8_t *img_array, uint16_t array_size, eink_coordinate image_width_px, eink_coordinate image_height_bytes, eink_coordinate x_place, eink_coordinate y_place, enum eink_pixel_colour foreground_colour, enum eink_pixel_colour background_colour)
{
  4006ac:	e92d 4ff0 	stmdb	sp!, {r4, r5, r6, r7, r8, r9, sl, fp, lr}
  4006b0:	b087      	sub	sp, #28
  4006b2:	f8bd 1040 	ldrh.w	r1, [sp, #64]	; 0x40
  4006b6:	9105      	str	r1, [sp, #20]
  4006b8:	f89d 7048 	ldrb.w	r7, [sp, #72]	; 0x48
  4006bc:	f89d 804c 	ldrb.w	r8, [sp, #76]	; 0x4c
    uint32_t buffer_index, i, j;
    uint16_t k, l, m, bit_value;
    
    if(foreground_colour != background_colour) {
  4006c0:	4547      	cmp	r7, r8
  4006c2:	d049      	beq.n	400758 <eink_ac057tc1_graphics_load_mono_image+0xac>
        /* Scan pixels by column */
        for (i = 0; i < image_width_px; i++) {
  4006c4:	9203      	str	r2, [sp, #12]
  4006c6:	2a00      	cmp	r2, #0
  4006c8:	d046      	beq.n	400758 <eink_ac057tc1_graphics_load_mono_image+0xac>
  4006ca:	9302      	str	r3, [sp, #8]
  4006cc:	9001      	str	r0, [sp, #4]
  4006ce:	f503 53ff 	add.w	r3, r3, #8160	; 0x1fe0
  4006d2:	331f      	adds	r3, #31
  4006d4:	f8bd 2044 	ldrh.w	r2, [sp, #68]	; 0x44
  4006d8:	eb02 03c3 	add.w	r3, r2, r3, lsl #3
  4006dc:	b29b      	uxth	r3, r3
  4006de:	9304      	str	r3, [sp, #16]
  4006e0:	2300      	movs	r3, #0
  4006e2:	9300      	str	r3, [sp, #0]
                    
                    bit_value = ((img_array[(i*image_height_bytes)+j] >> k) & 0x1);
                    if(bit_value) {
                        if(foreground_colour != PIXEL_NONE) gfx_eink_set_pixel((x_place+i), (y_place+(m*8)+k), foreground_colour);
                    } else {
                        if(background_colour != PIXEL_NONE) gfx_eink_set_pixel((x_place+i), (y_place+(m*8)+k), background_colour);
  4006e4:	f8df a078 	ldr.w	sl, [pc, #120]	; 400760 <eink_ac057tc1_graphics_load_mono_image+0xb4>
  4006e8:	e028      	b.n	40073c <eink_ac057tc1_graphics_load_mono_image+0x90>
  4006ea:	f1b8 0f04 	cmp.w	r8, #4
  4006ee:	d004      	beq.n	4006fa <eink_ac057tc1_graphics_load_mono_image+0x4e>
  4006f0:	1931      	adds	r1, r6, r4
  4006f2:	4642      	mov	r2, r8
  4006f4:	b289      	uxth	r1, r1
  4006f6:	4648      	mov	r0, r9
  4006f8:	47d0      	blx	sl
  4006fa:	3401      	adds	r4, #1
                for (k = 0; k < 8; k++) {
  4006fc:	2c08      	cmp	r4, #8
  4006fe:	d00c      	beq.n	40071a <eink_ac057tc1_graphics_load_mono_image+0x6e>
                    bit_value = ((img_array[(i*image_height_bytes)+j] >> k) & 0x1);
  400700:	782b      	ldrb	r3, [r5, #0]
  400702:	4123      	asrs	r3, r4
                    if(bit_value) {
  400704:	f013 0f01 	tst.w	r3, #1
  400708:	d0ef      	beq.n	4006ea <eink_ac057tc1_graphics_load_mono_image+0x3e>
                        if(foreground_colour != PIXEL_NONE) gfx_eink_set_pixel((x_place+i), (y_place+(m*8)+k), foreground_colour);
  40070a:	2f04      	cmp	r7, #4
  40070c:	d0f5      	beq.n	4006fa <eink_ac057tc1_graphics_load_mono_image+0x4e>
  40070e:	1931      	adds	r1, r6, r4
  400710:	463a      	mov	r2, r7
  400712:	b289      	uxth	r1, r1
  400714:	4648      	mov	r0, r9
  400716:	47d0      	blx	sl
  400718:	e7ef      	b.n	4006fa <eink_ac057tc1_graphics_load_mono_image+0x4e>
  40071a:	3e08      	subs	r6, #8
  40071c:	b2b6      	uxth	r6, r6
  40071e:	3501      	adds	r5, #1
            for (j = 0; j < image_height_bytes; j++) {
  400720:	455d      	cmp	r5, fp
  400722:	d001      	beq.n	400728 <eink_ac057tc1_graphics_load_mono_image+0x7c>
        for (i = 0; i < image_width_px; i++) {
  400724:	2400      	movs	r4, #0
  400726:	e7eb      	b.n	400700 <eink_ac057tc1_graphics_load_mono_image+0x54>
  400728:	9b00      	ldr	r3, [sp, #0]
  40072a:	3301      	adds	r3, #1
  40072c:	9300      	str	r3, [sp, #0]
  40072e:	9a01      	ldr	r2, [sp, #4]
  400730:	9902      	ldr	r1, [sp, #8]
  400732:	440a      	add	r2, r1
  400734:	9201      	str	r2, [sp, #4]
  400736:	9a03      	ldr	r2, [sp, #12]
  400738:	4293      	cmp	r3, r2
  40073a:	d00d      	beq.n	400758 <eink_ac057tc1_graphics_load_mono_image+0xac>
            for (j = 0; j < image_height_bytes; j++) {
  40073c:	9b02      	ldr	r3, [sp, #8]
  40073e:	2b00      	cmp	r3, #0
  400740:	d0f2      	beq.n	400728 <eink_ac057tc1_graphics_load_mono_image+0x7c>
  400742:	9d01      	ldr	r5, [sp, #4]
  400744:	eb05 0b03 	add.w	fp, r5, r3
  400748:	9e04      	ldr	r6, [sp, #16]
                        if(background_colour != PIXEL_NONE) gfx_eink_set_pixel((x_place+i), (y_place+(m*8)+k), background_colour);
  40074a:	9b05      	ldr	r3, [sp, #20]
  40074c:	9a00      	ldr	r2, [sp, #0]
  40074e:	eb03 0902 	add.w	r9, r3, r2
  400752:	fa1f f989 	uxth.w	r9, r9
  400756:	e7e5      	b.n	400724 <eink_ac057tc1_graphics_load_mono_image+0x78>
                }
                m--;        
            }
        }
    }
  400758:	b007      	add	sp, #28
  40075a:	e8bd 8ff0 	ldmia.w	sp!, {r4, r5, r6, r7, r8, r9, sl, fp, pc}
  40075e:	bf00      	nop
  400760:	004004d1 	.word	0x004004d1

00400764 <eink_ed057tc2_graphics_load_mono_image>:
 * \param y_place Y location to place with bitmap.
 * \param foreground_colour Color of the foreground - where bit is equal to 1 in the array.
 * \param eink_pixel_colour Color of the background - where bit is equal to 0 in the array.
 */
void eink_ed057tc2_graphics_load_mono_image(uint8_t *img_array, uint16_t array_size, eink_coordinate image_width_px, eink_coordinate image_height_bytes, eink_coordinate x_place, eink_coordinate y_place, enum eink_pixel_colour foreground_colour, enum eink_pixel_colour background_colour)
{
  400764:	e92d 4ff0 	stmdb	sp!, {r4, r5, r6, r7, r8, r9, sl, fp, lr}
  400768:	b087      	sub	sp, #28
  40076a:	f8bd 1040 	ldrh.w	r1, [sp, #64]	; 0x40
  40076e:	9105      	str	r1, [sp, #20]
  400770:	f89d 7048 	ldrb.w	r7, [sp, #72]	; 0x48
  400774:	f89d 804c 	ldrb.w	r8, [sp, #76]	; 0x4c
    uint32_t buffer_index, i, j;
    uint16_t k, l, m, bit_value;
    
    if(foreground_colour != background_colour) {
  400778:	4547      	cmp	r7, r8
  40077a:	d049      	beq.n	400810 <eink_ed057tc2_graphics_load_mono_image+0xac>
        /* Scan pixels by column */
        for (i = 0; i < image_width_px; i++) {
  40077c:	9203      	str	r2, [sp, #12]
  40077e:	2a00      	cmp	r2, #0
  400780:	d046      	beq.n	400810 <eink_ed057tc2_graphics_load_mono_image+0xac>
  400782:	9302      	str	r3, [sp, #8]
  400784:	9001      	str	r0, [sp, #4]
  400786:	f503 53ff 	add.w	r3, r3, #8160	; 0x1fe0
  40078a:	331f      	adds	r3, #31
  40078c:	f8bd 2044 	ldrh.w	r2, [sp, #68]	; 0x44
  400790:	eb02 03c3 	add.w	r3, r2, r3, lsl #3
  400794:	b29b      	uxth	r3, r3
  400796:	9304      	str	r3, [sp, #16]
  400798:	2300      	movs	r3, #0
  40079a:	9300      	str	r3, [sp, #0]
                    
                    bit_value = ((img_array[(i*image_height_bytes)+j] >> k) & 0x1);
                    if(bit_value) {
                        if(foreground_colour != PIXEL_NONE) gfx_eink_set_pixel((x_place+i), (y_place+(m*8)+k), foreground_colour);
                    } else {
                        if(background_colour != PIXEL_NONE) gfx_eink_set_pixel((x_place+i), (y_place+(m*8)+k), background_colour);
  40079c:	f8df a078 	ldr.w	sl, [pc, #120]	; 400818 <eink_ed057tc2_graphics_load_mono_image+0xb4>
  4007a0:	e028      	b.n	4007f4 <eink_ed057tc2_graphics_load_mono_image+0x90>
  4007a2:	f1b8 0f04 	cmp.w	r8, #4
  4007a6:	d004      	beq.n	4007b2 <eink_ed057tc2_graphics_load_mono_image+0x4e>
  4007a8:	1931      	adds	r1, r6, r4
  4007aa:	4642      	mov	r2, r8
  4007ac:	b289      	uxth	r1, r1
  4007ae:	4648      	mov	r0, r9
  4007b0:	47d0      	blx	sl
  4007b2:	3401      	adds	r4, #1
                for (k = 0; k < 8; k++) {
  4007b4:	2c08      	cmp	r4, #8
  4007b6:	d00c      	beq.n	4007d2 <eink_ed057tc2_graphics_load_mono_image+0x6e>
                    bit_value = ((img_array[(i*image_height_bytes)+j] >> k) & 0x1);
  4007b8:	782b      	ldrb	r3, [r5, #0]
  4007ba:	4123      	asrs	r3, r4
                    if(bit_value) {
  4007bc:	f013 0f01 	tst.w	r3, #1
  4007c0:	d0ef      	beq.n	4007a2 <eink_ed057tc2_graphics_load_mono_image+0x3e>
                        if(foreground_colour != PIXEL_NONE) gfx_eink_set_pixel((x_place+i), (y_place+(m*8)+k), foreground_colour);
  4007c2:	2f04      	cmp	r7, #4
  4007c4:	d0f5      	beq.n	4007b2 <eink_ed057tc2_graphics_load_mono_image+0x4e>
  4007c6:	1931      	adds	r1, r6, r4
  4007c8:	463a      	mov	r2, r7
  4007ca:	b289      	uxth	r1, r1
  4007cc:	4648      	mov	r0, r9
  4007ce:	47d0      	blx	sl
  4007d0:	e7ef      	b.n	4007b2 <eink_ed057tc2_graphics_load_mono_image+0x4e>
  4007d2:	3e08      	subs	r6, #8
  4007d4:	b2b6      	uxth	r6, r6
  4007d6:	3501      	adds	r5, #1
            for (j = 0; j < image_height_bytes; j++) {
  4007d8:	455d      	cmp	r5, fp
  4007da:	d001      	beq.n	4007e0 <eink_ed057tc2_graphics_load_mono_image+0x7c>
        for (i = 0; i < image_width_px; i++) {
  4007dc:	2400      	movs	r4, #0
  4007de:	e7eb      	b.n	4007b8 <eink_ed057tc2_graphics_load_mono_image+0x54>
  4007e0:	9b00      	ldr	r3, [sp, #0]
  4007e2:	3301      	adds	r3, #1
  4007e4:	9300      	str	r3, [sp, #0]
  4007e6:	9a01      	ldr	r2, [sp, #4]
  4007e8:	9902      	ldr	r1, [sp, #8]
  4007ea:	440a      	add	r2, r1
  4007ec:	9201      	str	r2, [sp, #4]
  4007ee:	9a03      	ldr	r2, [sp, #12]
  4007f0:	4293      	cmp	r3, r2
  4007f2:	d00d      	beq.n	400810 <eink_ed057tc2_graphics_load_mono_image+0xac>
            for (j = 0; j < image_height_bytes; j++) {
  4007f4:	9b02      	ldr	r3, [sp, #8]
  4007f6:	2b00      	cmp	r3, #0
  4007f8:	d0f2      	beq.n	4007e0 <eink_ed057tc2_graphics_load_mono_image+0x7c>
  4007fa:	9d01      	ldr	r5, [sp, #4]
  4007fc:	eb05 0b03 	add.w	fp, r5, r3
  400800:	9e04      	ldr	r6, [sp, #16]
                        if(background_colour != PIXEL_NONE) gfx_eink_set_pixel((x_place+i), (y_place+(m*8)+k), background_colour);
  400802:	9b05      	ldr	r3, [sp, #20]
  400804:	9a00      	ldr	r2, [sp, #0]
  400806:	eb03 0902 	add.w	r9, r3, r2
  40080a:	fa1f f989 	uxth.w	r9, r9
  40080e:	e7e5      	b.n	4007dc <eink_ed057tc2_graphics_load_mono_image+0x78>
                }
                m--;        
            }
        }
    }
  400810:	b007      	add	sp, #28
  400812:	e8bd 8ff0 	ldmia.w	sp!, {r4, r5, r6, r7, r8, r9, sl, fp, pc}
  400816:	bf00      	nop
  400818:	004004d1 	.word	0x004004d1

0040081c <eink_ed028tc1_graphics_load_mono_image>:
 * \param y_place Y location to place with bitmap.
 * \param foreground_colour Color of the foreground - where bit is equal to 1 in the array.
 * \param eink_pixel_colour Color of the background - where bit is equal to 0 in the array.
 */
void eink_ed028tc1_graphics_load_mono_image(uint8_t *img_array, uint16_t array_size, eink_coordinate image_width_px, eink_coordinate image_height_bytes, eink_coordinate x_place, eink_coordinate y_place, enum eink_pixel_colour foreground_colour, enum eink_pixel_colour background_colour)
{
  40081c:	e92d 4ff0 	stmdb	sp!, {r4, r5, r6, r7, r8, r9, sl, fp, lr}
  400820:	b089      	sub	sp, #36	; 0x24
  400822:	f8bd 1048 	ldrh.w	r1, [sp, #72]	; 0x48
  400826:	9106      	str	r1, [sp, #24]
  400828:	f8bd 104c 	ldrh.w	r1, [sp, #76]	; 0x4c
  40082c:	9107      	str	r1, [sp, #28]
  40082e:	f89d 8050 	ldrb.w	r8, [sp, #80]	; 0x50
  400832:	f89d 9054 	ldrb.w	r9, [sp, #84]	; 0x54
    uint16_t buffer_index, i, j;
    uint16_t k, l, m, bit_value;
    
    if(foreground_colour != background_colour) {
  400836:	45c8      	cmp	r8, r9
  400838:	d043      	beq.n	4008c2 <eink_ed028tc1_graphics_load_mono_image+0xa6>
        /* Scan pixels by column */
        for (i = 0; i < image_width_px; i++) {
  40083a:	2a00      	cmp	r2, #0
  40083c:	d041      	beq.n	4008c2 <eink_ed028tc1_graphics_load_mono_image+0xa6>
  40083e:	9305      	str	r3, [sp, #20]
  400840:	9204      	str	r2, [sp, #16]
  400842:	9002      	str	r0, [sp, #8]
  400844:	2300      	movs	r3, #0
  400846:	9303      	str	r3, [sp, #12]
                    
                    bit_value = ((img_array[(i*image_height_bytes)+j] >> k) & 0x1);
                    if(bit_value) {
                        if(foreground_colour != PIXEL_NONE) gfx_eink_set_pixel((x_place+i), (y_place+(m*8)+k), foreground_colour);
                    } else {
                        if(background_colour != PIXEL_NONE) gfx_eink_set_pixel((x_place+i), (y_place+(m*8)+k), background_colour);
  400848:	f8df a07c 	ldr.w	sl, [pc, #124]	; 4008c8 <eink_ed028tc1_graphics_load_mono_image+0xac>
  40084c:	e02a      	b.n	4008a4 <eink_ed028tc1_graphics_load_mono_image+0x88>
  40084e:	f1b9 0f04 	cmp.w	r9, #4
  400852:	d004      	beq.n	40085e <eink_ed028tc1_graphics_load_mono_image+0x42>
  400854:	1931      	adds	r1, r6, r4
  400856:	464a      	mov	r2, r9
  400858:	b289      	uxth	r1, r1
  40085a:	9801      	ldr	r0, [sp, #4]
  40085c:	47d0      	blx	sl
  40085e:	3401      	adds	r4, #1
                for (k = 0; k < 8; k++) {
  400860:	2c08      	cmp	r4, #8
  400862:	d00d      	beq.n	400880 <eink_ed028tc1_graphics_load_mono_image+0x64>
                    bit_value = ((img_array[(i*image_height_bytes)+j] >> k) & 0x1);
  400864:	782b      	ldrb	r3, [r5, #0]
  400866:	4123      	asrs	r3, r4
                    if(bit_value) {
  400868:	f013 0f01 	tst.w	r3, #1
  40086c:	d0ef      	beq.n	40084e <eink_ed028tc1_graphics_load_mono_image+0x32>
                        if(foreground_colour != PIXEL_NONE) gfx_eink_set_pixel((x_place+i), (y_place+(m*8)+k), foreground_colour);
  40086e:	f1b8 0f04 	cmp.w	r8, #4
  400872:	d0f4      	beq.n	40085e <eink_ed028tc1_graphics_load_mono_image+0x42>
  400874:	1931      	adds	r1, r6, r4
  400876:	4642      	mov	r2, r8
  400878:	b289      	uxth	r1, r1
  40087a:	9801      	ldr	r0, [sp, #4]
  40087c:	47d0      	blx	sl
  40087e:	e7ee      	b.n	40085e <eink_ed028tc1_graphics_load_mono_image+0x42>
            for (j = (image_height_bytes-1); j > 0; j--) {
  400880:	3f01      	subs	r7, #1
  400882:	b2bf      	uxth	r7, r7
  400884:	3608      	adds	r6, #8
  400886:	b2b6      	uxth	r6, r6
  400888:	b12f      	cbz	r7, 400896 <eink_ed028tc1_graphics_load_mono_image+0x7a>
                    bit_value = ((img_array[(i*image_height_bytes)+j] >> k) & 0x1);
  40088a:	eb07 050b 	add.w	r5, r7, fp
  40088e:	9b02      	ldr	r3, [sp, #8]
  400890:	441d      	add	r5, r3
  400892:	2400      	movs	r4, #0
  400894:	e7e6      	b.n	400864 <eink_ed028tc1_graphics_load_mono_image+0x48>
        for (i = 0; i < image_width_px; i++) {
  400896:	9b03      	ldr	r3, [sp, #12]
  400898:	3301      	adds	r3, #1
  40089a:	b29b      	uxth	r3, r3
  40089c:	9303      	str	r3, [sp, #12]
  40089e:	9a04      	ldr	r2, [sp, #16]
  4008a0:	429a      	cmp	r2, r3
  4008a2:	d90e      	bls.n	4008c2 <eink_ed028tc1_graphics_load_mono_image+0xa6>
            for (j = (image_height_bytes-1); j > 0; j--) {
  4008a4:	9a05      	ldr	r2, [sp, #20]
  4008a6:	4613      	mov	r3, r2
  4008a8:	1e57      	subs	r7, r2, #1
  4008aa:	b2bf      	uxth	r7, r7
  4008ac:	2f00      	cmp	r7, #0
  4008ae:	d0f2      	beq.n	400896 <eink_ed028tc1_graphics_load_mono_image+0x7a>
                    bit_value = ((img_array[(i*image_height_bytes)+j] >> k) & 0x1);
  4008b0:	9903      	ldr	r1, [sp, #12]
  4008b2:	fb03 fb01 	mul.w	fp, r3, r1
  4008b6:	9e07      	ldr	r6, [sp, #28]
                        if(background_colour != PIXEL_NONE) gfx_eink_set_pixel((x_place+i), (y_place+(m*8)+k), background_colour);
  4008b8:	9b06      	ldr	r3, [sp, #24]
  4008ba:	440b      	add	r3, r1
  4008bc:	b29b      	uxth	r3, r3
  4008be:	9301      	str	r3, [sp, #4]
  4008c0:	e7e3      	b.n	40088a <eink_ed028tc1_graphics_load_mono_image+0x6e>
                m++;
            }
        }
    }
    return;
}
  4008c2:	b009      	add	sp, #36	; 0x24
  4008c4:	e8bd 8ff0 	ldmia.w	sp!, {r4, r5, r6, r7, r8, r9, sl, fp, pc}
  4008c8:	004004d1 	.word	0x004004d1

004008cc <it8951_wait_for_hrdy>:
 *
 * This functions will read the IT8951's busy status by reading the HRDY pin and will
 * hold the MCU until it returns HIGH again.
 */
static inline void it8951_wait_for_hrdy(void)
{
  4008cc:	4770      	bx	lr
	...

004008d0 <eink_interface_init>:
 *
 * \note Initializes the display controller hardware interface, regardless
 * of driver IC, interface or display. Takes definitions from conf_eink.h.
 */
static void eink_interface_init(uint8_t f_init)
{
  4008d0:	b4f0      	push	{r4, r5, r6, r7}
	((Pio *)hw)->PIO_OER = mask;
  4008d2:	4b22      	ldr	r3, [pc, #136]	; (40095c <eink_interface_init+0x8c>)
  4008d4:	f04f 6280 	mov.w	r2, #67108864	; 0x4000000
  4008d8:	611a      	str	r2, [r3, #16]
  4008da:	f44f 3200 	mov.w	r2, #131072	; 0x20000
  4008de:	611a      	str	r2, [r3, #16]
  4008e0:	f44f 6200 	mov.w	r2, #2048	; 0x800
  4008e4:	611a      	str	r2, [r3, #16]
  4008e6:	f44f 5200 	mov.w	r2, #8192	; 0x2000
  4008ea:	611a      	str	r2, [r3, #16]
  4008ec:	f44f 5280 	mov.w	r2, #4096	; 0x1000
  4008f0:	611a      	str	r2, [r3, #16]
  4008f2:	f44f 4280 	mov.w	r2, #16384	; 0x4000
  4008f6:	611a      	str	r2, [r3, #16]
#endif
#ifdef EINK_SPI_SCL
    gpio_set_pin_direction(EINK_SPI_SCL, GPIO_DIRECTION_OUT);
#endif
    
    if(f_init) {
  4008f8:	bb08      	cbnz	r0, 40093e <eink_interface_init+0x6e>
	((Pio *)hw)->PIO_CODR = mask;
  4008fa:	4b18      	ldr	r3, [pc, #96]	; (40095c <eink_interface_init+0x8c>)
  4008fc:	f04f 6780 	mov.w	r7, #67108864	; 0x4000000
  400900:	635f      	str	r7, [r3, #52]	; 0x34
	((Pio *)hw)->PIO_SODR = mask;
  400902:	f44f 3600 	mov.w	r6, #131072	; 0x20000
  400906:	631e      	str	r6, [r3, #48]	; 0x30
  400908:	f44f 6500 	mov.w	r5, #2048	; 0x800
  40090c:	631d      	str	r5, [r3, #48]	; 0x30
  40090e:	f44f 5400 	mov.w	r4, #8192	; 0x2000
  400912:	631c      	str	r4, [r3, #48]	; 0x30
	((Pio *)hw)->PIO_CODR = mask;
  400914:	f44f 5080 	mov.w	r0, #4096	; 0x1000
  400918:	6358      	str	r0, [r3, #52]	; 0x34
  40091a:	f44f 4180 	mov.w	r1, #16384	; 0x4000
  40091e:	6359      	str	r1, [r3, #52]	; 0x34
	((Pio *)hw)->PIO_ODR = mask;
  400920:	f04f 7200 	mov.w	r2, #33554432	; 0x2000000
  400924:	615a      	str	r2, [r3, #20]
	((Pio *)hw)->PIO_PPDDR = mask;
  400926:	f8c3 2090 	str.w	r2, [r3, #144]	; 0x90
	((Pio *)hw)->PIO_PUER = mask;
  40092a:	665a      	str	r2, [r3, #100]	; 0x64
	((Pio *)hw)->PIO_PER = mask;
  40092c:	601f      	str	r7, [r3, #0]
  40092e:	601e      	str	r6, [r3, #0]
  400930:	601d      	str	r5, [r3, #0]
  400932:	601c      	str	r4, [r3, #0]
  400934:	6018      	str	r0, [r3, #0]
  400936:	6019      	str	r1, [r3, #0]
  400938:	601a      	str	r2, [r3, #0]
#endif
    
#ifdef EINK_BUSY
    gpio_set_pin_function(EINK_BUSY, GPIO_PIN_FUNCTION_OFF);
#endif
}
  40093a:	bcf0      	pop	{r4, r5, r6, r7}
  40093c:	4770      	bx	lr
	((Pio *)hw)->PIO_ODR = mask;
  40093e:	f503 7300 	add.w	r3, r3, #512	; 0x200
  400942:	f44f 6280 	mov.w	r2, #1024	; 0x400
  400946:	615a      	str	r2, [r3, #20]
	((Pio *)hw)->PIO_PPDDR = mask;
  400948:	f8c3 2090 	str.w	r2, [r3, #144]	; 0x90
	((Pio *)hw)->PIO_PUER = mask;
  40094c:	665a      	str	r2, [r3, #100]	; 0x64
	((Pio *)hw)->PIO_PER = mask;
  40094e:	601a      	str	r2, [r3, #0]
	((Pio *)hw)->PIO_OER = mask;
  400950:	f44f 6200 	mov.w	r2, #2048	; 0x800
  400954:	611a      	str	r2, [r3, #16]
	((Pio *)hw)->PIO_SODR = mask;
  400956:	631a      	str	r2, [r3, #48]	; 0x30
	((Pio *)hw)->PIO_PER = mask;
  400958:	601a      	str	r2, [r3, #0]
  40095a:	e7ce      	b.n	4008fa <eink_interface_init+0x2a>
  40095c:	400e0e00 	.word	0x400e0e00

00400960 <eink_send_raw_byte>:
 * \param send_byte Data byte to write.
 */
void eink_send_raw_byte(
        uint8_t send_byte,
        uint8_t f_send)
{    
  400960:	b430      	push	{r4, r5}
    uint8_t i;
	
#ifdef EINK_CSB 
    if(!f_send)
  400962:	460d      	mov	r5, r1
  400964:	b919      	cbnz	r1, 40096e <eink_send_raw_byte+0xe>
	((Pio *)hw)->PIO_CODR = mask;
  400966:	f44f 6200 	mov.w	r2, #2048	; 0x800
  40096a:	4b0e      	ldr	r3, [pc, #56]	; (4009a4 <eink_send_raw_byte+0x44>)
  40096c:	635a      	str	r2, [r3, #52]	; 0x34
{    
  40096e:	2308      	movs	r3, #8
  400970:	4a0c      	ldr	r2, [pc, #48]	; (4009a4 <eink_send_raw_byte+0x44>)
  400972:	f44f 5480 	mov.w	r4, #4096	; 0x1000
	((Pio *)hw)->PIO_SODR = mask;
  400976:	f44f 4180 	mov.w	r1, #16384	; 0x4000
        gpio_set_pin_level(EINK_CSB, 0);
#endif
    /* Loop through each bit of our byte to send */
    for (i=0;i<8;i++) {
#ifdef EINK_SPI_SDA
        if (send_byte & 0x80) {
  40097a:	f010 0f80 	tst.w	r0, #128	; 0x80
  40097e:	bf14      	ite	ne
  400980:	6314      	strne	r4, [r2, #48]	; 0x30
	((Pio *)hw)->PIO_CODR = mask;
  400982:	6354      	streq	r4, [r2, #52]	; 0x34
	((Pio *)hw)->PIO_SODR = mask;
  400984:	6311      	str	r1, [r2, #48]	; 0x30
            gpio_set_pin_level(EINK_SPI_SDA, 0);
        }
#endif
#ifdef EINK_SPI_SCL
        gpio_set_pin_level(EINK_SPI_SCL, 1);
        send_byte=send_byte << 1;
  400986:	0040      	lsls	r0, r0, #1
  400988:	b2c0      	uxtb	r0, r0
	((Pio *)hw)->PIO_CODR = mask;
  40098a:	6351      	str	r1, [r2, #52]	; 0x34
  40098c:	3b01      	subs	r3, #1
    for (i=0;i<8;i++) {
  40098e:	f013 03ff 	ands.w	r3, r3, #255	; 0xff
  400992:	d1f2      	bne.n	40097a <eink_send_raw_byte+0x1a>
        gpio_set_pin_level(EINK_SPI_SCL, 0);
#endif
    }
#ifdef EINK_CSB
    if(!f_send)
  400994:	b91d      	cbnz	r5, 40099e <eink_send_raw_byte+0x3e>
	((Pio *)hw)->PIO_SODR = mask;
  400996:	f44f 6200 	mov.w	r2, #2048	; 0x800
  40099a:	4b02      	ldr	r3, [pc, #8]	; (4009a4 <eink_send_raw_byte+0x44>)
  40099c:	631a      	str	r2, [r3, #48]	; 0x30
        /* Set CSB HIGH to end communication to the display */
        gpio_set_pin_level(EINK_CSB, 1);
#endif
}
  40099e:	bc30      	pop	{r4, r5}
  4009a0:	4770      	bx	lr
  4009a2:	bf00      	nop
  4009a4:	400e0e00 	.word	0x400e0e00

004009a8 <eink_write_data>:
{    
  4009a8:	b5f8      	push	{r3, r4, r5, r6, r7, lr}
  4009aa:	460c      	mov	r4, r1
  4009ac:	4615      	mov	r5, r2
	((Pio *)hw)->PIO_CODR = mask;
  4009ae:	4e0b      	ldr	r6, [pc, #44]	; (4009dc <eink_write_data+0x34>)
  4009b0:	f44f 3700 	mov.w	r7, #131072	; 0x20000
  4009b4:	6377      	str	r7, [r6, #52]	; 0x34
  4009b6:	f44f 6300 	mov.w	r3, #2048	; 0x800
  4009ba:	6373      	str	r3, [r6, #52]	; 0x34
    eink_send_raw_byte(command, f_send);
  4009bc:	2100      	movs	r1, #0
  4009be:	4b08      	ldr	r3, [pc, #32]	; (4009e0 <eink_write_data+0x38>)
  4009c0:	4798      	blx	r3
	((Pio *)hw)->PIO_SODR = mask;
  4009c2:	6337      	str	r7, [r6, #48]	; 0x30
    if (data_bytes != 0) {
  4009c4:	b145      	cbz	r5, 4009d8 <eink_write_data+0x30>
  4009c6:	4425      	add	r5, r4
            eink_send_raw_byte(*data, f_send);
  4009c8:	2700      	movs	r7, #0
  4009ca:	4e05      	ldr	r6, [pc, #20]	; (4009e0 <eink_write_data+0x38>)
  4009cc:	4639      	mov	r1, r7
  4009ce:	f814 0b01 	ldrb.w	r0, [r4], #1
  4009d2:	47b0      	blx	r6
        for (i=0;i<data_bytes;i++) {
  4009d4:	42a5      	cmp	r5, r4
  4009d6:	d1f9      	bne.n	4009cc <eink_write_data+0x24>
  4009d8:	bdf8      	pop	{r3, r4, r5, r6, r7, pc}
  4009da:	bf00      	nop
  4009dc:	400e0e00 	.word	0x400e0e00
  4009e0:	00400961 	.word	0x00400961

004009e4 <eink_ed029tc1_refresh_display_buffer>:
    
/**
 * \brief Send the refresh command to the display driver.
 */
static inline void eink_ed029tc1_refresh_display_buffer(void)
{
  4009e4:	b510      	push	{r4, lr}
    /* Enable power to the display */
    eink_write_data(UC8151_PON, 0, 0);
  4009e6:	2200      	movs	r2, #0
  4009e8:	4611      	mov	r1, r2
  4009ea:	2004      	movs	r0, #4
  4009ec:	4c0a      	ldr	r4, [pc, #40]	; (400a18 <eink_ed029tc1_refresh_display_buffer+0x34>)
  4009ee:	47a0      	blx	r4
    
    /* Send the Refresh Display command */
    eink_write_data(UC8151_DRF, 0, 0);
  4009f0:	2200      	movs	r2, #0
  4009f2:	4611      	mov	r1, r2
  4009f4:	2012      	movs	r0, #18
  4009f6:	47a0      	blx	r4
	return tmp;
}

static inline hri_pio_pdsr_reg_t hri_pio_read_PDSR_reg(const void *const hw)
{
	return ((Pio *)hw)->PIO_PDSR;
  4009f8:	4a08      	ldr	r2, [pc, #32]	; (400a1c <eink_ed029tc1_refresh_display_buffer+0x38>)
  4009fa:	6bd3      	ldr	r3, [r2, #60]	; 0x3c
 * hold the MCU until it returns HIGH again.
 */
static inline void uc8151_wait_for_busy(void)
{
#ifdef EINK_BUSY
    while(!gpio_get_pin_level(EINK_BUSY));
  4009fc:	f013 7f00 	tst.w	r3, #33554432	; 0x2000000
  400a00:	d0fb      	beq.n	4009fa <eink_ed029tc1_refresh_display_buffer+0x16>
    uc8151_wait_for_busy();
    
    /* Disable power to the display */
    eink_write_data(UC8151_POF, 0, 0);
  400a02:	2200      	movs	r2, #0
  400a04:	4611      	mov	r1, r2
  400a06:	2002      	movs	r0, #2
  400a08:	4b03      	ldr	r3, [pc, #12]	; (400a18 <eink_ed029tc1_refresh_display_buffer+0x34>)
  400a0a:	4798      	blx	r3
  400a0c:	4a03      	ldr	r2, [pc, #12]	; (400a1c <eink_ed029tc1_refresh_display_buffer+0x38>)
  400a0e:	6bd3      	ldr	r3, [r2, #60]	; 0x3c
  400a10:	f013 7f00 	tst.w	r3, #33554432	; 0x2000000
  400a14:	d0fb      	beq.n	400a0e <eink_ed029tc1_refresh_display_buffer+0x2a>
    uc8151_wait_for_busy();
}
  400a16:	bd10      	pop	{r4, pc}
  400a18:	004009a9 	.word	0x004009a9
  400a1c:	400e0e00 	.word	0x400e0e00

00400a20 <eink_ed029tc1_put_display_buffer>:
{
  400a20:	b538      	push	{r3, r4, r5, lr}
  400a22:	4605      	mov	r5, r0
    eink_write_data(UC8151_PON, 0, 0);
  400a24:	2200      	movs	r2, #0
  400a26:	4611      	mov	r1, r2
  400a28:	2004      	movs	r0, #4
  400a2a:	4c23      	ldr	r4, [pc, #140]	; (400ab8 <eink_ed029tc1_put_display_buffer+0x98>)
  400a2c:	47a0      	blx	r4
    eink_write_data(UC8151_DTM1, ptr_eink_gfx_config->display_buffer_1_ptr, GFX_ED029TC1_DISPLAY_BUFFER_SIZE);
  400a2e:	4b23      	ldr	r3, [pc, #140]	; (400abc <eink_ed029tc1_put_display_buffer+0x9c>)
  400a30:	681b      	ldr	r3, [r3, #0]
  400a32:	f44f 5294 	mov.w	r2, #4736	; 0x1280
  400a36:	6919      	ldr	r1, [r3, #16]
  400a38:	2010      	movs	r0, #16
  400a3a:	47a0      	blx	r4
    eink_write_data(UC8151_DSP, 0, 0);
  400a3c:	2200      	movs	r2, #0
  400a3e:	4611      	mov	r1, r2
  400a40:	2011      	movs	r0, #17
  400a42:	47a0      	blx	r4
  400a44:	4a1e      	ldr	r2, [pc, #120]	; (400ac0 <eink_ed029tc1_put_display_buffer+0xa0>)
  400a46:	6bd3      	ldr	r3, [r2, #60]	; 0x3c
  400a48:	f013 7f00 	tst.w	r3, #33554432	; 0x2000000
  400a4c:	d0fb      	beq.n	400a46 <eink_ed029tc1_put_display_buffer+0x26>
    eink_write_data(UC8151_DTM2, ptr_eink_gfx_config->display_buffer_2_ptr, GFX_ED029TC1_DISPLAY_BUFFER_SIZE);
  400a4e:	4b1b      	ldr	r3, [pc, #108]	; (400abc <eink_ed029tc1_put_display_buffer+0x9c>)
  400a50:	681b      	ldr	r3, [r3, #0]
  400a52:	f44f 5294 	mov.w	r2, #4736	; 0x1280
  400a56:	6959      	ldr	r1, [r3, #20]
  400a58:	2013      	movs	r0, #19
  400a5a:	4c17      	ldr	r4, [pc, #92]	; (400ab8 <eink_ed029tc1_put_display_buffer+0x98>)
  400a5c:	47a0      	blx	r4
    eink_write_data(UC8151_DSP, 0, 0);
  400a5e:	2200      	movs	r2, #0
  400a60:	4611      	mov	r1, r2
  400a62:	2011      	movs	r0, #17
  400a64:	47a0      	blx	r4
  400a66:	4a16      	ldr	r2, [pc, #88]	; (400ac0 <eink_ed029tc1_put_display_buffer+0xa0>)
  400a68:	6bd3      	ldr	r3, [r2, #60]	; 0x3c
  400a6a:	f013 7f00 	tst.w	r3, #33554432	; 0x2000000
  400a6e:	d0fb      	beq.n	400a68 <eink_ed029tc1_put_display_buffer+0x48>
    if(refresh_display) {
  400a70:	b9bd      	cbnz	r5, 400aa2 <eink_ed029tc1_put_display_buffer+0x82>
    eink_write_data(UC8151_POF, 0, 0);
  400a72:	2200      	movs	r2, #0
  400a74:	4611      	mov	r1, r2
  400a76:	2002      	movs	r0, #2
  400a78:	4b0f      	ldr	r3, [pc, #60]	; (400ab8 <eink_ed029tc1_put_display_buffer+0x98>)
  400a7a:	4798      	blx	r3
  400a7c:	4a10      	ldr	r2, [pc, #64]	; (400ac0 <eink_ed029tc1_put_display_buffer+0xa0>)
  400a7e:	6bd3      	ldr	r3, [r2, #60]	; 0x3c
  400a80:	f013 7f00 	tst.w	r3, #33554432	; 0x2000000
  400a84:	d0fb      	beq.n	400a7e <eink_ed029tc1_put_display_buffer+0x5e>
    if (uc8151_global_instance.panel_settings.display_colours == B_W_PIXELS) {
  400a86:	4b0f      	ldr	r3, [pc, #60]	; (400ac4 <eink_ed029tc1_put_display_buffer+0xa4>)
  400a88:	789b      	ldrb	r3, [r3, #2]
  400a8a:	b94b      	cbnz	r3, 400aa0 <eink_ed029tc1_put_display_buffer+0x80>
            ptr_eink_gfx_config->display_buffer_1_ptr[i] = ptr_eink_gfx_config->display_buffer_2_ptr[i];
  400a8c:	480b      	ldr	r0, [pc, #44]	; (400abc <eink_ed029tc1_put_display_buffer+0x9c>)
  400a8e:	6802      	ldr	r2, [r0, #0]
  400a90:	6951      	ldr	r1, [r2, #20]
  400a92:	5cc9      	ldrb	r1, [r1, r3]
  400a94:	6912      	ldr	r2, [r2, #16]
  400a96:	54d1      	strb	r1, [r2, r3]
  400a98:	3301      	adds	r3, #1
        for (i=0;i<GFX_ED029TC1_DISPLAY_BUFFER_SIZE;i++) {
  400a9a:	f5b3 5f94 	cmp.w	r3, #4736	; 0x1280
  400a9e:	d1f6      	bne.n	400a8e <eink_ed029tc1_put_display_buffer+0x6e>
  400aa0:	bd38      	pop	{r3, r4, r5, pc}
        eink_write_data(UC8151_DRF, 0, 0);
  400aa2:	2200      	movs	r2, #0
  400aa4:	4611      	mov	r1, r2
  400aa6:	2012      	movs	r0, #18
  400aa8:	4b03      	ldr	r3, [pc, #12]	; (400ab8 <eink_ed029tc1_put_display_buffer+0x98>)
  400aaa:	4798      	blx	r3
  400aac:	4a04      	ldr	r2, [pc, #16]	; (400ac0 <eink_ed029tc1_put_display_buffer+0xa0>)
  400aae:	6bd3      	ldr	r3, [r2, #60]	; 0x3c
  400ab0:	f013 7f00 	tst.w	r3, #33554432	; 0x2000000
  400ab4:	d0fb      	beq.n	400aae <eink_ed029tc1_put_display_buffer+0x8e>
  400ab6:	e7dc      	b.n	400a72 <eink_ed029tc1_put_display_buffer+0x52>
  400ab8:	004009a9 	.word	0x004009a9
  400abc:	2000042c 	.word	0x2000042c
  400ac0:	400e0e00 	.word	0x400e0e00
  400ac4:	20000408 	.word	0x20000408

00400ac8 <eink_el026tr1_refresh_display_buffer>:
    
/**
 * \brief Send the refresh command to the display driver.
 */
static inline void eink_el026tr1_refresh_display_buffer(void)
{
  400ac8:	b510      	push	{r4, lr}
    /* Enable power to the display */
    eink_write_data(UC8151_PON, 0, 0);
  400aca:	2200      	movs	r2, #0
  400acc:	4611      	mov	r1, r2
  400ace:	2004      	movs	r0, #4
  400ad0:	4c0a      	ldr	r4, [pc, #40]	; (400afc <eink_el026tr1_refresh_display_buffer+0x34>)
  400ad2:	47a0      	blx	r4
    
    /* Send the Refresh Display command */
    eink_write_data(UC8151_DRF, 0, 0);
  400ad4:	2200      	movs	r2, #0
  400ad6:	4611      	mov	r1, r2
  400ad8:	2012      	movs	r0, #18
  400ada:	47a0      	blx	r4
  400adc:	4a08      	ldr	r2, [pc, #32]	; (400b00 <eink_el026tr1_refresh_display_buffer+0x38>)
  400ade:	6bd3      	ldr	r3, [r2, #60]	; 0x3c
  400ae0:	f013 7f00 	tst.w	r3, #33554432	; 0x2000000
  400ae4:	d0fb      	beq.n	400ade <eink_el026tr1_refresh_display_buffer+0x16>
    uc8151_wait_for_busy();
    
    /* Disable power to the display */
    eink_write_data(UC8151_POF, 0, 0);
  400ae6:	2200      	movs	r2, #0
  400ae8:	4611      	mov	r1, r2
  400aea:	2002      	movs	r0, #2
  400aec:	4b03      	ldr	r3, [pc, #12]	; (400afc <eink_el026tr1_refresh_display_buffer+0x34>)
  400aee:	4798      	blx	r3
  400af0:	4a03      	ldr	r2, [pc, #12]	; (400b00 <eink_el026tr1_refresh_display_buffer+0x38>)
  400af2:	6bd3      	ldr	r3, [r2, #60]	; 0x3c
  400af4:	f013 7f00 	tst.w	r3, #33554432	; 0x2000000
  400af8:	d0fb      	beq.n	400af2 <eink_el026tr1_refresh_display_buffer+0x2a>
    uc8151_wait_for_busy();
}
  400afa:	bd10      	pop	{r4, pc}
  400afc:	004009a9 	.word	0x004009a9
  400b00:	400e0e00 	.word	0x400e0e00

00400b04 <eink_el026tr1_put_display_buffer>:
{
  400b04:	b538      	push	{r3, r4, r5, lr}
  400b06:	4605      	mov	r5, r0
    eink_write_data(UC8151_PON, 0, 0);
  400b08:	2200      	movs	r2, #0
  400b0a:	4611      	mov	r1, r2
  400b0c:	2004      	movs	r0, #4
  400b0e:	4c1d      	ldr	r4, [pc, #116]	; (400b84 <eink_el026tr1_put_display_buffer+0x80>)
  400b10:	47a0      	blx	r4
    eink_write_data(UC8151_DTM1, ptr_eink_gfx_config->display_buffer_1_ptr, GFX_EL026TR1_DISPLAY_BUFFER_SIZE);
  400b12:	4b1d      	ldr	r3, [pc, #116]	; (400b88 <eink_el026tr1_put_display_buffer+0x84>)
  400b14:	681b      	ldr	r3, [r3, #0]
  400b16:	f241 52f8 	movw	r2, #5624	; 0x15f8
  400b1a:	6919      	ldr	r1, [r3, #16]
  400b1c:	2010      	movs	r0, #16
  400b1e:	47a0      	blx	r4
    eink_write_data(UC8151_DSP, 0, 0);
  400b20:	2200      	movs	r2, #0
  400b22:	4611      	mov	r1, r2
  400b24:	2011      	movs	r0, #17
  400b26:	47a0      	blx	r4
  400b28:	4a18      	ldr	r2, [pc, #96]	; (400b8c <eink_el026tr1_put_display_buffer+0x88>)
  400b2a:	6bd3      	ldr	r3, [r2, #60]	; 0x3c
  400b2c:	f013 7f00 	tst.w	r3, #33554432	; 0x2000000
  400b30:	d0fb      	beq.n	400b2a <eink_el026tr1_put_display_buffer+0x26>
    eink_write_data(UC8151_DTM2, ptr_eink_gfx_config->display_buffer_2_ptr, GFX_EL026TR1_DISPLAY_BUFFER_SIZE);
  400b32:	4b15      	ldr	r3, [pc, #84]	; (400b88 <eink_el026tr1_put_display_buffer+0x84>)
  400b34:	681b      	ldr	r3, [r3, #0]
  400b36:	f241 52f8 	movw	r2, #5624	; 0x15f8
  400b3a:	6959      	ldr	r1, [r3, #20]
  400b3c:	2013      	movs	r0, #19
  400b3e:	4c11      	ldr	r4, [pc, #68]	; (400b84 <eink_el026tr1_put_display_buffer+0x80>)
  400b40:	47a0      	blx	r4
    eink_write_data(UC8151_DSP, 0, 0);
  400b42:	2200      	movs	r2, #0
  400b44:	4611      	mov	r1, r2
  400b46:	2011      	movs	r0, #17
  400b48:	47a0      	blx	r4
  400b4a:	4a10      	ldr	r2, [pc, #64]	; (400b8c <eink_el026tr1_put_display_buffer+0x88>)
  400b4c:	6bd3      	ldr	r3, [r2, #60]	; 0x3c
  400b4e:	f013 7f00 	tst.w	r3, #33554432	; 0x2000000
  400b52:	d0fb      	beq.n	400b4c <eink_el026tr1_put_display_buffer+0x48>
    if(refresh_display) {
  400b54:	b955      	cbnz	r5, 400b6c <eink_el026tr1_put_display_buffer+0x68>
    eink_write_data(UC8151_POF, 0, 0);
  400b56:	2200      	movs	r2, #0
  400b58:	4611      	mov	r1, r2
  400b5a:	2002      	movs	r0, #2
  400b5c:	4b09      	ldr	r3, [pc, #36]	; (400b84 <eink_el026tr1_put_display_buffer+0x80>)
  400b5e:	4798      	blx	r3
  400b60:	4a0a      	ldr	r2, [pc, #40]	; (400b8c <eink_el026tr1_put_display_buffer+0x88>)
  400b62:	6bd3      	ldr	r3, [r2, #60]	; 0x3c
  400b64:	f013 7f00 	tst.w	r3, #33554432	; 0x2000000
  400b68:	d0fb      	beq.n	400b62 <eink_el026tr1_put_display_buffer+0x5e>
}
  400b6a:	bd38      	pop	{r3, r4, r5, pc}
        eink_write_data(UC8151_DRF, 0, 0);
  400b6c:	2200      	movs	r2, #0
  400b6e:	4611      	mov	r1, r2
  400b70:	2012      	movs	r0, #18
  400b72:	4b04      	ldr	r3, [pc, #16]	; (400b84 <eink_el026tr1_put_display_buffer+0x80>)
  400b74:	4798      	blx	r3
  400b76:	4a05      	ldr	r2, [pc, #20]	; (400b8c <eink_el026tr1_put_display_buffer+0x88>)
  400b78:	6bd3      	ldr	r3, [r2, #60]	; 0x3c
  400b7a:	f013 7f00 	tst.w	r3, #33554432	; 0x2000000
  400b7e:	d0fb      	beq.n	400b78 <eink_el026tr1_put_display_buffer+0x74>
  400b80:	e7e9      	b.n	400b56 <eink_el026tr1_put_display_buffer+0x52>
  400b82:	bf00      	nop
  400b84:	004009a9 	.word	0x004009a9
  400b88:	2000042c 	.word	0x2000042c
  400b8c:	400e0e00 	.word	0x400e0e00

00400b90 <eink_hink_e0154a05_refresh_display_buffer>:
    
/**
 * \brief Send the refresh command to the display driver.
 */
static inline void eink_hink_e0154a05_refresh_display_buffer(void)
{
  400b90:	b500      	push	{lr}
  400b92:	b083      	sub	sp, #12
    uint8_t eink_data[1];
    uint8_t temperature_value = 20;
    
    if(ssd1608_global_instance.display_config.lut_selection == SSD1608_LUT_REGISTER)
  400b94:	4b14      	ldr	r3, [pc, #80]	; (400be8 <eink_hink_e0154a05_refresh_display_buffer+0x58>)
  400b96:	785b      	ldrb	r3, [r3, #1]
  400b98:	b2db      	uxtb	r3, r3
  400b9a:	2b01      	cmp	r3, #1
  400b9c:	d019      	beq.n	400bd2 <eink_hink_e0154a05_refresh_display_buffer+0x42>
            eink_data[0] = 0xC7; /* Register LUT Update - HINK-E0154A05 */
        else
            eink_data[0] = 0xFF; /* Register LUT Update - HINK-E0154A45 */
        
    } else {
        eink_data[0] = 0xF7; /* OTP LUT Update */
  400b9e:	23f7      	movs	r3, #247	; 0xf7
  400ba0:	f88d 3004 	strb.w	r3, [sp, #4]
    }

    /* Display Update Control 2 */
    eink_write_data(SSD1608_DUC2, eink_data, 1);
  400ba4:	2201      	movs	r2, #1
  400ba6:	a901      	add	r1, sp, #4
  400ba8:	2022      	movs	r0, #34	; 0x22
  400baa:	4b10      	ldr	r3, [pc, #64]	; (400bec <eink_hink_e0154a05_refresh_display_buffer+0x5c>)
  400bac:	4798      	blx	r3
  400bae:	4a10      	ldr	r2, [pc, #64]	; (400bf0 <eink_hink_e0154a05_refresh_display_buffer+0x60>)
  400bb0:	6bd3      	ldr	r3, [r2, #60]	; 0x3c
 * hold the MCU until it returns LOW again.
 */
static inline void ssd1608_wait_for_busy(void)
{
#ifdef EINK_BUSY
	while(gpio_get_pin_level(EINK_BUSY));
  400bb2:	f013 7f00 	tst.w	r3, #33554432	; 0x2000000
  400bb6:	d1fb      	bne.n	400bb0 <eink_hink_e0154a05_refresh_display_buffer+0x20>
    ssd1608_wait_for_busy();
    
    /* Master Activation */
    eink_write_data(SSD1608_MA, 0, 0);
  400bb8:	2200      	movs	r2, #0
  400bba:	4611      	mov	r1, r2
  400bbc:	2020      	movs	r0, #32
  400bbe:	4b0b      	ldr	r3, [pc, #44]	; (400bec <eink_hink_e0154a05_refresh_display_buffer+0x5c>)
  400bc0:	4798      	blx	r3
  400bc2:	4a0b      	ldr	r2, [pc, #44]	; (400bf0 <eink_hink_e0154a05_refresh_display_buffer+0x60>)
  400bc4:	6bd3      	ldr	r3, [r2, #60]	; 0x3c
  400bc6:	f013 7f00 	tst.w	r3, #33554432	; 0x2000000
  400bca:	d1fb      	bne.n	400bc4 <eink_hink_e0154a05_refresh_display_buffer+0x34>
    ssd1608_wait_for_busy();
}
  400bcc:	b003      	add	sp, #12
  400bce:	f85d fb04 	ldr.w	pc, [sp], #4
        if(ssd1608_global_instance.display_config.display_part_no == SSD1608_HINK_E0154A05)
  400bd2:	4b05      	ldr	r3, [pc, #20]	; (400be8 <eink_hink_e0154a05_refresh_display_buffer+0x58>)
  400bd4:	789b      	ldrb	r3, [r3, #2]
  400bd6:	b91b      	cbnz	r3, 400be0 <eink_hink_e0154a05_refresh_display_buffer+0x50>
            eink_data[0] = 0xC7; /* Register LUT Update - HINK-E0154A05 */
  400bd8:	23c7      	movs	r3, #199	; 0xc7
  400bda:	f88d 3004 	strb.w	r3, [sp, #4]
  400bde:	e7e1      	b.n	400ba4 <eink_hink_e0154a05_refresh_display_buffer+0x14>
            eink_data[0] = 0xFF; /* Register LUT Update - HINK-E0154A45 */
  400be0:	23ff      	movs	r3, #255	; 0xff
  400be2:	f88d 3004 	strb.w	r3, [sp, #4]
  400be6:	e7dd      	b.n	400ba4 <eink_hink_e0154a05_refresh_display_buffer+0x14>
  400be8:	200003c8 	.word	0x200003c8
  400bec:	004009a9 	.word	0x004009a9
  400bf0:	400e0e00 	.word	0x400e0e00

00400bf4 <eink_ac057tc1_refresh_display_buffer>:
    
/**
 * \brief Send the refresh command to the display driver.
 */
static inline void eink_ac057tc1_refresh_display_buffer(void)
{
  400bf4:	b510      	push	{r4, lr}
    /* Enable power to the display */
    eink_write_data(UC8159_PON, 0, 0);
  400bf6:	2200      	movs	r2, #0
  400bf8:	4611      	mov	r1, r2
  400bfa:	2004      	movs	r0, #4
  400bfc:	4c0a      	ldr	r4, [pc, #40]	; (400c28 <eink_ac057tc1_refresh_display_buffer+0x34>)
  400bfe:	47a0      	blx	r4
    
    /* Send the Refresh Display command */
    eink_write_data(UC8159_DRF, 0, 0);
  400c00:	2200      	movs	r2, #0
  400c02:	4611      	mov	r1, r2
  400c04:	2012      	movs	r0, #18
  400c06:	47a0      	blx	r4
  400c08:	4a08      	ldr	r2, [pc, #32]	; (400c2c <eink_ac057tc1_refresh_display_buffer+0x38>)
  400c0a:	6bd3      	ldr	r3, [r2, #60]	; 0x3c
 * hold the MCU until it returns HIGH again.
 */
static inline void uc8159_wait_for_busy(void)
{
#ifdef EINK_BUSY
	while(!gpio_get_pin_level(EINK_BUSY));
  400c0c:	f013 7f00 	tst.w	r3, #33554432	; 0x2000000
  400c10:	d0fb      	beq.n	400c0a <eink_ac057tc1_refresh_display_buffer+0x16>
    uc8159_wait_for_busy();
    
    /* Disable power to the display */
    eink_write_data(UC8159_POF, 0, 0);
  400c12:	2200      	movs	r2, #0
  400c14:	4611      	mov	r1, r2
  400c16:	2002      	movs	r0, #2
  400c18:	4b03      	ldr	r3, [pc, #12]	; (400c28 <eink_ac057tc1_refresh_display_buffer+0x34>)
  400c1a:	4798      	blx	r3
  400c1c:	4a03      	ldr	r2, [pc, #12]	; (400c2c <eink_ac057tc1_refresh_display_buffer+0x38>)
  400c1e:	6bd3      	ldr	r3, [r2, #60]	; 0x3c
  400c20:	f013 7f00 	tst.w	r3, #33554432	; 0x2000000
  400c24:	d0fb      	beq.n	400c1e <eink_ac057tc1_refresh_display_buffer+0x2a>
    uc8159_wait_for_busy();
}
  400c26:	bd10      	pop	{r4, pc}
  400c28:	004009a9 	.word	0x004009a9
  400c2c:	400e0e00 	.word	0x400e0e00

00400c30 <eink_ac057tc1_put_display_buffer>:
{
  400c30:	b538      	push	{r3, r4, r5, lr}
  400c32:	4605      	mov	r5, r0
    eink_write_data(UC8159_DTM1, ptr_eink_gfx_config->display_buffer_1_ptr, GFX_AC057TC1_DISPLAY_BUFFER_SIZE);
  400c34:	4b13      	ldr	r3, [pc, #76]	; (400c84 <eink_ac057tc1_put_display_buffer+0x54>)
  400c36:	681b      	ldr	r3, [r3, #0]
  400c38:	4a13      	ldr	r2, [pc, #76]	; (400c88 <eink_ac057tc1_put_display_buffer+0x58>)
  400c3a:	6919      	ldr	r1, [r3, #16]
  400c3c:	2010      	movs	r0, #16
  400c3e:	4c13      	ldr	r4, [pc, #76]	; (400c8c <eink_ac057tc1_put_display_buffer+0x5c>)
  400c40:	47a0      	blx	r4
    eink_write_data(UC8159_PON, 0, 0);
  400c42:	2200      	movs	r2, #0
  400c44:	4611      	mov	r1, r2
  400c46:	2004      	movs	r0, #4
  400c48:	47a0      	blx	r4
  400c4a:	4a11      	ldr	r2, [pc, #68]	; (400c90 <eink_ac057tc1_put_display_buffer+0x60>)
  400c4c:	6bd3      	ldr	r3, [r2, #60]	; 0x3c
  400c4e:	f013 7f00 	tst.w	r3, #33554432	; 0x2000000
  400c52:	d0fb      	beq.n	400c4c <eink_ac057tc1_put_display_buffer+0x1c>
    if(refresh_display) {
  400c54:	b955      	cbnz	r5, 400c6c <eink_ac057tc1_put_display_buffer+0x3c>
    eink_write_data(UC8159_POF, 0, 0);
  400c56:	2200      	movs	r2, #0
  400c58:	4611      	mov	r1, r2
  400c5a:	2002      	movs	r0, #2
  400c5c:	4b0b      	ldr	r3, [pc, #44]	; (400c8c <eink_ac057tc1_put_display_buffer+0x5c>)
  400c5e:	4798      	blx	r3
  400c60:	4a0b      	ldr	r2, [pc, #44]	; (400c90 <eink_ac057tc1_put_display_buffer+0x60>)
  400c62:	6bd3      	ldr	r3, [r2, #60]	; 0x3c
  400c64:	f013 7f00 	tst.w	r3, #33554432	; 0x2000000
  400c68:	d0fb      	beq.n	400c62 <eink_ac057tc1_put_display_buffer+0x32>
}
  400c6a:	bd38      	pop	{r3, r4, r5, pc}
        eink_write_data(UC8159_DRF, 0, 0);
  400c6c:	2200      	movs	r2, #0
  400c6e:	4611      	mov	r1, r2
  400c70:	2012      	movs	r0, #18
  400c72:	4b06      	ldr	r3, [pc, #24]	; (400c8c <eink_ac057tc1_put_display_buffer+0x5c>)
  400c74:	4798      	blx	r3
  400c76:	4a06      	ldr	r2, [pc, #24]	; (400c90 <eink_ac057tc1_put_display_buffer+0x60>)
  400c78:	6bd3      	ldr	r3, [r2, #60]	; 0x3c
  400c7a:	f013 7f00 	tst.w	r3, #33554432	; 0x2000000
  400c7e:	d0fb      	beq.n	400c78 <eink_ac057tc1_put_display_buffer+0x48>
  400c80:	e7e9      	b.n	400c56 <eink_ac057tc1_put_display_buffer+0x26>
  400c82:	bf00      	nop
  400c84:	2000042c 	.word	0x2000042c
  400c88:	00020d00 	.word	0x00020d00
  400c8c:	004009a9 	.word	0x004009a9
  400c90:	400e0e00 	.word	0x400e0e00

00400c94 <eink_ed057tc2_refresh_display_buffer>:
    
/**
 * \brief Send the refresh command to the display driver.
 */
static inline void eink_ed057tc2_refresh_display_buffer(void)
{
  400c94:	b510      	push	{r4, lr}
    /* Enable power to the display */
    eink_write_data(UC8159_PON, 0, 0);
  400c96:	2200      	movs	r2, #0
  400c98:	4611      	mov	r1, r2
  400c9a:	2004      	movs	r0, #4
  400c9c:	4c0a      	ldr	r4, [pc, #40]	; (400cc8 <eink_ed057tc2_refresh_display_buffer+0x34>)
  400c9e:	47a0      	blx	r4
    
    /* Send the Refresh Display command */
    eink_write_data(UC8159_DRF, 0, 0);
  400ca0:	2200      	movs	r2, #0
  400ca2:	4611      	mov	r1, r2
  400ca4:	2012      	movs	r0, #18
  400ca6:	47a0      	blx	r4
  400ca8:	4a08      	ldr	r2, [pc, #32]	; (400ccc <eink_ed057tc2_refresh_display_buffer+0x38>)
  400caa:	6bd3      	ldr	r3, [r2, #60]	; 0x3c
  400cac:	f013 7f00 	tst.w	r3, #33554432	; 0x2000000
  400cb0:	d0fb      	beq.n	400caa <eink_ed057tc2_refresh_display_buffer+0x16>
    uc8159_wait_for_busy();
    
    /* Disable power to the display */
    eink_write_data(UC8159_POF, 0, 0);
  400cb2:	2200      	movs	r2, #0
  400cb4:	4611      	mov	r1, r2
  400cb6:	2002      	movs	r0, #2
  400cb8:	4b03      	ldr	r3, [pc, #12]	; (400cc8 <eink_ed057tc2_refresh_display_buffer+0x34>)
  400cba:	4798      	blx	r3
  400cbc:	4a03      	ldr	r2, [pc, #12]	; (400ccc <eink_ed057tc2_refresh_display_buffer+0x38>)
  400cbe:	6bd3      	ldr	r3, [r2, #60]	; 0x3c
  400cc0:	f013 7f00 	tst.w	r3, #33554432	; 0x2000000
  400cc4:	d0fb      	beq.n	400cbe <eink_ed057tc2_refresh_display_buffer+0x2a>
    uc8159_wait_for_busy();
}
  400cc6:	bd10      	pop	{r4, pc}
  400cc8:	004009a9 	.word	0x004009a9
  400ccc:	400e0e00 	.word	0x400e0e00

00400cd0 <eink_ed057tc2_put_display_buffer>:
{
  400cd0:	b538      	push	{r3, r4, r5, lr}
  400cd2:	4605      	mov	r5, r0
    eink_write_data(UC8159_PON, 0, 0);
  400cd4:	2200      	movs	r2, #0
  400cd6:	4611      	mov	r1, r2
  400cd8:	2004      	movs	r0, #4
  400cda:	4c14      	ldr	r4, [pc, #80]	; (400d2c <eink_ed057tc2_put_display_buffer+0x5c>)
  400cdc:	47a0      	blx	r4
    eink_write_data(UC8159_DTM1, ptr_eink_gfx_config->display_buffer_1_ptr, GFX_ED057TC2_DISPLAY_BUFFER_SIZE);
  400cde:	4b14      	ldr	r3, [pc, #80]	; (400d30 <eink_ed057tc2_put_display_buffer+0x60>)
  400ce0:	681b      	ldr	r3, [r3, #0]
  400ce2:	4a14      	ldr	r2, [pc, #80]	; (400d34 <eink_ed057tc2_put_display_buffer+0x64>)
  400ce4:	6919      	ldr	r1, [r3, #16]
  400ce6:	2010      	movs	r0, #16
  400ce8:	47a0      	blx	r4
    eink_write_data(UC8159_DSP, 0, 0);
  400cea:	2200      	movs	r2, #0
  400cec:	4611      	mov	r1, r2
  400cee:	2011      	movs	r0, #17
  400cf0:	47a0      	blx	r4
  400cf2:	4a11      	ldr	r2, [pc, #68]	; (400d38 <eink_ed057tc2_put_display_buffer+0x68>)
  400cf4:	6bd3      	ldr	r3, [r2, #60]	; 0x3c
  400cf6:	f013 7f00 	tst.w	r3, #33554432	; 0x2000000
  400cfa:	d0fb      	beq.n	400cf4 <eink_ed057tc2_put_display_buffer+0x24>
    if(refresh_display) {
  400cfc:	b955      	cbnz	r5, 400d14 <eink_ed057tc2_put_display_buffer+0x44>
    eink_write_data(UC8159_POF, 0, 0);
  400cfe:	2200      	movs	r2, #0
  400d00:	4611      	mov	r1, r2
  400d02:	2002      	movs	r0, #2
  400d04:	4b09      	ldr	r3, [pc, #36]	; (400d2c <eink_ed057tc2_put_display_buffer+0x5c>)
  400d06:	4798      	blx	r3
  400d08:	4a0b      	ldr	r2, [pc, #44]	; (400d38 <eink_ed057tc2_put_display_buffer+0x68>)
  400d0a:	6bd3      	ldr	r3, [r2, #60]	; 0x3c
  400d0c:	f013 7f00 	tst.w	r3, #33554432	; 0x2000000
  400d10:	d0fb      	beq.n	400d0a <eink_ed057tc2_put_display_buffer+0x3a>
}
  400d12:	bd38      	pop	{r3, r4, r5, pc}
        eink_write_data(UC8159_DRF, 0, 0);
  400d14:	2200      	movs	r2, #0
  400d16:	4611      	mov	r1, r2
  400d18:	2012      	movs	r0, #18
  400d1a:	4b04      	ldr	r3, [pc, #16]	; (400d2c <eink_ed057tc2_put_display_buffer+0x5c>)
  400d1c:	4798      	blx	r3
  400d1e:	4a06      	ldr	r2, [pc, #24]	; (400d38 <eink_ed057tc2_put_display_buffer+0x68>)
  400d20:	6bd3      	ldr	r3, [r2, #60]	; 0x3c
  400d22:	f013 7f00 	tst.w	r3, #33554432	; 0x2000000
  400d26:	d0fb      	beq.n	400d20 <eink_ed057tc2_put_display_buffer+0x50>
  400d28:	e7e9      	b.n	400cfe <eink_ed057tc2_put_display_buffer+0x2e>
  400d2a:	bf00      	nop
  400d2c:	004009a9 	.word	0x004009a9
  400d30:	2000042c 	.word	0x2000042c
  400d34:	00020d00 	.word	0x00020d00
  400d38:	400e0e00 	.word	0x400e0e00

00400d3c <eink_ed028tc1_refresh_display_buffer>:
    
/**
 * \brief Send the refresh command to the display driver.
 */
static inline void eink_ed028tc1_refresh_display_buffer(void)
{
  400d3c:	b570      	push	{r4, r5, r6, lr}
  400d3e:	b084      	sub	sp, #16
    uint8_t eink_data[9];
    
    /* Enable power to the display */
    eink_write_data(UC8177_PON, 0, 0);
  400d40:	2200      	movs	r2, #0
  400d42:	4611      	mov	r1, r2
  400d44:	2004      	movs	r0, #4
  400d46:	4b17      	ldr	r3, [pc, #92]	; (400da4 <eink_ed028tc1_refresh_display_buffer+0x68>)
  400d48:	4798      	blx	r3
  400d4a:	4a17      	ldr	r2, [pc, #92]	; (400da8 <eink_ed028tc1_refresh_display_buffer+0x6c>)
  400d4c:	6bd3      	ldr	r3, [r2, #60]	; 0x3c
 * hold the MCU until it returns HIGH again.
 */
static inline void uc8177_wait_for_busy_low(void)
{
#ifdef EINK_BUSY
	while(!gpio_get_pin_level(EINK_BUSY));
  400d4e:	f013 7f00 	tst.w	r3, #33554432	; 0x2000000
  400d52:	d0fb      	beq.n	400d4c <eink_ed028tc1_refresh_display_buffer+0x10>
    
    uc8177_wait_for_busy_low();
    
    /* Display Refresh */
    eink_data[0] = 0x18; /* Update Mode 1 */
  400d54:	2318      	movs	r3, #24
  400d56:	f88d 3004 	strb.w	r3, [sp, #4]
    eink_data[1] = 0x00; /* X = 0 */
  400d5a:	2400      	movs	r4, #0
  400d5c:	f88d 4005 	strb.w	r4, [sp, #5]
    eink_data[2] = 0x00;
  400d60:	f88d 4006 	strb.w	r4, [sp, #6]
    eink_data[3] = 0x00; /* Y = 0 */
  400d64:	f88d 4007 	strb.w	r4, [sp, #7]
    eink_data[4] = 0x00;
  400d68:	f88d 4008 	strb.w	r4, [sp, #8]
    eink_data[5] = 0x02; /* W = 600 */
  400d6c:	2602      	movs	r6, #2
  400d6e:	f88d 6009 	strb.w	r6, [sp, #9]
    eink_data[6] = 0x58;
  400d72:	2358      	movs	r3, #88	; 0x58
  400d74:	f88d 300a 	strb.w	r3, [sp, #10]
    eink_data[7] = 0x01; /* H = 480 */
  400d78:	2301      	movs	r3, #1
  400d7a:	f88d 300b 	strb.w	r3, [sp, #11]
    eink_data[8] = 0xE0;
  400d7e:	23e0      	movs	r3, #224	; 0xe0
  400d80:	f88d 300c 	strb.w	r3, [sp, #12]
    eink_write_data(UC8177_DRF, eink_data, 9);
  400d84:	2209      	movs	r2, #9
  400d86:	a901      	add	r1, sp, #4
  400d88:	2012      	movs	r0, #18
  400d8a:	4d06      	ldr	r5, [pc, #24]	; (400da4 <eink_ed028tc1_refresh_display_buffer+0x68>)
  400d8c:	47a8      	blx	r5
    
    /* Disable power to the display */
    eink_write_data(UC8177_POF, 0, 0);
  400d8e:	4622      	mov	r2, r4
  400d90:	4621      	mov	r1, r4
  400d92:	4630      	mov	r0, r6
  400d94:	47a8      	blx	r5
  400d96:	4a04      	ldr	r2, [pc, #16]	; (400da8 <eink_ed028tc1_refresh_display_buffer+0x6c>)
  400d98:	6bd3      	ldr	r3, [r2, #60]	; 0x3c
  400d9a:	f013 7f00 	tst.w	r3, #33554432	; 0x2000000
  400d9e:	d0fb      	beq.n	400d98 <eink_ed028tc1_refresh_display_buffer+0x5c>
    uc8177_wait_for_busy_low();
}
  400da0:	b004      	add	sp, #16
  400da2:	bd70      	pop	{r4, r5, r6, pc}
  400da4:	004009a9 	.word	0x004009a9
  400da8:	400e0e00 	.word	0x400e0e00

00400dac <eink_hink_e0154a05_put_display_buffer>:
{
  400dac:	e92d 41f0 	stmdb	sp!, {r4, r5, r6, r7, r8, lr}
  400db0:	b082      	sub	sp, #8
  400db2:	4680      	mov	r8, r0
    eink_data[0] = 0x7D;
  400db4:	ac02      	add	r4, sp, #8
  400db6:	237d      	movs	r3, #125	; 0x7d
  400db8:	f804 3d04 	strb.w	r3, [r4, #-4]!
    eink_write_data(SSD1608_WVCOM, eink_data, 1);
  400dbc:	2201      	movs	r2, #1
  400dbe:	4621      	mov	r1, r4
  400dc0:	202c      	movs	r0, #44	; 0x2c
  400dc2:	4d2a      	ldr	r5, [pc, #168]	; (400e6c <eink_hink_e0154a05_put_display_buffer+0xc0>)
  400dc4:	47a8      	blx	r5
    eink_data[0] = 0x18;
  400dc6:	2718      	movs	r7, #24
  400dc8:	f88d 7004 	strb.w	r7, [sp, #4]
    eink_data[1] = 0x00;
  400dcc:	2600      	movs	r6, #0
  400dce:	f88d 6005 	strb.w	r6, [sp, #5]
    eink_write_data(SSD1608_RXAS, eink_data, 2);
  400dd2:	2202      	movs	r2, #2
  400dd4:	4621      	mov	r1, r4
  400dd6:	2044      	movs	r0, #68	; 0x44
  400dd8:	47a8      	blx	r5
    eink_data[0] = 0x18;
  400dda:	f88d 7004 	strb.w	r7, [sp, #4]
    eink_write_data(SSD1608_RXC, eink_data, 1);
  400dde:	2201      	movs	r2, #1
  400de0:	4621      	mov	r1, r4
  400de2:	204e      	movs	r0, #78	; 0x4e
  400de4:	47a8      	blx	r5
    eink_data[0] = 0xC7;
  400de6:	23c7      	movs	r3, #199	; 0xc7
  400de8:	f88d 3004 	strb.w	r3, [sp, #4]
    eink_data[1] = 0x00;
  400dec:	f88d 6005 	strb.w	r6, [sp, #5]
    eink_write_data(SSD1608_RYC, eink_data, 2);
  400df0:	2202      	movs	r2, #2
  400df2:	4621      	mov	r1, r4
  400df4:	204f      	movs	r0, #79	; 0x4f
  400df6:	47a8      	blx	r5
    eink_write_data(SSD1608_WR, ptr_eink_gfx_config->display_buffer_1_ptr, GFX_HINK_E0154A05_DISPLAY_BUFFER_SIZE);
  400df8:	4b1d      	ldr	r3, [pc, #116]	; (400e70 <eink_hink_e0154a05_put_display_buffer+0xc4>)
  400dfa:	681b      	ldr	r3, [r3, #0]
  400dfc:	f241 3288 	movw	r2, #5000	; 0x1388
  400e00:	6919      	ldr	r1, [r3, #16]
  400e02:	2024      	movs	r0, #36	; 0x24
  400e04:	47a8      	blx	r5
  400e06:	4a1b      	ldr	r2, [pc, #108]	; (400e74 <eink_hink_e0154a05_put_display_buffer+0xc8>)
  400e08:	6bd3      	ldr	r3, [r2, #60]	; 0x3c
  400e0a:	f013 7f00 	tst.w	r3, #33554432	; 0x2000000
  400e0e:	d1fb      	bne.n	400e08 <eink_hink_e0154a05_put_display_buffer+0x5c>
    if(refresh_display) {
  400e10:	f1b8 0f00 	cmp.w	r8, #0
  400e14:	d102      	bne.n	400e1c <eink_hink_e0154a05_put_display_buffer+0x70>
}
  400e16:	b002      	add	sp, #8
  400e18:	e8bd 81f0 	ldmia.w	sp!, {r4, r5, r6, r7, r8, pc}
    if(ssd1608_global_instance.display_config.lut_selection == SSD1608_LUT_REGISTER)
  400e1c:	4b16      	ldr	r3, [pc, #88]	; (400e78 <eink_hink_e0154a05_put_display_buffer+0xcc>)
  400e1e:	785b      	ldrb	r3, [r3, #1]
  400e20:	b2db      	uxtb	r3, r3
  400e22:	2b01      	cmp	r3, #1
  400e24:	d017      	beq.n	400e56 <eink_hink_e0154a05_put_display_buffer+0xaa>
        eink_data[0] = 0xF7; /* OTP LUT Update */
  400e26:	23f7      	movs	r3, #247	; 0xf7
  400e28:	f88d 3000 	strb.w	r3, [sp]
    eink_write_data(SSD1608_DUC2, eink_data, 1);
  400e2c:	2201      	movs	r2, #1
  400e2e:	4669      	mov	r1, sp
  400e30:	2022      	movs	r0, #34	; 0x22
  400e32:	4b0e      	ldr	r3, [pc, #56]	; (400e6c <eink_hink_e0154a05_put_display_buffer+0xc0>)
  400e34:	4798      	blx	r3
  400e36:	4a0f      	ldr	r2, [pc, #60]	; (400e74 <eink_hink_e0154a05_put_display_buffer+0xc8>)
  400e38:	6bd3      	ldr	r3, [r2, #60]	; 0x3c
  400e3a:	f013 7f00 	tst.w	r3, #33554432	; 0x2000000
  400e3e:	d1fb      	bne.n	400e38 <eink_hink_e0154a05_put_display_buffer+0x8c>
    eink_write_data(SSD1608_MA, 0, 0);
  400e40:	2200      	movs	r2, #0
  400e42:	4611      	mov	r1, r2
  400e44:	2020      	movs	r0, #32
  400e46:	4b09      	ldr	r3, [pc, #36]	; (400e6c <eink_hink_e0154a05_put_display_buffer+0xc0>)
  400e48:	4798      	blx	r3
  400e4a:	4a0a      	ldr	r2, [pc, #40]	; (400e74 <eink_hink_e0154a05_put_display_buffer+0xc8>)
  400e4c:	6bd3      	ldr	r3, [r2, #60]	; 0x3c
  400e4e:	f013 7f00 	tst.w	r3, #33554432	; 0x2000000
  400e52:	d1fb      	bne.n	400e4c <eink_hink_e0154a05_put_display_buffer+0xa0>
  400e54:	e7df      	b.n	400e16 <eink_hink_e0154a05_put_display_buffer+0x6a>
        if(ssd1608_global_instance.display_config.display_part_no == SSD1608_HINK_E0154A05)
  400e56:	4b08      	ldr	r3, [pc, #32]	; (400e78 <eink_hink_e0154a05_put_display_buffer+0xcc>)
  400e58:	789b      	ldrb	r3, [r3, #2]
  400e5a:	b91b      	cbnz	r3, 400e64 <eink_hink_e0154a05_put_display_buffer+0xb8>
            eink_data[0] = 0xC7; /* Register LUT Update - HINK-E0154A05 */
  400e5c:	23c7      	movs	r3, #199	; 0xc7
  400e5e:	f88d 3000 	strb.w	r3, [sp]
  400e62:	e7e3      	b.n	400e2c <eink_hink_e0154a05_put_display_buffer+0x80>
            eink_data[0] = 0xFF; /* Register LUT Update - HINK-E0154A45 */
  400e64:	23ff      	movs	r3, #255	; 0xff
  400e66:	f88d 3000 	strb.w	r3, [sp]
  400e6a:	e7df      	b.n	400e2c <eink_hink_e0154a05_put_display_buffer+0x80>
  400e6c:	004009a9 	.word	0x004009a9
  400e70:	2000042c 	.word	0x2000042c
  400e74:	400e0e00 	.word	0x400e0e00
  400e78:	200003c8 	.word	0x200003c8

00400e7c <eink_ed028tc1_put_display_buffer>:
{
  400e7c:	b570      	push	{r4, r5, r6, lr}
  400e7e:	b086      	sub	sp, #24
  400e80:	4605      	mov	r5, r0
    eink_data[0] = 0x00; /* X = 0 */
  400e82:	2300      	movs	r3, #0
  400e84:	f88d 3010 	strb.w	r3, [sp, #16]
    eink_data[1] = 0x00;
  400e88:	f88d 3011 	strb.w	r3, [sp, #17]
    eink_data[2] = 0x00; /* Y = 0 */
  400e8c:	f88d 3012 	strb.w	r3, [sp, #18]
    eink_data[3] = 0x00;
  400e90:	f88d 3013 	strb.w	r3, [sp, #19]
    eink_data[4] = 0x02; /* W = 600 */
  400e94:	2302      	movs	r3, #2
  400e96:	f88d 3014 	strb.w	r3, [sp, #20]
    eink_data[5] = 0x58;
  400e9a:	2358      	movs	r3, #88	; 0x58
  400e9c:	f88d 3015 	strb.w	r3, [sp, #21]
    eink_data[6] = 0x01; /* H = 480 */
  400ea0:	2301      	movs	r3, #1
  400ea2:	f88d 3016 	strb.w	r3, [sp, #22]
    eink_data[7] = 0xE0;
  400ea6:	23e0      	movs	r3, #224	; 0xe0
  400ea8:	f88d 3017 	strb.w	r3, [sp, #23]
    eink_write_data(UC8177_DTMW, eink_data, 8);
  400eac:	2208      	movs	r2, #8
  400eae:	a904      	add	r1, sp, #16
  400eb0:	2083      	movs	r0, #131	; 0x83
  400eb2:	4c29      	ldr	r4, [pc, #164]	; (400f58 <eink_ed028tc1_put_display_buffer+0xdc>)
  400eb4:	47a0      	blx	r4
    eink_write_data(UC8177_DTM1, ptr_eink_gfx_config->display_buffer_1_ptr, GFX_ED028TC1_DISPLAY_BUFFER_SIZE);
  400eb6:	4b29      	ldr	r3, [pc, #164]	; (400f5c <eink_ed028tc1_put_display_buffer+0xe0>)
  400eb8:	681b      	ldr	r3, [r3, #0]
  400eba:	4a29      	ldr	r2, [pc, #164]	; (400f60 <eink_ed028tc1_put_display_buffer+0xe4>)
  400ebc:	6919      	ldr	r1, [r3, #16]
  400ebe:	2010      	movs	r0, #16
  400ec0:	47a0      	blx	r4
    if((uc8177_global_instance.display_config.display_rotation == ROTATE_90) || (uc8177_global_instance.display_config.display_rotation == ROTATE_180)) {
  400ec2:	4b28      	ldr	r3, [pc, #160]	; (400f64 <eink_ed028tc1_put_display_buffer+0xe8>)
  400ec4:	781b      	ldrb	r3, [r3, #0]
  400ec6:	b2db      	uxtb	r3, r3
  400ec8:	2b01      	cmp	r3, #1
  400eca:	d00f      	beq.n	400eec <eink_ed028tc1_put_display_buffer+0x70>
  400ecc:	4b25      	ldr	r3, [pc, #148]	; (400f64 <eink_ed028tc1_put_display_buffer+0xe8>)
  400ece:	781b      	ldrb	r3, [r3, #0]
  400ed0:	b2db      	uxtb	r3, r3
  400ed2:	2b02      	cmp	r3, #2
  400ed4:	d00a      	beq.n	400eec <eink_ed028tc1_put_display_buffer+0x70>
        eink_data[0] = 0x02;
  400ed6:	2302      	movs	r3, #2
  400ed8:	f88d 3010 	strb.w	r3, [sp, #16]
    eink_write_data(UC8177_GDOS, eink_data, 1);
  400edc:	2201      	movs	r2, #1
  400ede:	a904      	add	r1, sp, #16
  400ee0:	20e0      	movs	r0, #224	; 0xe0
  400ee2:	4b1d      	ldr	r3, [pc, #116]	; (400f58 <eink_ed028tc1_put_display_buffer+0xdc>)
  400ee4:	4798      	blx	r3
    if(refresh_display) {
  400ee6:	b92d      	cbnz	r5, 400ef4 <eink_ed028tc1_put_display_buffer+0x78>
}
  400ee8:	b006      	add	sp, #24
  400eea:	bd70      	pop	{r4, r5, r6, pc}
        eink_data[0] = 0x03;
  400eec:	2303      	movs	r3, #3
  400eee:	f88d 3010 	strb.w	r3, [sp, #16]
  400ef2:	e7f3      	b.n	400edc <eink_ed028tc1_put_display_buffer+0x60>
    eink_write_data(UC8177_PON, 0, 0);
  400ef4:	2200      	movs	r2, #0
  400ef6:	4611      	mov	r1, r2
  400ef8:	2004      	movs	r0, #4
  400efa:	4b17      	ldr	r3, [pc, #92]	; (400f58 <eink_ed028tc1_put_display_buffer+0xdc>)
  400efc:	4798      	blx	r3
  400efe:	4a1a      	ldr	r2, [pc, #104]	; (400f68 <eink_ed028tc1_put_display_buffer+0xec>)
  400f00:	6bd3      	ldr	r3, [r2, #60]	; 0x3c
  400f02:	f013 7f00 	tst.w	r3, #33554432	; 0x2000000
  400f06:	d0fb      	beq.n	400f00 <eink_ed028tc1_put_display_buffer+0x84>
    eink_data[0] = 0x18; /* Update Mode 1 */
  400f08:	2318      	movs	r3, #24
  400f0a:	f88d 3004 	strb.w	r3, [sp, #4]
    eink_data[1] = 0x00; /* X = 0 */
  400f0e:	2400      	movs	r4, #0
  400f10:	f88d 4005 	strb.w	r4, [sp, #5]
    eink_data[2] = 0x00;
  400f14:	f88d 4006 	strb.w	r4, [sp, #6]
    eink_data[3] = 0x00; /* Y = 0 */
  400f18:	f88d 4007 	strb.w	r4, [sp, #7]
    eink_data[4] = 0x00;
  400f1c:	f88d 4008 	strb.w	r4, [sp, #8]
    eink_data[5] = 0x02; /* W = 600 */
  400f20:	2602      	movs	r6, #2
  400f22:	f88d 6009 	strb.w	r6, [sp, #9]
    eink_data[6] = 0x58;
  400f26:	2358      	movs	r3, #88	; 0x58
  400f28:	f88d 300a 	strb.w	r3, [sp, #10]
    eink_data[7] = 0x01; /* H = 480 */
  400f2c:	2301      	movs	r3, #1
  400f2e:	f88d 300b 	strb.w	r3, [sp, #11]
    eink_data[8] = 0xE0;
  400f32:	23e0      	movs	r3, #224	; 0xe0
  400f34:	f88d 300c 	strb.w	r3, [sp, #12]
    eink_write_data(UC8177_DRF, eink_data, 9);
  400f38:	2209      	movs	r2, #9
  400f3a:	a901      	add	r1, sp, #4
  400f3c:	2012      	movs	r0, #18
  400f3e:	4d06      	ldr	r5, [pc, #24]	; (400f58 <eink_ed028tc1_put_display_buffer+0xdc>)
  400f40:	47a8      	blx	r5
    eink_write_data(UC8177_POF, 0, 0);
  400f42:	4622      	mov	r2, r4
  400f44:	4621      	mov	r1, r4
  400f46:	4630      	mov	r0, r6
  400f48:	47a8      	blx	r5
  400f4a:	4a07      	ldr	r2, [pc, #28]	; (400f68 <eink_ed028tc1_put_display_buffer+0xec>)
  400f4c:	6bd3      	ldr	r3, [r2, #60]	; 0x3c
  400f4e:	f013 7f00 	tst.w	r3, #33554432	; 0x2000000
  400f52:	d0fb      	beq.n	400f4c <eink_ed028tc1_put_display_buffer+0xd0>
  400f54:	e7c8      	b.n	400ee8 <eink_ed028tc1_put_display_buffer+0x6c>
  400f56:	bf00      	nop
  400f58:	004009a9 	.word	0x004009a9
  400f5c:	2000042c 	.word	0x2000042c
  400f60:	00023280 	.word	0x00023280
  400f64:	200003c0 	.word	0x200003c0
  400f68:	400e0e00 	.word	0x400e0e00

00400f6c <eink_set_bit>:
 * \param bit_value Bit value.
 */
void eink_set_bit(uint8_t *byte, uint8_t bit_number, bool bit_value)
{
    /* Update the byte to either set or clear the selected bit */   
    if (bit_value == 1) {
  400f6c:	b932      	cbnz	r2, 400f7c <eink_set_bit+0x10>
        *byte |= 1 << bit_number;
    } else {
        *byte &= ~(1 << bit_number);
  400f6e:	2301      	movs	r3, #1
  400f70:	408b      	lsls	r3, r1
  400f72:	7801      	ldrb	r1, [r0, #0]
  400f74:	ea21 0103 	bic.w	r1, r1, r3
  400f78:	7001      	strb	r1, [r0, #0]
  400f7a:	4770      	bx	lr
        *byte |= 1 << bit_number;
  400f7c:	2301      	movs	r3, #1
  400f7e:	408b      	lsls	r3, r1
  400f80:	7801      	ldrb	r1, [r0, #0]
  400f82:	4319      	orrs	r1, r3
  400f84:	7001      	strb	r1, [r0, #0]
  400f86:	4770      	bx	lr

00400f88 <eink_ed029tc1_set_pixel>:
{    
  400f88:	e92d 41f0 	stmdb	sp!, {r4, r5, r6, r7, r8, lr}
    uint8_t height_bytes = uc8151_global_instance.display_height / 8;
  400f8c:	4b2b      	ldr	r3, [pc, #172]	; (40103c <eink_ed029tc1_set_pixel+0xb4>)
  400f8e:	891c      	ldrh	r4, [r3, #8]
    uint8_t width_bytes = uc8151_global_instance.display_width / 8;
  400f90:	88dd      	ldrh	r5, [r3, #6]
    if ( (x_set >= 0) && (x_set < uc8151_global_instance.display_width) && (y_set >= 0) && (y_set < uc8151_global_instance.display_height) ) {
  400f92:	88db      	ldrh	r3, [r3, #6]
  400f94:	b29b      	uxth	r3, r3
  400f96:	4283      	cmp	r3, r0
  400f98:	d94a      	bls.n	401030 <eink_ed029tc1_set_pixel+0xa8>
  400f9a:	b2a4      	uxth	r4, r4
  400f9c:	b2ad      	uxth	r5, r5
  400f9e:	4b27      	ldr	r3, [pc, #156]	; (40103c <eink_ed029tc1_set_pixel+0xb4>)
  400fa0:	891b      	ldrh	r3, [r3, #8]
  400fa2:	b29b      	uxth	r3, r3
  400fa4:	428b      	cmp	r3, r1
  400fa6:	d943      	bls.n	401030 <eink_ed029tc1_set_pixel+0xa8>
        if ( (uc8151_global_instance.panel_settings.display_rotation == ROTATE_90) || (uc8151_global_instance.panel_settings.display_rotation == ROTATE_270) ) {
  400fa8:	4b24      	ldr	r3, [pc, #144]	; (40103c <eink_ed029tc1_set_pixel+0xb4>)
  400faa:	78db      	ldrb	r3, [r3, #3]
  400fac:	b2db      	uxtb	r3, r3
  400fae:	2b01      	cmp	r3, #1
  400fb0:	d01c      	beq.n	400fec <eink_ed029tc1_set_pixel+0x64>
  400fb2:	4b22      	ldr	r3, [pc, #136]	; (40103c <eink_ed029tc1_set_pixel+0xb4>)
  400fb4:	78db      	ldrb	r3, [r3, #3]
  400fb6:	b2db      	uxtb	r3, r3
  400fb8:	2b03      	cmp	r3, #3
  400fba:	d017      	beq.n	400fec <eink_ed029tc1_set_pixel+0x64>
            byte_set = (((x_set + 1) * height_bytes) - 1 - y1_set);
  400fbc:	f3c4 04c7 	ubfx	r4, r4, #3, #8
  400fc0:	fb00 4404 	mla	r4, r0, r4, r4
  400fc4:	ea6f 00e1 	mvn.w	r0, r1, asr #3
  400fc8:	4404      	add	r4, r0
            bit_set = (y_set % 8);
  400fca:	f001 0507 	and.w	r5, r1, #7
        if (uc8151_global_instance.panel_settings.display_colours == B_W_PIXELS) {
  400fce:	4b1b      	ldr	r3, [pc, #108]	; (40103c <eink_ed029tc1_set_pixel+0xb4>)
  400fd0:	789b      	ldrb	r3, [r3, #2]
  400fd2:	b9a3      	cbnz	r3, 400ffe <eink_ed029tc1_set_pixel+0x76>
            eink_set_bit(&ptr_eink_gfx_config->display_buffer_2_ptr[byte_set], bit_set, pixel_set_2);
  400fd4:	4b1a      	ldr	r3, [pc, #104]	; (401040 <eink_ed029tc1_set_pixel+0xb8>)
  400fd6:	681b      	ldr	r3, [r3, #0]
  400fd8:	6958      	ldr	r0, [r3, #20]
  400fda:	3200      	adds	r2, #0
  400fdc:	bf18      	it	ne
  400fde:	2201      	movne	r2, #1
  400fe0:	4629      	mov	r1, r5
  400fe2:	4420      	add	r0, r4
  400fe4:	4b17      	ldr	r3, [pc, #92]	; (401044 <eink_ed029tc1_set_pixel+0xbc>)
  400fe6:	4798      	blx	r3
  400fe8:	e8bd 81f0 	ldmia.w	sp!, {r4, r5, r6, r7, r8, pc}
            byte_set = (((y_set + 1) * width_bytes ) - 1 - (width_bytes - 16) - x1_set);
  400fec:	f3c5 05c7 	ubfx	r5, r5, #3, #8
  400ff0:	08c4      	lsrs	r4, r0, #3
  400ff2:	fb01 4405 	mla	r4, r1, r5, r4
            bit_set = 7 - (x_set % 8);
  400ff6:	43c1      	mvns	r1, r0
  400ff8:	f001 0507 	and.w	r5, r1, #7
  400ffc:	e7e7      	b.n	400fce <eink_ed029tc1_set_pixel+0x46>
            if (pixel_colour == PIXEL_BLACK) {
  400ffe:	b13a      	cbz	r2, 401010 <eink_ed029tc1_set_pixel+0x88>
            } else if(pixel_colour == PIXEL_WHITE) {
  401000:	3a02      	subs	r2, #2
  401002:	b2d2      	uxtb	r2, r2
  401004:	2a01      	cmp	r2, #1
  401006:	d815      	bhi.n	401034 <eink_ed029tc1_set_pixel+0xac>
                pixel_set_2 = 0;    
  401008:	f04f 0800 	mov.w	r8, #0
                pixel_set_1 = 0;
  40100c:	4642      	mov	r2, r8
  40100e:	e002      	b.n	401016 <eink_ed029tc1_set_pixel+0x8e>
                pixel_set_2 = 1;
  401010:	f04f 0801 	mov.w	r8, #1
                pixel_set_1 = 0;
  401014:	2200      	movs	r2, #0
            eink_set_bit(&ptr_eink_gfx_config->display_buffer_1_ptr[byte_set], bit_set, pixel_set_1);
  401016:	4f0a      	ldr	r7, [pc, #40]	; (401040 <eink_ed029tc1_set_pixel+0xb8>)
  401018:	683b      	ldr	r3, [r7, #0]
  40101a:	6918      	ldr	r0, [r3, #16]
  40101c:	4629      	mov	r1, r5
  40101e:	4420      	add	r0, r4
  401020:	4e08      	ldr	r6, [pc, #32]	; (401044 <eink_ed029tc1_set_pixel+0xbc>)
  401022:	47b0      	blx	r6
            eink_set_bit(&ptr_eink_gfx_config->display_buffer_2_ptr[byte_set], bit_set, pixel_set_2);    
  401024:	683b      	ldr	r3, [r7, #0]
  401026:	6958      	ldr	r0, [r3, #20]
  401028:	4642      	mov	r2, r8
  40102a:	4629      	mov	r1, r5
  40102c:	4420      	add	r0, r4
  40102e:	47b0      	blx	r6
  401030:	e8bd 81f0 	ldmia.w	sp!, {r4, r5, r6, r7, r8, pc}
                pixel_set_2 = 1;
  401034:	f04f 0801 	mov.w	r8, #1
                pixel_set_1 = 1;
  401038:	4642      	mov	r2, r8
  40103a:	e7ec      	b.n	401016 <eink_ed029tc1_set_pixel+0x8e>
  40103c:	20000408 	.word	0x20000408
  401040:	2000042c 	.word	0x2000042c
  401044:	00400f6d 	.word	0x00400f6d

00401048 <eink_el026tr1_set_pixel>:
{    
  401048:	b508      	push	{r3, lr}
    eink_ed029tc1_set_pixel(x_set, y_set, pixel_colour);
  40104a:	4b01      	ldr	r3, [pc, #4]	; (401050 <eink_el026tr1_set_pixel+0x8>)
  40104c:	4798      	blx	r3
  40104e:	bd08      	pop	{r3, pc}
  401050:	00400f89 	.word	0x00400f89

00401054 <eink_hink_e0154a05_set_pixel>:
{    
  401054:	b5f8      	push	{r3, r4, r5, r6, r7, lr}
    if (pixel_colour == PIXEL_BLACK) pixel_set = 0;
  401056:	3200      	adds	r2, #0
  401058:	bf18      	it	ne
  40105a:	2201      	movne	r2, #1
    switch(ssd1608_global_instance.display_config.display_rotation)
  40105c:	4c23      	ldr	r4, [pc, #140]	; (4010ec <eink_hink_e0154a05_set_pixel+0x98>)
  40105e:	7824      	ldrb	r4, [r4, #0]
  401060:	b2e4      	uxtb	r4, r4
  401062:	2c03      	cmp	r4, #3
  401064:	d80c      	bhi.n	401080 <eink_hink_e0154a05_set_pixel+0x2c>
  401066:	e8df f004 	tbb	[pc, r4]
  40106a:	1002      	.short	0x1002
  40106c:	261c      	.short	0x261c
            x_set = ssd1608_global_instance.display_height - y;
  40106e:	4c1f      	ldr	r4, [pc, #124]	; (4010ec <eink_hink_e0154a05_set_pixel+0x98>)
  401070:	88e3      	ldrh	r3, [r4, #6]
  401072:	1a59      	subs	r1, r3, r1
  401074:	b28b      	uxth	r3, r1
            max_x = ssd1608_global_instance.display_height;
  401076:	88e6      	ldrh	r6, [r4, #6]
  401078:	b2b6      	uxth	r6, r6
            max_y = ssd1608_global_instance.display_width;
  40107a:	88a7      	ldrh	r7, [r4, #4]
  40107c:	b2bf      	uxth	r7, r7
            y_set = x;
  40107e:	4605      	mov	r5, r0
    if ( (x_set >= 0) && (x_set < max_x) && (y_set >= 0) && (y_set < max_y) ) {
  401080:	42b3      	cmp	r3, r6
  401082:	d201      	bcs.n	401088 <eink_hink_e0154a05_set_pixel+0x34>
  401084:	42bd      	cmp	r5, r7
  401086:	d31e      	bcc.n	4010c6 <eink_hink_e0154a05_set_pixel+0x72>
  401088:	bdf8      	pop	{r3, r4, r5, r6, r7, pc}
            x_set = ssd1608_global_instance.display_width - x;
  40108a:	4c18      	ldr	r4, [pc, #96]	; (4010ec <eink_hink_e0154a05_set_pixel+0x98>)
  40108c:	88a3      	ldrh	r3, [r4, #4]
  40108e:	1a18      	subs	r0, r3, r0
  401090:	b283      	uxth	r3, r0
            y_set = ssd1608_global_instance.display_height - y;
  401092:	88e5      	ldrh	r5, [r4, #6]
  401094:	1a69      	subs	r1, r5, r1
  401096:	b28d      	uxth	r5, r1
            max_x = ssd1608_global_instance.display_width;
  401098:	88a6      	ldrh	r6, [r4, #4]
  40109a:	b2b6      	uxth	r6, r6
            max_y = ssd1608_global_instance.display_height;
  40109c:	88e7      	ldrh	r7, [r4, #6]
  40109e:	b2bf      	uxth	r7, r7
            break;
  4010a0:	e7ee      	b.n	401080 <eink_hink_e0154a05_set_pixel+0x2c>
            y_set = ssd1608_global_instance.display_width - x;
  4010a2:	4c12      	ldr	r4, [pc, #72]	; (4010ec <eink_hink_e0154a05_set_pixel+0x98>)
  4010a4:	88a5      	ldrh	r5, [r4, #4]
  4010a6:	1a28      	subs	r0, r5, r0
  4010a8:	b285      	uxth	r5, r0
            max_x = ssd1608_global_instance.display_height;
  4010aa:	88e6      	ldrh	r6, [r4, #6]
  4010ac:	b2b6      	uxth	r6, r6
            max_y = ssd1608_global_instance.display_width;
  4010ae:	88a7      	ldrh	r7, [r4, #4]
  4010b0:	b2bf      	uxth	r7, r7
            x_set = y;
  4010b2:	460b      	mov	r3, r1
            break;
  4010b4:	e7e4      	b.n	401080 <eink_hink_e0154a05_set_pixel+0x2c>
            max_x = ssd1608_global_instance.display_width;
  4010b6:	4b0d      	ldr	r3, [pc, #52]	; (4010ec <eink_hink_e0154a05_set_pixel+0x98>)
  4010b8:	889e      	ldrh	r6, [r3, #4]
  4010ba:	b2b6      	uxth	r6, r6
            max_y = ssd1608_global_instance.display_height;
  4010bc:	88df      	ldrh	r7, [r3, #6]
  4010be:	b2bf      	uxth	r7, r7
            y_set = y;
  4010c0:	460d      	mov	r5, r1
            x_set = x;
  4010c2:	4603      	mov	r3, r0
            break;
  4010c4:	e7dc      	b.n	401080 <eink_hink_e0154a05_set_pixel+0x2c>
        eink_set_bit(&ptr_eink_gfx_config->display_buffer_1_ptr[byte_set], bit_set, pixel_set);
  4010c6:	490a      	ldr	r1, [pc, #40]	; (4010f0 <eink_hink_e0154a05_set_pixel+0x9c>)
  4010c8:	6809      	ldr	r1, [r1, #0]
        byte_set = (((x_set + 1) * 25) - 1 - y1_set);
  4010ca:	3301      	adds	r3, #1
  4010cc:	eb03 0383 	add.w	r3, r3, r3, lsl #2
  4010d0:	eb03 0383 	add.w	r3, r3, r3, lsl #2
  4010d4:	eba3 03e5 	sub.w	r3, r3, r5, asr #3
  4010d8:	3b01      	subs	r3, #1
        eink_set_bit(&ptr_eink_gfx_config->display_buffer_1_ptr[byte_set], bit_set, pixel_set);
  4010da:	6908      	ldr	r0, [r1, #16]
  4010dc:	f005 0107 	and.w	r1, r5, #7
  4010e0:	fa10 f083 	uxtah	r0, r0, r3
  4010e4:	4b03      	ldr	r3, [pc, #12]	; (4010f4 <eink_hink_e0154a05_set_pixel+0xa0>)
  4010e6:	4798      	blx	r3
}
  4010e8:	e7ce      	b.n	401088 <eink_hink_e0154a05_set_pixel+0x34>
  4010ea:	bf00      	nop
  4010ec:	200003c8 	.word	0x200003c8
  4010f0:	2000042c 	.word	0x2000042c
  4010f4:	00400f6d 	.word	0x00400f6d

004010f8 <eink_ac057tc1_set_pixel>:
    if ( (x_set >= 0) && (x_set < uc8159_global_instance.display_width) && (y_set >= 0) && (y_set < uc8159_global_instance.display_height) ) {
  4010f8:	4b35      	ldr	r3, [pc, #212]	; (4011d0 <eink_ac057tc1_set_pixel+0xd8>)
  4010fa:	889b      	ldrh	r3, [r3, #4]
  4010fc:	b29b      	uxth	r3, r3
  4010fe:	4283      	cmp	r3, r0
  401100:	d965      	bls.n	4011ce <eink_ac057tc1_set_pixel+0xd6>
  401102:	4b33      	ldr	r3, [pc, #204]	; (4011d0 <eink_ac057tc1_set_pixel+0xd8>)
  401104:	88db      	ldrh	r3, [r3, #6]
  401106:	b29b      	uxth	r3, r3
  401108:	428b      	cmp	r3, r1
  40110a:	d960      	bls.n	4011ce <eink_ac057tc1_set_pixel+0xd6>
{
  40110c:	b570      	push	{r4, r5, r6, lr}
        if ( (uc8159_global_instance.panel_settings.display_rotation == ROTATE_90) || (uc8159_global_instance.panel_settings.display_rotation == ROTATE_270) ) {
  40110e:	4b30      	ldr	r3, [pc, #192]	; (4011d0 <eink_ac057tc1_set_pixel+0xd8>)
  401110:	785b      	ldrb	r3, [r3, #1]
  401112:	b2db      	uxtb	r3, r3
  401114:	2b01      	cmp	r3, #1
  401116:	d011      	beq.n	40113c <eink_ac057tc1_set_pixel+0x44>
  401118:	4b2d      	ldr	r3, [pc, #180]	; (4011d0 <eink_ac057tc1_set_pixel+0xd8>)
  40111a:	785b      	ldrb	r3, [r3, #1]
  40111c:	b2db      	uxtb	r3, r3
  40111e:	2b03      	cmp	r3, #3
  401120:	d00c      	beq.n	40113c <eink_ac057tc1_set_pixel+0x44>
            byte_set = x1_set + ((GFX_AC057TC1_MAX_WIDTH / 2) * y_set);
  401122:	f44f 7496 	mov.w	r4, #300	; 0x12c
  401126:	fb04 f101 	mul.w	r1, r4, r1
  40112a:	eb01 0450 	add.w	r4, r1, r0, lsr #1
            odd_even_bit = x_set % 2;
  40112e:	f000 0001 	and.w	r0, r0, #1
        if (odd_even_bit) {
  401132:	b350      	cbz	r0, 40118a <eink_ac057tc1_set_pixel+0x92>
            switch(pixel_colour) {
  401134:	b15a      	cbz	r2, 40114e <eink_ac057tc1_set_pixel+0x56>
  401136:	2a01      	cmp	r2, #1
  401138:	d018      	beq.n	40116c <eink_ac057tc1_set_pixel+0x74>
  40113a:	bd70      	pop	{r4, r5, r6, pc}
           byte_set = y1_set + ((GFX_AC057TC1_MAX_WIDTH / 2) * x_set);
  40113c:	f44f 7496 	mov.w	r4, #300	; 0x12c
  401140:	fb04 f000 	mul.w	r0, r4, r0
  401144:	eb00 0451 	add.w	r4, r0, r1, lsr #1
           odd_even_bit = y_set % 2;
  401148:	f001 0001 	and.w	r0, r1, #1
  40114c:	e7f1      	b.n	401132 <eink_ac057tc1_set_pixel+0x3a>
                    eink_set_bit(&ptr_eink_gfx_config->display_buffer_1_ptr[byte_set], 1, 0);
  40114e:	4e21      	ldr	r6, [pc, #132]	; (4011d4 <eink_ac057tc1_set_pixel+0xdc>)
  401150:	6833      	ldr	r3, [r6, #0]
  401152:	6918      	ldr	r0, [r3, #16]
  401154:	2200      	movs	r2, #0
  401156:	2101      	movs	r1, #1
  401158:	4420      	add	r0, r4
  40115a:	4d1f      	ldr	r5, [pc, #124]	; (4011d8 <eink_ac057tc1_set_pixel+0xe0>)
  40115c:	47a8      	blx	r5
                    eink_set_bit(&ptr_eink_gfx_config->display_buffer_1_ptr[byte_set], 0, 0);
  40115e:	6833      	ldr	r3, [r6, #0]
  401160:	6918      	ldr	r0, [r3, #16]
  401162:	2200      	movs	r2, #0
  401164:	4611      	mov	r1, r2
  401166:	4420      	add	r0, r4
  401168:	47a8      	blx	r5
                    break;
  40116a:	bd70      	pop	{r4, r5, r6, pc}
                    eink_set_bit(&ptr_eink_gfx_config->display_buffer_1_ptr[byte_set], 1, 1);
  40116c:	4e19      	ldr	r6, [pc, #100]	; (4011d4 <eink_ac057tc1_set_pixel+0xdc>)
  40116e:	6833      	ldr	r3, [r6, #0]
  401170:	6918      	ldr	r0, [r3, #16]
  401172:	2201      	movs	r2, #1
  401174:	4611      	mov	r1, r2
  401176:	4420      	add	r0, r4
  401178:	4d17      	ldr	r5, [pc, #92]	; (4011d8 <eink_ac057tc1_set_pixel+0xe0>)
  40117a:	47a8      	blx	r5
                    eink_set_bit(&ptr_eink_gfx_config->display_buffer_1_ptr[byte_set], 0, 1);
  40117c:	6833      	ldr	r3, [r6, #0]
  40117e:	6918      	ldr	r0, [r3, #16]
  401180:	2201      	movs	r2, #1
  401182:	2100      	movs	r1, #0
  401184:	4420      	add	r0, r4
  401186:	47a8      	blx	r5
                    break;
  401188:	bd70      	pop	{r4, r5, r6, pc}
            switch(pixel_colour) {
  40118a:	b112      	cbz	r2, 401192 <eink_ac057tc1_set_pixel+0x9a>
  40118c:	2a01      	cmp	r2, #1
  40118e:	d00f      	beq.n	4011b0 <eink_ac057tc1_set_pixel+0xb8>
  401190:	bd70      	pop	{r4, r5, r6, pc}
                    eink_set_bit(&ptr_eink_gfx_config->display_buffer_1_ptr[byte_set], 5, 0);
  401192:	4e10      	ldr	r6, [pc, #64]	; (4011d4 <eink_ac057tc1_set_pixel+0xdc>)
  401194:	6833      	ldr	r3, [r6, #0]
  401196:	6918      	ldr	r0, [r3, #16]
  401198:	2200      	movs	r2, #0
  40119a:	2105      	movs	r1, #5
  40119c:	4420      	add	r0, r4
  40119e:	4d0e      	ldr	r5, [pc, #56]	; (4011d8 <eink_ac057tc1_set_pixel+0xe0>)
  4011a0:	47a8      	blx	r5
                    eink_set_bit(&ptr_eink_gfx_config->display_buffer_1_ptr[byte_set], 4, 0);
  4011a2:	6833      	ldr	r3, [r6, #0]
  4011a4:	6918      	ldr	r0, [r3, #16]
  4011a6:	2200      	movs	r2, #0
  4011a8:	2104      	movs	r1, #4
  4011aa:	4420      	add	r0, r4
  4011ac:	47a8      	blx	r5
                    break;
  4011ae:	bd70      	pop	{r4, r5, r6, pc}
                    eink_set_bit(&ptr_eink_gfx_config->display_buffer_1_ptr[byte_set], 5, 1);
  4011b0:	4e08      	ldr	r6, [pc, #32]	; (4011d4 <eink_ac057tc1_set_pixel+0xdc>)
  4011b2:	6833      	ldr	r3, [r6, #0]
  4011b4:	6918      	ldr	r0, [r3, #16]
  4011b6:	2201      	movs	r2, #1
  4011b8:	2105      	movs	r1, #5
  4011ba:	4420      	add	r0, r4
  4011bc:	4d06      	ldr	r5, [pc, #24]	; (4011d8 <eink_ac057tc1_set_pixel+0xe0>)
  4011be:	47a8      	blx	r5
                    eink_set_bit(&ptr_eink_gfx_config->display_buffer_1_ptr[byte_set], 4, 1);
  4011c0:	6833      	ldr	r3, [r6, #0]
  4011c2:	6918      	ldr	r0, [r3, #16]
  4011c4:	2201      	movs	r2, #1
  4011c6:	2104      	movs	r1, #4
  4011c8:	4420      	add	r0, r4
  4011ca:	47a8      	blx	r5
  4011cc:	bd70      	pop	{r4, r5, r6, pc}
  4011ce:	4770      	bx	lr
  4011d0:	20000418 	.word	0x20000418
  4011d4:	2000042c 	.word	0x2000042c
  4011d8:	00400f6d 	.word	0x00400f6d

004011dc <eink_ed057tc2_set_pixel>:
    if ( (x_set >= 0) && (x_set < uc8159_global_instance.display_width) && (y_set >= 0) && (y_set < uc8159_global_instance.display_height) ) {
  4011dc:	4b35      	ldr	r3, [pc, #212]	; (4012b4 <eink_ed057tc2_set_pixel+0xd8>)
  4011de:	889b      	ldrh	r3, [r3, #4]
  4011e0:	b29b      	uxth	r3, r3
  4011e2:	4283      	cmp	r3, r0
  4011e4:	d965      	bls.n	4012b2 <eink_ed057tc2_set_pixel+0xd6>
  4011e6:	4b33      	ldr	r3, [pc, #204]	; (4012b4 <eink_ed057tc2_set_pixel+0xd8>)
  4011e8:	88db      	ldrh	r3, [r3, #6]
  4011ea:	b29b      	uxth	r3, r3
  4011ec:	428b      	cmp	r3, r1
  4011ee:	d960      	bls.n	4012b2 <eink_ed057tc2_set_pixel+0xd6>
{
  4011f0:	b570      	push	{r4, r5, r6, lr}
        if ( (uc8159_global_instance.panel_settings.display_rotation == ROTATE_90) || (uc8159_global_instance.panel_settings.display_rotation == ROTATE_270) ) {
  4011f2:	4b30      	ldr	r3, [pc, #192]	; (4012b4 <eink_ed057tc2_set_pixel+0xd8>)
  4011f4:	785b      	ldrb	r3, [r3, #1]
  4011f6:	b2db      	uxtb	r3, r3
  4011f8:	2b01      	cmp	r3, #1
  4011fa:	d011      	beq.n	401220 <eink_ed057tc2_set_pixel+0x44>
  4011fc:	4b2d      	ldr	r3, [pc, #180]	; (4012b4 <eink_ed057tc2_set_pixel+0xd8>)
  4011fe:	785b      	ldrb	r3, [r3, #1]
  401200:	b2db      	uxtb	r3, r3
  401202:	2b03      	cmp	r3, #3
  401204:	d00c      	beq.n	401220 <eink_ed057tc2_set_pixel+0x44>
            byte_set = x1_set + ((GFX_ED057TC2_MAX_WIDTH / 2) * y_set);
  401206:	f44f 7496 	mov.w	r4, #300	; 0x12c
  40120a:	fb04 f101 	mul.w	r1, r4, r1
  40120e:	eb01 0450 	add.w	r4, r1, r0, lsr #1
            odd_even_bit = x_set % 2;
  401212:	f000 0001 	and.w	r0, r0, #1
        if (odd_even_bit) {
  401216:	b350      	cbz	r0, 40126e <eink_ed057tc2_set_pixel+0x92>
            switch(pixel_colour) {
  401218:	b15a      	cbz	r2, 401232 <eink_ed057tc2_set_pixel+0x56>
  40121a:	2a01      	cmp	r2, #1
  40121c:	d018      	beq.n	401250 <eink_ed057tc2_set_pixel+0x74>
  40121e:	bd70      	pop	{r4, r5, r6, pc}
           byte_set = y1_set + ((GFX_ED057TC2_MAX_WIDTH / 2) * x_set);
  401220:	f44f 7496 	mov.w	r4, #300	; 0x12c
  401224:	fb04 f000 	mul.w	r0, r4, r0
  401228:	eb00 0451 	add.w	r4, r0, r1, lsr #1
           odd_even_bit = y_set % 2;
  40122c:	f001 0001 	and.w	r0, r1, #1
  401230:	e7f1      	b.n	401216 <eink_ed057tc2_set_pixel+0x3a>
                    eink_set_bit(&ptr_eink_gfx_config->display_buffer_1_ptr[byte_set], 1, 0);
  401232:	4e21      	ldr	r6, [pc, #132]	; (4012b8 <eink_ed057tc2_set_pixel+0xdc>)
  401234:	6833      	ldr	r3, [r6, #0]
  401236:	6918      	ldr	r0, [r3, #16]
  401238:	2200      	movs	r2, #0
  40123a:	2101      	movs	r1, #1
  40123c:	4420      	add	r0, r4
  40123e:	4d1f      	ldr	r5, [pc, #124]	; (4012bc <eink_ed057tc2_set_pixel+0xe0>)
  401240:	47a8      	blx	r5
                    eink_set_bit(&ptr_eink_gfx_config->display_buffer_1_ptr[byte_set], 0, 0);
  401242:	6833      	ldr	r3, [r6, #0]
  401244:	6918      	ldr	r0, [r3, #16]
  401246:	2200      	movs	r2, #0
  401248:	4611      	mov	r1, r2
  40124a:	4420      	add	r0, r4
  40124c:	47a8      	blx	r5
                    break;
  40124e:	bd70      	pop	{r4, r5, r6, pc}
                    eink_set_bit(&ptr_eink_gfx_config->display_buffer_1_ptr[byte_set], 1, 1);
  401250:	4e19      	ldr	r6, [pc, #100]	; (4012b8 <eink_ed057tc2_set_pixel+0xdc>)
  401252:	6833      	ldr	r3, [r6, #0]
  401254:	6918      	ldr	r0, [r3, #16]
  401256:	2201      	movs	r2, #1
  401258:	4611      	mov	r1, r2
  40125a:	4420      	add	r0, r4
  40125c:	4d17      	ldr	r5, [pc, #92]	; (4012bc <eink_ed057tc2_set_pixel+0xe0>)
  40125e:	47a8      	blx	r5
                    eink_set_bit(&ptr_eink_gfx_config->display_buffer_1_ptr[byte_set], 0, 1);
  401260:	6833      	ldr	r3, [r6, #0]
  401262:	6918      	ldr	r0, [r3, #16]
  401264:	2201      	movs	r2, #1
  401266:	2100      	movs	r1, #0
  401268:	4420      	add	r0, r4
  40126a:	47a8      	blx	r5
                    break;
  40126c:	bd70      	pop	{r4, r5, r6, pc}
            switch(pixel_colour) {
  40126e:	b112      	cbz	r2, 401276 <eink_ed057tc2_set_pixel+0x9a>
  401270:	2a01      	cmp	r2, #1
  401272:	d00f      	beq.n	401294 <eink_ed057tc2_set_pixel+0xb8>
  401274:	bd70      	pop	{r4, r5, r6, pc}
                    eink_set_bit(&ptr_eink_gfx_config->display_buffer_1_ptr[byte_set], 5, 0);
  401276:	4e10      	ldr	r6, [pc, #64]	; (4012b8 <eink_ed057tc2_set_pixel+0xdc>)
  401278:	6833      	ldr	r3, [r6, #0]
  40127a:	6918      	ldr	r0, [r3, #16]
  40127c:	2200      	movs	r2, #0
  40127e:	2105      	movs	r1, #5
  401280:	4420      	add	r0, r4
  401282:	4d0e      	ldr	r5, [pc, #56]	; (4012bc <eink_ed057tc2_set_pixel+0xe0>)
  401284:	47a8      	blx	r5
                    eink_set_bit(&ptr_eink_gfx_config->display_buffer_1_ptr[byte_set], 4, 0);
  401286:	6833      	ldr	r3, [r6, #0]
  401288:	6918      	ldr	r0, [r3, #16]
  40128a:	2200      	movs	r2, #0
  40128c:	2104      	movs	r1, #4
  40128e:	4420      	add	r0, r4
  401290:	47a8      	blx	r5
                    break;
  401292:	bd70      	pop	{r4, r5, r6, pc}
                    eink_set_bit(&ptr_eink_gfx_config->display_buffer_1_ptr[byte_set], 5, 1);
  401294:	4e08      	ldr	r6, [pc, #32]	; (4012b8 <eink_ed057tc2_set_pixel+0xdc>)
  401296:	6833      	ldr	r3, [r6, #0]
  401298:	6918      	ldr	r0, [r3, #16]
  40129a:	2201      	movs	r2, #1
  40129c:	2105      	movs	r1, #5
  40129e:	4420      	add	r0, r4
  4012a0:	4d06      	ldr	r5, [pc, #24]	; (4012bc <eink_ed057tc2_set_pixel+0xe0>)
  4012a2:	47a8      	blx	r5
                    eink_set_bit(&ptr_eink_gfx_config->display_buffer_1_ptr[byte_set], 4, 1);
  4012a4:	6833      	ldr	r3, [r6, #0]
  4012a6:	6918      	ldr	r0, [r3, #16]
  4012a8:	2201      	movs	r2, #1
  4012aa:	2104      	movs	r1, #4
  4012ac:	4420      	add	r0, r4
  4012ae:	47a8      	blx	r5
  4012b0:	bd70      	pop	{r4, r5, r6, pc}
  4012b2:	4770      	bx	lr
  4012b4:	20000418 	.word	0x20000418
  4012b8:	2000042c 	.word	0x2000042c
  4012bc:	00400f6d 	.word	0x00400f6d

004012c0 <eink_ed028tc1_set_pixel_raw>:
{    
  4012c0:	b5f8      	push	{r3, r4, r5, r6, r7, lr}
    if ( (x_set >= 0) && (x_set < uc8177_global_instance.display_width) && (y_set >= 0) && (y_set < uc8177_global_instance.display_height) ) {
  4012c2:	4b31      	ldr	r3, [pc, #196]	; (401388 <eink_ed028tc1_set_pixel_raw+0xc8>)
  4012c4:	885b      	ldrh	r3, [r3, #2]
  4012c6:	b29b      	uxth	r3, r3
  4012c8:	4283      	cmp	r3, r0
  4012ca:	d93d      	bls.n	401348 <eink_ed028tc1_set_pixel_raw+0x88>
  4012cc:	4b2e      	ldr	r3, [pc, #184]	; (401388 <eink_ed028tc1_set_pixel_raw+0xc8>)
  4012ce:	889b      	ldrh	r3, [r3, #4]
  4012d0:	b29b      	uxth	r3, r3
  4012d2:	428b      	cmp	r3, r1
  4012d4:	d938      	bls.n	401348 <eink_ed028tc1_set_pixel_raw+0x88>
        if ( (uc8177_global_instance.display_config.display_rotation == ROTATE_0) || (uc8177_global_instance.display_config.display_rotation == ROTATE_180) ) {
  4012d6:	4b2c      	ldr	r3, [pc, #176]	; (401388 <eink_ed028tc1_set_pixel_raw+0xc8>)
  4012d8:	781b      	ldrb	r3, [r3, #0]
  4012da:	b16b      	cbz	r3, 4012f8 <eink_ed028tc1_set_pixel_raw+0x38>
  4012dc:	4b2a      	ldr	r3, [pc, #168]	; (401388 <eink_ed028tc1_set_pixel_raw+0xc8>)
  4012de:	781b      	ldrb	r3, [r3, #0]
  4012e0:	b2db      	uxtb	r3, r3
  4012e2:	2b02      	cmp	r3, #2
  4012e4:	d008      	beq.n	4012f8 <eink_ed028tc1_set_pixel_raw+0x38>
            byte_set = x1_set + ((GFX_ED028TC1_MAX_WIDTH / 2) * y_set);
  4012e6:	f44f 7496 	mov.w	r4, #300	; 0x12c
  4012ea:	fb04 f101 	mul.w	r1, r4, r1
  4012ee:	eb01 0450 	add.w	r4, r1, r0, lsr #1
            odd_even_bit = x_set % 2;
  4012f2:	f000 0101 	and.w	r1, r0, #1
  4012f6:	e007      	b.n	401308 <eink_ed028tc1_set_pixel_raw+0x48>
           byte_set = y1_set + ((GFX_ED028TC1_MAX_WIDTH / 2) * x_set);
  4012f8:	f44f 7496 	mov.w	r4, #300	; 0x12c
  4012fc:	fb04 f400 	mul.w	r4, r4, r0
  401300:	eb04 0451 	add.w	r4, r4, r1, lsr #1
           odd_even_bit = y_set % 2;
  401304:	f001 0101 	and.w	r1, r1, #1
  401308:	4615      	mov	r5, r2
        if (odd_even_bit) {
  40130a:	b9f1      	cbnz	r1, 40134a <eink_ed028tc1_set_pixel_raw+0x8a>
            eink_set_bit(&ptr_eink_gfx_config->display_buffer_1_ptr[byte_set], 7, ((pixel_set >> 3) & 0x1));
  40130c:	4f1f      	ldr	r7, [pc, #124]	; (40138c <eink_ed028tc1_set_pixel_raw+0xcc>)
  40130e:	683b      	ldr	r3, [r7, #0]
  401310:	6918      	ldr	r0, [r3, #16]
  401312:	f3c2 02c0 	ubfx	r2, r2, #3, #1
  401316:	2107      	movs	r1, #7
  401318:	4420      	add	r0, r4
  40131a:	4e1d      	ldr	r6, [pc, #116]	; (401390 <eink_ed028tc1_set_pixel_raw+0xd0>)
  40131c:	47b0      	blx	r6
            eink_set_bit(&ptr_eink_gfx_config->display_buffer_1_ptr[byte_set], 6, ((pixel_set >> 2) & 0x1));
  40131e:	683b      	ldr	r3, [r7, #0]
  401320:	6918      	ldr	r0, [r3, #16]
  401322:	f3c5 0280 	ubfx	r2, r5, #2, #1
  401326:	2106      	movs	r1, #6
  401328:	4420      	add	r0, r4
  40132a:	47b0      	blx	r6
            eink_set_bit(&ptr_eink_gfx_config->display_buffer_1_ptr[byte_set], 5, ((pixel_set >> 1) & 0x1));
  40132c:	683b      	ldr	r3, [r7, #0]
  40132e:	6918      	ldr	r0, [r3, #16]
  401330:	f3c5 0240 	ubfx	r2, r5, #1, #1
  401334:	2105      	movs	r1, #5
  401336:	4420      	add	r0, r4
  401338:	47b0      	blx	r6
            eink_set_bit(&ptr_eink_gfx_config->display_buffer_1_ptr[byte_set], 4, (pixel_set & 0x1));
  40133a:	683b      	ldr	r3, [r7, #0]
  40133c:	6918      	ldr	r0, [r3, #16]
  40133e:	f005 0201 	and.w	r2, r5, #1
  401342:	2104      	movs	r1, #4
  401344:	4420      	add	r0, r4
  401346:	47b0      	blx	r6
  401348:	bdf8      	pop	{r3, r4, r5, r6, r7, pc}
            eink_set_bit(&ptr_eink_gfx_config->display_buffer_1_ptr[byte_set], 3, ((pixel_set >> 3) & 0x1));
  40134a:	4f10      	ldr	r7, [pc, #64]	; (40138c <eink_ed028tc1_set_pixel_raw+0xcc>)
  40134c:	683b      	ldr	r3, [r7, #0]
  40134e:	6918      	ldr	r0, [r3, #16]
  401350:	f3c2 02c0 	ubfx	r2, r2, #3, #1
  401354:	2103      	movs	r1, #3
  401356:	4420      	add	r0, r4
  401358:	4e0d      	ldr	r6, [pc, #52]	; (401390 <eink_ed028tc1_set_pixel_raw+0xd0>)
  40135a:	47b0      	blx	r6
            eink_set_bit(&ptr_eink_gfx_config->display_buffer_1_ptr[byte_set], 2, ((pixel_set >> 2) & 0x1));
  40135c:	683b      	ldr	r3, [r7, #0]
  40135e:	6918      	ldr	r0, [r3, #16]
  401360:	f3c5 0280 	ubfx	r2, r5, #2, #1
  401364:	2102      	movs	r1, #2
  401366:	4420      	add	r0, r4
  401368:	47b0      	blx	r6
            eink_set_bit(&ptr_eink_gfx_config->display_buffer_1_ptr[byte_set], 1, ((pixel_set >> 1) & 0x1));
  40136a:	683b      	ldr	r3, [r7, #0]
  40136c:	6918      	ldr	r0, [r3, #16]
  40136e:	f3c5 0240 	ubfx	r2, r5, #1, #1
  401372:	2101      	movs	r1, #1
  401374:	4420      	add	r0, r4
  401376:	47b0      	blx	r6
            eink_set_bit(&ptr_eink_gfx_config->display_buffer_1_ptr[byte_set], 0, (pixel_set & 0x1));
  401378:	683b      	ldr	r3, [r7, #0]
  40137a:	6918      	ldr	r0, [r3, #16]
  40137c:	f005 0201 	and.w	r2, r5, #1
  401380:	2100      	movs	r1, #0
  401382:	4420      	add	r0, r4
  401384:	47b0      	blx	r6
  401386:	bdf8      	pop	{r3, r4, r5, r6, r7, pc}
  401388:	200003c0 	.word	0x200003c0
  40138c:	2000042c 	.word	0x2000042c
  401390:	00400f6d 	.word	0x00400f6d

00401394 <eink_ed028tc1_set_pixel>:
{    
  401394:	b508      	push	{r3, lr}
    switch(pixel_colour) {
  401396:	b11a      	cbz	r2, 4013a0 <eink_ed028tc1_set_pixel+0xc>
            eink_ed028tc1_set_pixel_raw(x_set, y_set, 0xF);
  401398:	220f      	movs	r2, #15
  40139a:	4b03      	ldr	r3, [pc, #12]	; (4013a8 <eink_ed028tc1_set_pixel+0x14>)
  40139c:	4798      	blx	r3
  40139e:	bd08      	pop	{r3, pc}
            eink_ed028tc1_set_pixel_raw(x_set, y_set, 0x0);
  4013a0:	4b01      	ldr	r3, [pc, #4]	; (4013a8 <eink_ed028tc1_set_pixel+0x14>)
  4013a2:	4798      	blx	r3
            break;
  4013a4:	bd08      	pop	{r3, pc}
  4013a6:	bf00      	nop
  4013a8:	004012c1 	.word	0x004012c1

004013ac <eink_ed028tc1_graphics_load_4bgrey_image>:
 *                           as a multiple of 8.
 * \param x_place X location to place with bitmap.
 * \param y_place Y location to place with bitmap.
 */
void eink_ed028tc1_graphics_load_4bgrey_image(uint8_t *img_array, uint16_t array_size, eink_coordinate image_width_px, eink_coordinate image_height_bytes, eink_coordinate x_place, eink_coordinate y_place)
{
  4013ac:	e92d 4ff0 	stmdb	sp!, {r4, r5, r6, r7, r8, r9, sl, fp, lr}
  4013b0:	b087      	sub	sp, #28
  4013b2:	f8bd 1040 	ldrh.w	r1, [sp, #64]	; 0x40
  4013b6:	9102      	str	r1, [sp, #8]
    uint16_t buffer_index, i, j;
    uint16_t k, l, m, bit_value_1, bit_value_2;
    
    /* Scan pixels by column */
    for (i = 0; i < image_width_px; i++) {
  4013b8:	2a00      	cmp	r2, #0
  4013ba:	d037      	beq.n	40142c <eink_ed028tc1_graphics_load_4bgrey_image+0x80>
  4013bc:	9201      	str	r2, [sp, #4]
  4013be:	9305      	str	r3, [sp, #20]
  4013c0:	9004      	str	r0, [sp, #16]
  4013c2:	f04f 0a00 	mov.w	sl, #0
        m = 0;
        for (j = (image_height_bytes-1); j > 0; j--) {
  4013c6:	f103 3bff 	add.w	fp, r3, #4294967295
  4013ca:	fa1f fb8b 	uxth.w	fp, fp
            /* Process each pixel in byte  */
            bit_value_1 = ((img_array[(i*image_height_bytes)+j]) & 0xF);
  4013ce:	f8bd 3044 	ldrh.w	r3, [sp, #68]	; 0x44
  4013d2:	9303      	str	r3, [sp, #12]
            bit_value_2 = ((img_array[(i*image_height_bytes)+j] >> 4) & 0xF);
            /* Set the pixel in the display buffer */
            eink_ed028tc1_set_pixel_raw((x_place+i), (y_place+m), (~bit_value_1));
  4013d4:	f8df 805c 	ldr.w	r8, [pc, #92]	; 401434 <eink_ed028tc1_graphics_load_4bgrey_image+0x88>
        for (j = (image_height_bytes-1); j > 0; j--) {
  4013d8:	465c      	mov	r4, fp
  4013da:	f1bb 0f00 	cmp.w	fp, #0
  4013de:	d01e      	beq.n	40141e <eink_ed028tc1_graphics_load_4bgrey_image+0x72>
            bit_value_1 = ((img_array[(i*image_height_bytes)+j]) & 0xF);
  4013e0:	9d03      	ldr	r5, [sp, #12]
  4013e2:	9b05      	ldr	r3, [sp, #20]
  4013e4:	9a04      	ldr	r2, [sp, #16]
  4013e6:	fb03 290a 	mla	r9, r3, sl, r2
            eink_ed028tc1_set_pixel_raw((x_place+i), (y_place+m), (~bit_value_1));
  4013ea:	9b02      	ldr	r3, [sp, #8]
  4013ec:	eb03 070a 	add.w	r7, r3, sl
  4013f0:	b2bf      	uxth	r7, r7
            bit_value_1 = ((img_array[(i*image_height_bytes)+j]) & 0xF);
  4013f2:	f819 6004 	ldrb.w	r6, [r9, r4]
            eink_ed028tc1_set_pixel_raw((x_place+i), (y_place+m), (~bit_value_1));
  4013f6:	f006 020f 	and.w	r2, r6, #15
  4013fa:	f082 02ff 	eor.w	r2, r2, #255	; 0xff
  4013fe:	4629      	mov	r1, r5
  401400:	4638      	mov	r0, r7
  401402:	47c0      	blx	r8
            eink_ed028tc1_set_pixel_raw((x_place+i), (y_place+m+1), (~bit_value_2));
  401404:	ea6f 1216 	mvn.w	r2, r6, lsr #4
  401408:	1c69      	adds	r1, r5, #1
  40140a:	b2d2      	uxtb	r2, r2
  40140c:	b289      	uxth	r1, r1
  40140e:	4638      	mov	r0, r7
  401410:	47c0      	blx	r8
        for (j = (image_height_bytes-1); j > 0; j--) {
  401412:	3c01      	subs	r4, #1
  401414:	b2a4      	uxth	r4, r4
  401416:	3502      	adds	r5, #2
  401418:	b2ad      	uxth	r5, r5
  40141a:	2c00      	cmp	r4, #0
  40141c:	d1e9      	bne.n	4013f2 <eink_ed028tc1_graphics_load_4bgrey_image+0x46>
    for (i = 0; i < image_width_px; i++) {
  40141e:	f10a 0a01 	add.w	sl, sl, #1
  401422:	fa1f fa8a 	uxth.w	sl, sl
  401426:	9b01      	ldr	r3, [sp, #4]
  401428:	4553      	cmp	r3, sl
  40142a:	d8d5      	bhi.n	4013d8 <eink_ed028tc1_graphics_load_4bgrey_image+0x2c>
            m += 2;
        }
    }
    return;
  40142c:	b007      	add	sp, #28
  40142e:	e8bd 8ff0 	ldmia.w	sp!, {r4, r5, r6, r7, r8, r9, sl, fp, pc}
  401432:	bf00      	nop
  401434:	004012c1 	.word	0x004012c1

00401438 <_eink_ite_write_data>:
void _eink_ite_write_data(
        uint16_t command,
        uint16_t *data,
        uint32_t data_bytes,
		uint8_t fast_write)
{	
  401438:	b5f8      	push	{r3, r4, r5, r6, r7, lr}
  40143a:	4605      	mov	r5, r0
  40143c:	4614      	mov	r4, r2
	uint32_t i, j, sendWords_m, sendWords_r;
	
	eink_ite_wait_for_hrdy();
  40143e:	4b10      	ldr	r3, [pc, #64]	; (401480 <_eink_ite_write_data+0x48>)
  401440:	4798      	blx	r3
	if (command != 0) {
  401442:	b9cd      	cbnz	r5, 401478 <_eink_ite_write_data+0x40>
		/* Set CSB LOW to enable communication to the display */
		gpio_set_pin_level(EINK_SPI_CSB, 1);
#endif
	}
	
	eink_ite_wait_for_hrdy();
  401444:	4b0e      	ldr	r3, [pc, #56]	; (401480 <_eink_ite_write_data+0x48>)
  401446:	4798      	blx	r3
	if (data_bytes != 0) {
  401448:	b1ac      	cbz	r4, 401476 <_eink_ite_write_data+0x3e>
		/* Data burst must be sent 1024 words at a time */
		sendWords_r = data_bytes % 2048;
  40144a:	f3c4 060a 	ubfx	r6, r4, #0, #11
		sendWords_m = (data_bytes - sendWords_r) / 2048;
  40144e:	1ba4      	subs	r4, r4, r6
		
		/* If we have more than 1024 words, start sending them in bursts */
		for(j=0; j<sendWords_m; j++)
  401450:	0ae5      	lsrs	r5, r4, #11
  401452:	d009      	beq.n	401468 <_eink_ite_write_data+0x30>
  401454:	2400      	movs	r4, #0
			}			
			/* Set CSB LOW to enable communication to the display */
#ifdef EINK_SPI_CSB
			gpio_set_pin_level(EINK_SPI_CSB, 1);
#endif
			eink_ite_wait_for_hrdy();
  401456:	4f0a      	ldr	r7, [pc, #40]	; (401480 <_eink_ite_write_data+0x48>)
{	
  401458:	f44f 6300 	mov.w	r3, #2048	; 0x800
			for (i=0; i<2048; i++)
  40145c:	3b01      	subs	r3, #1
  40145e:	d1fd      	bne.n	40145c <_eink_ite_write_data+0x24>
			eink_ite_wait_for_hrdy();
  401460:	47b8      	blx	r7
		for(j=0; j<sendWords_m; j++)
  401462:	3401      	adds	r4, #1
  401464:	42a5      	cmp	r5, r4
  401466:	d1f7      	bne.n	401458 <_eink_ite_write_data+0x20>
#ifdef EINK_SPI_CSB
		gpio_set_pin_level(EINK_SPI_CSB, 0);
#endif
		eink_ite_send_raw_hword(0x0000);
		/* Send the remaining data (or all the data if there was less than 1024 words */
		for (i=0; i<sendWords_r; i++) {
  401468:	b11e      	cbz	r6, 401472 <_eink_ite_write_data+0x3a>
  40146a:	2300      	movs	r3, #0
  40146c:	3301      	adds	r3, #1
  40146e:	429e      	cmp	r6, r3
  401470:	d1fc      	bne.n	40146c <_eink_ite_write_data+0x34>
		}
		/* Set CSB LOW to enable communication to the display */
#ifdef EINK_SPI_CSB
		gpio_set_pin_level(EINK_SPI_CSB, 1);
#endif
		eink_ite_wait_for_hrdy();
  401472:	4b03      	ldr	r3, [pc, #12]	; (401480 <_eink_ite_write_data+0x48>)
  401474:	4798      	blx	r3
  401476:	bdf8      	pop	{r3, r4, r5, r6, r7, pc}
		eink_ite_wait_for_hrdy();
  401478:	4b01      	ldr	r3, [pc, #4]	; (401480 <_eink_ite_write_data+0x48>)
  40147a:	4798      	blx	r3
  40147c:	e7e2      	b.n	401444 <_eink_ite_write_data+0xc>
  40147e:	bf00      	nop
  401480:	004004b1 	.word	0x004004b1

00401484 <eink_ite_write_data>:
 */
void eink_ite_write_data(
		uint16_t command,
		uint16_t *data,
		uint32_t data_bytes)
{
  401484:	b510      	push	{r4, lr}
	_eink_ite_write_data(command, data, data_bytes, 0);
  401486:	2300      	movs	r3, #0
  401488:	4c01      	ldr	r4, [pc, #4]	; (401490 <eink_ite_write_data+0xc>)
  40148a:	47a0      	blx	r4
  40148c:	bd10      	pop	{r4, pc}
  40148e:	bf00      	nop
  401490:	00401439 	.word	0x00401439

00401494 <eink_it8951_refresh_partial_display>:
	eink_coordinate show_x,
	eink_coordinate show_y,
	eink_coordinate show_w,
	eink_coordinate show_h,
	uint8_t update_mode)
{
  401494:	b530      	push	{r4, r5, lr}
  401496:	b085      	sub	sp, #20
	uint16_t eink_data[5];
	switch(it8951_global_instance.display_rotation)
  401498:	4c2e      	ldr	r4, [pc, #184]	; (401554 <eink_it8951_refresh_partial_display+0xc0>)
  40149a:	f894 4030 	ldrb.w	r4, [r4, #48]	; 0x30
  40149e:	b2e4      	uxtb	r4, r4
  4014a0:	2c03      	cmp	r4, #3
  4014a2:	d80b      	bhi.n	4014bc <eink_it8951_refresh_partial_display+0x28>
  4014a4:	e8df f004 	tbb	[pc, r4]
  4014a8:	47352702 	.word	0x47352702
	{
		case ROTATE_0:
			eink_data[0] = (uint16_t) show_y;
  4014ac:	f8ad 1004 	strh.w	r1, [sp, #4]
			eink_data[1] = (uint16_t) show_x;
  4014b0:	f8ad 0006 	strh.w	r0, [sp, #6]
			eink_data[2] = (uint16_t) show_h;
  4014b4:	f8ad 3008 	strh.w	r3, [sp, #8]
			eink_data[3] = (uint16_t) show_w;
  4014b8:	f8ad 200a 	strh.w	r2, [sp, #10]
			eink_data[1] = (uint16_t) show_y;
			eink_data[2] = (uint16_t) show_w;
			eink_data[3] = (uint16_t) show_h;
			break;
	}
	eink_data[4] = (uint16_t) update_mode;
  4014bc:	f89d 3020 	ldrb.w	r3, [sp, #32]
  4014c0:	f8ad 300c 	strh.w	r3, [sp, #12]
	/* Send I80 Display Command */
	eink_ite_write_data(IT8951_I80_USR_DPY_AREA, &eink_data[0], 1);
  4014c4:	2201      	movs	r2, #1
  4014c6:	a901      	add	r1, sp, #4
  4014c8:	2034      	movs	r0, #52	; 0x34
  4014ca:	4c23      	ldr	r4, [pc, #140]	; (401558 <eink_it8951_refresh_partial_display+0xc4>)
  4014cc:	47a0      	blx	r4
	eink_ite_write_data(0, &eink_data[1], 1);
  4014ce:	2201      	movs	r2, #1
  4014d0:	f10d 0106 	add.w	r1, sp, #6
  4014d4:	2000      	movs	r0, #0
  4014d6:	47a0      	blx	r4
	eink_ite_write_data(0, &eink_data[2], 1);
  4014d8:	2201      	movs	r2, #1
  4014da:	a902      	add	r1, sp, #8
  4014dc:	2000      	movs	r0, #0
  4014de:	47a0      	blx	r4
	eink_ite_write_data(0, &eink_data[3], 1);
  4014e0:	2201      	movs	r2, #1
  4014e2:	f10d 010a 	add.w	r1, sp, #10
  4014e6:	2000      	movs	r0, #0
  4014e8:	47a0      	blx	r4
	eink_ite_write_data(0, &eink_data[4], 1);
  4014ea:	2201      	movs	r2, #1
  4014ec:	a903      	add	r1, sp, #12
  4014ee:	2000      	movs	r0, #0
  4014f0:	47a0      	blx	r4
}
  4014f2:	b005      	add	sp, #20
  4014f4:	bd30      	pop	{r4, r5, pc}
			eink_data[0] = (uint16_t) show_x;
  4014f6:	f8ad 0004 	strh.w	r0, [sp, #4]
			eink_data[1] = (uint16_t) it8951_global_instance.display_width-show_y-show_h;
  4014fa:	4816      	ldr	r0, [pc, #88]	; (401554 <eink_it8951_refresh_partial_display+0xc0>)
  4014fc:	8d00      	ldrh	r0, [r0, #40]	; 0x28
  4014fe:	b280      	uxth	r0, r0
  401500:	1a41      	subs	r1, r0, r1
  401502:	1ac9      	subs	r1, r1, r3
  401504:	f8ad 1006 	strh.w	r1, [sp, #6]
			eink_data[2] = (uint16_t) show_w;
  401508:	f8ad 2008 	strh.w	r2, [sp, #8]
			eink_data[3] = (uint16_t) show_h;
  40150c:	f8ad 300a 	strh.w	r3, [sp, #10]
			break;
  401510:	e7d4      	b.n	4014bc <eink_it8951_refresh_partial_display+0x28>
			eink_data[0] = (uint16_t) it8951_global_instance.display_height-show_y-show_h;
  401512:	4d10      	ldr	r5, [pc, #64]	; (401554 <eink_it8951_refresh_partial_display+0xc0>)
  401514:	8d6c      	ldrh	r4, [r5, #42]	; 0x2a
  401516:	b2a4      	uxth	r4, r4
  401518:	1a61      	subs	r1, r4, r1
  40151a:	1ac9      	subs	r1, r1, r3
  40151c:	f8ad 1004 	strh.w	r1, [sp, #4]
			eink_data[1] = (uint16_t) it8951_global_instance.display_width-show_x-show_w;
  401520:	8d29      	ldrh	r1, [r5, #40]	; 0x28
  401522:	b289      	uxth	r1, r1
  401524:	1a08      	subs	r0, r1, r0
  401526:	1a80      	subs	r0, r0, r2
  401528:	f8ad 0006 	strh.w	r0, [sp, #6]
			eink_data[2] = (uint16_t) show_h;
  40152c:	f8ad 3008 	strh.w	r3, [sp, #8]
			eink_data[3] = (uint16_t) show_w;
  401530:	f8ad 200a 	strh.w	r2, [sp, #10]
			break;
  401534:	e7c2      	b.n	4014bc <eink_it8951_refresh_partial_display+0x28>
			eink_data[0] = (uint16_t) it8951_global_instance.display_height-show_x-show_w;
  401536:	4c07      	ldr	r4, [pc, #28]	; (401554 <eink_it8951_refresh_partial_display+0xc0>)
  401538:	8d64      	ldrh	r4, [r4, #42]	; 0x2a
  40153a:	b2a4      	uxth	r4, r4
  40153c:	1a20      	subs	r0, r4, r0
  40153e:	1a80      	subs	r0, r0, r2
  401540:	f8ad 0004 	strh.w	r0, [sp, #4]
			eink_data[1] = (uint16_t) show_y;
  401544:	f8ad 1006 	strh.w	r1, [sp, #6]
			eink_data[2] = (uint16_t) show_w;
  401548:	f8ad 2008 	strh.w	r2, [sp, #8]
			eink_data[3] = (uint16_t) show_h;
  40154c:	f8ad 300a 	strh.w	r3, [sp, #10]
			break;
  401550:	e7b4      	b.n	4014bc <eink_it8951_refresh_partial_display+0x28>
  401552:	bf00      	nop
  401554:	200003d0 	.word	0x200003d0
  401558:	00401485 	.word	0x00401485

0040155c <eink_it8951_refresh_display_mode>:
{
  40155c:	b530      	push	{r4, r5, lr}
  40155e:	b085      	sub	sp, #20
	 eink_data[0] = (uint16_t) 0;
  401560:	2400      	movs	r4, #0
  401562:	f8ad 4004 	strh.w	r4, [sp, #4]
	 eink_data[1] = (uint16_t) 0;
  401566:	f8ad 4006 	strh.w	r4, [sp, #6]
	 eink_data[2] = (uint16_t) it8951_global_instance.display_height;
  40156a:	4b11      	ldr	r3, [pc, #68]	; (4015b0 <eink_it8951_refresh_display_mode+0x54>)
  40156c:	8d5a      	ldrh	r2, [r3, #42]	; 0x2a
  40156e:	f8ad 2008 	strh.w	r2, [sp, #8]
	 eink_data[3] = (uint16_t) it8951_global_instance.display_width;
  401572:	8d1b      	ldrh	r3, [r3, #40]	; 0x28
  401574:	f8ad 300a 	strh.w	r3, [sp, #10]
	 eink_data[4] = (uint16_t) update_mode;
  401578:	f8ad 000c 	strh.w	r0, [sp, #12]
	 eink_ite_write_data(IT8951_I80_USR_DPY_AREA, &eink_data[0], 1);
  40157c:	2201      	movs	r2, #1
  40157e:	a901      	add	r1, sp, #4
  401580:	2034      	movs	r0, #52	; 0x34
  401582:	4d0c      	ldr	r5, [pc, #48]	; (4015b4 <eink_it8951_refresh_display_mode+0x58>)
  401584:	47a8      	blx	r5
	 eink_ite_write_data(0, &eink_data[1], 1);
  401586:	2201      	movs	r2, #1
  401588:	f10d 0106 	add.w	r1, sp, #6
  40158c:	4620      	mov	r0, r4
  40158e:	47a8      	blx	r5
	 eink_ite_write_data(0, &eink_data[2], 1);
  401590:	2201      	movs	r2, #1
  401592:	a902      	add	r1, sp, #8
  401594:	4620      	mov	r0, r4
  401596:	47a8      	blx	r5
	 eink_ite_write_data(0, &eink_data[3], 1);
  401598:	2201      	movs	r2, #1
  40159a:	f10d 010a 	add.w	r1, sp, #10
  40159e:	4620      	mov	r0, r4
  4015a0:	47a8      	blx	r5
	 eink_ite_write_data(0, &eink_data[4], 1);
  4015a2:	2201      	movs	r2, #1
  4015a4:	a903      	add	r1, sp, #12
  4015a6:	4620      	mov	r0, r4
  4015a8:	47a8      	blx	r5
 }
  4015aa:	b005      	add	sp, #20
  4015ac:	bd30      	pop	{r4, r5, pc}
  4015ae:	bf00      	nop
  4015b0:	200003d0 	.word	0x200003d0
  4015b4:	00401485 	.word	0x00401485

004015b8 <eink_it8951_put_partial_display_buffer>:
 * \param start_y starting Y coordinate start of the display buffer to send
 * \param window_w width of the display buffer to send
 * \param window_h height of the display buffer to send
 */
void eink_it8951_put_partial_display_buffer(eink_coordinate start_x, eink_coordinate start_y, eink_coordinate window_w, eink_coordinate window_h)
{
  4015b8:	e92d 4ff0 	stmdb	sp!, {r4, r5, r6, r7, r8, r9, sl, fp, lr}
  4015bc:	b085      	sub	sp, #20
  4015be:	4680      	mov	r8, r0
  4015c0:	460d      	mov	r5, r1
  4015c2:	4616      	mov	r6, r2
  4015c4:	461f      	mov	r7, r3
	uint16_t eink_data[5], rotation = 0;
	uint16_t* display_buffer;
	uint32_t i, j, k;

	/* Get pointer to Display Buffer */
	display_buffer = (uint16_t*) it8951_dtm_display_buffer;
  4015c6:	4b48      	ldr	r3, [pc, #288]	; (4016e8 <eink_it8951_put_partial_display_buffer+0x130>)
  4015c8:	681c      	ldr	r4, [r3, #0]
		
    /* Set Image Buffer Base address (IT8951) */
    uint16_t usWordH = (unsigned short)((it8951_global_instance.img_buffer_addr >> 16) & 0x0000FFFF);
  4015ca:	f8df 9124 	ldr.w	r9, [pc, #292]	; 4016f0 <eink_it8951_put_partial_display_buffer+0x138>
  4015ce:	f8d9 3034 	ldr.w	r3, [r9, #52]	; 0x34
    uint16_t usWordL = (unsigned short)( it8951_global_instance.img_buffer_addr & 0x0000FFFF);
  4015d2:	f8d9 a034 	ldr.w	sl, [r9, #52]	; 0x34
	uint16_t data_send[2] = {reg_addr, reg_value};
  4015d6:	f240 220a 	movw	r2, #522	; 0x20a
  4015da:	f8ad 2000 	strh.w	r2, [sp]
    uint16_t usWordH = (unsigned short)((it8951_global_instance.img_buffer_addr >> 16) & 0x0000FFFF);
  4015de:	0c1b      	lsrs	r3, r3, #16
  4015e0:	f8ad 3002 	strh.w	r3, [sp, #2]
	eink_ite_write_data(IT8951_I80_REG_WR, data_send, 2);
  4015e4:	2202      	movs	r2, #2
  4015e6:	4669      	mov	r1, sp
  4015e8:	2011      	movs	r0, #17
  4015ea:	f8df b100 	ldr.w	fp, [pc, #256]	; 4016ec <eink_it8951_put_partial_display_buffer+0x134>
  4015ee:	47d8      	blx	fp
	uint16_t data_send[2] = {reg_addr, reg_value};
  4015f0:	f44f 7302 	mov.w	r3, #520	; 0x208
  4015f4:	f8ad 3000 	strh.w	r3, [sp]
    uint16_t usWordL = (unsigned short)( it8951_global_instance.img_buffer_addr & 0x0000FFFF);
  4015f8:	f8ad a002 	strh.w	sl, [sp, #2]
	eink_ite_write_data(IT8951_I80_REG_WR, data_send, 2);
  4015fc:	2202      	movs	r2, #2
  4015fe:	4669      	mov	r1, sp
  401600:	2011      	movs	r0, #17
  401602:	47d8      	blx	fp
    it8951_write_reg(LISAR + 2, usWordH);
    it8951_write_reg(LISAR, usWordL);
    
	/* Set arguments for Load Image Start */
	switch(it8951_global_instance.display_rotation)
  401604:	f899 3030 	ldrb.w	r3, [r9, #48]	; 0x30
  401608:	b2db      	uxtb	r3, r3
  40160a:	2b02      	cmp	r3, #2
  40160c:	d029      	beq.n	401662 <eink_it8951_put_partial_display_buffer+0xaa>
  40160e:	2b03      	cmp	r3, #3
  401610:	d029      	beq.n	401666 <eink_it8951_put_partial_display_buffer+0xae>
	uint16_t eink_data[5], rotation = 0;
  401612:	2b01      	cmp	r3, #1
  401614:	bf14      	ite	ne
  401616:	2300      	movne	r3, #0
  401618:	2301      	moveq	r3, #1
		case ROTATE_0: rotation = 0; break;
		case ROTATE_90: rotation = 1; break;
		case ROTATE_180: rotation = 2; break;
		case ROTATE_270: rotation = 3; break;
	}
	eink_data[0] = (0 << 8) | (2 << 4) | (rotation);
  40161a:	f043 0320 	orr.w	r3, r3, #32
  40161e:	f8ad 3004 	strh.w	r3, [sp, #4]
	eink_data[1] = start_y;
  401622:	f8ad 5006 	strh.w	r5, [sp, #6]
	eink_data[2] = start_x;
  401626:	f8ad 8008 	strh.w	r8, [sp, #8]
	eink_data[3] = window_h;
  40162a:	f8ad 700a 	strh.w	r7, [sp, #10]
	eink_data[4] = window_w;
  40162e:	f8ad 600c 	strh.w	r6, [sp, #12]
	eink_ite_write_data(IT8951_I80_LD_IMG_AREA, eink_data, 5);
  401632:	2205      	movs	r2, #5
  401634:	a901      	add	r1, sp, #4
  401636:	2021      	movs	r0, #33	; 0x21
  401638:	4b2c      	ldr	r3, [pc, #176]	; (4016ec <eink_it8951_put_partial_display_buffer+0x134>)
  40163a:	4798      	blx	r3
	
	/* Move to start of the window within the display buffer */
	if((it8951_global_instance.display_rotation == ROTATE_0) || (it8951_global_instance.display_rotation == ROTATE_180))
  40163c:	4b2c      	ldr	r3, [pc, #176]	; (4016f0 <eink_it8951_put_partial_display_buffer+0x138>)
  40163e:	f893 3030 	ldrb.w	r3, [r3, #48]	; 0x30
  401642:	b193      	cbz	r3, 40166a <eink_it8951_put_partial_display_buffer+0xb2>
  401644:	4b2a      	ldr	r3, [pc, #168]	; (4016f0 <eink_it8951_put_partial_display_buffer+0x138>)
  401646:	f893 3030 	ldrb.w	r3, [r3, #48]	; 0x30
  40164a:	b2db      	uxtb	r3, r3
  40164c:	2b02      	cmp	r3, #2
  40164e:	d00c      	beq.n	40166a <eink_it8951_put_partial_display_buffer+0xb2>
		display_buffer += (it8951_global_instance.display_height / 4) * (start_x);
	else
		display_buffer += (it8951_global_instance.display_width / 4) * (start_x);
  401650:	4b27      	ldr	r3, [pc, #156]	; (4016f0 <eink_it8951_put_partial_display_buffer+0x138>)
  401652:	8d1b      	ldrh	r3, [r3, #40]	; 0x28
  401654:	f3c3 038d 	ubfx	r3, r3, #2, #14
  401658:	fb08 f803 	mul.w	r8, r8, r3
  40165c:	eb04 0448 	add.w	r4, r4, r8, lsl #1
  401660:	e00b      	b.n	40167a <eink_it8951_put_partial_display_buffer+0xc2>
		case ROTATE_180: rotation = 2; break;
  401662:	2302      	movs	r3, #2
  401664:	e7d9      	b.n	40161a <eink_it8951_put_partial_display_buffer+0x62>
		case ROTATE_270: rotation = 3; break;
  401666:	2303      	movs	r3, #3
  401668:	e7d7      	b.n	40161a <eink_it8951_put_partial_display_buffer+0x62>
		display_buffer += (it8951_global_instance.display_height / 4) * (start_x);
  40166a:	4b21      	ldr	r3, [pc, #132]	; (4016f0 <eink_it8951_put_partial_display_buffer+0x138>)
  40166c:	8d5b      	ldrh	r3, [r3, #42]	; 0x2a
  40166e:	f3c3 038d 	ubfx	r3, r3, #2, #14
  401672:	fb08 f803 	mul.w	r8, r8, r3
  401676:	eb04 0448 	add.w	r4, r4, r8, lsl #1
	display_buffer += (start_y / 4);
  40167a:	08ad      	lsrs	r5, r5, #2
  40167c:	eb04 0445 	add.w	r4, r4, r5, lsl #1
	
	/* Loop through window sending the display buffer */
	for(j = 0; j < window_w; j++)
  401680:	46b0      	mov	r8, r6
  401682:	b346      	cbz	r6, 4016d6 <eink_it8951_put_partial_display_buffer+0x11e>
	{
		eink_ite_write_data(0, display_buffer, (window_h / 4));
  401684:	08bf      	lsrs	r7, r7, #2
		display_buffer += (window_h / 4);
  401686:	ea4f 0a47 	mov.w	sl, r7, lsl #1
		
		if((it8951_global_instance.display_rotation == ROTATE_0) || (it8951_global_instance.display_rotation == ROTATE_180))
			display_buffer += (it8951_global_instance.display_height / 4) - (window_h / 4);
		else
			display_buffer += (it8951_global_instance.display_width / 4) - (window_h / 4);
  40168a:	46bb      	mov	fp, r7
  40168c:	2500      	movs	r5, #0
		eink_ite_write_data(0, display_buffer, (window_h / 4));
  40168e:	f8df 905c 	ldr.w	r9, [pc, #92]	; 4016ec <eink_it8951_put_partial_display_buffer+0x134>
		if((it8951_global_instance.display_rotation == ROTATE_0) || (it8951_global_instance.display_rotation == ROTATE_180))
  401692:	4e17      	ldr	r6, [pc, #92]	; (4016f0 <eink_it8951_put_partial_display_buffer+0x138>)
  401694:	e009      	b.n	4016aa <eink_it8951_put_partial_display_buffer+0xf2>
			display_buffer += (it8951_global_instance.display_height / 4) - (window_h / 4);
  401696:	8d73      	ldrh	r3, [r6, #42]	; 0x2a
  401698:	f3c3 038d 	ubfx	r3, r3, #2, #14
  40169c:	eba3 030b 	sub.w	r3, r3, fp
  4016a0:	eb04 0443 	add.w	r4, r4, r3, lsl #1
	for(j = 0; j < window_w; j++)
  4016a4:	3501      	adds	r5, #1
  4016a6:	4545      	cmp	r5, r8
  4016a8:	d015      	beq.n	4016d6 <eink_it8951_put_partial_display_buffer+0x11e>
		eink_ite_write_data(0, display_buffer, (window_h / 4));
  4016aa:	463a      	mov	r2, r7
  4016ac:	4621      	mov	r1, r4
  4016ae:	2000      	movs	r0, #0
  4016b0:	47c8      	blx	r9
		display_buffer += (window_h / 4);
  4016b2:	4454      	add	r4, sl
		if((it8951_global_instance.display_rotation == ROTATE_0) || (it8951_global_instance.display_rotation == ROTATE_180))
  4016b4:	f896 3030 	ldrb.w	r3, [r6, #48]	; 0x30
  4016b8:	2b00      	cmp	r3, #0
  4016ba:	d0ec      	beq.n	401696 <eink_it8951_put_partial_display_buffer+0xde>
  4016bc:	f896 3030 	ldrb.w	r3, [r6, #48]	; 0x30
  4016c0:	b2db      	uxtb	r3, r3
  4016c2:	2b02      	cmp	r3, #2
  4016c4:	d0e7      	beq.n	401696 <eink_it8951_put_partial_display_buffer+0xde>
			display_buffer += (it8951_global_instance.display_width / 4) - (window_h / 4);
  4016c6:	8d33      	ldrh	r3, [r6, #40]	; 0x28
  4016c8:	f3c3 038d 	ubfx	r3, r3, #2, #14
  4016cc:	eba3 030b 	sub.w	r3, r3, fp
  4016d0:	eb04 0443 	add.w	r4, r4, r3, lsl #1
  4016d4:	e7e6      	b.n	4016a4 <eink_it8951_put_partial_display_buffer+0xec>
	}
	
	/* Send Load Img End Command */
	eink_ite_write_data(IT8951_I80_LD_IMG_END, 0, 0);
  4016d6:	2200      	movs	r2, #0
  4016d8:	4611      	mov	r1, r2
  4016da:	2022      	movs	r0, #34	; 0x22
  4016dc:	4b03      	ldr	r3, [pc, #12]	; (4016ec <eink_it8951_put_partial_display_buffer+0x134>)
  4016de:	4798      	blx	r3
}
  4016e0:	b005      	add	sp, #20
  4016e2:	e8bd 8ff0 	ldmia.w	sp!, {r4, r5, r6, r7, r8, r9, sl, fp, pc}
  4016e6:	bf00      	nop
  4016e8:	200003b4 	.word	0x200003b4
  4016ec:	00401485 	.word	0x00401485
  4016f0:	200003d0 	.word	0x200003d0

004016f4 <eink_it8951_refresh_display>:
{
  4016f4:	b530      	push	{r4, r5, lr}
  4016f6:	b085      	sub	sp, #20
	 eink_data[0] = (uint16_t) 0;
  4016f8:	2400      	movs	r4, #0
  4016fa:	f8ad 4004 	strh.w	r4, [sp, #4]
	 eink_data[1] = (uint16_t) 0;
  4016fe:	f8ad 4006 	strh.w	r4, [sp, #6]
	 eink_data[2] = (uint16_t) it8951_global_instance.display_height;
  401702:	4b11      	ldr	r3, [pc, #68]	; (401748 <eink_it8951_refresh_display+0x54>)
  401704:	8d5a      	ldrh	r2, [r3, #42]	; 0x2a
  401706:	f8ad 2008 	strh.w	r2, [sp, #8]
	 eink_data[3] = (uint16_t) it8951_global_instance.display_width;
  40170a:	8d1b      	ldrh	r3, [r3, #40]	; 0x28
  40170c:	f8ad 300a 	strh.w	r3, [sp, #10]
	 eink_data[4] = (uint16_t) update_mode;
  401710:	2302      	movs	r3, #2
  401712:	f8ad 300c 	strh.w	r3, [sp, #12]
	 eink_ite_write_data(IT8951_I80_USR_DPY_AREA, &eink_data[0], 1);
  401716:	2201      	movs	r2, #1
  401718:	a901      	add	r1, sp, #4
  40171a:	2034      	movs	r0, #52	; 0x34
  40171c:	4d0b      	ldr	r5, [pc, #44]	; (40174c <eink_it8951_refresh_display+0x58>)
  40171e:	47a8      	blx	r5
	 eink_ite_write_data(0, &eink_data[1], 1);
  401720:	2201      	movs	r2, #1
  401722:	f10d 0106 	add.w	r1, sp, #6
  401726:	4620      	mov	r0, r4
  401728:	47a8      	blx	r5
	 eink_ite_write_data(0, &eink_data[2], 1);
  40172a:	2201      	movs	r2, #1
  40172c:	a902      	add	r1, sp, #8
  40172e:	4620      	mov	r0, r4
  401730:	47a8      	blx	r5
	 eink_ite_write_data(0, &eink_data[3], 1);
  401732:	2201      	movs	r2, #1
  401734:	f10d 010a 	add.w	r1, sp, #10
  401738:	4620      	mov	r0, r4
  40173a:	47a8      	blx	r5
	 eink_ite_write_data(0, &eink_data[4], 1);
  40173c:	2201      	movs	r2, #1
  40173e:	a903      	add	r1, sp, #12
  401740:	4620      	mov	r0, r4
  401742:	47a8      	blx	r5
}
  401744:	b005      	add	sp, #20
  401746:	bd30      	pop	{r4, r5, pc}
  401748:	200003d0 	.word	0x200003d0
  40174c:	00401485 	.word	0x00401485

00401750 <eink_ite_write_data_fast>:
 */
void eink_ite_write_data_fast(
		uint16_t command,
		uint16_t *data,
		uint32_t data_bytes)
{
  401750:	b510      	push	{r4, lr}
	_eink_ite_write_data(command, data, data_bytes, 1);
  401752:	2301      	movs	r3, #1
  401754:	4c01      	ldr	r4, [pc, #4]	; (40175c <eink_ite_write_data_fast+0xc>)
  401756:	47a0      	blx	r4
  401758:	bd10      	pop	{r4, pc}
  40175a:	bf00      	nop
  40175c:	00401439 	.word	0x00401439

00401760 <eink_it8951_put_display_buffer>:
{
  401760:	b5f0      	push	{r4, r5, r6, r7, lr}
  401762:	b085      	sub	sp, #20
  401764:	4605      	mov	r5, r0
    uint16_t usWordH = (unsigned short)((it8951_global_instance.img_buffer_addr >> 16) & 0x0000FFFF);
  401766:	4c33      	ldr	r4, [pc, #204]	; (401834 <eink_it8951_put_display_buffer+0xd4>)
  401768:	6b63      	ldr	r3, [r4, #52]	; 0x34
    uint16_t usWordL = (unsigned short)( it8951_global_instance.img_buffer_addr & 0x0000FFFF);
  40176a:	6b67      	ldr	r7, [r4, #52]	; 0x34
	uint16_t data_send[2] = {reg_addr, reg_value};
  40176c:	f240 220a 	movw	r2, #522	; 0x20a
  401770:	f8ad 2004 	strh.w	r2, [sp, #4]
    uint16_t usWordH = (unsigned short)((it8951_global_instance.img_buffer_addr >> 16) & 0x0000FFFF);
  401774:	0c1b      	lsrs	r3, r3, #16
  401776:	f8ad 3006 	strh.w	r3, [sp, #6]
	eink_ite_write_data(IT8951_I80_REG_WR, data_send, 2);
  40177a:	2202      	movs	r2, #2
  40177c:	a901      	add	r1, sp, #4
  40177e:	2011      	movs	r0, #17
  401780:	4e2d      	ldr	r6, [pc, #180]	; (401838 <eink_it8951_put_display_buffer+0xd8>)
  401782:	47b0      	blx	r6
	uint16_t data_send[2] = {reg_addr, reg_value};
  401784:	f44f 7302 	mov.w	r3, #520	; 0x208
  401788:	f8ad 3004 	strh.w	r3, [sp, #4]
    uint16_t usWordL = (unsigned short)( it8951_global_instance.img_buffer_addr & 0x0000FFFF);
  40178c:	f8ad 7006 	strh.w	r7, [sp, #6]
	eink_ite_write_data(IT8951_I80_REG_WR, data_send, 2);
  401790:	2202      	movs	r2, #2
  401792:	a901      	add	r1, sp, #4
  401794:	2011      	movs	r0, #17
  401796:	47b0      	blx	r6
	switch(it8951_global_instance.display_rotation)
  401798:	f894 3030 	ldrb.w	r3, [r4, #48]	; 0x30
  40179c:	b2db      	uxtb	r3, r3
  40179e:	2b02      	cmp	r3, #2
  4017a0:	d01d      	beq.n	4017de <eink_it8951_put_display_buffer+0x7e>
  4017a2:	2b03      	cmp	r3, #3
  4017a4:	d01d      	beq.n	4017e2 <eink_it8951_put_display_buffer+0x82>
	uint16_t eink_data, rotation = 0;
  4017a6:	2b01      	cmp	r3, #1
  4017a8:	bf14      	ite	ne
  4017aa:	2300      	movne	r3, #0
  4017ac:	2301      	moveq	r3, #1
	eink_data = (0 << 8) | (2 << 4) | (rotation);
  4017ae:	f043 0320 	orr.w	r3, r3, #32
  4017b2:	a904      	add	r1, sp, #16
  4017b4:	f821 3d02 	strh.w	r3, [r1, #-2]!
	eink_ite_write_data(IT8951_I80_LD_IMG, &eink_data, 1);
  4017b8:	2201      	movs	r2, #1
  4017ba:	2020      	movs	r0, #32
  4017bc:	4c1e      	ldr	r4, [pc, #120]	; (401838 <eink_it8951_put_display_buffer+0xd8>)
  4017be:	47a0      	blx	r4
	eink_ite_write_data_fast(0, display_buffer, (it8951_global_instance.display_buffer_length/2));
  4017c0:	4b1c      	ldr	r3, [pc, #112]	; (401834 <eink_it8951_put_display_buffer+0xd4>)
  4017c2:	6ada      	ldr	r2, [r3, #44]	; 0x2c
  4017c4:	0852      	lsrs	r2, r2, #1
  4017c6:	4b1d      	ldr	r3, [pc, #116]	; (40183c <eink_it8951_put_display_buffer+0xdc>)
  4017c8:	6819      	ldr	r1, [r3, #0]
  4017ca:	2000      	movs	r0, #0
  4017cc:	4b1c      	ldr	r3, [pc, #112]	; (401840 <eink_it8951_put_display_buffer+0xe0>)
  4017ce:	4798      	blx	r3
	eink_ite_write_data(IT8951_I80_LD_IMG_END, 0, 0);
  4017d0:	2200      	movs	r2, #0
  4017d2:	4611      	mov	r1, r2
  4017d4:	2022      	movs	r0, #34	; 0x22
  4017d6:	47a0      	blx	r4
	if(refresh_display) eink_it8951_refresh_display();
  4017d8:	b92d      	cbnz	r5, 4017e6 <eink_it8951_put_display_buffer+0x86>
}
  4017da:	b005      	add	sp, #20
  4017dc:	bdf0      	pop	{r4, r5, r6, r7, pc}
		case ROTATE_180: rotation = 2; break;
  4017de:	2302      	movs	r3, #2
  4017e0:	e7e5      	b.n	4017ae <eink_it8951_put_display_buffer+0x4e>
		case ROTATE_270: rotation = 3; break;
  4017e2:	2303      	movs	r3, #3
  4017e4:	e7e3      	b.n	4017ae <eink_it8951_put_display_buffer+0x4e>
	 eink_data[0] = (uint16_t) 0;
  4017e6:	2400      	movs	r4, #0
  4017e8:	f8ad 4004 	strh.w	r4, [sp, #4]
	 eink_data[1] = (uint16_t) 0;
  4017ec:	f8ad 4006 	strh.w	r4, [sp, #6]
	 eink_data[2] = (uint16_t) it8951_global_instance.display_height;
  4017f0:	4b10      	ldr	r3, [pc, #64]	; (401834 <eink_it8951_put_display_buffer+0xd4>)
  4017f2:	8d5a      	ldrh	r2, [r3, #42]	; 0x2a
  4017f4:	f8ad 2008 	strh.w	r2, [sp, #8]
	 eink_data[3] = (uint16_t) it8951_global_instance.display_width;
  4017f8:	8d1b      	ldrh	r3, [r3, #40]	; 0x28
  4017fa:	f8ad 300a 	strh.w	r3, [sp, #10]
	 eink_data[4] = (uint16_t) update_mode;
  4017fe:	2302      	movs	r3, #2
  401800:	f8ad 300c 	strh.w	r3, [sp, #12]
	 eink_ite_write_data(IT8951_I80_USR_DPY_AREA, &eink_data[0], 1);
  401804:	2201      	movs	r2, #1
  401806:	a901      	add	r1, sp, #4
  401808:	2034      	movs	r0, #52	; 0x34
  40180a:	4d0b      	ldr	r5, [pc, #44]	; (401838 <eink_it8951_put_display_buffer+0xd8>)
  40180c:	47a8      	blx	r5
	 eink_ite_write_data(0, &eink_data[1], 1);
  40180e:	2201      	movs	r2, #1
  401810:	f10d 0106 	add.w	r1, sp, #6
  401814:	4620      	mov	r0, r4
  401816:	47a8      	blx	r5
	 eink_ite_write_data(0, &eink_data[2], 1);
  401818:	2201      	movs	r2, #1
  40181a:	a902      	add	r1, sp, #8
  40181c:	4620      	mov	r0, r4
  40181e:	47a8      	blx	r5
	 eink_ite_write_data(0, &eink_data[3], 1);
  401820:	2201      	movs	r2, #1
  401822:	f10d 010a 	add.w	r1, sp, #10
  401826:	4620      	mov	r0, r4
  401828:	47a8      	blx	r5
	 eink_ite_write_data(0, &eink_data[4], 1);
  40182a:	2201      	movs	r2, #1
  40182c:	a903      	add	r1, sp, #12
  40182e:	4620      	mov	r0, r4
  401830:	47a8      	blx	r5
}
  401832:	e7d2      	b.n	4017da <eink_it8951_put_display_buffer+0x7a>
  401834:	200003d0 	.word	0x200003d0
  401838:	00401485 	.word	0x00401485
  40183c:	200003b4 	.word	0x200003b4
  401840:	00401751 	.word	0x00401751

00401844 <eink_ite_set_bit>:
 * \param bit_value Bit value.
 */
void eink_ite_set_bit(uint8_t *byte, uint8_t bit_number, bool bit_value)
{
    /* Update the byte to either set or clear the selected bit */   
    if (bit_value == 1) {
  401844:	b932      	cbnz	r2, 401854 <eink_ite_set_bit+0x10>
        *byte |= 1 << bit_number;
    } else {
        *byte &= ~(1 << bit_number);
  401846:	2301      	movs	r3, #1
  401848:	408b      	lsls	r3, r1
  40184a:	7801      	ldrb	r1, [r0, #0]
  40184c:	ea21 0103 	bic.w	r1, r1, r3
  401850:	7001      	strb	r1, [r0, #0]
  401852:	4770      	bx	lr
        *byte |= 1 << bit_number;
  401854:	2301      	movs	r3, #1
  401856:	408b      	lsls	r3, r1
  401858:	7801      	ldrb	r1, [r0, #0]
  40185a:	4319      	orrs	r1, r3
  40185c:	7001      	strb	r1, [r0, #0]
  40185e:	4770      	bx	lr

00401860 <eink_it8951_set_pixel_raw>:
 * \param x_set X coordinate of the pixel to set.
 * \param y_set Y coordinate of the pixel to set.
 * \param pixel_value Greyscale value to set the pixel to.
 */
void eink_it8951_set_pixel_raw(eink_coordinate x_set, eink_coordinate y_set, uint8_t pixel_value)
{
  401860:	b5f8      	push	{r3, r4, r5, r6, r7, lr}
    eink_coordinate x1_set, y1_set, odd_even_bit;
    uint32_t byte_set;
    
    /* Ignore any pixels being set outside of the display window */
    if ( (x_set >= 0) && (x_set < ptr_eink_gfx_config->display_width) && (y_set >= 0) && (y_set < ptr_eink_gfx_config->display_height) ) {
  401862:	4b31      	ldr	r3, [pc, #196]	; (401928 <eink_it8951_set_pixel_raw+0xc8>)
  401864:	681e      	ldr	r6, [r3, #0]
  401866:	8873      	ldrh	r3, [r6, #2]
  401868:	4283      	cmp	r3, r0
  40186a:	d93e      	bls.n	4018ea <eink_it8951_set_pixel_raw+0x8a>
  40186c:	88b3      	ldrh	r3, [r6, #4]
  40186e:	428b      	cmp	r3, r1
  401870:	d93b      	bls.n	4018ea <eink_it8951_set_pixel_raw+0x8a>
        
		if ( (it8951_global_instance.display_rotation == ROTATE_0) || (it8951_global_instance.display_rotation == ROTATE_180) ) {
  401872:	4b2e      	ldr	r3, [pc, #184]	; (40192c <eink_it8951_set_pixel_raw+0xcc>)
  401874:	f893 3030 	ldrb.w	r3, [r3, #48]	; 0x30
  401878:	b17b      	cbz	r3, 40189a <eink_it8951_set_pixel_raw+0x3a>
  40187a:	4b2c      	ldr	r3, [pc, #176]	; (40192c <eink_it8951_set_pixel_raw+0xcc>)
  40187c:	f893 3030 	ldrb.w	r3, [r3, #48]	; 0x30
  401880:	b2db      	uxtb	r3, r3
  401882:	2b02      	cmp	r3, #2
  401884:	d009      	beq.n	40189a <eink_it8951_set_pixel_raw+0x3a>
			byte_set = y1_set + ((it8951_global_instance.display_config.display_width / 2) * x_set);
			odd_even_bit = y_set % 2;
		} else {
			/* Calculate which byte the pixel in question is contained in */
			y1_set = (y_set - (y_set % 2)) / 2;
			byte_set = y1_set + ((it8951_global_instance.display_config.display_height / 2) * x_set);
  401886:	4b29      	ldr	r3, [pc, #164]	; (40192c <eink_it8951_set_pixel_raw+0xcc>)
  401888:	885c      	ldrh	r4, [r3, #2]
  40188a:	f3c4 044e 	ubfx	r4, r4, #1, #15
  40188e:	084b      	lsrs	r3, r1, #1
  401890:	fb00 3404 	mla	r4, r0, r4, r3
			odd_even_bit = y_set % 2;
  401894:	f001 0101 	and.w	r1, r1, #1
  401898:	e008      	b.n	4018ac <eink_it8951_set_pixel_raw+0x4c>
			byte_set = y1_set + ((it8951_global_instance.display_config.display_width / 2) * x_set);
  40189a:	4b24      	ldr	r3, [pc, #144]	; (40192c <eink_it8951_set_pixel_raw+0xcc>)
  40189c:	881c      	ldrh	r4, [r3, #0]
  40189e:	f3c4 044e 	ubfx	r4, r4, #1, #15
  4018a2:	084b      	lsrs	r3, r1, #1
  4018a4:	fb00 3404 	mla	r4, r0, r4, r3
			odd_even_bit = y_set % 2;
  4018a8:	f001 0101 	and.w	r1, r1, #1
  4018ac:	4615      	mov	r5, r2
		}
		
        if (!odd_even_bit) {
  4018ae:	b1e9      	cbz	r1, 4018ec <eink_it8951_set_pixel_raw+0x8c>
            eink_ite_set_bit(&ptr_eink_gfx_config->display_buffer_1_ptr[byte_set], 3, ((pixel_value >> 3) & 0x1));
            eink_ite_set_bit(&ptr_eink_gfx_config->display_buffer_1_ptr[byte_set], 2, ((pixel_value >> 2) & 0x1));
            eink_ite_set_bit(&ptr_eink_gfx_config->display_buffer_1_ptr[byte_set], 1, ((pixel_value >> 1) & 0x1));
            eink_ite_set_bit(&ptr_eink_gfx_config->display_buffer_1_ptr[byte_set], 0, (pixel_value & 0x1));
        } else {
           eink_ite_set_bit(&ptr_eink_gfx_config->display_buffer_1_ptr[byte_set], 7, ((pixel_value >> 3) & 0x1));
  4018b0:	6930      	ldr	r0, [r6, #16]
  4018b2:	f3c2 02c0 	ubfx	r2, r2, #3, #1
  4018b6:	2107      	movs	r1, #7
  4018b8:	4420      	add	r0, r4
  4018ba:	4e1d      	ldr	r6, [pc, #116]	; (401930 <eink_it8951_set_pixel_raw+0xd0>)
  4018bc:	47b0      	blx	r6
           eink_ite_set_bit(&ptr_eink_gfx_config->display_buffer_1_ptr[byte_set], 6, ((pixel_value >> 2) & 0x1));
  4018be:	4f1a      	ldr	r7, [pc, #104]	; (401928 <eink_it8951_set_pixel_raw+0xc8>)
  4018c0:	683b      	ldr	r3, [r7, #0]
  4018c2:	6918      	ldr	r0, [r3, #16]
  4018c4:	f3c5 0280 	ubfx	r2, r5, #2, #1
  4018c8:	2106      	movs	r1, #6
  4018ca:	4420      	add	r0, r4
  4018cc:	47b0      	blx	r6
           eink_ite_set_bit(&ptr_eink_gfx_config->display_buffer_1_ptr[byte_set], 5, ((pixel_value >> 1) & 0x1));
  4018ce:	683b      	ldr	r3, [r7, #0]
  4018d0:	6918      	ldr	r0, [r3, #16]
  4018d2:	f3c5 0240 	ubfx	r2, r5, #1, #1
  4018d6:	2105      	movs	r1, #5
  4018d8:	4420      	add	r0, r4
  4018da:	47b0      	blx	r6
           eink_ite_set_bit(&ptr_eink_gfx_config->display_buffer_1_ptr[byte_set], 4, (pixel_value & 0x1));
  4018dc:	683b      	ldr	r3, [r7, #0]
  4018de:	6918      	ldr	r0, [r3, #16]
  4018e0:	f005 0201 	and.w	r2, r5, #1
  4018e4:	2104      	movs	r1, #4
  4018e6:	4420      	add	r0, r4
  4018e8:	47b0      	blx	r6
  4018ea:	bdf8      	pop	{r3, r4, r5, r6, r7, pc}
            eink_ite_set_bit(&ptr_eink_gfx_config->display_buffer_1_ptr[byte_set], 3, ((pixel_value >> 3) & 0x1));
  4018ec:	6930      	ldr	r0, [r6, #16]
  4018ee:	f3c2 02c0 	ubfx	r2, r2, #3, #1
  4018f2:	2103      	movs	r1, #3
  4018f4:	4420      	add	r0, r4
  4018f6:	4e0e      	ldr	r6, [pc, #56]	; (401930 <eink_it8951_set_pixel_raw+0xd0>)
  4018f8:	47b0      	blx	r6
            eink_ite_set_bit(&ptr_eink_gfx_config->display_buffer_1_ptr[byte_set], 2, ((pixel_value >> 2) & 0x1));
  4018fa:	4f0b      	ldr	r7, [pc, #44]	; (401928 <eink_it8951_set_pixel_raw+0xc8>)
  4018fc:	683b      	ldr	r3, [r7, #0]
  4018fe:	6918      	ldr	r0, [r3, #16]
  401900:	f3c5 0280 	ubfx	r2, r5, #2, #1
  401904:	2102      	movs	r1, #2
  401906:	4420      	add	r0, r4
  401908:	47b0      	blx	r6
            eink_ite_set_bit(&ptr_eink_gfx_config->display_buffer_1_ptr[byte_set], 1, ((pixel_value >> 1) & 0x1));
  40190a:	683b      	ldr	r3, [r7, #0]
  40190c:	6918      	ldr	r0, [r3, #16]
  40190e:	f3c5 0240 	ubfx	r2, r5, #1, #1
  401912:	2101      	movs	r1, #1
  401914:	4420      	add	r0, r4
  401916:	47b0      	blx	r6
            eink_ite_set_bit(&ptr_eink_gfx_config->display_buffer_1_ptr[byte_set], 0, (pixel_value & 0x1));
  401918:	683b      	ldr	r3, [r7, #0]
  40191a:	6918      	ldr	r0, [r3, #16]
  40191c:	f005 0201 	and.w	r2, r5, #1
  401920:	2100      	movs	r1, #0
  401922:	4420      	add	r0, r4
  401924:	47b0      	blx	r6
  401926:	bdf8      	pop	{r3, r4, r5, r6, r7, pc}
  401928:	2000042c 	.word	0x2000042c
  40192c:	200003d0 	.word	0x200003d0
  401930:	00401845 	.word	0x00401845

00401934 <eink_it8951_graphics_load_4bgrey_image>:
 *                           as a multiple of 8.
 * \param x_place X location to place with bitmap.
 * \param y_place Y location to place with bitmap.
 */
void eink_it8951_graphics_load_4bgrey_image(uint8_t *img_array, uint16_t array_size, eink_coordinate image_width_px, eink_coordinate image_height_bytes, eink_coordinate x_place, eink_coordinate y_place)
{
  401934:	e92d 4ff0 	stmdb	sp!, {r4, r5, r6, r7, r8, r9, sl, fp, lr}
  401938:	b087      	sub	sp, #28
  40193a:	f8bd 8040 	ldrh.w	r8, [sp, #64]	; 0x40
  40193e:	f8bd 9044 	ldrh.w	r9, [sp, #68]	; 0x44
    volatile uint16_t buffer_index, i, j;
    volatile uint16_t k, l, m, bit_value_1, bit_value_2;
	eink_coordinate x_set, y_set;
    
    /* Scan pixels by column */
    for (i = 0; i < image_width_px; i++) {
  401942:	2100      	movs	r1, #0
  401944:	f8ad 1016 	strh.w	r1, [sp, #22]
  401948:	f8bd 1016 	ldrh.w	r1, [sp, #22]
  40194c:	b289      	uxth	r1, r1
  40194e:	428a      	cmp	r2, r1
  401950:	d96a      	bls.n	401a28 <eink_it8951_graphics_load_4bgrey_image+0xf4>
  401952:	461e      	mov	r6, r3
  401954:	9201      	str	r2, [sp, #4]
  401956:	4682      	mov	sl, r0
	    m = 0;
	    for (j = 0; j < image_height_bytes; j++) {
			x_set = x_place+i;
			y_set = y_place+m;
			
			if ( (x_set >= 0) && (x_set < ptr_eink_gfx_config->display_width) && (y_set >= 0) && (y_set < ptr_eink_gfx_config->display_height) ) {
  401958:	4f35      	ldr	r7, [pc, #212]	; (401a30 <eink_it8951_graphics_load_4bgrey_image+0xfc>)
				/* Process each pixel in byte  */
				bit_value_1 = ((img_array[(i*image_height_bytes)+j]) & 0xF);
				bit_value_2 = ((img_array[(i*image_height_bytes)+j] >> 4) & 0xF);
				/* Set the pixel in the display buffer */
				eink_it8951_set_pixel_raw(x_set, (y_set+1), (~bit_value_1));
  40195a:	f8df b0d8 	ldr.w	fp, [pc, #216]	; 401a34 <eink_it8951_graphics_load_4bgrey_image+0x100>
  40195e:	e058      	b.n	401a12 <eink_it8951_graphics_load_4bgrey_image+0xde>
				eink_it8951_set_pixel_raw(x_set, (y_set), (~bit_value_2));
			}

		m += 2;
  401960:	f8bd 3012 	ldrh.w	r3, [sp, #18]
  401964:	3302      	adds	r3, #2
  401966:	b29b      	uxth	r3, r3
  401968:	f8ad 3012 	strh.w	r3, [sp, #18]
	    for (j = 0; j < image_height_bytes; j++) {
  40196c:	f8bd 3014 	ldrh.w	r3, [sp, #20]
  401970:	3301      	adds	r3, #1
  401972:	b29b      	uxth	r3, r3
  401974:	f8ad 3014 	strh.w	r3, [sp, #20]
  401978:	f8bd 3014 	ldrh.w	r3, [sp, #20]
  40197c:	b29b      	uxth	r3, r3
  40197e:	42b3      	cmp	r3, r6
  401980:	d23b      	bcs.n	4019fa <eink_it8951_graphics_load_4bgrey_image+0xc6>
			x_set = x_place+i;
  401982:	f8bd 4016 	ldrh.w	r4, [sp, #22]
  401986:	fa18 f484 	uxtah	r4, r8, r4
  40198a:	b2a4      	uxth	r4, r4
			y_set = y_place+m;
  40198c:	f8bd 5012 	ldrh.w	r5, [sp, #18]
  401990:	b2ad      	uxth	r5, r5
			if ( (x_set >= 0) && (x_set < ptr_eink_gfx_config->display_width) && (y_set >= 0) && (y_set < ptr_eink_gfx_config->display_height) ) {
  401992:	683b      	ldr	r3, [r7, #0]
  401994:	885a      	ldrh	r2, [r3, #2]
  401996:	42a2      	cmp	r2, r4
  401998:	d9e2      	bls.n	401960 <eink_it8951_graphics_load_4bgrey_image+0x2c>
			y_set = y_place+m;
  40199a:	444d      	add	r5, r9
  40199c:	b2ad      	uxth	r5, r5
			if ( (x_set >= 0) && (x_set < ptr_eink_gfx_config->display_width) && (y_set >= 0) && (y_set < ptr_eink_gfx_config->display_height) ) {
  40199e:	889b      	ldrh	r3, [r3, #4]
  4019a0:	42ab      	cmp	r3, r5
  4019a2:	d9dd      	bls.n	401960 <eink_it8951_graphics_load_4bgrey_image+0x2c>
				bit_value_1 = ((img_array[(i*image_height_bytes)+j]) & 0xF);
  4019a4:	f8bd 3016 	ldrh.w	r3, [sp, #22]
  4019a8:	b29b      	uxth	r3, r3
  4019aa:	f8bd 2014 	ldrh.w	r2, [sp, #20]
  4019ae:	fb06 f303 	mul.w	r3, r6, r3
  4019b2:	fa1a f282 	uxtah	r2, sl, r2
  4019b6:	5cd3      	ldrb	r3, [r2, r3]
  4019b8:	f003 030f 	and.w	r3, r3, #15
  4019bc:	f8ad 3010 	strh.w	r3, [sp, #16]
				bit_value_2 = ((img_array[(i*image_height_bytes)+j] >> 4) & 0xF);
  4019c0:	f8bd 3016 	ldrh.w	r3, [sp, #22]
  4019c4:	b29b      	uxth	r3, r3
  4019c6:	f8bd 2014 	ldrh.w	r2, [sp, #20]
  4019ca:	fb06 f303 	mul.w	r3, r6, r3
  4019ce:	fa1a f282 	uxtah	r2, sl, r2
  4019d2:	5cd3      	ldrb	r3, [r2, r3]
  4019d4:	091b      	lsrs	r3, r3, #4
  4019d6:	f8ad 300e 	strh.w	r3, [sp, #14]
				eink_it8951_set_pixel_raw(x_set, (y_set+1), (~bit_value_1));
  4019da:	f8bd 2010 	ldrh.w	r2, [sp, #16]
  4019de:	43d2      	mvns	r2, r2
  4019e0:	1c69      	adds	r1, r5, #1
  4019e2:	b2d2      	uxtb	r2, r2
  4019e4:	b289      	uxth	r1, r1
  4019e6:	4620      	mov	r0, r4
  4019e8:	47d8      	blx	fp
				eink_it8951_set_pixel_raw(x_set, (y_set), (~bit_value_2));
  4019ea:	f8bd 200e 	ldrh.w	r2, [sp, #14]
  4019ee:	43d2      	mvns	r2, r2
  4019f0:	b2d2      	uxtb	r2, r2
  4019f2:	4629      	mov	r1, r5
  4019f4:	4620      	mov	r0, r4
  4019f6:	47d8      	blx	fp
  4019f8:	e7b2      	b.n	401960 <eink_it8951_graphics_load_4bgrey_image+0x2c>
    for (i = 0; i < image_width_px; i++) {
  4019fa:	f8bd 3016 	ldrh.w	r3, [sp, #22]
  4019fe:	3301      	adds	r3, #1
  401a00:	b29b      	uxth	r3, r3
  401a02:	f8ad 3016 	strh.w	r3, [sp, #22]
  401a06:	f8bd 3016 	ldrh.w	r3, [sp, #22]
  401a0a:	b29b      	uxth	r3, r3
  401a0c:	9a01      	ldr	r2, [sp, #4]
  401a0e:	4293      	cmp	r3, r2
  401a10:	d20a      	bcs.n	401a28 <eink_it8951_graphics_load_4bgrey_image+0xf4>
	    m = 0;
  401a12:	2300      	movs	r3, #0
  401a14:	f8ad 3012 	strh.w	r3, [sp, #18]
	    for (j = 0; j < image_height_bytes; j++) {
  401a18:	f8ad 3014 	strh.w	r3, [sp, #20]
  401a1c:	f8bd 3014 	ldrh.w	r3, [sp, #20]
  401a20:	b29b      	uxth	r3, r3
  401a22:	429e      	cmp	r6, r3
  401a24:	d8ad      	bhi.n	401982 <eink_it8951_graphics_load_4bgrey_image+0x4e>
  401a26:	e7e8      	b.n	4019fa <eink_it8951_graphics_load_4bgrey_image+0xc6>
	    }
    }
  401a28:	b007      	add	sp, #28
  401a2a:	e8bd 8ff0 	ldmia.w	sp!, {r4, r5, r6, r7, r8, r9, sl, fp, pc}
  401a2e:	bf00      	nop
  401a30:	2000042c 	.word	0x2000042c
  401a34:	00401861 	.word	0x00401861

00401a38 <uc8159_init>:
 *
 * Call this function to initialize the hardware interface and the UC8159 display
 * driver. When initialization is done the display is ready to receive data.
 */
void uc8159_init(void)
{
  401a38:	b570      	push	{r4, r5, r6, lr}
    /* Initialize delay routine */
    delay_init(SysTick);
  401a3a:	480b      	ldr	r0, [pc, #44]	; (401a68 <uc8159_init+0x30>)
  401a3c:	4b0b      	ldr	r3, [pc, #44]	; (401a6c <uc8159_init+0x34>)
  401a3e:	4798      	blx	r3

    /* Initialize the interface */
    eink_interface_init(1);
  401a40:	2001      	movs	r0, #1
  401a42:	4b0b      	ldr	r3, [pc, #44]	; (401a70 <uc8159_init+0x38>)
  401a44:	4798      	blx	r3
	((Pio *)hw)->PIO_CODR = mask;
  401a46:	4d0b      	ldr	r5, [pc, #44]	; (401a74 <uc8159_init+0x3c>)
  401a48:	f44f 5600 	mov.w	r6, #8192	; 0x2000
  401a4c:	636e      	str	r6, [r5, #52]	; 0x34
    delay_ms(1);
  401a4e:	2001      	movs	r0, #1
  401a50:	4c09      	ldr	r4, [pc, #36]	; (401a78 <uc8159_init+0x40>)
  401a52:	47a0      	blx	r4
	((Pio *)hw)->PIO_SODR = mask;
  401a54:	632e      	str	r6, [r5, #48]	; 0x30
    delay_ms(1);
  401a56:	2001      	movs	r0, #1
  401a58:	47a0      	blx	r4
	return ((Pio *)hw)->PIO_PDSR;
  401a5a:	462a      	mov	r2, r5
  401a5c:	6bd3      	ldr	r3, [r2, #60]	; 0x3c
	while(!gpio_get_pin_level(EINK_BUSY));
  401a5e:	f013 7f00 	tst.w	r3, #33554432	; 0x2000000
  401a62:	d0fb      	beq.n	401a5c <uc8159_init+0x24>
    /* Reset display */
    uc8159_hard_reset();
    
    /* Wait for BUSY output to return HIGH */
    uc8159_wait_for_busy();
}
  401a64:	bd70      	pop	{r4, r5, r6, pc}
  401a66:	bf00      	nop
  401a68:	e000e010 	.word	0xe000e010
  401a6c:	00400319 	.word	0x00400319
  401a70:	004008d1 	.word	0x004008d1
  401a74:	400e0e00 	.word	0x400e0e00
  401a78:	0040032d 	.word	0x0040032d

00401a7c <uc8159_set_psr_config>:
 *
 * \param *psr_config The PSR structure to write to the PSR register.
 */
void uc8159_set_psr_config(
        const struct uc8159_panel_settings *psr_config)
{
  401a7c:	b530      	push	{r4, r5, lr}
  401a7e:	b083      	sub	sp, #12
  401a80:	4604      	mov	r4, r0
    eink_coordinate uc8159_display_width;
    eink_coordinate uc8159_display_height;
    
    /* Copy configuration into UC8159 instance */
    uc8159_global_instance.panel_settings = *psr_config;
  401a82:	495f      	ldr	r1, [pc, #380]	; (401c00 <uc8159_set_psr_config+0x184>)
  401a84:	8805      	ldrh	r5, [r0, #0]
  401a86:	7880      	ldrb	r0, [r0, #2]
  401a88:	800d      	strh	r5, [r1, #0]
  401a8a:	7088      	strb	r0, [r1, #2]
    
    /* Save display resolution into UC8159 instance */
    switch (psr_config->display_resolution) {
  401a8c:	7821      	ldrb	r1, [r4, #0]
  401a8e:	2903      	cmp	r1, #3
  401a90:	d80f      	bhi.n	401ab2 <uc8159_set_psr_config+0x36>
  401a92:	e8df f001 	tbb	[pc, r1]
  401a96:	2c02      	.short	0x2c02
  401a98:	5641      	.short	0x5641
        case RES_640x480:
            if((psr_config->display_rotation == ROTATE_90) || (psr_config->display_rotation == ROTATE_270)) {
  401a9a:	7863      	ldrb	r3, [r4, #1]
  401a9c:	f003 03fd 	and.w	r3, r3, #253	; 0xfd
  401aa0:	2b01      	cmp	r3, #1
  401aa2:	d01c      	beq.n	401ade <uc8159_set_psr_config+0x62>
                uc8159_global_instance.display_width   = 480;
                uc8159_global_instance.display_height  = 640;
            } else {
                uc8159_global_instance.display_width   = 640;
  401aa4:	4956      	ldr	r1, [pc, #344]	; (401c00 <uc8159_set_psr_config+0x184>)
  401aa6:	f44f 7220 	mov.w	r2, #640	; 0x280
  401aaa:	808a      	strh	r2, [r1, #4]
                uc8159_global_instance.display_height  = 480;
  401aac:	f44f 73f0 	mov.w	r3, #480	; 0x1e0
  401ab0:	80cb      	strh	r3, [r1, #6]
    }
    
    uint8_t eink_data[5];

    /* Set the TRES register to the display */
    eink_data[0] = ((uc8159_display_width >> 8) & 0x03);
  401ab2:	2102      	movs	r1, #2
  401ab4:	f88d 1000 	strb.w	r1, [sp]
    eink_data[1] = (uc8159_display_width & 0xFF);
  401ab8:	f88d 2001 	strb.w	r2, [sp, #1]
    eink_data[2] = ((uc8159_display_height >> 8) & 0x03);
  401abc:	2201      	movs	r2, #1
  401abe:	f88d 2002 	strb.w	r2, [sp, #2]
    eink_data[3] = (uc8159_display_height & 0xFF);
  401ac2:	f88d 3003 	strb.w	r3, [sp, #3]
    eink_write_data(UC8159_TRES, eink_data, 4);
  401ac6:	2204      	movs	r2, #4
  401ac8:	4669      	mov	r1, sp
  401aca:	2061      	movs	r0, #97	; 0x61
  401acc:	4b4d      	ldr	r3, [pc, #308]	; (401c04 <uc8159_set_psr_config+0x188>)
  401ace:	4798      	blx	r3

    /* Translate the panel settings structure to the required bytes to be sent to the display */
    switch (psr_config->display_resolution) {
  401ad0:	7823      	ldrb	r3, [r4, #0]
  401ad2:	2b03      	cmp	r3, #3
  401ad4:	d84d      	bhi.n	401b72 <uc8159_set_psr_config+0xf6>
  401ad6:	e8df f003 	tbb	[pc, r3]
  401ada:	7849      	.short	0x7849
  401adc:	807c      	.short	0x807c
                uc8159_global_instance.display_width   = 480;
  401ade:	4948      	ldr	r1, [pc, #288]	; (401c00 <uc8159_set_psr_config+0x184>)
  401ae0:	f44f 73f0 	mov.w	r3, #480	; 0x1e0
  401ae4:	808b      	strh	r3, [r1, #4]
                uc8159_global_instance.display_height  = 640;
  401ae6:	f44f 7220 	mov.w	r2, #640	; 0x280
  401aea:	80ca      	strh	r2, [r1, #6]
  401aec:	e7e1      	b.n	401ab2 <uc8159_set_psr_config+0x36>
            if((psr_config->display_rotation == ROTATE_90) || (psr_config->display_rotation == ROTATE_270)) {
  401aee:	7863      	ldrb	r3, [r4, #1]
  401af0:	f003 03fd 	and.w	r3, r3, #253	; 0xfd
  401af4:	2b01      	cmp	r3, #1
  401af6:	d007      	beq.n	401b08 <uc8159_set_psr_config+0x8c>
                uc8159_global_instance.display_width   = 600;
  401af8:	4941      	ldr	r1, [pc, #260]	; (401c00 <uc8159_set_psr_config+0x184>)
  401afa:	f44f 7216 	mov.w	r2, #600	; 0x258
  401afe:	808a      	strh	r2, [r1, #4]
                uc8159_global_instance.display_height  = 450;
  401b00:	f44f 73e1 	mov.w	r3, #450	; 0x1c2
  401b04:	80cb      	strh	r3, [r1, #6]
  401b06:	e7d4      	b.n	401ab2 <uc8159_set_psr_config+0x36>
                uc8159_global_instance.display_width   = 450;
  401b08:	493d      	ldr	r1, [pc, #244]	; (401c00 <uc8159_set_psr_config+0x184>)
  401b0a:	f44f 73e1 	mov.w	r3, #450	; 0x1c2
  401b0e:	808b      	strh	r3, [r1, #4]
                uc8159_global_instance.display_height  = 600;
  401b10:	f44f 7216 	mov.w	r2, #600	; 0x258
  401b14:	80ca      	strh	r2, [r1, #6]
  401b16:	e7cc      	b.n	401ab2 <uc8159_set_psr_config+0x36>
            if((psr_config->display_rotation == ROTATE_90) || (psr_config->display_rotation == ROTATE_270)) {
  401b18:	7863      	ldrb	r3, [r4, #1]
  401b1a:	f003 03fd 	and.w	r3, r3, #253	; 0xfd
  401b1e:	2b01      	cmp	r3, #1
  401b20:	d007      	beq.n	401b32 <uc8159_set_psr_config+0xb6>
                uc8159_global_instance.display_width   = 640;
  401b22:	4937      	ldr	r1, [pc, #220]	; (401c00 <uc8159_set_psr_config+0x184>)
  401b24:	f44f 7220 	mov.w	r2, #640	; 0x280
  401b28:	808a      	strh	r2, [r1, #4]
                uc8159_global_instance.display_height  = 448;
  401b2a:	f44f 73e0 	mov.w	r3, #448	; 0x1c0
  401b2e:	80cb      	strh	r3, [r1, #6]
  401b30:	e7bf      	b.n	401ab2 <uc8159_set_psr_config+0x36>
                uc8159_global_instance.display_width   = 448;
  401b32:	4933      	ldr	r1, [pc, #204]	; (401c00 <uc8159_set_psr_config+0x184>)
  401b34:	f44f 73e0 	mov.w	r3, #448	; 0x1c0
  401b38:	808b      	strh	r3, [r1, #4]
                uc8159_global_instance.display_height  = 640;
  401b3a:	f44f 7220 	mov.w	r2, #640	; 0x280
  401b3e:	80ca      	strh	r2, [r1, #6]
  401b40:	e7b7      	b.n	401ab2 <uc8159_set_psr_config+0x36>
            if((psr_config->display_rotation == ROTATE_90) || (psr_config->display_rotation == ROTATE_270)) {
  401b42:	7863      	ldrb	r3, [r4, #1]
  401b44:	f003 03fd 	and.w	r3, r3, #253	; 0xfd
  401b48:	2b01      	cmp	r3, #1
  401b4a:	d007      	beq.n	401b5c <uc8159_set_psr_config+0xe0>
                uc8159_global_instance.display_width   = 600;
  401b4c:	492c      	ldr	r1, [pc, #176]	; (401c00 <uc8159_set_psr_config+0x184>)
  401b4e:	f44f 7216 	mov.w	r2, #600	; 0x258
  401b52:	808a      	strh	r2, [r1, #4]
                uc8159_global_instance.display_height  = 448;
  401b54:	f44f 73e0 	mov.w	r3, #448	; 0x1c0
  401b58:	80cb      	strh	r3, [r1, #6]
  401b5a:	e7aa      	b.n	401ab2 <uc8159_set_psr_config+0x36>
                uc8159_global_instance.display_width   = 448;
  401b5c:	4928      	ldr	r1, [pc, #160]	; (401c00 <uc8159_set_psr_config+0x184>)
  401b5e:	f44f 73e0 	mov.w	r3, #448	; 0x1c0
  401b62:	808b      	strh	r3, [r1, #4]
                uc8159_global_instance.display_height  = 600;
  401b64:	f44f 7216 	mov.w	r2, #600	; 0x258
  401b68:	80ca      	strh	r2, [r1, #6]
  401b6a:	e7a2      	b.n	401ab2 <uc8159_set_psr_config+0x36>
        case RES_640x480:               eink_data[0] = 0x00; break;
  401b6c:	2300      	movs	r3, #0
  401b6e:	f88d 3000 	strb.w	r3, [sp]
  401b72:	f89d 3000 	ldrb.w	r3, [sp]
  401b76:	011b      	lsls	r3, r3, #4
  401b78:	b2db      	uxtb	r3, r3
    }
	
	/* Colour */
    eink_data[0] = eink_data[0] << 1;
	eink_data[0] |= 1;
    eink_data[0] = eink_data[0] << 3;
  401b7a:	f043 0208 	orr.w	r2, r3, #8
  401b7e:	f88d 2000 	strb.w	r2, [sp]
	/* eink_data[0] = eink_data[0] << 4; */

    switch (psr_config->display_rotation) {
  401b82:	7862      	ldrb	r2, [r4, #1]
  401b84:	2a01      	cmp	r2, #1
  401b86:	d031      	beq.n	401bec <uc8159_set_psr_config+0x170>
  401b88:	b35a      	cbz	r2, 401be2 <uc8159_set_psr_config+0x166>
  401b8a:	2a03      	cmp	r2, #3
  401b8c:	d033      	beq.n	401bf6 <uc8159_set_psr_config+0x17a>
        case ROTATE_0:                  eink_data[0] |= 0b11; break;
        case ROTATE_90:                 eink_data[0] |= 0b10; break;
        case ROTATE_180:                eink_data[0] |= 0b00; break;
        case ROTATE_270:                eink_data[0] |= 0b01; break;
    }
    eink_data[0] = eink_data[0] << 1;
  401b8e:	f89d 3000 	ldrb.w	r3, [sp]
  401b92:	005b      	lsls	r3, r3, #1
  401b94:	b2db      	uxtb	r3, r3
  401b96:	f88d 3000 	strb.w	r3, [sp]
    switch (psr_config->booster_switch) {
  401b9a:	78a2      	ldrb	r2, [r4, #2]
  401b9c:	2a01      	cmp	r2, #1
        case BOOSTER_OFF:               eink_data[0] |= 0x00; break;
        case BOOSTER_ON:                eink_data[0] |= 0x01; break;
  401b9e:	bf04      	itt	eq
  401ba0:	f043 0301 	orreq.w	r3, r3, #1
  401ba4:	f88d 3000 	strbeq.w	r3, [sp]
    }
    eink_data[0] = eink_data[0] << 1;
  401ba8:	f89d 3000 	ldrb.w	r3, [sp]
  401bac:	005b      	lsls	r3, r3, #1
    /* Add the soft reset bit */
    eink_data[0] |= 0x01;
  401bae:	f043 0301 	orr.w	r3, r3, #1
  401bb2:	f88d 3000 	strb.w	r3, [sp]
	
	/* Colour */
    eink_data[1] = 0x08;
  401bb6:	2308      	movs	r3, #8
  401bb8:	f88d 3001 	strb.w	r3, [sp, #1]
    /* Send the PSR register to the display */
    eink_write_data(UC8159_PSR, eink_data, 2);
  401bbc:	2202      	movs	r2, #2
  401bbe:	4669      	mov	r1, sp
  401bc0:	2000      	movs	r0, #0
  401bc2:	4b10      	ldr	r3, [pc, #64]	; (401c04 <uc8159_set_psr_config+0x188>)
  401bc4:	4798      	blx	r3
    //eink_write_data(UC8159_PSR, eink_data, 1);
  401bc6:	b003      	add	sp, #12
  401bc8:	bd30      	pop	{r4, r5, pc}
        case RES_600x450:               eink_data[0] = 0x01; break;
  401bca:	2301      	movs	r3, #1
  401bcc:	f88d 3000 	strb.w	r3, [sp]
  401bd0:	e7cf      	b.n	401b72 <uc8159_set_psr_config+0xf6>
        case RES_640x448:               eink_data[0] = 0x02; break;
  401bd2:	2302      	movs	r3, #2
  401bd4:	f88d 3000 	strb.w	r3, [sp]
  401bd8:	e7cb      	b.n	401b72 <uc8159_set_psr_config+0xf6>
        case RES_600x448:               eink_data[0] = 0x03; break;
  401bda:	2303      	movs	r3, #3
  401bdc:	f88d 3000 	strb.w	r3, [sp]
  401be0:	e7c7      	b.n	401b72 <uc8159_set_psr_config+0xf6>
        case ROTATE_0:                  eink_data[0] |= 0b11; break;
  401be2:	f043 030b 	orr.w	r3, r3, #11
  401be6:	f88d 3000 	strb.w	r3, [sp]
  401bea:	e7d0      	b.n	401b8e <uc8159_set_psr_config+0x112>
        case ROTATE_90:                 eink_data[0] |= 0b10; break;
  401bec:	f043 030a 	orr.w	r3, r3, #10
  401bf0:	f88d 3000 	strb.w	r3, [sp]
  401bf4:	e7cb      	b.n	401b8e <uc8159_set_psr_config+0x112>
        case ROTATE_270:                eink_data[0] |= 0b01; break;
  401bf6:	f043 0309 	orr.w	r3, r3, #9
  401bfa:	f88d 3000 	strb.w	r3, [sp]
  401bfe:	e7c6      	b.n	401b8e <uc8159_set_psr_config+0x112>
  401c00:	20000418 	.word	0x20000418
  401c04:	004009a9 	.word	0x004009a9

00401c08 <uc8159_set_config>:
{
  401c08:	b530      	push	{r4, r5, lr}
  401c0a:	b085      	sub	sp, #20
  401c0c:	4604      	mov	r4, r0
    psr_config = config->panel_settings;
  401c0e:	8802      	ldrh	r2, [r0, #0]
  401c10:	7883      	ldrb	r3, [r0, #2]
  401c12:	f8ad 2004 	strh.w	r2, [sp, #4]
  401c16:	f88d 3006 	strb.w	r3, [sp, #6]
    uc8159_set_psr_config(&psr_config);
  401c1a:	a801      	add	r0, sp, #4
  401c1c:	4b52      	ldr	r3, [pc, #328]	; (401d68 <uc8159_set_config+0x160>)
  401c1e:	4798      	blx	r3
    eink_data[0] = eink_data[0] << 1;
  401c20:	230c      	movs	r3, #12
  401c22:	f88d 3008 	strb.w	r3, [sp, #8]
    switch(config->power_settings.source_power) {
  401c26:	78e3      	ldrb	r3, [r4, #3]
  401c28:	2b01      	cmp	r3, #1
        case SOURCE_INTERNAL_DC_DC:     eink_data[0] |= 0x01; break;
  401c2a:	bf04      	itt	eq
  401c2c:	230d      	moveq	r3, #13
  401c2e:	f88d 3008 	strbeq.w	r3, [sp, #8]
    eink_data[0] = eink_data[0] << 1;
  401c32:	f89d 3008 	ldrb.w	r3, [sp, #8]
  401c36:	005b      	lsls	r3, r3, #1
  401c38:	b2db      	uxtb	r3, r3
  401c3a:	f88d 3008 	strb.w	r3, [sp, #8]
    switch(config->power_settings.gate_power) {
  401c3e:	7962      	ldrb	r2, [r4, #5]
  401c40:	2a01      	cmp	r2, #1
        case GATE_INTERNAL_DC_DC:       eink_data[0] |= 0x01; break;
  401c42:	bf04      	itt	eq
  401c44:	f043 0301 	orreq.w	r3, r3, #1
  401c48:	f88d 3008 	strbeq.w	r3, [sp, #8]
    eink_data[0] = eink_data[0] << 1;
  401c4c:	f89d 3008 	ldrb.w	r3, [sp, #8]
  401c50:	005b      	lsls	r3, r3, #1
  401c52:	b2db      	uxtb	r3, r3
  401c54:	f88d 3008 	strb.w	r3, [sp, #8]
    switch(config->power_settings.lv_source_power) {
  401c58:	7922      	ldrb	r2, [r4, #4]
  401c5a:	2a01      	cmp	r2, #1
        case LV_SOURCE_INTERNAL_DC_DC:  eink_data[0] |= 0x01; break;
  401c5c:	bf04      	itt	eq
  401c5e:	f043 0301 	orreq.w	r3, r3, #1
  401c62:	f88d 3008 	strbeq.w	r3, [sp, #8]
    switch (config->power_settings.vg_voltage_level) {
  401c66:	79a3      	ldrb	r3, [r4, #6]
  401c68:	2b03      	cmp	r3, #3
  401c6a:	d823      	bhi.n	401cb4 <uc8159_set_config+0xac>
  401c6c:	e8df f003 	tbb	[pc, r3]
  401c70:	1e1a1602 	.word	0x1e1a1602
        case VGx_20V:                   eink_data[1] = 0x00; break;
  401c74:	2300      	movs	r3, #0
  401c76:	f88d 3009 	strb.w	r3, [sp, #9]
    eink_data[2] = 0x23;
  401c7a:	2323      	movs	r3, #35	; 0x23
  401c7c:	f88d 300a 	strb.w	r3, [sp, #10]
    eink_data[3] = 0x23;
  401c80:	f88d 300b 	strb.w	r3, [sp, #11]
    eink_write_data(UC8159_PWR, eink_data, 4);
  401c84:	2204      	movs	r2, #4
  401c86:	a902      	add	r1, sp, #8
  401c88:	2001      	movs	r0, #1
  401c8a:	4b38      	ldr	r3, [pc, #224]	; (401d6c <uc8159_set_config+0x164>)
  401c8c:	4798      	blx	r3
    switch (config->power_off_sequence) {
  401c8e:	79e3      	ldrb	r3, [r4, #7]
  401c90:	2b03      	cmp	r3, #3
  401c92:	d817      	bhi.n	401cc4 <uc8159_set_config+0xbc>
  401c94:	e8df f003 	tbb	[pc, r3]
  401c98:	64605c13 	.word	0x64605c13
        case VGx_19V:                   eink_data[1] = 0x01; break;
  401c9c:	2301      	movs	r3, #1
  401c9e:	f88d 3009 	strb.w	r3, [sp, #9]
  401ca2:	e7ea      	b.n	401c7a <uc8159_set_config+0x72>
        case VGx_18V:                   eink_data[1] = 0x02; break;
  401ca4:	2302      	movs	r3, #2
  401ca6:	f88d 3009 	strb.w	r3, [sp, #9]
  401caa:	e7e6      	b.n	401c7a <uc8159_set_config+0x72>
        case VGx_17V:                   eink_data[1] = 0x03; break;
  401cac:	2303      	movs	r3, #3
  401cae:	f88d 3009 	strb.w	r3, [sp, #9]
  401cb2:	e7e2      	b.n	401c7a <uc8159_set_config+0x72>
    if( (config->power_settings.vg_voltage_level == VGx_16V) | (config->power_settings.vg_voltage_level == VGx_15V) | (config->power_settings.vg_voltage_level == VGx_14V) | (config->power_settings.vg_voltage_level == VGx_13V) )
  401cb4:	3b04      	subs	r3, #4
  401cb6:	b2db      	uxtb	r3, r3
  401cb8:	2b03      	cmp	r3, #3
  401cba:	d8de      	bhi.n	401c7a <uc8159_set_config+0x72>
  401cbc:	e7fe      	b.n	401cbc <uc8159_set_config+0xb4>
        case PFS_1_FRAME:               eink_data[0] = 0x00; break;
  401cbe:	2300      	movs	r3, #0
  401cc0:	f88d 3008 	strb.w	r3, [sp, #8]
    eink_write_data(UC8159_PFS, eink_data, 1);
  401cc4:	2201      	movs	r2, #1
  401cc6:	a902      	add	r1, sp, #8
  401cc8:	2003      	movs	r0, #3
  401cca:	4c28      	ldr	r4, [pc, #160]	; (401d6c <uc8159_set_config+0x164>)
  401ccc:	47a0      	blx	r4
    eink_data[0] = 0xC7;
  401cce:	23c7      	movs	r3, #199	; 0xc7
  401cd0:	f88d 3008 	strb.w	r3, [sp, #8]
    eink_data[1] = 0xC7;
  401cd4:	f88d 3009 	strb.w	r3, [sp, #9]
    eink_data[2] = 0x1D;
  401cd8:	231d      	movs	r3, #29
  401cda:	f88d 300a 	strb.w	r3, [sp, #10]
    eink_write_data(UC8159_BTST, eink_data, 3);
  401cde:	2203      	movs	r2, #3
  401ce0:	a902      	add	r1, sp, #8
  401ce2:	2006      	movs	r0, #6
  401ce4:	47a0      	blx	r4
    eink_data[0] = 0x3C;
  401ce6:	233c      	movs	r3, #60	; 0x3c
  401ce8:	f88d 3008 	strb.w	r3, [sp, #8]
    eink_write_data(UC8159_PLL, eink_data, 3);
  401cec:	2203      	movs	r2, #3
  401cee:	a902      	add	r1, sp, #8
  401cf0:	2030      	movs	r0, #48	; 0x30
  401cf2:	47a0      	blx	r4
	eink_data[0] = 0x00; /* Colour */
  401cf4:	2300      	movs	r3, #0
  401cf6:	f88d 3008 	strb.w	r3, [sp, #8]
    eink_write_data(UC8159_TSE, eink_data, 1);
  401cfa:	2201      	movs	r2, #1
  401cfc:	a902      	add	r1, sp, #8
  401cfe:	2041      	movs	r0, #65	; 0x41
  401d00:	47a0      	blx	r4
    eink_data[0] = 0x37;
  401d02:	2337      	movs	r3, #55	; 0x37
  401d04:	f88d 3008 	strb.w	r3, [sp, #8]
    eink_write_data(UC8159_CDI, eink_data, 1);
  401d08:	2201      	movs	r2, #1
  401d0a:	a902      	add	r1, sp, #8
  401d0c:	2050      	movs	r0, #80	; 0x50
  401d0e:	47a0      	blx	r4
    eink_data[0] = 0x22;
  401d10:	2322      	movs	r3, #34	; 0x22
  401d12:	f88d 3008 	strb.w	r3, [sp, #8]
    eink_write_data(UC8159_TCON, eink_data, 1);
  401d16:	2201      	movs	r2, #1
  401d18:	a902      	add	r1, sp, #8
  401d1a:	2060      	movs	r0, #96	; 0x60
  401d1c:	47a0      	blx	r4
    eink_data[0] = 0x02;
  401d1e:	2302      	movs	r3, #2
  401d20:	f88d 3008 	strb.w	r3, [sp, #8]
    eink_data[1] = 0x58;
  401d24:	2358      	movs	r3, #88	; 0x58
  401d26:	f88d 3009 	strb.w	r3, [sp, #9]
    eink_data[2] = 0x01;
  401d2a:	2501      	movs	r5, #1
  401d2c:	f88d 500a 	strb.w	r5, [sp, #10]
    eink_data[3] = 0xC0;
  401d30:	23c0      	movs	r3, #192	; 0xc0
  401d32:	f88d 300b 	strb.w	r3, [sp, #11]
    eink_write_data(UC8159_TRES, eink_data, 1);
  401d36:	462a      	mov	r2, r5
  401d38:	a902      	add	r1, sp, #8
  401d3a:	2061      	movs	r0, #97	; 0x61
  401d3c:	47a0      	blx	r4
    eink_data[0] = 0xAA;
  401d3e:	23aa      	movs	r3, #170	; 0xaa
  401d40:	f88d 3008 	strb.w	r3, [sp, #8]
    eink_write_data(UC8159_PWS, eink_data, 1);
  401d44:	462a      	mov	r2, r5
  401d46:	a902      	add	r1, sp, #8
  401d48:	20e3      	movs	r0, #227	; 0xe3
  401d4a:	47a0      	blx	r4
}
  401d4c:	b005      	add	sp, #20
  401d4e:	bd30      	pop	{r4, r5, pc}
        case PFS_2_FRAMES:              eink_data[0] = 0x10; break;
  401d50:	2310      	movs	r3, #16
  401d52:	f88d 3008 	strb.w	r3, [sp, #8]
  401d56:	e7b5      	b.n	401cc4 <uc8159_set_config+0xbc>
        case PFS_3_FRAMES:              eink_data[0] = 0x20; break;
  401d58:	2320      	movs	r3, #32
  401d5a:	f88d 3008 	strb.w	r3, [sp, #8]
  401d5e:	e7b1      	b.n	401cc4 <uc8159_set_config+0xbc>
        case PFS_4_FRAMES:              eink_data[0] = 0x30; break;
  401d60:	2330      	movs	r3, #48	; 0x30
  401d62:	f88d 3008 	strb.w	r3, [sp, #8]
  401d66:	e7ad      	b.n	401cc4 <uc8159_set_config+0xbc>
  401d68:	00401a7d 	.word	0x00401a7d
  401d6c:	004009a9 	.word	0x004009a9

00401d70 <eink_ac057tc1_init>:
{
  401d70:	b570      	push	{r4, r5, r6, lr}
  401d72:	4606      	mov	r6, r0
  401d74:	460d      	mov	r5, r1
    ac057tc1_dtm1_display_buffer = (uint8_t*) malloc (malloc_size);
  401d76:	4811      	ldr	r0, [pc, #68]	; (401dbc <eink_ac057tc1_init+0x4c>)
  401d78:	4b11      	ldr	r3, [pc, #68]	; (401dc0 <eink_ac057tc1_init+0x50>)
  401d7a:	4798      	blx	r3
  401d7c:	4b11      	ldr	r3, [pc, #68]	; (401dc4 <eink_ac057tc1_init+0x54>)
  401d7e:	6018      	str	r0, [r3, #0]
    eink_gfx_ac057tc1_config.display_buffer_1_ptr = ac057tc1_dtm1_display_buffer;
  401d80:	4c11      	ldr	r4, [pc, #68]	; (401dc8 <eink_ac057tc1_init+0x58>)
  401d82:	f8c4 0100 	str.w	r0, [r4, #256]	; 0x100
    uc8159_init();
  401d86:	4b11      	ldr	r3, [pc, #68]	; (401dcc <eink_ac057tc1_init+0x5c>)
  401d88:	4798      	blx	r3
    uc8159_set_config(config);
  401d8a:	4630      	mov	r0, r6
  401d8c:	4b10      	ldr	r3, [pc, #64]	; (401dd0 <eink_ac057tc1_init+0x60>)
  401d8e:	4798      	blx	r3
    eink_gfx_ac057tc1_config.display_rotation = config->panel_settings.display_rotation;
  401d90:	7873      	ldrb	r3, [r6, #1]
  401d92:	f884 30fc 	strb.w	r3, [r4, #252]	; 0xfc
    ptr_eink_gfx_config = (struct eink_gfx_config*) &eink_gfx_ac057tc1_config;
  401d96:	34f0      	adds	r4, #240	; 0xf0
  401d98:	4b0e      	ldr	r3, [pc, #56]	; (401dd4 <eink_ac057tc1_init+0x64>)
  401d9a:	601c      	str	r4, [r3, #0]
    for (buffer_index = 0; buffer_index < GFX_AC057TC1_DISPLAY_BUFFER_SIZE; buffer_index++) {
  401d9c:	2300      	movs	r3, #0
        ptr_eink_gfx_config->display_buffer_1_ptr[buffer_index] = 0x33;
  401d9e:	4c0d      	ldr	r4, [pc, #52]	; (401dd4 <eink_ac057tc1_init+0x64>)
  401da0:	2033      	movs	r0, #51	; 0x33
    for (buffer_index = 0; buffer_index < GFX_AC057TC1_DISPLAY_BUFFER_SIZE; buffer_index++) {
  401da2:	4906      	ldr	r1, [pc, #24]	; (401dbc <eink_ac057tc1_init+0x4c>)
        ptr_eink_gfx_config->display_buffer_1_ptr[buffer_index] = 0x33;
  401da4:	6822      	ldr	r2, [r4, #0]
  401da6:	6912      	ldr	r2, [r2, #16]
  401da8:	54d0      	strb	r0, [r2, r3]
    for (buffer_index = 0; buffer_index < GFX_AC057TC1_DISPLAY_BUFFER_SIZE; buffer_index++) {
  401daa:	3301      	adds	r3, #1
  401dac:	428b      	cmp	r3, r1
  401dae:	d1f9      	bne.n	401da4 <eink_ac057tc1_init+0x34>
    if(clear_display) eink_ac057tc1_put_display_buffer(true);
  401db0:	b905      	cbnz	r5, 401db4 <eink_ac057tc1_init+0x44>
  401db2:	bd70      	pop	{r4, r5, r6, pc}
  401db4:	2001      	movs	r0, #1
  401db6:	4b08      	ldr	r3, [pc, #32]	; (401dd8 <eink_ac057tc1_init+0x68>)
  401db8:	4798      	blx	r3
}
  401dba:	e7fa      	b.n	401db2 <eink_ac057tc1_init+0x42>
  401dbc:	00020d00 	.word	0x00020d00
  401dc0:	00402d19 	.word	0x00402d19
  401dc4:	20000420 	.word	0x20000420
  401dc8:	20000000 	.word	0x20000000
  401dcc:	00401a39 	.word	0x00401a39
  401dd0:	00401c09 	.word	0x00401c09
  401dd4:	2000042c 	.word	0x2000042c
  401dd8:	00400c31 	.word	0x00400c31

00401ddc <gfx_eink_graphics_fill_screen_raw>:
 * \brief Fill display buffers with a single color
 *
 * \param fill_value The pixel value to fill the display buffer with.
 */
void gfx_eink_graphics_fill_screen_raw(uint8_t fill_value)
{
  401ddc:	b508      	push	{r3, lr}
    /* Fill entire display buffer. */
    memset(ptr_eink_gfx_config->display_buffer_1_ptr, fill_value, ptr_eink_gfx_config->display_buffer_size);
  401dde:	4b04      	ldr	r3, [pc, #16]	; (401df0 <gfx_eink_graphics_fill_screen_raw+0x14>)
  401de0:	681b      	ldr	r3, [r3, #0]
  401de2:	689a      	ldr	r2, [r3, #8]
  401de4:	4601      	mov	r1, r0
  401de6:	6918      	ldr	r0, [r3, #16]
  401de8:	4b02      	ldr	r3, [pc, #8]	; (401df4 <gfx_eink_graphics_fill_screen_raw+0x18>)
  401dea:	4798      	blx	r3
  401dec:	bd08      	pop	{r3, pc}
  401dee:	bf00      	nop
  401df0:	2000042c 	.word	0x2000042c
  401df4:	00402d29 	.word	0x00402d29

00401df8 <gfx_eink_graphics_fill_screen>:
 * \param fill_type Selects the color to fill the display buffer with.
 * 
 * \note Selecting FILL_NONE as the color will be ignored.
 */
void gfx_eink_graphics_fill_screen(enum eink_fill_colour fill_color)
{
  401df8:	b5f0      	push	{r4, r5, r6, r7, lr}
  401dfa:	b083      	sub	sp, #12
    volatile eink_coordinate dx, width_fill;
    volatile eink_coordinate dy, height_fill;
    
    width_fill = ptr_eink_gfx_config->display_width;
  401dfc:	4b33      	ldr	r3, [pc, #204]	; (401ecc <gfx_eink_graphics_fill_screen+0xd4>)
  401dfe:	681b      	ldr	r3, [r3, #0]
  401e00:	885a      	ldrh	r2, [r3, #2]
  401e02:	f8ad 2004 	strh.w	r2, [sp, #4]
    height_fill = ptr_eink_gfx_config->display_height;
  401e06:	889b      	ldrh	r3, [r3, #4]
  401e08:	f8ad 3000 	strh.w	r3, [sp]
    
    for(dx = 0; dx < width_fill; dx++) {
  401e0c:	2300      	movs	r3, #0
  401e0e:	f8ad 3006 	strh.w	r3, [sp, #6]
  401e12:	f8bd 2006 	ldrh.w	r2, [sp, #6]
  401e16:	b292      	uxth	r2, r2
  401e18:	f8bd 3004 	ldrh.w	r3, [sp, #4]
  401e1c:	b29b      	uxth	r3, r3
  401e1e:	429a      	cmp	r2, r3
  401e20:	d252      	bcs.n	401ec8 <gfx_eink_graphics_fill_screen+0xd0>
  401e22:	4604      	mov	r4, r0
        for(dy = 0; dy < height_fill; dy++) {
  401e24:	2600      	movs	r6, #0
            switch (fill_color) {
                case FILL_BLACK: gfx_eink_set_pixel(dx, dy, PIXEL_BLACK); break;
  401e26:	4d2a      	ldr	r5, [pc, #168]	; (401ed0 <gfx_eink_graphics_fill_screen+0xd8>)
  401e28:	e042      	b.n	401eb0 <gfx_eink_graphics_fill_screen+0xb8>
  401e2a:	f8bd 0006 	ldrh.w	r0, [sp, #6]
  401e2e:	f8bd 1002 	ldrh.w	r1, [sp, #2]
  401e32:	4632      	mov	r2, r6
  401e34:	b289      	uxth	r1, r1
  401e36:	b280      	uxth	r0, r0
  401e38:	47a8      	blx	r5
        for(dy = 0; dy < height_fill; dy++) {
  401e3a:	f8bd 3002 	ldrh.w	r3, [sp, #2]
  401e3e:	3301      	adds	r3, #1
  401e40:	b29b      	uxth	r3, r3
  401e42:	f8ad 3002 	strh.w	r3, [sp, #2]
  401e46:	f8bd 2002 	ldrh.w	r2, [sp, #2]
  401e4a:	b292      	uxth	r2, r2
  401e4c:	f8bd 3000 	ldrh.w	r3, [sp]
  401e50:	b29b      	uxth	r3, r3
  401e52:	429a      	cmp	r2, r3
  401e54:	d21e      	bcs.n	401e94 <gfx_eink_graphics_fill_screen+0x9c>
            switch (fill_color) {
  401e56:	2c03      	cmp	r4, #3
  401e58:	d8ef      	bhi.n	401e3a <gfx_eink_graphics_fill_screen+0x42>
  401e5a:	a301      	add	r3, pc, #4	; (adr r3, 401e60 <gfx_eink_graphics_fill_screen+0x68>)
  401e5c:	f853 f024 	ldr.w	pc, [r3, r4, lsl #2]
  401e60:	00401e2b 	.word	0x00401e2b
  401e64:	00401e71 	.word	0x00401e71
  401e68:	00401e83 	.word	0x00401e83
  401e6c:	00401e83 	.word	0x00401e83
                case FILL_WHITE: gfx_eink_set_pixel(dx, dy, PIXEL_WHITE); break;
  401e70:	f8bd 0006 	ldrh.w	r0, [sp, #6]
  401e74:	f8bd 1002 	ldrh.w	r1, [sp, #2]
  401e78:	463a      	mov	r2, r7
  401e7a:	b289      	uxth	r1, r1
  401e7c:	b280      	uxth	r0, r0
  401e7e:	47a8      	blx	r5
  401e80:	e7db      	b.n	401e3a <gfx_eink_graphics_fill_screen+0x42>
                case FILL_YELLOW:
                case FILL_RED:   gfx_eink_set_pixel(dx, dy, PIXEL_RED); break;
  401e82:	f8bd 0006 	ldrh.w	r0, [sp, #6]
  401e86:	f8bd 1002 	ldrh.w	r1, [sp, #2]
  401e8a:	2202      	movs	r2, #2
  401e8c:	b289      	uxth	r1, r1
  401e8e:	b280      	uxth	r0, r0
  401e90:	47a8      	blx	r5
  401e92:	e7d2      	b.n	401e3a <gfx_eink_graphics_fill_screen+0x42>
    for(dx = 0; dx < width_fill; dx++) {
  401e94:	f8bd 3006 	ldrh.w	r3, [sp, #6]
  401e98:	3301      	adds	r3, #1
  401e9a:	b29b      	uxth	r3, r3
  401e9c:	f8ad 3006 	strh.w	r3, [sp, #6]
  401ea0:	f8bd 2006 	ldrh.w	r2, [sp, #6]
  401ea4:	b292      	uxth	r2, r2
  401ea6:	f8bd 3004 	ldrh.w	r3, [sp, #4]
  401eaa:	b29b      	uxth	r3, r3
  401eac:	429a      	cmp	r2, r3
  401eae:	d20b      	bcs.n	401ec8 <gfx_eink_graphics_fill_screen+0xd0>
        for(dy = 0; dy < height_fill; dy++) {
  401eb0:	f8ad 6002 	strh.w	r6, [sp, #2]
  401eb4:	f8bd 2002 	ldrh.w	r2, [sp, #2]
  401eb8:	b292      	uxth	r2, r2
  401eba:	f8bd 3000 	ldrh.w	r3, [sp]
  401ebe:	b29b      	uxth	r3, r3
  401ec0:	429a      	cmp	r2, r3
  401ec2:	d2e7      	bcs.n	401e94 <gfx_eink_graphics_fill_screen+0x9c>
                case FILL_WHITE: gfx_eink_set_pixel(dx, dy, PIXEL_WHITE); break;
  401ec4:	2701      	movs	r7, #1
  401ec6:	e7c6      	b.n	401e56 <gfx_eink_graphics_fill_screen+0x5e>
            }
        }
    }
}
  401ec8:	b003      	add	sp, #12
  401eca:	bdf0      	pop	{r4, r5, r6, r7, pc}
  401ecc:	2000042c 	.word	0x2000042c
  401ed0:	004004d1 	.word	0x004004d1

00401ed4 <_gfx_eink_graphics_draw_line>:
 * \param line_raw Whether we're drawing with a pixel value or specified color.
 * \param line_colour Color of the line to draw.
 * \param line_value Pixel value of the line to draw.
 */
void _gfx_eink_graphics_draw_line(eink_coordinate x0, eink_coordinate y0, eink_coordinate x1, eink_coordinate y1, uint8_t line_raw, enum eink_pixel_colour line_colour, uint8_t line_value)
{
  401ed4:	e92d 4ff0 	stmdb	sp!, {r4, r5, r6, r7, r8, r9, sl, fp, lr}
  401ed8:	b087      	sub	sp, #28
  401eda:	4605      	mov	r5, r0
  401edc:	460e      	mov	r6, r1
  401ede:	4690      	mov	r8, r2
  401ee0:	4619      	mov	r1, r3
  401ee2:	9305      	str	r3, [sp, #20]
  401ee4:	f89d a040 	ldrb.w	sl, [sp, #64]	; 0x40
  401ee8:	f89d 2044 	ldrb.w	r2, [sp, #68]	; 0x44
  401eec:	9201      	str	r2, [sp, #4]
  401eee:	f89d 2048 	ldrb.w	r2, [sp, #72]	; 0x48
  401ef2:	9202      	str	r2, [sp, #8]
    eink_coordinate dx, sx;
    eink_coordinate dy, sy;
    eink_coordinate temp, err, e2;
    
    /* Bresenham's Line Algorithm - fix vertical line issue */
    if(abs(y1 - y0) > abs(x1 - x0)) {
  401ef4:	1b9a      	subs	r2, r3, r6
  401ef6:	2a00      	cmp	r2, #0
  401ef8:	bfb8      	it	lt
  401efa:	4252      	neglt	r2, r2
  401efc:	eba8 0300 	sub.w	r3, r8, r0
  401f00:	2b00      	cmp	r3, #0
  401f02:	bfb8      	it	lt
  401f04:	425b      	neglt	r3, r3
  401f06:	429a      	cmp	r2, r3
  401f08:	dd2c      	ble.n	401f64 <_gfx_eink_graphics_draw_line+0x90>
  401f0a:	4643      	mov	r3, r8
        temp = x0;
        x0 = y0;
        y0 = temp;
        // swap x1 and y1
        temp = x1;
        x1 = y1;
  401f0c:	4688      	mov	r8, r1
        y1 = temp;
  401f0e:	9305      	str	r3, [sp, #20]
        x0 = y0;
  401f10:	4635      	mov	r5, r6
        y0 = temp;
  401f12:	4606      	mov	r6, r0
        steep = 1;
  401f14:	f04f 0b01 	mov.w	fp, #1
    }
    
    if(x0 > x1) {
  401f18:	4545      	cmp	r5, r8
  401f1a:	d869      	bhi.n	401ff0 <_gfx_eink_graphics_draw_line+0x11c>
        y0 = y1;
        y1 = temp;
    }
    
    /* Bresenham's Line Algorithm */
    dx = abs(x1 - x0);
  401f1c:	eba8 0905 	sub.w	r9, r8, r5
  401f20:	f1b9 0f00 	cmp.w	r9, #0
  401f24:	bfb8      	it	lt
  401f26:	f1c9 0900 	rsblt	r9, r9, #0
  401f2a:	fa1f f389 	uxth.w	r3, r9
  401f2e:	9300      	str	r3, [sp, #0]
    if (x0 < x1) sx = 1;
    else sx = -1;
  401f30:	f64f 73ff 	movw	r3, #65535	; 0xffff
  401f34:	4545      	cmp	r5, r8
  401f36:	bf38      	it	cc
  401f38:	2301      	movcc	r3, #1
  401f3a:	9304      	str	r3, [sp, #16]
    dy = abs(y1 - y0);
  401f3c:	9905      	ldr	r1, [sp, #20]
  401f3e:	1b8b      	subs	r3, r1, r6
  401f40:	2b00      	cmp	r3, #0
  401f42:	bfb8      	it	lt
  401f44:	425b      	neglt	r3, r3
  401f46:	b29f      	uxth	r7, r3
    if (y0 < y1) sy = 1;
    else sy = -1;
  401f48:	f64f 72ff 	movw	r2, #65535	; 0xffff
  401f4c:	428e      	cmp	r6, r1
  401f4e:	bf38      	it	cc
  401f50:	2201      	movcc	r2, #1
  401f52:	9203      	str	r2, [sp, #12]
    err = (dx >= dy ? dx : -dy) /2, e2;
  401f54:	9a00      	ldr	r2, [sp, #0]
  401f56:	4297      	cmp	r7, r2
  401f58:	d807      	bhi.n	401f6a <_gfx_eink_graphics_draw_line+0x96>
  401f5a:	f3c9 044e 	ubfx	r4, r9, #1, #15
            else gfx_eink_set_pixel_raw(x0, y0, line_value);
        }
        
        if ( (x0 == x1) && (y0 == y1) ) break;
        e2 = err;
        if (e2 > (-dx)) {
  401f5e:	fa1f f989 	uxth.w	r9, r9
  401f62:	e022      	b.n	401faa <_gfx_eink_graphics_draw_line+0xd6>
    uint8_t steep = 0;
  401f64:	f04f 0b00 	mov.w	fp, #0
  401f68:	e7d6      	b.n	401f18 <_gfx_eink_graphics_draw_line+0x44>
    err = (dx >= dy ? dx : -dy) /2, e2;
  401f6a:	b29b      	uxth	r3, r3
  401f6c:	425c      	negs	r4, r3
  401f6e:	eb04 74d4 	add.w	r4, r4, r4, lsr #31
  401f72:	f3c4 044f 	ubfx	r4, r4, #1, #16
  401f76:	e7f2      	b.n	401f5e <_gfx_eink_graphics_draw_line+0x8a>
            else gfx_eink_set_pixel(x0, y0, line_colour);   
  401f78:	9a01      	ldr	r2, [sp, #4]
  401f7a:	4631      	mov	r1, r6
  401f7c:	4628      	mov	r0, r5
  401f7e:	4b26      	ldr	r3, [pc, #152]	; (402018 <_gfx_eink_graphics_draw_line+0x144>)
  401f80:	4798      	blx	r3
        if ( (x0 == x1) && (y0 == y1) ) break;
  401f82:	4545      	cmp	r5, r8
  401f84:	d02c      	beq.n	401fe0 <_gfx_eink_graphics_draw_line+0x10c>
        if (e2 > (-dx)) {
  401f86:	f1c9 0300 	rsb	r3, r9, #0
  401f8a:	429c      	cmp	r4, r3
  401f8c:	dd2e      	ble.n	401fec <_gfx_eink_graphics_draw_line+0x118>
            err -= dy;
  401f8e:	1be3      	subs	r3, r4, r7
  401f90:	b29b      	uxth	r3, r3
            x0 += sx;
  401f92:	9a04      	ldr	r2, [sp, #16]
  401f94:	4415      	add	r5, r2
  401f96:	b2ad      	uxth	r5, r5
        }
        if (e2 < dy) {
  401f98:	42bc      	cmp	r4, r7
  401f9a:	d205      	bcs.n	401fa8 <_gfx_eink_graphics_draw_line+0xd4>
            err += dx;
  401f9c:	9a00      	ldr	r2, [sp, #0]
  401f9e:	4413      	add	r3, r2
  401fa0:	b29b      	uxth	r3, r3
            y0 += sy;
  401fa2:	9a03      	ldr	r2, [sp, #12]
  401fa4:	4416      	add	r6, r2
  401fa6:	b2b6      	uxth	r6, r6
    else sy = -1;
  401fa8:	461c      	mov	r4, r3
        if(!line_raw)
  401faa:	f1ba 0f00 	cmp.w	sl, #0
  401fae:	d108      	bne.n	401fc2 <_gfx_eink_graphics_draw_line+0xee>
            if(steep) gfx_eink_set_pixel(y0, x0, line_colour);
  401fb0:	f1bb 0f00 	cmp.w	fp, #0
  401fb4:	d0e0      	beq.n	401f78 <_gfx_eink_graphics_draw_line+0xa4>
  401fb6:	9a01      	ldr	r2, [sp, #4]
  401fb8:	4629      	mov	r1, r5
  401fba:	4630      	mov	r0, r6
  401fbc:	4b16      	ldr	r3, [pc, #88]	; (402018 <_gfx_eink_graphics_draw_line+0x144>)
  401fbe:	4798      	blx	r3
  401fc0:	e7df      	b.n	401f82 <_gfx_eink_graphics_draw_line+0xae>
            if(steep) gfx_eink_set_pixel_raw(y0, x0, line_value);
  401fc2:	f1bb 0f00 	cmp.w	fp, #0
  401fc6:	d005      	beq.n	401fd4 <_gfx_eink_graphics_draw_line+0x100>
  401fc8:	9a02      	ldr	r2, [sp, #8]
  401fca:	4629      	mov	r1, r5
  401fcc:	4630      	mov	r0, r6
  401fce:	4b13      	ldr	r3, [pc, #76]	; (40201c <_gfx_eink_graphics_draw_line+0x148>)
  401fd0:	4798      	blx	r3
  401fd2:	e7d6      	b.n	401f82 <_gfx_eink_graphics_draw_line+0xae>
            else gfx_eink_set_pixel_raw(x0, y0, line_value);
  401fd4:	9a02      	ldr	r2, [sp, #8]
  401fd6:	4631      	mov	r1, r6
  401fd8:	4628      	mov	r0, r5
  401fda:	4b10      	ldr	r3, [pc, #64]	; (40201c <_gfx_eink_graphics_draw_line+0x148>)
  401fdc:	4798      	blx	r3
  401fde:	e7d0      	b.n	401f82 <_gfx_eink_graphics_draw_line+0xae>
        if ( (x0 == x1) && (y0 == y1) ) break;
  401fe0:	9b05      	ldr	r3, [sp, #20]
  401fe2:	429e      	cmp	r6, r3
  401fe4:	d1cf      	bne.n	401f86 <_gfx_eink_graphics_draw_line+0xb2>
        }
    }
}
  401fe6:	b007      	add	sp, #28
  401fe8:	e8bd 8ff0 	ldmia.w	sp!, {r4, r5, r6, r7, r8, r9, sl, fp, pc}
  401fec:	4623      	mov	r3, r4
  401fee:	e7d3      	b.n	401f98 <_gfx_eink_graphics_draw_line+0xc4>
    dx = abs(x1 - x0);
  401ff0:	eba5 0908 	sub.w	r9, r5, r8
  401ff4:	f1b9 0f00 	cmp.w	r9, #0
  401ff8:	bfb8      	it	lt
  401ffa:	f1c9 0900 	rsblt	r9, r9, #0
  401ffe:	fa1f f389 	uxth.w	r3, r9
  402002:	9300      	str	r3, [sp, #0]
  402004:	4633      	mov	r3, r6
        y0 = y1;
  402006:	9e05      	ldr	r6, [sp, #20]
        y1 = temp;
  402008:	9305      	str	r3, [sp, #20]
    dx = abs(x1 - x0);
  40200a:	462b      	mov	r3, r5
        x0 = x1;
  40200c:	4645      	mov	r5, r8
        x1 = temp;
  40200e:	4698      	mov	r8, r3
    if (x0 < x1) sx = 1;
  402010:	2301      	movs	r3, #1
  402012:	9304      	str	r3, [sp, #16]
  402014:	e792      	b.n	401f3c <_gfx_eink_graphics_draw_line+0x68>
  402016:	bf00      	nop
  402018:	004004d1 	.word	0x004004d1
  40201c:	004004e1 	.word	0x004004e1

00402020 <gfx_eink_graphics_draw_line>:
 * \param x1 Ending X coordinate.
 * \param y1 Ending Y coordinate.
 * \param line_colour Color of the line to draw.
 */
void gfx_eink_graphics_draw_line(eink_coordinate x0, eink_coordinate y0, eink_coordinate x1, eink_coordinate y1, enum eink_pixel_colour line_colour)
{
  402020:	b530      	push	{r4, r5, lr}
  402022:	b085      	sub	sp, #20
    _gfx_eink_graphics_draw_line(x0, y0, x1, y1, 0, line_colour, 0);
  402024:	2400      	movs	r4, #0
  402026:	9402      	str	r4, [sp, #8]
  402028:	f89d 5020 	ldrb.w	r5, [sp, #32]
  40202c:	9501      	str	r5, [sp, #4]
  40202e:	9400      	str	r4, [sp, #0]
  402030:	4c01      	ldr	r4, [pc, #4]	; (402038 <gfx_eink_graphics_draw_line+0x18>)
  402032:	47a0      	blx	r4
}
  402034:	b005      	add	sp, #20
  402036:	bd30      	pop	{r4, r5, pc}
  402038:	00401ed5 	.word	0x00401ed5

0040203c <gfx_eink_graphics_draw_rect>:
 * \param fill_type Color of the rectangle fill.
 *
 * \note Both the border and the fill can be set to blank should you want a border-less or empty rectangle.
 */
void gfx_eink_graphics_draw_rect(eink_coordinate x0, eink_coordinate y0, eink_coordinate width, eink_coordinate height, enum eink_pixel_colour line_colour, enum eink_fill_colour fill_colour)
{
  40203c:	e92d 4ff0 	stmdb	sp!, {r4, r5, r6, r7, r8, r9, sl, fp, lr}
  402040:	b083      	sub	sp, #12
  402042:	4682      	mov	sl, r0
  402044:	9100      	str	r1, [sp, #0]
  402046:	4690      	mov	r8, r2
  402048:	469b      	mov	fp, r3
  40204a:	f89d 6030 	ldrb.w	r6, [sp, #48]	; 0x30
  40204e:	f89d 5034 	ldrb.w	r5, [sp, #52]	; 0x34
    eink_coordinate i, j;
    
    /* Draw rectangle borders first */
    for (i = x0; i < (x0+width); i++) {
  402052:	eb02 0900 	add.w	r9, r2, r0
  402056:	4548      	cmp	r0, r9
  402058:	da11      	bge.n	40207e <gfx_eink_graphics_draw_rect+0x42>
  40205a:	4604      	mov	r4, r0
        gfx_eink_set_pixel(i, y0, line_colour);
  40205c:	4f31      	ldr	r7, [pc, #196]	; (402124 <gfx_eink_graphics_draw_rect+0xe8>)
        gfx_eink_set_pixel(i, (y0 + height - 1), line_colour);
  40205e:	3b01      	subs	r3, #1
  402060:	440b      	add	r3, r1
  402062:	b29b      	uxth	r3, r3
  402064:	9301      	str	r3, [sp, #4]
        gfx_eink_set_pixel(i, y0, line_colour);
  402066:	4632      	mov	r2, r6
  402068:	9900      	ldr	r1, [sp, #0]
  40206a:	4620      	mov	r0, r4
  40206c:	47b8      	blx	r7
        gfx_eink_set_pixel(i, (y0 + height - 1), line_colour);
  40206e:	4632      	mov	r2, r6
  402070:	9901      	ldr	r1, [sp, #4]
  402072:	4620      	mov	r0, r4
  402074:	47b8      	blx	r7
    for (i = x0; i < (x0+width); i++) {
  402076:	3401      	adds	r4, #1
  402078:	b2a4      	uxth	r4, r4
  40207a:	454c      	cmp	r4, r9
  40207c:	dbf3      	blt.n	402066 <gfx_eink_graphics_draw_rect+0x2a>
    }
    for (i = y0; i < (y0+height); i++) {
  40207e:	9c00      	ldr	r4, [sp, #0]
  402080:	44a3      	add	fp, r4
  402082:	455c      	cmp	r4, fp
  402084:	da11      	bge.n	4020aa <gfx_eink_graphics_draw_rect+0x6e>
        gfx_eink_set_pixel(x0, i, line_colour);
  402086:	4f27      	ldr	r7, [pc, #156]	; (402124 <gfx_eink_graphics_draw_rect+0xe8>)
        gfx_eink_set_pixel((x0 + width - 1), i, line_colour);
  402088:	f108 38ff 	add.w	r8, r8, #4294967295
  40208c:	44d0      	add	r8, sl
  40208e:	fa1f f888 	uxth.w	r8, r8
        gfx_eink_set_pixel(x0, i, line_colour);
  402092:	4632      	mov	r2, r6
  402094:	4621      	mov	r1, r4
  402096:	4650      	mov	r0, sl
  402098:	47b8      	blx	r7
        gfx_eink_set_pixel((x0 + width - 1), i, line_colour);
  40209a:	4632      	mov	r2, r6
  40209c:	4621      	mov	r1, r4
  40209e:	4640      	mov	r0, r8
  4020a0:	47b8      	blx	r7
    for (i = y0; i < (y0+height); i++) {
  4020a2:	3401      	adds	r4, #1
  4020a4:	b2a4      	uxth	r4, r4
  4020a6:	455c      	cmp	r4, fp
  4020a8:	dbf3      	blt.n	402092 <gfx_eink_graphics_draw_rect+0x56>
    }
    
    /* Add a fill if necessary */
    if (fill_colour != FILL_NONE) {
  4020aa:	2d04      	cmp	r5, #4
  4020ac:	d036      	beq.n	40211c <gfx_eink_graphics_draw_rect+0xe0>
        for (i = (x0 + 1); i < (x0 + width - 1); i++) {
  4020ae:	f10a 0601 	add.w	r6, sl, #1
  4020b2:	b2b6      	uxth	r6, r6
  4020b4:	f109 3aff 	add.w	sl, r9, #4294967295
  4020b8:	4556      	cmp	r6, sl
  4020ba:	da2f      	bge.n	40211c <gfx_eink_graphics_draw_rect+0xe0>
            for (j = (y0 + 1); j < (y0 + height - 1); j++) {
  4020bc:	9b00      	ldr	r3, [sp, #0]
  4020be:	3301      	adds	r3, #1
  4020c0:	fa1f f983 	uxth.w	r9, r3
                switch (fill_colour) {
                    case FILL_BLACK: gfx_eink_set_pixel(i, j, PIXEL_BLACK); break;
  4020c4:	f8df 805c 	ldr.w	r8, [pc, #92]	; 402124 <gfx_eink_graphics_draw_rect+0xe8>
  4020c8:	e022      	b.n	402110 <gfx_eink_graphics_draw_rect+0xd4>
  4020ca:	2200      	movs	r2, #0
  4020cc:	4621      	mov	r1, r4
  4020ce:	4630      	mov	r0, r6
  4020d0:	47c0      	blx	r8
            for (j = (y0 + 1); j < (y0 + height - 1); j++) {
  4020d2:	3401      	adds	r4, #1
  4020d4:	b2a4      	uxth	r4, r4
  4020d6:	42bc      	cmp	r4, r7
  4020d8:	da16      	bge.n	402108 <gfx_eink_graphics_draw_rect+0xcc>
                switch (fill_colour) {
  4020da:	2d03      	cmp	r5, #3
  4020dc:	d8f9      	bhi.n	4020d2 <gfx_eink_graphics_draw_rect+0x96>
  4020de:	a301      	add	r3, pc, #4	; (adr r3, 4020e4 <gfx_eink_graphics_draw_rect+0xa8>)
  4020e0:	f853 f025 	ldr.w	pc, [r3, r5, lsl #2]
  4020e4:	004020cb 	.word	0x004020cb
  4020e8:	004020f5 	.word	0x004020f5
  4020ec:	004020ff 	.word	0x004020ff
  4020f0:	004020ff 	.word	0x004020ff
                    case FILL_WHITE: gfx_eink_set_pixel(i, j, PIXEL_WHITE); break;
  4020f4:	2201      	movs	r2, #1
  4020f6:	4621      	mov	r1, r4
  4020f8:	4630      	mov	r0, r6
  4020fa:	47c0      	blx	r8
  4020fc:	e7e9      	b.n	4020d2 <gfx_eink_graphics_draw_rect+0x96>
                    case FILL_YELLOW:
                    case FILL_RED:   gfx_eink_set_pixel(i, j, PIXEL_RED); break;
  4020fe:	2202      	movs	r2, #2
  402100:	4621      	mov	r1, r4
  402102:	4630      	mov	r0, r6
  402104:	47c0      	blx	r8
  402106:	e7e4      	b.n	4020d2 <gfx_eink_graphics_draw_rect+0x96>
        for (i = (x0 + 1); i < (x0 + width - 1); i++) {
  402108:	3601      	adds	r6, #1
  40210a:	b2b6      	uxth	r6, r6
  40210c:	4556      	cmp	r6, sl
  40210e:	da05      	bge.n	40211c <gfx_eink_graphics_draw_rect+0xe0>
            for (j = (y0 + 1); j < (y0 + height - 1); j++) {
  402110:	464c      	mov	r4, r9
  402112:	f10b 37ff 	add.w	r7, fp, #4294967295
  402116:	45b9      	cmp	r9, r7
  402118:	dbdf      	blt.n	4020da <gfx_eink_graphics_draw_rect+0x9e>
  40211a:	e7f5      	b.n	402108 <gfx_eink_graphics_draw_rect+0xcc>
                }
            }
        }
    }
}
  40211c:	b003      	add	sp, #12
  40211e:	e8bd 8ff0 	ldmia.w	sp!, {r4, r5, r6, r7, r8, r9, sl, fp, pc}
  402122:	bf00      	nop
  402124:	004004d1 	.word	0x004004d1

00402128 <_gfx_eink_text_write_character>:
 * \param text_colour Color of character.
 * \param text_colour_value Pixel value of character.
 * \param eink_font Font structure to use. 
 */
void _gfx_eink_text_write_character(char character, eink_coordinate start_x, eink_coordinate start_y, uint8_t colour_raw, enum eink_pixel_colour text_colour, uint8_t text_colour_value, struct gfx_eink_font eink_font)
{
  402128:	e92d 4ff0 	stmdb	sp!, {r4, r5, r6, r7, r8, r9, sl, fp, lr}
  40212c:	b091      	sub	sp, #68	; 0x44
  40212e:	f89d 4068 	ldrb.w	r4, [sp, #104]	; 0x68
  402132:	9401      	str	r4, [sp, #4]
  402134:	f89d 406c 	ldrb.w	r4, [sp, #108]	; 0x6c
  402138:	9402      	str	r4, [sp, #8]
  40213a:	9c1e      	ldr	r4, [sp, #120]	; 0x78
  40213c:	f89d 707d 	ldrb.w	r7, [sp, #125]	; 0x7d
  402140:	f89d 807e 	ldrb.w	r8, [sp, #126]	; 0x7e
  402144:	f89d 507f 	ldrb.w	r5, [sp, #127]	; 0x7f
    volatile eink_coordinate current_y, send_y;
    
    uint8_t *font_character_size_map_ptr;
    uint8_t *font_array_ptr;
    
    current_x = start_x;
  402148:	f8ad 101e 	strh.w	r1, [sp, #30]
    current_y = start_y;
  40214c:	f8ad 201a 	strh.w	r2, [sp, #26]
    
    /* Get the index of the start of the character in the font array */
    start_font_index = 0;
  402150:	2600      	movs	r6, #0
  402152:	960c      	str	r6, [sp, #48]	; 0x30
    font_character_size_map_ptr = eink_font.font_character_size_map_ptr;
    current_char_index = character - eink_font.font_starting_ascii_char;
  402154:	f89d 107c 	ldrb.w	r1, [sp, #124]	; 0x7c
  402158:	1a40      	subs	r0, r0, r1
  40215a:	900d      	str	r0, [sp, #52]	; 0x34
    for(i = 0; i < current_char_index; i++) {
  40215c:	960a      	str	r6, [sp, #40]	; 0x28
  40215e:	980a      	ldr	r0, [sp, #40]	; 0x28
  402160:	990d      	ldr	r1, [sp, #52]	; 0x34
  402162:	4288      	cmp	r0, r1
  402164:	d23f      	bcs.n	4021e6 <_gfx_eink_text_write_character+0xbe>
  402166:	4626      	mov	r6, r4
        start_font_index += (*font_character_size_map_ptr * eink_font.font_height_bytes);
  402168:	980c      	ldr	r0, [sp, #48]	; 0x30
  40216a:	f816 1b01 	ldrb.w	r1, [r6], #1
  40216e:	fb07 0101 	mla	r1, r7, r1, r0
  402172:	910c      	str	r1, [sp, #48]	; 0x30
    for(i = 0; i < current_char_index; i++) {
  402174:	990a      	ldr	r1, [sp, #40]	; 0x28
  402176:	3101      	adds	r1, #1
  402178:	910a      	str	r1, [sp, #40]	; 0x28
  40217a:	980a      	ldr	r0, [sp, #40]	; 0x28
  40217c:	990d      	ldr	r1, [sp, #52]	; 0x34
  40217e:	4288      	cmp	r0, r1
  402180:	d3f2      	bcc.n	402168 <_gfx_eink_text_write_character+0x40>
        font_character_size_map_ptr++;
    }
    
    /* Ensure the chosen character is still in the font array */
    if( (start_font_index + (*font_character_size_map_ptr * eink_font.font_height_bytes) ) < (eink_font.font_array_size + (eink_font.font_character_size_map_ptr[current_char_index] * eink_font.font_height_bytes) )) {
  402182:	7830      	ldrb	r0, [r6, #0]
  402184:	fb07 f000 	mul.w	r0, r7, r0
  402188:	9e0c      	ldr	r6, [sp, #48]	; 0x30
  40218a:	990d      	ldr	r1, [sp, #52]	; 0x34
  40218c:	4406      	add	r6, r0
  40218e:	5c64      	ldrb	r4, [r4, r1]
  402190:	991d      	ldr	r1, [sp, #116]	; 0x74
  402192:	fb07 1104 	mla	r1, r7, r4, r1
  402196:	428e      	cmp	r6, r1
  402198:	f080 80ea 	bcs.w	402370 <_gfx_eink_text_write_character+0x248>
        
        /* Move the pointer to the character starting byte */
        font_array_ptr = (uint8_t*) eink_font.font_array_ptr;
  40219c:	9c1c      	ldr	r4, [sp, #112]	; 0x70
		if(ptr_eink_gfx_config->gfx_display == GFX_IT8951)
  40219e:	4976      	ldr	r1, [pc, #472]	; (402378 <_gfx_eink_text_write_character+0x250>)
  4021a0:	6809      	ldr	r1, [r1, #0]
  4021a2:	7809      	ldrb	r1, [r1, #0]
  4021a4:	2906      	cmp	r1, #6
			font_array_ptr += ((start_font_index - 1) + (sizeof(uint8_t) * (eink_font.font_height_bytes)));
  4021a6:	990c      	ldr	r1, [sp, #48]	; 0x30
  4021a8:	bf04      	itt	eq
  4021aa:	f101 31ff 	addeq.w	r1, r1, #4294967295
  4021ae:	19c9      	addeq	r1, r1, r7
		else
			font_array_ptr += start_font_index;
  4021b0:	440c      	add	r4, r1
    
       /**
        * Loop horizontally through the columns of the font first,
        * then loop vertically through each row of the font (bit by bit)
        */
        j = 0;
  4021b2:	2100      	movs	r1, #0
  4021b4:	9109      	str	r1, [sp, #36]	; 0x24
        end_font_index = start_font_index + (*font_character_size_map_ptr * eink_font.font_height_bytes) - 1;
  4021b6:	990c      	ldr	r1, [sp, #48]	; 0x30
  4021b8:	3901      	subs	r1, #1
  4021ba:	4408      	add	r0, r1
  4021bc:	900b      	str	r0, [sp, #44]	; 0x2c
        for (i = start_font_index; i <= end_font_index; i++) {
  4021be:	990c      	ldr	r1, [sp, #48]	; 0x30
  4021c0:	910a      	str	r1, [sp, #40]	; 0x28
  4021c2:	980a      	ldr	r0, [sp, #40]	; 0x28
  4021c4:	990b      	ldr	r1, [sp, #44]	; 0x2c
  4021c6:	4288      	cmp	r0, r1
  4021c8:	f200 80d2 	bhi.w	402370 <_gfx_eink_text_write_character+0x248>
  4021cc:	461e      	mov	r6, r3
  4021ce:	9204      	str	r2, [sp, #16]
            j++;
            current_y += 8;
            if(ptr_eink_gfx_config->gfx_display == GFX_IT8951) font_array_ptr -= sizeof(uint8_t);
			else font_array_ptr += sizeof(uint8_t);
            
            if(j == eink_font.font_height_bytes) {
  4021d0:	9703      	str	r7, [sp, #12]
                j = 0;
                current_y = start_y;
                if(ptr_eink_gfx_config->gfx_display == GFX_IT8951) font_array_ptr += (sizeof(uint8_t) * 2 * eink_font.font_height_bytes);
  4021d2:	007b      	lsls	r3, r7, #1
  4021d4:	9305      	str	r3, [sp, #20]
				m = 0;
  4021d6:	f04f 0b00 	mov.w	fp, #0
                        else gfx_eink_set_pixel_raw(send_x, send_y, text_colour_value);
  4021da:	f8df a1a0 	ldr.w	sl, [pc, #416]	; 40237c <_gfx_eink_text_write_character+0x254>
                        if(!colour_raw) gfx_eink_set_pixel(send_x, send_y, text_colour);
  4021de:	f8df 91a0 	ldr.w	r9, [pc, #416]	; 402380 <_gfx_eink_text_write_character+0x258>
            if( ((eink_font.font_endianness == FONT_BIG_ENDIAN) && (ptr_eink_gfx_config->gfx_display != GFX_IT8951)) || ((eink_font.font_endianness == FONT_LITTLE_ENDIAN) && (ptr_eink_gfx_config->gfx_display == GFX_IT8951)) ){
  4021e2:	4f65      	ldr	r7, [pc, #404]	; (402378 <_gfx_eink_text_write_character+0x250>)
  4021e4:	e027      	b.n	402236 <_gfx_eink_text_write_character+0x10e>
    font_character_size_map_ptr = eink_font.font_character_size_map_ptr;
  4021e6:	4626      	mov	r6, r4
  4021e8:	e7cb      	b.n	402182 <_gfx_eink_text_write_character+0x5a>
            if( ((eink_font.font_endianness == FONT_BIG_ENDIAN) && (ptr_eink_gfx_config->gfx_display != GFX_IT8951)) || ((eink_font.font_endianness == FONT_LITTLE_ENDIAN) && (ptr_eink_gfx_config->gfx_display == GFX_IT8951)) ){
  4021ea:	f1b8 0f01 	cmp.w	r8, #1
  4021ee:	d02f      	beq.n	402250 <_gfx_eink_text_write_character+0x128>
				m = 0;
  4021f0:	f8cd b020 	str.w	fp, [sp, #32]
                for (k = 8; k > 0; k--) {
  4021f4:	2308      	movs	r3, #8
  4021f6:	930f      	str	r3, [sp, #60]	; 0x3c
  4021f8:	9b0f      	ldr	r3, [sp, #60]	; 0x3c
  4021fa:	2b00      	cmp	r3, #0
  4021fc:	d173      	bne.n	4022e6 <_gfx_eink_text_write_character+0x1be>
            j++;
  4021fe:	9b09      	ldr	r3, [sp, #36]	; 0x24
  402200:	3301      	adds	r3, #1
  402202:	9309      	str	r3, [sp, #36]	; 0x24
            current_y += 8;
  402204:	f8bd 301a 	ldrh.w	r3, [sp, #26]
  402208:	3308      	adds	r3, #8
  40220a:	b29b      	uxth	r3, r3
  40220c:	f8ad 301a 	strh.w	r3, [sp, #26]
            if(ptr_eink_gfx_config->gfx_display == GFX_IT8951) font_array_ptr -= sizeof(uint8_t);
  402210:	683b      	ldr	r3, [r7, #0]
  402212:	781b      	ldrb	r3, [r3, #0]
  402214:	2b06      	cmp	r3, #6
  402216:	f000 808f 	beq.w	402338 <_gfx_eink_text_write_character+0x210>
			else font_array_ptr += sizeof(uint8_t);
  40221a:	3401      	adds	r4, #1
            if(j == eink_font.font_height_bytes) {
  40221c:	9b09      	ldr	r3, [sp, #36]	; 0x24
  40221e:	9a03      	ldr	r2, [sp, #12]
  402220:	429a      	cmp	r2, r3
  402222:	f000 8098 	beq.w	402356 <_gfx_eink_text_write_character+0x22e>
        for (i = start_font_index; i <= end_font_index; i++) {
  402226:	9b0a      	ldr	r3, [sp, #40]	; 0x28
  402228:	3301      	adds	r3, #1
  40222a:	930a      	str	r3, [sp, #40]	; 0x28
  40222c:	9a0a      	ldr	r2, [sp, #40]	; 0x28
  40222e:	9b0b      	ldr	r3, [sp, #44]	; 0x2c
  402230:	429a      	cmp	r2, r3
  402232:	f200 809d 	bhi.w	402370 <_gfx_eink_text_write_character+0x248>
            if( ((eink_font.font_endianness == FONT_BIG_ENDIAN) && (ptr_eink_gfx_config->gfx_display != GFX_IT8951)) || ((eink_font.font_endianness == FONT_LITTLE_ENDIAN) && (ptr_eink_gfx_config->gfx_display == GFX_IT8951)) ){
  402236:	f1b8 0f00 	cmp.w	r8, #0
  40223a:	d1d6      	bne.n	4021ea <_gfx_eink_text_write_character+0xc2>
  40223c:	683b      	ldr	r3, [r7, #0]
  40223e:	781b      	ldrb	r3, [r3, #0]
  402240:	2b06      	cmp	r3, #6
  402242:	d0d5      	beq.n	4021f0 <_gfx_eink_text_write_character+0xc8>
                for (k = 0; k < 8; k++) {
  402244:	f8cd b03c 	str.w	fp, [sp, #60]	; 0x3c
  402248:	9b0f      	ldr	r3, [sp, #60]	; 0x3c
  40224a:	2b07      	cmp	r3, #7
  40224c:	d915      	bls.n	40227a <_gfx_eink_text_write_character+0x152>
  40224e:	e7d6      	b.n	4021fe <_gfx_eink_text_write_character+0xd6>
            if( ((eink_font.font_endianness == FONT_BIG_ENDIAN) && (ptr_eink_gfx_config->gfx_display != GFX_IT8951)) || ((eink_font.font_endianness == FONT_LITTLE_ENDIAN) && (ptr_eink_gfx_config->gfx_display == GFX_IT8951)) ){
  402250:	683b      	ldr	r3, [r7, #0]
  402252:	781b      	ldrb	r3, [r3, #0]
  402254:	2b06      	cmp	r3, #6
  402256:	d1cb      	bne.n	4021f0 <_gfx_eink_text_write_character+0xc8>
  402258:	e7f4      	b.n	402244 <_gfx_eink_text_write_character+0x11c>
                    if ( ( (bit_value == 1) && (eink_font.font_inverted == FONT_NORMAL) ) || ( (bit_value == 0) && (eink_font.font_inverted == FONT_INVERTED) ) ) {
  40225a:	bb25      	cbnz	r5, 4022a6 <_gfx_eink_text_write_character+0x17e>
                        if(!colour_raw) gfx_eink_set_pixel(send_x, send_y, text_colour);
  40225c:	bb4e      	cbnz	r6, 4022b2 <_gfx_eink_text_write_character+0x18a>
  40225e:	f8bd 001c 	ldrh.w	r0, [sp, #28]
  402262:	f8bd 1018 	ldrh.w	r1, [sp, #24]
  402266:	9a01      	ldr	r2, [sp, #4]
  402268:	b289      	uxth	r1, r1
  40226a:	b280      	uxth	r0, r0
  40226c:	47c8      	blx	r9
                for (k = 0; k < 8; k++) {
  40226e:	9b0f      	ldr	r3, [sp, #60]	; 0x3c
  402270:	3301      	adds	r3, #1
  402272:	930f      	str	r3, [sp, #60]	; 0x3c
  402274:	9b0f      	ldr	r3, [sp, #60]	; 0x3c
  402276:	2b07      	cmp	r3, #7
  402278:	d8c1      	bhi.n	4021fe <_gfx_eink_text_write_character+0xd6>
                    bit_value = ((*font_array_ptr >> k) & 0x1);
  40227a:	9a0f      	ldr	r2, [sp, #60]	; 0x3c
  40227c:	7823      	ldrb	r3, [r4, #0]
  40227e:	4113      	asrs	r3, r2
  402280:	f003 0301 	and.w	r3, r3, #1
  402284:	930e      	str	r3, [sp, #56]	; 0x38
                    send_x = current_x;
  402286:	f8bd 301e 	ldrh.w	r3, [sp, #30]
  40228a:	b29b      	uxth	r3, r3
  40228c:	f8ad 301c 	strh.w	r3, [sp, #28]
                    send_y = (current_y + k);
  402290:	9a0f      	ldr	r2, [sp, #60]	; 0x3c
  402292:	f8bd 301a 	ldrh.w	r3, [sp, #26]
  402296:	fa12 f383 	uxtah	r3, r2, r3
  40229a:	b29b      	uxth	r3, r3
  40229c:	f8ad 3018 	strh.w	r3, [sp, #24]
                    if ( ( (bit_value == 1) && (eink_font.font_inverted == FONT_NORMAL) ) || ( (bit_value == 0) && (eink_font.font_inverted == FONT_INVERTED) ) ) {
  4022a0:	9b0e      	ldr	r3, [sp, #56]	; 0x38
  4022a2:	2b01      	cmp	r3, #1
  4022a4:	d0d9      	beq.n	40225a <_gfx_eink_text_write_character+0x132>
  4022a6:	9b0e      	ldr	r3, [sp, #56]	; 0x38
  4022a8:	2b00      	cmp	r3, #0
  4022aa:	d1e0      	bne.n	40226e <_gfx_eink_text_write_character+0x146>
  4022ac:	2d01      	cmp	r5, #1
  4022ae:	d1de      	bne.n	40226e <_gfx_eink_text_write_character+0x146>
  4022b0:	e7d4      	b.n	40225c <_gfx_eink_text_write_character+0x134>
						else gfx_eink_set_pixel_raw(send_x, send_y, text_colour_value);
  4022b2:	f8bd 001c 	ldrh.w	r0, [sp, #28]
  4022b6:	f8bd 1018 	ldrh.w	r1, [sp, #24]
  4022ba:	9a02      	ldr	r2, [sp, #8]
  4022bc:	b289      	uxth	r1, r1
  4022be:	b280      	uxth	r0, r0
  4022c0:	47d0      	blx	sl
  4022c2:	e7d4      	b.n	40226e <_gfx_eink_text_write_character+0x146>
                    if ( ( (bit_value == 1) && (eink_font.font_inverted == FONT_NORMAL) ) || ( (bit_value == 0) && (eink_font.font_inverted == FONT_INVERTED) ) ) {
  4022c4:	bb4d      	cbnz	r5, 40231a <_gfx_eink_text_write_character+0x1f2>
                        if(!colour_raw) gfx_eink_set_pixel(send_x, send_y, text_colour);
  4022c6:	2e00      	cmp	r6, #0
  4022c8:	d12d      	bne.n	402326 <_gfx_eink_text_write_character+0x1fe>
  4022ca:	f8bd 001c 	ldrh.w	r0, [sp, #28]
  4022ce:	f8bd 1018 	ldrh.w	r1, [sp, #24]
  4022d2:	9a01      	ldr	r2, [sp, #4]
  4022d4:	b289      	uxth	r1, r1
  4022d6:	b280      	uxth	r0, r0
  4022d8:	47c8      	blx	r9
                for (k = 8; k > 0; k--) {
  4022da:	9b0f      	ldr	r3, [sp, #60]	; 0x3c
  4022dc:	3b01      	subs	r3, #1
  4022de:	930f      	str	r3, [sp, #60]	; 0x3c
  4022e0:	9b0f      	ldr	r3, [sp, #60]	; 0x3c
  4022e2:	2b00      	cmp	r3, #0
  4022e4:	d08b      	beq.n	4021fe <_gfx_eink_text_write_character+0xd6>
                    bit_value = ((*font_array_ptr >> (k-1)) & 0x1);
  4022e6:	9a0f      	ldr	r2, [sp, #60]	; 0x3c
  4022e8:	7823      	ldrb	r3, [r4, #0]
  4022ea:	3a01      	subs	r2, #1
  4022ec:	4113      	asrs	r3, r2
  4022ee:	f003 0301 	and.w	r3, r3, #1
  4022f2:	930e      	str	r3, [sp, #56]	; 0x38
                    send_x = current_x;
  4022f4:	f8bd 301e 	ldrh.w	r3, [sp, #30]
  4022f8:	b29b      	uxth	r3, r3
  4022fa:	f8ad 301c 	strh.w	r3, [sp, #28]
                    send_y = (current_y + (m));
  4022fe:	9a08      	ldr	r2, [sp, #32]
  402300:	f8bd 301a 	ldrh.w	r3, [sp, #26]
  402304:	fa12 f383 	uxtah	r3, r2, r3
  402308:	b29b      	uxth	r3, r3
  40230a:	f8ad 3018 	strh.w	r3, [sp, #24]
					m++;
  40230e:	9b08      	ldr	r3, [sp, #32]
  402310:	3301      	adds	r3, #1
  402312:	9308      	str	r3, [sp, #32]
                    if ( ( (bit_value == 1) && (eink_font.font_inverted == FONT_NORMAL) ) || ( (bit_value == 0) && (eink_font.font_inverted == FONT_INVERTED) ) ) {
  402314:	9b0e      	ldr	r3, [sp, #56]	; 0x38
  402316:	2b01      	cmp	r3, #1
  402318:	d0d4      	beq.n	4022c4 <_gfx_eink_text_write_character+0x19c>
  40231a:	9b0e      	ldr	r3, [sp, #56]	; 0x38
  40231c:	2b00      	cmp	r3, #0
  40231e:	d1dc      	bne.n	4022da <_gfx_eink_text_write_character+0x1b2>
  402320:	2d01      	cmp	r5, #1
  402322:	d1da      	bne.n	4022da <_gfx_eink_text_write_character+0x1b2>
  402324:	e7cf      	b.n	4022c6 <_gfx_eink_text_write_character+0x19e>
                        else gfx_eink_set_pixel_raw(send_x, send_y, text_colour_value);
  402326:	f8bd 001c 	ldrh.w	r0, [sp, #28]
  40232a:	f8bd 1018 	ldrh.w	r1, [sp, #24]
  40232e:	9a02      	ldr	r2, [sp, #8]
  402330:	b289      	uxth	r1, r1
  402332:	b280      	uxth	r0, r0
  402334:	47d0      	blx	sl
  402336:	e7d0      	b.n	4022da <_gfx_eink_text_write_character+0x1b2>
            if(ptr_eink_gfx_config->gfx_display == GFX_IT8951) font_array_ptr -= sizeof(uint8_t);
  402338:	3c01      	subs	r4, #1
            if(j == eink_font.font_height_bytes) {
  40233a:	9b09      	ldr	r3, [sp, #36]	; 0x24
  40233c:	9a03      	ldr	r2, [sp, #12]
  40233e:	429a      	cmp	r2, r3
  402340:	f47f af71 	bne.w	402226 <_gfx_eink_text_write_character+0xfe>
                j = 0;
  402344:	f8cd b024 	str.w	fp, [sp, #36]	; 0x24
                current_y = start_y;
  402348:	f8bd 3010 	ldrh.w	r3, [sp, #16]
  40234c:	f8ad 301a 	strh.w	r3, [sp, #26]
                if(ptr_eink_gfx_config->gfx_display == GFX_IT8951) font_array_ptr += (sizeof(uint8_t) * 2 * eink_font.font_height_bytes);
  402350:	9b05      	ldr	r3, [sp, #20]
  402352:	441c      	add	r4, r3
  402354:	e005      	b.n	402362 <_gfx_eink_text_write_character+0x23a>
                j = 0;
  402356:	f8cd b024 	str.w	fp, [sp, #36]	; 0x24
                current_y = start_y;
  40235a:	f8bd 3010 	ldrh.w	r3, [sp, #16]
  40235e:	f8ad 301a 	strh.w	r3, [sp, #26]
                
                current_x++;
  402362:	f8bd 301e 	ldrh.w	r3, [sp, #30]
  402366:	3301      	adds	r3, #1
  402368:	b29b      	uxth	r3, r3
  40236a:	f8ad 301e 	strh.w	r3, [sp, #30]
  40236e:	e75a      	b.n	402226 <_gfx_eink_text_write_character+0xfe>
            }
        }
    }
}
  402370:	b011      	add	sp, #68	; 0x44
  402372:	e8bd 8ff0 	ldmia.w	sp!, {r4, r5, r6, r7, r8, r9, sl, fp, pc}
  402376:	bf00      	nop
  402378:	2000042c 	.word	0x2000042c
  40237c:	004004e1 	.word	0x004004e1
  402380:	004004d1 	.word	0x004004d1

00402384 <gfx_eink_text_write_string>:
 * \param start_y Y coordinate to start writing.
 * \param text_colour Color of character.
 * \param eink_font Font structure to use.
 */
void gfx_eink_text_write_string(char *char_array, eink_coordinate start_x, eink_coordinate start_y, enum eink_pixel_colour text_colour, struct gfx_eink_font eink_font)
{
  402384:	e92d 4ff0 	stmdb	sp!, {r4, r5, r6, r7, r8, r9, sl, fp, lr}
  402388:	b089      	sub	sp, #36	; 0x24
  40238a:	9207      	str	r2, [sp, #28]
    uint8_t i = 0;
    eink_coordinate x_send = start_x;
    
    while(char_array[i] != '\0')
  40238c:	f890 e000 	ldrb.w	lr, [r0]
  402390:	f1be 0f00 	cmp.w	lr, #0
  402394:	d027      	beq.n	4023e6 <gfx_eink_text_write_string+0x62>
  402396:	4607      	mov	r7, r0
  402398:	460c      	mov	r4, r1
  40239a:	469a      	mov	sl, r3
  40239c:	4681      	mov	r9, r0
  40239e:	2500      	movs	r5, #0
    {
        _gfx_eink_text_write_character(char_array[i], x_send, start_y, 0, text_colour, 0, eink_font);
  4023a0:	ae02      	add	r6, sp, #8
  4023a2:	46a8      	mov	r8, r5
  4023a4:	f8df b044 	ldr.w	fp, [pc, #68]	; 4023ec <gfx_eink_text_write_string+0x68>
  4023a8:	ab12      	add	r3, sp, #72	; 0x48
  4023aa:	cb0f      	ldmia	r3, {r0, r1, r2, r3}
  4023ac:	e886 000f 	stmia.w	r6, {r0, r1, r2, r3}
  4023b0:	f8cd 8004 	str.w	r8, [sp, #4]
  4023b4:	f8cd a000 	str.w	sl, [sp]
  4023b8:	4643      	mov	r3, r8
  4023ba:	9a07      	ldr	r2, [sp, #28]
  4023bc:	4621      	mov	r1, r4
  4023be:	4670      	mov	r0, lr
  4023c0:	47d8      	blx	fp
            
        x_send += eink_font.font_character_size_map_ptr[char_array[i]-eink_font.font_starting_ascii_char];
  4023c2:	f899 3000 	ldrb.w	r3, [r9]
  4023c6:	f89d 2054 	ldrb.w	r2, [sp, #84]	; 0x54
  4023ca:	1a9b      	subs	r3, r3, r2
  4023cc:	9a14      	ldr	r2, [sp, #80]	; 0x50
  4023ce:	5cd3      	ldrb	r3, [r2, r3]
  4023d0:	441c      	add	r4, r3
  4023d2:	b2a4      	uxth	r4, r4
        i++;        
  4023d4:	3501      	adds	r5, #1
  4023d6:	b2ed      	uxtb	r5, r5
    while(char_array[i] != '\0')
  4023d8:	eb07 0905 	add.w	r9, r7, r5
  4023dc:	f817 e005 	ldrb.w	lr, [r7, r5]
  4023e0:	f1be 0f00 	cmp.w	lr, #0
  4023e4:	d1e0      	bne.n	4023a8 <gfx_eink_text_write_string+0x24>
    }
}
  4023e6:	b009      	add	sp, #36	; 0x24
  4023e8:	e8bd 8ff0 	ldmia.w	sp!, {r4, r5, r6, r7, r8, r9, sl, fp, pc}
  4023ec:	00402129 	.word	0x00402129

004023f0 <eink_init_display>:
		}
	}
}

void eink_init_display(void)
{
  4023f0:	e92d 41f0 	stmdb	sp!, {r4, r5, r6, r7, r8, lr}
  4023f4:	b084      	sub	sp, #16
 */
static inline void uc8159_get_config_defaults(
struct uc8159_config *const config)
{
    /* Default configuration values */
    config->panel_settings.display_resolution = RES_600x448;
  4023f6:	2303      	movs	r3, #3
  4023f8:	f88d 3004 	strb.w	r3, [sp, #4]
    config->panel_settings.display_rotation = ROTATE_0;
  4023fc:	2100      	movs	r1, #0
  4023fe:	f88d 1005 	strb.w	r1, [sp, #5]
    config->panel_settings.booster_switch = BOOSTER_ON;
  402402:	2401      	movs	r4, #1
  402404:	f88d 4006 	strb.w	r4, [sp, #6]
    
    config->power_settings.source_power = SOURCE_INTERNAL_DC_DC;
  402408:	f88d 4007 	strb.w	r4, [sp, #7]
    config->power_settings.gate_power = GATE_INTERNAL_DC_DC;
  40240c:	f88d 4009 	strb.w	r4, [sp, #9]
    config->power_settings.lv_source_power = LV_SOURCE_INTERNAL_DC_DC;
  402410:	f88d 4008 	strb.w	r4, [sp, #8]
    config->power_settings.vg_voltage_level = VGx_20V;
  402414:	f88d 100a 	strb.w	r1, [sp, #10]
    
    config->power_off_sequence = PFS_1_FRAME;
  402418:	f88d 100b 	strb.w	r1, [sp, #11]
    
    config->temperature_sensor_settings.sensor_select = INTERNAL_TEMPERATURE_SENSOR;
    config->temperature_sensor_settings.temperature_offset = 0;
  40241c:	f88d 100d 	strb.w	r1, [sp, #13]
	struct uc8159_config eink_conf;
	
	uc8159_get_config_defaults(&eink_conf);
	eink_conf.temperature_sensor_settings.sensor_select = EXTERNAL_TEMPERATURE_SENSOR;
  402420:	f88d 400c 	strb.w	r4, [sp, #12]
	eink_conf.panel_settings.display_rotation = ROTATE_0;
	eink_ac057tc1_init(&eink_conf, false);
  402424:	a801      	add	r0, sp, #4
  402426:	4b0d      	ldr	r3, [pc, #52]	; (40245c <eink_init_display+0x6c>)
  402428:	4798      	blx	r3
	
	gfx_eink_graphics_fill_screen_raw(0x77);
  40242a:	2077      	movs	r0, #119	; 0x77
  40242c:	4e0c      	ldr	r6, [pc, #48]	; (402460 <eink_init_display+0x70>)
  40242e:	47b0      	blx	r6
	gfx_eink_put_display_buffer(true);
  402430:	4620      	mov	r0, r4
  402432:	4d0c      	ldr	r5, [pc, #48]	; (402464 <eink_init_display+0x74>)
  402434:	47a8      	blx	r5
	((Pio *)hw)->PIO_SODR = mask;
  402436:	4f0c      	ldr	r7, [pc, #48]	; (402468 <eink_init_display+0x78>)
  402438:	f44f 0800 	mov.w	r8, #8388608	; 0x800000
  40243c:	f8c7 8030 	str.w	r8, [r7, #48]	; 0x30
	gpio_set_pin_level(EINK_X_LED_0_PIN, 1);
	
	delay_ms(1000);
  402440:	f44f 707a 	mov.w	r0, #1000	; 0x3e8
  402444:	4b09      	ldr	r3, [pc, #36]	; (40246c <eink_init_display+0x7c>)
  402446:	4798      	blx	r3
	((Pio *)hw)->PIO_CODR = mask;
  402448:	f8c7 8034 	str.w	r8, [r7, #52]	; 0x34
	
	gpio_set_pin_level(EINK_X_LED_0_PIN, 0);
	gfx_eink_graphics_fill_screen_raw(0x11);
  40244c:	2011      	movs	r0, #17
  40244e:	47b0      	blx	r6
	gfx_eink_put_display_buffer(true);
  402450:	4620      	mov	r0, r4
  402452:	47a8      	blx	r5
}
  402454:	b004      	add	sp, #16
  402456:	e8bd 81f0 	ldmia.w	sp!, {r4, r5, r6, r7, r8, pc}
  40245a:	bf00      	nop
  40245c:	00401d71 	.word	0x00401d71
  402460:	00401ddd 	.word	0x00401ddd
  402464:	004004c1 	.word	0x004004c1
  402468:	400e0e00 	.word	0x400e0e00
  40246c:	0040032d 	.word	0x0040032d

00402470 <eink_draw_display>:

void eink_draw_display(uint8_t display_no)
{
  402470:	e92d 4ff0 	stmdb	sp!, {r4, r5, r6, r7, r8, r9, sl, fp, lr}
  402474:	b085      	sub	sp, #20
  402476:	4604      	mov	r4, r0
  402478:	f44f 0200 	mov.w	r2, #8388608	; 0x800000
  40247c:	4b0a      	ldr	r3, [pc, #40]	; (4024a8 <eink_draw_display+0x38>)
  40247e:	635a      	str	r2, [r3, #52]	; 0x34
	uint16_t i;
	char writeText[16];
	
	gpio_set_pin_level(EINK_X_LED_0_PIN, 0);
	
	gfx_eink_graphics_fill_screen(FILL_WHITE);
  402480:	2001      	movs	r0, #1
  402482:	4b0a      	ldr	r3, [pc, #40]	; (4024ac <eink_draw_display+0x3c>)
  402484:	4798      	blx	r3
	
	switch(display_no)
  402486:	2c01      	cmp	r4, #1
  402488:	f000 81f2 	beq.w	402870 <eink_draw_display+0x400>
  40248c:	b194      	cbz	r4, 4024b4 <eink_draw_display+0x44>
  40248e:	2c02      	cmp	r4, #2
  402490:	f000 8281 	beq.w	402996 <eink_draw_display+0x526>
			gfx_eink_text_write_string("(J) JD01 4600 0024 3373 5713", 174, 405, PIXEL_BLACK, Arvo_14pt);
			break;
	}
	
	/* Send both display buffers to the display. */
	gfx_eink_put_display_buffer(true);
  402494:	2001      	movs	r0, #1
  402496:	4b06      	ldr	r3, [pc, #24]	; (4024b0 <eink_draw_display+0x40>)
  402498:	4798      	blx	r3
	((Pio *)hw)->PIO_SODR = mask;
  40249a:	f44f 0200 	mov.w	r2, #8388608	; 0x800000
  40249e:	4b02      	ldr	r3, [pc, #8]	; (4024a8 <eink_draw_display+0x38>)
  4024a0:	631a      	str	r2, [r3, #48]	; 0x30
	
	gpio_set_pin_level(EINK_X_LED_0_PIN, 1);
  4024a2:	b005      	add	sp, #20
  4024a4:	e8bd 8ff0 	ldmia.w	sp!, {r4, r5, r6, r7, r8, r9, sl, fp, pc}
  4024a8:	400e0e00 	.word	0x400e0e00
  4024ac:	00401df9 	.word	0x00401df9
  4024b0:	004004c1 	.word	0x004004c1
			gfx_eink_load_mono_image(&eink_IneltekLogo, sizeof(eink_IneltekLogo), eink_IneltekLogo_width_px, eink_IneltekLogo_height_bytes, 304, 0, PIXEL_BLACK, PIXEL_WHITE);
  4024b4:	f04f 0901 	mov.w	r9, #1
  4024b8:	f8cd 900c 	str.w	r9, [sp, #12]
  4024bc:	2500      	movs	r5, #0
  4024be:	9502      	str	r5, [sp, #8]
  4024c0:	9501      	str	r5, [sp, #4]
  4024c2:	f44f 7398 	mov.w	r3, #304	; 0x130
  4024c6:	9300      	str	r3, [sp, #0]
  4024c8:	2308      	movs	r3, #8
  4024ca:	f44f 7294 	mov.w	r2, #296	; 0x128
  4024ce:	f44f 6114 	mov.w	r1, #2368	; 0x940
  4024d2:	48c3      	ldr	r0, [pc, #780]	; (4027e0 <eink_draw_display+0x370>)
  4024d4:	f8df a38c 	ldr.w	sl, [pc, #908]	; 402864 <eink_draw_display+0x3f4>
  4024d8:	47d0      	blx	sl
			gfx_eink_text_write_string("KANBAN", 9, 5, PIXEL_BLACK, ArvoBold_28pt);
  4024da:	4bc2      	ldr	r3, [pc, #776]	; (4027e4 <eink_draw_display+0x374>)
  4024dc:	f503 73f2 	add.w	r3, r3, #484	; 0x1e4
  4024e0:	cb0f      	ldmia	r3, {r0, r1, r2, r3}
  4024e2:	e88d 000f 	stmia.w	sp, {r0, r1, r2, r3}
  4024e6:	462b      	mov	r3, r5
  4024e8:	2205      	movs	r2, #5
  4024ea:	2109      	movs	r1, #9
  4024ec:	48be      	ldr	r0, [pc, #760]	; (4027e8 <eink_draw_display+0x378>)
  4024ee:	4fbf      	ldr	r7, [pc, #764]	; (4027ec <eink_draw_display+0x37c>)
  4024f0:	47b8      	blx	r7
			gfx_eink_graphics_draw_line(0, 58, 600, 58, PIXEL_BLACK);
  4024f2:	9500      	str	r5, [sp, #0]
  4024f4:	233a      	movs	r3, #58	; 0x3a
  4024f6:	f44f 7216 	mov.w	r2, #600	; 0x258
  4024fa:	4619      	mov	r1, r3
  4024fc:	4628      	mov	r0, r5
  4024fe:	4cbc      	ldr	r4, [pc, #752]	; (4027f0 <eink_draw_display+0x380>)
  402500:	47a0      	blx	r4
			gfx_eink_text_write_string("Supplier", 9, 63, PIXEL_BLACK, Arvo_10pt);
  402502:	4bb8      	ldr	r3, [pc, #736]	; (4027e4 <eink_draw_display+0x374>)
  402504:	f503 74fa 	add.w	r4, r3, #500	; 0x1f4
  402508:	e894 000f 	ldmia.w	r4, {r0, r1, r2, r3}
  40250c:	e88d 000f 	stmia.w	sp, {r0, r1, r2, r3}
  402510:	462b      	mov	r3, r5
  402512:	223f      	movs	r2, #63	; 0x3f
  402514:	2109      	movs	r1, #9
  402516:	48b7      	ldr	r0, [pc, #732]	; (4027f4 <eink_draw_display+0x384>)
  402518:	47b8      	blx	r7
			gfx_eink_text_write_string("Microchip", 9, 74, PIXEL_BLACK, Arvo_22pt);
  40251a:	f5a4 73fa 	sub.w	r3, r4, #500	; 0x1f4
  40251e:	f503 7801 	add.w	r8, r3, #516	; 0x204
  402522:	e898 000f 	ldmia.w	r8, {r0, r1, r2, r3}
  402526:	e88d 000f 	stmia.w	sp, {r0, r1, r2, r3}
  40252a:	462b      	mov	r3, r5
  40252c:	224a      	movs	r2, #74	; 0x4a
  40252e:	2109      	movs	r1, #9
  402530:	48b1      	ldr	r0, [pc, #708]	; (4027f8 <eink_draw_display+0x388>)
  402532:	47b8      	blx	r7
			gfx_eink_text_write_string("Storage Area", 275, 63, PIXEL_BLACK, Arvo_10pt);
  402534:	e894 000f 	ldmia.w	r4, {r0, r1, r2, r3}
  402538:	e88d 000f 	stmia.w	sp, {r0, r1, r2, r3}
  40253c:	462b      	mov	r3, r5
  40253e:	223f      	movs	r2, #63	; 0x3f
  402540:	f240 1113 	movw	r1, #275	; 0x113
  402544:	48ad      	ldr	r0, [pc, #692]	; (4027fc <eink_draw_display+0x38c>)
  402546:	47b8      	blx	r7
			gfx_eink_text_write_string("Central 3", 275, 74, PIXEL_BLACK, Arvo_22pt);
  402548:	e898 000f 	ldmia.w	r8, {r0, r1, r2, r3}
  40254c:	e88d 000f 	stmia.w	sp, {r0, r1, r2, r3}
  402550:	462b      	mov	r3, r5
  402552:	224a      	movs	r2, #74	; 0x4a
  402554:	f240 1113 	movw	r1, #275	; 0x113
  402558:	48a9      	ldr	r0, [pc, #676]	; (402800 <eink_draw_display+0x390>)
  40255a:	47b8      	blx	r7
			gfx_eink_text_write_string("Location", 450, 63, PIXEL_BLACK, Arvo_10pt);
  40255c:	e894 000f 	ldmia.w	r4, {r0, r1, r2, r3}
  402560:	e88d 000f 	stmia.w	sp, {r0, r1, r2, r3}
  402564:	462b      	mov	r3, r5
  402566:	223f      	movs	r2, #63	; 0x3f
  402568:	f44f 71e1 	mov.w	r1, #450	; 0x1c2
  40256c:	48a5      	ldr	r0, [pc, #660]	; (402804 <eink_draw_display+0x394>)
  40256e:	47b8      	blx	r7
			gfx_eink_text_write_string("A4-11-GA", 450, 74, PIXEL_BLACK, Arvo_22pt);
  402570:	e898 000f 	ldmia.w	r8, {r0, r1, r2, r3}
  402574:	e88d 000f 	stmia.w	sp, {r0, r1, r2, r3}
  402578:	462b      	mov	r3, r5
  40257a:	224a      	movs	r2, #74	; 0x4a
  40257c:	f44f 71e1 	mov.w	r1, #450	; 0x1c2
  402580:	48a1      	ldr	r0, [pc, #644]	; (402808 <eink_draw_display+0x398>)
  402582:	47b8      	blx	r7
			gfx_eink_graphics_draw_line(0, 120, 600, 120, PIXEL_BLACK);
  402584:	9500      	str	r5, [sp, #0]
  402586:	2378      	movs	r3, #120	; 0x78
  402588:	f44f 7216 	mov.w	r2, #600	; 0x258
  40258c:	4619      	mov	r1, r3
  40258e:	4628      	mov	r0, r5
  402590:	4e97      	ldr	r6, [pc, #604]	; (4027f0 <eink_draw_display+0x380>)
  402592:	47b0      	blx	r6
			gfx_eink_load_mono_image(&eink_Kanban1, sizeof(eink_Kanban1), eink_Kanban1_width_px, eink_Kanban1_height_bytes, 10, 125, PIXEL_BLACK, PIXEL_WHITE);
  402594:	f8df b2d0 	ldr.w	fp, [pc, #720]	; 402868 <eink_draw_display+0x3f8>
  402598:	f8cd 900c 	str.w	r9, [sp, #12]
  40259c:	9502      	str	r5, [sp, #8]
  40259e:	237d      	movs	r3, #125	; 0x7d
  4025a0:	9301      	str	r3, [sp, #4]
  4025a2:	230a      	movs	r3, #10
  4025a4:	9300      	str	r3, [sp, #0]
  4025a6:	230e      	movs	r3, #14
  4025a8:	226e      	movs	r2, #110	; 0x6e
  4025aa:	f240 6104 	movw	r1, #1540	; 0x604
  4025ae:	f20b 404c 	addw	r0, fp, #1100	; 0x44c
  4025b2:	47d0      	blx	sl
			gfx_eink_text_write_string("Container", 130, 125, PIXEL_BLACK, Arvo_10pt);
  4025b4:	e894 000f 	ldmia.w	r4, {r0, r1, r2, r3}
  4025b8:	e88d 000f 	stmia.w	sp, {r0, r1, r2, r3}
  4025bc:	462b      	mov	r3, r5
  4025be:	227d      	movs	r2, #125	; 0x7d
  4025c0:	2182      	movs	r1, #130	; 0x82
  4025c2:	4892      	ldr	r0, [pc, #584]	; (40280c <eink_draw_display+0x39c>)
  4025c4:	47b8      	blx	r7
			gfx_eink_text_write_string("0909CRD", 130, 136, PIXEL_BLACK, Arvo_22pt);
  4025c6:	e898 000f 	ldmia.w	r8, {r0, r1, r2, r3}
  4025ca:	e88d 000f 	stmia.w	sp, {r0, r1, r2, r3}
  4025ce:	462b      	mov	r3, r5
  4025d0:	2288      	movs	r2, #136	; 0x88
  4025d2:	2182      	movs	r1, #130	; 0x82
  4025d4:	488e      	ldr	r0, [pc, #568]	; (402810 <eink_draw_display+0x3a0>)
  4025d6:	47b8      	blx	r7
			gfx_eink_text_write_string("Package", 290, 125, PIXEL_BLACK, Arvo_10pt);
  4025d8:	e894 000f 	ldmia.w	r4, {r0, r1, r2, r3}
  4025dc:	e88d 000f 	stmia.w	sp, {r0, r1, r2, r3}
  4025e0:	462b      	mov	r3, r5
  4025e2:	227d      	movs	r2, #125	; 0x7d
  4025e4:	f44f 7191 	mov.w	r1, #290	; 0x122
  4025e8:	488a      	ldr	r0, [pc, #552]	; (402814 <eink_draw_display+0x3a4>)
  4025ea:	47b8      	blx	r7
			gfx_eink_text_write_string("3500TR800", 290, 136, PIXEL_BLACK, Arvo_22pt);
  4025ec:	e898 000f 	ldmia.w	r8, {r0, r1, r2, r3}
  4025f0:	e88d 000f 	stmia.w	sp, {r0, r1, r2, r3}
  4025f4:	462b      	mov	r3, r5
  4025f6:	2288      	movs	r2, #136	; 0x88
  4025f8:	f44f 7191 	mov.w	r1, #290	; 0x122
  4025fc:	4886      	ldr	r0, [pc, #536]	; (402818 <eink_draw_display+0x3a8>)
  4025fe:	47b8      	blx	r7
			gfx_eink_text_write_string("Packages/Container", 130, 180, PIXEL_BLACK, Arvo_10pt);
  402600:	e894 000f 	ldmia.w	r4, {r0, r1, r2, r3}
  402604:	e88d 000f 	stmia.w	sp, {r0, r1, r2, r3}
  402608:	462b      	mov	r3, r5
  40260a:	22b4      	movs	r2, #180	; 0xb4
  40260c:	2182      	movs	r1, #130	; 0x82
  40260e:	4883      	ldr	r0, [pc, #524]	; (40281c <eink_draw_display+0x3ac>)
  402610:	47b8      	blx	r7
			gfx_eink_text_write_string("50", 130, 191, PIXEL_BLACK, Arvo_22pt);
  402612:	e898 000f 	ldmia.w	r8, {r0, r1, r2, r3}
  402616:	e88d 000f 	stmia.w	sp, {r0, r1, r2, r3}
  40261a:	462b      	mov	r3, r5
  40261c:	22bf      	movs	r2, #191	; 0xbf
  40261e:	2182      	movs	r1, #130	; 0x82
  402620:	487f      	ldr	r0, [pc, #508]	; (402820 <eink_draw_display+0x3b0>)
  402622:	47b8      	blx	r7
			gfx_eink_text_write_string("Items/Package", 290, 180, PIXEL_BLACK, Arvo_10pt);
  402624:	e894 000f 	ldmia.w	r4, {r0, r1, r2, r3}
  402628:	e88d 000f 	stmia.w	sp, {r0, r1, r2, r3}
  40262c:	462b      	mov	r3, r5
  40262e:	22b4      	movs	r2, #180	; 0xb4
  402630:	f44f 7191 	mov.w	r1, #290	; 0x122
  402634:	487b      	ldr	r0, [pc, #492]	; (402824 <eink_draw_display+0x3b4>)
  402636:	47b8      	blx	r7
			gfx_eink_text_write_string("3500", 290, 191, PIXEL_BLACK, Arvo_22pt);
  402638:	e898 000f 	ldmia.w	r8, {r0, r1, r2, r3}
  40263c:	e88d 000f 	stmia.w	sp, {r0, r1, r2, r3}
  402640:	462b      	mov	r3, r5
  402642:	22bf      	movs	r2, #191	; 0xbf
  402644:	f44f 7191 	mov.w	r1, #290	; 0x122
  402648:	4877      	ldr	r0, [pc, #476]	; (402828 <eink_draw_display+0x3b8>)
  40264a:	47b8      	blx	r7
			gfx_eink_text_write_string("Handling Code", 480, 125, PIXEL_BLACK, Arvo_10pt);
  40264c:	e894 000f 	ldmia.w	r4, {r0, r1, r2, r3}
  402650:	e88d 000f 	stmia.w	sp, {r0, r1, r2, r3}
  402654:	462b      	mov	r3, r5
  402656:	227d      	movs	r2, #125	; 0x7d
  402658:	f44f 71f0 	mov.w	r1, #480	; 0x1e0
  40265c:	4873      	ldr	r0, [pc, #460]	; (40282c <eink_draw_display+0x3bc>)
  40265e:	47b8      	blx	r7
			gfx_eink_text_write_string("AS", 492, 136, PIXEL_BLACK, ArvoBold_40pt);
  402660:	f5a4 73fa 	sub.w	r3, r4, #500	; 0x1f4
  402664:	f503 7305 	add.w	r3, r3, #532	; 0x214
  402668:	cb0f      	ldmia	r3, {r0, r1, r2, r3}
  40266a:	e88d 000f 	stmia.w	sp, {r0, r1, r2, r3}
  40266e:	462b      	mov	r3, r5
  402670:	2288      	movs	r2, #136	; 0x88
  402672:	f44f 71f6 	mov.w	r1, #492	; 0x1ec
  402676:	486e      	ldr	r0, [pc, #440]	; (402830 <eink_draw_display+0x3c0>)
  402678:	47b8      	blx	r7
			gfx_eink_graphics_draw_line(0, 238, 600, 238, PIXEL_BLACK);
  40267a:	9500      	str	r5, [sp, #0]
  40267c:	23ee      	movs	r3, #238	; 0xee
  40267e:	f44f 7216 	mov.w	r2, #600	; 0x258
  402682:	4619      	mov	r1, r3
  402684:	4628      	mov	r0, r5
  402686:	47b0      	blx	r6
			gfx_eink_text_write_string("MPN", 9, 243, PIXEL_BLACK, Arvo_10pt);
  402688:	e894 000f 	ldmia.w	r4, {r0, r1, r2, r3}
  40268c:	e88d 000f 	stmia.w	sp, {r0, r1, r2, r3}
  402690:	462b      	mov	r3, r5
  402692:	22f3      	movs	r2, #243	; 0xf3
  402694:	2109      	movs	r1, #9
  402696:	4867      	ldr	r0, [pc, #412]	; (402834 <eink_draw_display+0x3c4>)
  402698:	47b8      	blx	r7
			gfx_eink_text_write_string("ATSAMG55J19B-MUT", 9, 256, PIXEL_BLACK, Arvo_18pt);
  40269a:	f5a4 73fa 	sub.w	r3, r4, #500	; 0x1f4
  40269e:	f503 7609 	add.w	r6, r3, #548	; 0x224
  4026a2:	e896 000f 	ldmia.w	r6, {r0, r1, r2, r3}
  4026a6:	e88d 000f 	stmia.w	sp, {r0, r1, r2, r3}
  4026aa:	462b      	mov	r3, r5
  4026ac:	f44f 7280 	mov.w	r2, #256	; 0x100
  4026b0:	2109      	movs	r1, #9
  4026b2:	4861      	ldr	r0, [pc, #388]	; (402838 <eink_draw_display+0x3c8>)
  4026b4:	47b8      	blx	r7
			gfx_eink_load_mono_image(&eink_Kanban2, sizeof(eink_Kanban2), eink_Kanban2_width_px, eink_Kanban2_height_bytes, 380, 253, PIXEL_BLACK, PIXEL_WHITE);
  4026b6:	f8cd 900c 	str.w	r9, [sp, #12]
  4026ba:	9502      	str	r5, [sp, #8]
  4026bc:	23fd      	movs	r3, #253	; 0xfd
  4026be:	9301      	str	r3, [sp, #4]
  4026c0:	f44f 73be 	mov.w	r3, #380	; 0x17c
  4026c4:	9300      	str	r3, [sp, #0]
  4026c6:	2304      	movs	r3, #4
  4026c8:	22d4      	movs	r2, #212	; 0xd4
  4026ca:	f44f 7154 	mov.w	r1, #848	; 0x350
  4026ce:	f50b 6025 	add.w	r0, fp, #2640	; 0xa50
  4026d2:	47d0      	blx	sl
			gfx_eink_load_mono_image(&eink_Kanban3, sizeof(eink_Kanban3), eink_Kanban3_width_px, eink_Kanban3_height_bytes, 9, 295, PIXEL_BLACK, PIXEL_WHITE);
  4026d4:	f8cd 900c 	str.w	r9, [sp, #12]
  4026d8:	9502      	str	r5, [sp, #8]
  4026da:	f240 1827 	movw	r8, #295	; 0x127
  4026de:	f8cd 8004 	str.w	r8, [sp, #4]
  4026e2:	2309      	movs	r3, #9
  4026e4:	9300      	str	r3, [sp, #0]
  4026e6:	2314      	movs	r3, #20
  4026e8:	2299      	movs	r2, #153	; 0x99
  4026ea:	f640 31f4 	movw	r1, #3060	; 0xbf4
  4026ee:	f50b 605a 	add.w	r0, fp, #3488	; 0xda0
  4026f2:	47d0      	blx	sl
			gfx_eink_graphics_draw_rect(172, 295, 420, 153, PIXEL_BLACK, FILL_WHITE);
  4026f4:	f8cd 9004 	str.w	r9, [sp, #4]
  4026f8:	9500      	str	r5, [sp, #0]
  4026fa:	2399      	movs	r3, #153	; 0x99
  4026fc:	f44f 72d2 	mov.w	r2, #420	; 0x1a4
  402700:	4641      	mov	r1, r8
  402702:	20ac      	movs	r0, #172	; 0xac
  402704:	f8df 8164 	ldr.w	r8, [pc, #356]	; 40286c <eink_draw_display+0x3fc>
  402708:	47c0      	blx	r8
			gfx_eink_text_write_string("Stock Levels", 177, 298, PIXEL_BLACK, Arvo_18pt);
  40270a:	e896 000f 	ldmia.w	r6, {r0, r1, r2, r3}
  40270e:	e88d 000f 	stmia.w	sp, {r0, r1, r2, r3}
  402712:	462b      	mov	r3, r5
  402714:	f44f 7295 	mov.w	r2, #298	; 0x12a
  402718:	21b1      	movs	r1, #177	; 0xb1
  40271a:	4848      	ldr	r0, [pc, #288]	; (40283c <eink_draw_display+0x3cc>)
  40271c:	47b8      	blx	r7
			gfx_eink_text_write_string("Last updated: 08:45 17/10/2018", 400, 299, PIXEL_BLACK, Arvo_10pt);
  40271e:	e894 000f 	ldmia.w	r4, {r0, r1, r2, r3}
  402722:	e88d 000f 	stmia.w	sp, {r0, r1, r2, r3}
  402726:	462b      	mov	r3, r5
  402728:	f240 122b 	movw	r2, #299	; 0x12b
  40272c:	f44f 71c8 	mov.w	r1, #400	; 0x190
  402730:	4843      	ldr	r0, [pc, #268]	; (402840 <eink_draw_display+0x3d0>)
  402732:	47b8      	blx	r7
			gfx_eink_text_write_string("Containers  Packages  Items", 185, 335, PIXEL_BLACK, Arvo_10pt);
  402734:	e894 000f 	ldmia.w	r4, {r0, r1, r2, r3}
  402738:	e88d 000f 	stmia.w	sp, {r0, r1, r2, r3}
  40273c:	462b      	mov	r3, r5
  40273e:	f240 124f 	movw	r2, #335	; 0x14f
  402742:	21b9      	movs	r1, #185	; 0xb9
  402744:	483f      	ldr	r0, [pc, #252]	; (402844 <eink_draw_display+0x3d4>)
  402746:	47b8      	blx	r7
			gfx_eink_text_write_string("      7           2       42", 185, 352, PIXEL_BLACK, Arvo_18pt);
  402748:	e896 000f 	ldmia.w	r6, {r0, r1, r2, r3}
  40274c:	e88d 000f 	stmia.w	sp, {r0, r1, r2, r3}
  402750:	462b      	mov	r3, r5
  402752:	f44f 72b0 	mov.w	r2, #352	; 0x160
  402756:	21b9      	movs	r1, #185	; 0xb9
  402758:	483b      	ldr	r0, [pc, #236]	; (402848 <eink_draw_display+0x3d8>)
  40275a:	47b8      	blx	r7
			gfx_eink_text_write_string("Total Pieces", 185, 390, PIXEL_BLACK, Arvo_10pt);
  40275c:	e894 000f 	ldmia.w	r4, {r0, r1, r2, r3}
  402760:	e88d 000f 	stmia.w	sp, {r0, r1, r2, r3}
  402764:	462b      	mov	r3, r5
  402766:	f44f 72c3 	mov.w	r2, #390	; 0x186
  40276a:	21b9      	movs	r1, #185	; 0xb9
  40276c:	4837      	ldr	r0, [pc, #220]	; (40284c <eink_draw_display+0x3dc>)
  40276e:	47b8      	blx	r7
			gfx_eink_text_write_string("1,232,042", 185, 407, PIXEL_BLACK, Arvo_18pt);
  402770:	e896 000f 	ldmia.w	r6, {r0, r1, r2, r3}
  402774:	e88d 000f 	stmia.w	sp, {r0, r1, r2, r3}
  402778:	462b      	mov	r3, r5
  40277a:	f240 1297 	movw	r2, #407	; 0x197
  40277e:	21b9      	movs	r1, #185	; 0xb9
  402780:	4833      	ldr	r0, [pc, #204]	; (402850 <eink_draw_display+0x3e0>)
  402782:	47b8      	blx	r7
			gfx_eink_text_write_string("Re-order at (items):", 430, 335, PIXEL_BLACK, Arvo_10pt);
  402784:	e894 000f 	ldmia.w	r4, {r0, r1, r2, r3}
  402788:	e88d 000f 	stmia.w	sp, {r0, r1, r2, r3}
  40278c:	462b      	mov	r3, r5
  40278e:	f240 124f 	movw	r2, #335	; 0x14f
  402792:	f44f 71d7 	mov.w	r1, #430	; 0x1ae
  402796:	482f      	ldr	r0, [pc, #188]	; (402854 <eink_draw_display+0x3e4>)
  402798:	47b8      	blx	r7
			gfx_eink_text_write_string("35,000", 430, 352, PIXEL_BLACK, Arvo_18pt);
  40279a:	e896 000f 	ldmia.w	r6, {r0, r1, r2, r3}
  40279e:	e88d 000f 	stmia.w	sp, {r0, r1, r2, r3}
  4027a2:	462b      	mov	r3, r5
  4027a4:	f44f 72b0 	mov.w	r2, #352	; 0x160
  4027a8:	f44f 71d7 	mov.w	r1, #430	; 0x1ae
  4027ac:	482a      	ldr	r0, [pc, #168]	; (402858 <eink_draw_display+0x3e8>)
  4027ae:	47b8      	blx	r7
			gfx_eink_text_write_string("Current Lead Time:", 430, 390, PIXEL_BLACK, Arvo_10pt);
  4027b0:	e894 000f 	ldmia.w	r4, {r0, r1, r2, r3}
  4027b4:	e88d 000f 	stmia.w	sp, {r0, r1, r2, r3}
  4027b8:	462b      	mov	r3, r5
  4027ba:	f44f 72c3 	mov.w	r2, #390	; 0x186
  4027be:	f44f 71d7 	mov.w	r1, #430	; 0x1ae
  4027c2:	4826      	ldr	r0, [pc, #152]	; (40285c <eink_draw_display+0x3ec>)
  4027c4:	47b8      	blx	r7
			gfx_eink_text_write_string("8 weeks", 430, 407, PIXEL_BLACK, Arvo_18pt);
  4027c6:	e896 000f 	ldmia.w	r6, {r0, r1, r2, r3}
  4027ca:	e88d 000f 	stmia.w	sp, {r0, r1, r2, r3}
  4027ce:	462b      	mov	r3, r5
  4027d0:	f240 1297 	movw	r2, #407	; 0x197
  4027d4:	f44f 71d7 	mov.w	r1, #430	; 0x1ae
  4027d8:	4821      	ldr	r0, [pc, #132]	; (402860 <eink_draw_display+0x3f0>)
  4027da:	47b8      	blx	r7
			break;
  4027dc:	e65a      	b.n	402494 <eink_draw_display+0x24>
  4027de:	bf00      	nop
  4027e0:	00403a1c 	.word	0x00403a1c
  4027e4:	20000000 	.word	0x20000000
  4027e8:	004285b4 	.word	0x004285b4
  4027ec:	00402385 	.word	0x00402385
  4027f0:	00402021 	.word	0x00402021
  4027f4:	004285bc 	.word	0x004285bc
  4027f8:	004285c8 	.word	0x004285c8
  4027fc:	004285d4 	.word	0x004285d4
  402800:	004285e4 	.word	0x004285e4
  402804:	004285f0 	.word	0x004285f0
  402808:	004285fc 	.word	0x004285fc
  40280c:	00428608 	.word	0x00428608
  402810:	00428614 	.word	0x00428614
  402814:	0042861c 	.word	0x0042861c
  402818:	00428624 	.word	0x00428624
  40281c:	00428630 	.word	0x00428630
  402820:	00428644 	.word	0x00428644
  402824:	00428648 	.word	0x00428648
  402828:	00428658 	.word	0x00428658
  40282c:	00428660 	.word	0x00428660
  402830:	00428670 	.word	0x00428670
  402834:	00428674 	.word	0x00428674
  402838:	00428678 	.word	0x00428678
  40283c:	0042868c 	.word	0x0042868c
  402840:	0042869c 	.word	0x0042869c
  402844:	004286bc 	.word	0x004286bc
  402848:	004286d8 	.word	0x004286d8
  40284c:	004286f8 	.word	0x004286f8
  402850:	00428708 	.word	0x00428708
  402854:	00428714 	.word	0x00428714
  402858:	0042872c 	.word	0x0042872c
  40285c:	00428734 	.word	0x00428734
  402860:	00428748 	.word	0x00428748
  402864:	004004f1 	.word	0x004004f1
  402868:	00403f10 	.word	0x00403f10
  40286c:	0040203d 	.word	0x0040203d
			gfx_eink_graphics_draw_rect(10, 80, 580, 362, PIXEL_BLACK, FILL_BLACK);
  402870:	f04f 0900 	mov.w	r9, #0
  402874:	f8cd 9004 	str.w	r9, [sp, #4]
  402878:	f8cd 9000 	str.w	r9, [sp]
  40287c:	f44f 73b5 	mov.w	r3, #362	; 0x16a
  402880:	f44f 7211 	mov.w	r2, #580	; 0x244
  402884:	2150      	movs	r1, #80	; 0x50
  402886:	200a      	movs	r0, #10
  402888:	f8df a370 	ldr.w	sl, [pc, #880]	; 402bfc <eink_draw_display+0x78c>
  40288c:	47d0      	blx	sl
			gfx_eink_load_mono_image(&eink_IneltekLogo, sizeof(eink_IneltekLogo), eink_IneltekLogo_width_px, eink_IneltekLogo_height_bytes, 290, 378, PIXEL_WHITE, PIXEL_BLACK);
  40288e:	f8cd 900c 	str.w	r9, [sp, #12]
  402892:	2601      	movs	r6, #1
  402894:	9602      	str	r6, [sp, #8]
  402896:	f44f 73bd 	mov.w	r3, #378	; 0x17a
  40289a:	9301      	str	r3, [sp, #4]
  40289c:	f44f 7391 	mov.w	r3, #290	; 0x122
  4028a0:	9300      	str	r3, [sp, #0]
  4028a2:	2308      	movs	r3, #8
  4028a4:	f44f 7294 	mov.w	r2, #296	; 0x128
  4028a8:	f44f 6114 	mov.w	r1, #2368	; 0x940
  4028ac:	48c6      	ldr	r0, [pc, #792]	; (402bc8 <eink_draw_display+0x758>)
  4028ae:	4cc7      	ldr	r4, [pc, #796]	; (402bcc <eink_draw_display+0x75c>)
  4028b0:	47a0      	blx	r4
			gfx_eink_text_write_string("Lecture Hall 1", 10, 10, PIXEL_BLACK, ArvoBold_40pt);
  4028b2:	4fc7      	ldr	r7, [pc, #796]	; (402bd0 <eink_draw_display+0x760>)
  4028b4:	f507 7305 	add.w	r3, r7, #532	; 0x214
  4028b8:	cb0f      	ldmia	r3, {r0, r1, r2, r3}
  4028ba:	e88d 000f 	stmia.w	sp, {r0, r1, r2, r3}
  4028be:	464b      	mov	r3, r9
  4028c0:	220a      	movs	r2, #10
  4028c2:	4611      	mov	r1, r2
  4028c4:	48c3      	ldr	r0, [pc, #780]	; (402bd4 <eink_draw_display+0x764>)
  4028c6:	f8df 833c 	ldr.w	r8, [pc, #828]	; 402c04 <eink_draw_display+0x794>
  4028ca:	47c0      	blx	r8
			gfx_eink_text_write_string("Tue 8th May 2018 ", 20, 400, PIXEL_WHITE, Arvo_18pt);
  4028cc:	f507 7509 	add.w	r5, r7, #548	; 0x224
  4028d0:	e895 000f 	ldmia.w	r5, {r0, r1, r2, r3}
  4028d4:	e88d 000f 	stmia.w	sp, {r0, r1, r2, r3}
  4028d8:	4633      	mov	r3, r6
  4028da:	f44f 72c8 	mov.w	r2, #400	; 0x190
  4028de:	2114      	movs	r1, #20
  4028e0:	48bd      	ldr	r0, [pc, #756]	; (402bd8 <eink_draw_display+0x768>)
  4028e2:	47c0      	blx	r8
			gfx_eink_text_write_string("9:57 am ", 20, 85, PIXEL_WHITE, ArvoBold_32pt);
  4028e4:	f507 730d 	add.w	r3, r7, #564	; 0x234
  4028e8:	cb0f      	ldmia	r3, {r0, r1, r2, r3}
  4028ea:	e88d 000f 	stmia.w	sp, {r0, r1, r2, r3}
  4028ee:	4633      	mov	r3, r6
  4028f0:	2255      	movs	r2, #85	; 0x55
  4028f2:	2114      	movs	r1, #20
  4028f4:	48b9      	ldr	r0, [pc, #740]	; (402bdc <eink_draw_display+0x76c>)
  4028f6:	47c0      	blx	r8
			gfx_eink_text_write_string("Currently Available", 240, 100, PIXEL_WHITE, ArvoBold_18pt);
  4028f8:	f507 7311 	add.w	r3, r7, #580	; 0x244
  4028fc:	cb0f      	ldmia	r3, {r0, r1, r2, r3}
  4028fe:	e88d 000f 	stmia.w	sp, {r0, r1, r2, r3}
  402902:	4633      	mov	r3, r6
  402904:	2264      	movs	r2, #100	; 0x64
  402906:	21f0      	movs	r1, #240	; 0xf0
  402908:	48b5      	ldr	r0, [pc, #724]	; (402be0 <eink_draw_display+0x770>)
  40290a:	47c0      	blx	r8
			gfx_eink_text_write_string("Next session - Starting in 3 mins", 250, 135, PIXEL_WHITE, Arvo_14pt);
  40290c:	f507 7415 	add.w	r4, r7, #596	; 0x254
  402910:	e894 000f 	ldmia.w	r4, {r0, r1, r2, r3}
  402914:	e88d 000f 	stmia.w	sp, {r0, r1, r2, r3}
  402918:	4633      	mov	r3, r6
  40291a:	2287      	movs	r2, #135	; 0x87
  40291c:	21fa      	movs	r1, #250	; 0xfa
  40291e:	48b1      	ldr	r0, [pc, #708]	; (402be4 <eink_draw_display+0x774>)
  402920:	47c0      	blx	r8
			gfx_eink_text_write_string("10:00 am", 45, 180, PIXEL_WHITE, Arvo_24pt);
  402922:	f507 7719 	add.w	r7, r7, #612	; 0x264
  402926:	e897 000f 	ldmia.w	r7, {r0, r1, r2, r3}
  40292a:	e88d 000f 	stmia.w	sp, {r0, r1, r2, r3}
  40292e:	4633      	mov	r3, r6
  402930:	22b4      	movs	r2, #180	; 0xb4
  402932:	212d      	movs	r1, #45	; 0x2d
  402934:	48ac      	ldr	r0, [pc, #688]	; (402be8 <eink_draw_display+0x778>)
  402936:	47c0      	blx	r8
			gfx_eink_text_write_string("- 10:55 am", 70, 210, PIXEL_WHITE, Arvo_18pt);
  402938:	e895 000f 	ldmia.w	r5, {r0, r1, r2, r3}
  40293c:	e88d 000f 	stmia.w	sp, {r0, r1, r2, r3}
  402940:	4633      	mov	r3, r6
  402942:	22d2      	movs	r2, #210	; 0xd2
  402944:	2146      	movs	r1, #70	; 0x46
  402946:	48a9      	ldr	r0, [pc, #676]	; (402bec <eink_draw_display+0x77c>)
  402948:	47c0      	blx	r8
			gfx_eink_text_write_string("Introduction to MPUs", 240, 186, PIXEL_WHITE, Arvo_18pt);
  40294a:	e895 000f 	ldmia.w	r5, {r0, r1, r2, r3}
  40294e:	e88d 000f 	stmia.w	sp, {r0, r1, r2, r3}
  402952:	4633      	mov	r3, r6
  402954:	22ba      	movs	r2, #186	; 0xba
  402956:	21f0      	movs	r1, #240	; 0xf0
  402958:	48a5      	ldr	r0, [pc, #660]	; (402bf0 <eink_draw_display+0x780>)
  40295a:	47c0      	blx	r8
			gfx_eink_text_write_string("John Taylor", 250, 221, PIXEL_WHITE, Arvo_14pt);
  40295c:	e894 000f 	ldmia.w	r4, {r0, r1, r2, r3}
  402960:	e88d 000f 	stmia.w	sp, {r0, r1, r2, r3}
  402964:	4633      	mov	r3, r6
  402966:	22dd      	movs	r2, #221	; 0xdd
  402968:	21fa      	movs	r1, #250	; 0xfa
  40296a:	48a2      	ldr	r0, [pc, #648]	; (402bf4 <eink_draw_display+0x784>)
  40296c:	47c0      	blx	r8
			gfx_eink_graphics_draw_rect(10, 320, 580, 50, PIXEL_WHITE, FILL_WHITE);
  40296e:	9601      	str	r6, [sp, #4]
  402970:	9600      	str	r6, [sp, #0]
  402972:	2332      	movs	r3, #50	; 0x32
  402974:	f44f 7211 	mov.w	r2, #580	; 0x244
  402978:	f44f 71a0 	mov.w	r1, #320	; 0x140
  40297c:	200a      	movs	r0, #10
  40297e:	47d0      	blx	sl
			gfx_eink_text_write_string("Please note: Fire Alarms will be tested today at 2pm", 65, 335, PIXEL_BLACK, Arvo_14pt);
  402980:	e894 000f 	ldmia.w	r4, {r0, r1, r2, r3}
  402984:	e88d 000f 	stmia.w	sp, {r0, r1, r2, r3}
  402988:	464b      	mov	r3, r9
  40298a:	f240 124f 	movw	r2, #335	; 0x14f
  40298e:	2141      	movs	r1, #65	; 0x41
  402990:	4899      	ldr	r0, [pc, #612]	; (402bf8 <eink_draw_display+0x788>)
  402992:	47c0      	blx	r8
			break;
  402994:	e57e      	b.n	402494 <eink_draw_display+0x24>
			gfx_eink_load_mono_image(&eink_IneltekLogo, sizeof(eink_IneltekLogo), eink_IneltekLogo_width_px, eink_IneltekLogo_height_bytes, 0, 0, PIXEL_BLACK, PIXEL_WHITE);
  402996:	2301      	movs	r3, #1
  402998:	9303      	str	r3, [sp, #12]
  40299a:	2400      	movs	r4, #0
  40299c:	9402      	str	r4, [sp, #8]
  40299e:	9401      	str	r4, [sp, #4]
  4029a0:	9400      	str	r4, [sp, #0]
  4029a2:	2308      	movs	r3, #8
  4029a4:	f44f 7294 	mov.w	r2, #296	; 0x128
  4029a8:	f44f 6114 	mov.w	r1, #2368	; 0x940
  4029ac:	4886      	ldr	r0, [pc, #536]	; (402bc8 <eink_draw_display+0x758>)
  4029ae:	f8df b21c 	ldr.w	fp, [pc, #540]	; 402bcc <eink_draw_display+0x75c>
  4029b2:	47d8      	blx	fp
			gfx_eink_graphics_draw_rect(317, 18, 65, 40, PIXEL_BLACK, FILL_BLACK);
  4029b4:	9401      	str	r4, [sp, #4]
  4029b6:	9400      	str	r4, [sp, #0]
  4029b8:	2328      	movs	r3, #40	; 0x28
  4029ba:	2241      	movs	r2, #65	; 0x41
  4029bc:	2112      	movs	r1, #18
  4029be:	f240 103d 	movw	r0, #317	; 0x13d
  4029c2:	4d8e      	ldr	r5, [pc, #568]	; (402bfc <eink_draw_display+0x78c>)
  4029c4:	47a8      	blx	r5
			gfx_eink_text_write_string("EXP", 325, 22, PIXEL_WHITE, ArvoBold_18pt);
  4029c6:	f8df 9208 	ldr.w	r9, [pc, #520]	; 402bd0 <eink_draw_display+0x760>
  4029ca:	f509 7811 	add.w	r8, r9, #580	; 0x244
  4029ce:	e898 000f 	ldmia.w	r8, {r0, r1, r2, r3}
  4029d2:	e88d 000f 	stmia.w	sp, {r0, r1, r2, r3}
  4029d6:	2301      	movs	r3, #1
  4029d8:	2216      	movs	r2, #22
  4029da:	f240 1145 	movw	r1, #325	; 0x145
  4029de:	4888      	ldr	r0, [pc, #544]	; (402c00 <eink_draw_display+0x790>)
  4029e0:	4f88      	ldr	r7, [pc, #544]	; (402c04 <eink_draw_display+0x794>)
  4029e2:	47b8      	blx	r7
			gfx_eink_graphics_draw_line(0, 58, 600, 58, PIXEL_BLACK);
  4029e4:	9400      	str	r4, [sp, #0]
  4029e6:	233a      	movs	r3, #58	; 0x3a
  4029e8:	f44f 7216 	mov.w	r2, #600	; 0x258
  4029ec:	4619      	mov	r1, r3
  4029ee:	4620      	mov	r0, r4
  4029f0:	f8df a26c 	ldr.w	sl, [pc, #620]	; 402c60 <eink_draw_display+0x7f0>
  4029f4:	47d0      	blx	sl
			gfx_eink_text_write_string("From:", 9, 63, PIXEL_BLACK, Arvo_10pt);
  4029f6:	f509 75fa 	add.w	r5, r9, #500	; 0x1f4
  4029fa:	e895 000f 	ldmia.w	r5, {r0, r1, r2, r3}
  4029fe:	e88d 000f 	stmia.w	sp, {r0, r1, r2, r3}
  402a02:	4623      	mov	r3, r4
  402a04:	223f      	movs	r2, #63	; 0x3f
  402a06:	2109      	movs	r1, #9
  402a08:	487f      	ldr	r0, [pc, #508]	; (402c08 <eink_draw_display+0x798>)
  402a0a:	47b8      	blx	r7
			gfx_eink_text_write_string("E Ink Holdings Inc.", 54, 60, PIXEL_BLACK, Arvo_14pt);
  402a0c:	f509 7615 	add.w	r6, r9, #596	; 0x254
  402a10:	e896 000f 	ldmia.w	r6, {r0, r1, r2, r3}
  402a14:	e88d 000f 	stmia.w	sp, {r0, r1, r2, r3}
  402a18:	4623      	mov	r3, r4
  402a1a:	223c      	movs	r2, #60	; 0x3c
  402a1c:	2136      	movs	r1, #54	; 0x36
  402a1e:	487b      	ldr	r0, [pc, #492]	; (402c0c <eink_draw_display+0x79c>)
  402a20:	47b8      	blx	r7
			gfx_eink_text_write_string("No. 199, Hwaya Road 2", 54, 82, PIXEL_BLACK, Arvo_14pt);
  402a22:	e896 000f 	ldmia.w	r6, {r0, r1, r2, r3}
  402a26:	e88d 000f 	stmia.w	sp, {r0, r1, r2, r3}
  402a2a:	4623      	mov	r3, r4
  402a2c:	2252      	movs	r2, #82	; 0x52
  402a2e:	2136      	movs	r1, #54	; 0x36
  402a30:	4877      	ldr	r0, [pc, #476]	; (402c10 <eink_draw_display+0x7a0>)
  402a32:	47b8      	blx	r7
			gfx_eink_text_write_string("Kueishan", 54, 104, PIXEL_BLACK, Arvo_14pt);
  402a34:	e896 000f 	ldmia.w	r6, {r0, r1, r2, r3}
  402a38:	e88d 000f 	stmia.w	sp, {r0, r1, r2, r3}
  402a3c:	4623      	mov	r3, r4
  402a3e:	2268      	movs	r2, #104	; 0x68
  402a40:	2136      	movs	r1, #54	; 0x36
  402a42:	4874      	ldr	r0, [pc, #464]	; (402c14 <eink_draw_display+0x7a4>)
  402a44:	47b8      	blx	r7
			gfx_eink_text_write_string("Taoyuan 33383", 54, 126, PIXEL_BLACK, Arvo_14pt);
  402a46:	e896 000f 	ldmia.w	r6, {r0, r1, r2, r3}
  402a4a:	e88d 000f 	stmia.w	sp, {r0, r1, r2, r3}
  402a4e:	4623      	mov	r3, r4
  402a50:	227e      	movs	r2, #126	; 0x7e
  402a52:	2136      	movs	r1, #54	; 0x36
  402a54:	4870      	ldr	r0, [pc, #448]	; (402c18 <eink_draw_display+0x7a8>)
  402a56:	47b8      	blx	r7
			gfx_eink_text_write_string("Taiwan", 54, 148, PIXEL_BLACK, Arvo_14pt);
  402a58:	e896 000f 	ldmia.w	r6, {r0, r1, r2, r3}
  402a5c:	e88d 000f 	stmia.w	sp, {r0, r1, r2, r3}
  402a60:	4623      	mov	r3, r4
  402a62:	2294      	movs	r2, #148	; 0x94
  402a64:	2136      	movs	r1, #54	; 0x36
  402a66:	486d      	ldr	r0, [pc, #436]	; (402c1c <eink_draw_display+0x7ac>)
  402a68:	47b8      	blx	r7
			gfx_eink_text_write_string("Origin:", 546, 60, PIXEL_BLACK, Arvo_10pt);
  402a6a:	e895 000f 	ldmia.w	r5, {r0, r1, r2, r3}
  402a6e:	e88d 000f 	stmia.w	sp, {r0, r1, r2, r3}
  402a72:	4623      	mov	r3, r4
  402a74:	223c      	movs	r2, #60	; 0x3c
  402a76:	f240 2122 	movw	r1, #546	; 0x222
  402a7a:	4869      	ldr	r0, [pc, #420]	; (402c20 <eink_draw_display+0x7b0>)
  402a7c:	47b8      	blx	r7
			gfx_eink_text_write_string("TAI", 543, 74, PIXEL_BLACK, ArvoBold_18pt);
  402a7e:	e898 000f 	ldmia.w	r8, {r0, r1, r2, r3}
  402a82:	e88d 000f 	stmia.w	sp, {r0, r1, r2, r3}
  402a86:	4623      	mov	r3, r4
  402a88:	224a      	movs	r2, #74	; 0x4a
  402a8a:	f240 211f 	movw	r1, #543	; 0x21f
  402a8e:	4865      	ldr	r0, [pc, #404]	; (402c24 <eink_draw_display+0x7b4>)
  402a90:	47b8      	blx	r7
			gfx_eink_text_write_string("Contact: 2005200163", 460, 104, PIXEL_BLACK, Arvo_10pt);
  402a92:	e895 000f 	ldmia.w	r5, {r0, r1, r2, r3}
  402a96:	e88d 000f 	stmia.w	sp, {r0, r1, r2, r3}
  402a9a:	4623      	mov	r3, r4
  402a9c:	2268      	movs	r2, #104	; 0x68
  402a9e:	f44f 71e6 	mov.w	r1, #460	; 0x1cc
  402aa2:	4861      	ldr	r0, [pc, #388]	; (402c28 <eink_draw_display+0x7b8>)
  402aa4:	47b8      	blx	r7
			gfx_eink_text_write_string("EXPRESS", 433, 128, PIXEL_BLACK, ArvoBold_24pt);
  402aa6:	f509 731d 	add.w	r3, r9, #628	; 0x274
  402aaa:	cb0f      	ldmia	r3, {r0, r1, r2, r3}
  402aac:	e88d 000f 	stmia.w	sp, {r0, r1, r2, r3}
  402ab0:	4623      	mov	r3, r4
  402ab2:	2280      	movs	r2, #128	; 0x80
  402ab4:	f240 11b1 	movw	r1, #433	; 0x1b1
  402ab8:	485c      	ldr	r0, [pc, #368]	; (402c2c <eink_draw_display+0x7bc>)
  402aba:	47b8      	blx	r7
			gfx_eink_graphics_draw_line(0, 176, 600, 176, PIXEL_BLACK);
  402abc:	9400      	str	r4, [sp, #0]
  402abe:	23b0      	movs	r3, #176	; 0xb0
  402ac0:	f44f 7216 	mov.w	r2, #600	; 0x258
  402ac4:	4619      	mov	r1, r3
  402ac6:	4620      	mov	r0, r4
  402ac8:	47d0      	blx	sl
			gfx_eink_text_write_string("To:", 9, 183, PIXEL_BLACK, Arvo_10pt);
  402aca:	e895 000f 	ldmia.w	r5, {r0, r1, r2, r3}
  402ace:	e88d 000f 	stmia.w	sp, {r0, r1, r2, r3}
  402ad2:	4623      	mov	r3, r4
  402ad4:	22b7      	movs	r2, #183	; 0xb7
  402ad6:	2109      	movs	r1, #9
  402ad8:	4855      	ldr	r0, [pc, #340]	; (402c30 <eink_draw_display+0x7c0>)
  402ada:	47b8      	blx	r7
			gfx_eink_text_write_string("INELTEK LTD.", 54, 180, PIXEL_BLACK, Arvo_18pt);
  402adc:	f509 7a09 	add.w	sl, r9, #548	; 0x224
  402ae0:	e89a 000f 	ldmia.w	sl, {r0, r1, r2, r3}
  402ae4:	e88d 000f 	stmia.w	sp, {r0, r1, r2, r3}
  402ae8:	4623      	mov	r3, r4
  402aea:	22b4      	movs	r2, #180	; 0xb4
  402aec:	2136      	movs	r1, #54	; 0x36
  402aee:	4851      	ldr	r0, [pc, #324]	; (402c34 <eink_draw_display+0x7c4>)
  402af0:	47b8      	blx	r7
			gfx_eink_text_write_string("2B Saturn House, Calleva Park", 54, 210, PIXEL_BLACK, Arvo_18pt);
  402af2:	e89a 000f 	ldmia.w	sl, {r0, r1, r2, r3}
  402af6:	e88d 000f 	stmia.w	sp, {r0, r1, r2, r3}
  402afa:	4623      	mov	r3, r4
  402afc:	22d2      	movs	r2, #210	; 0xd2
  402afe:	2136      	movs	r1, #54	; 0x36
  402b00:	484d      	ldr	r0, [pc, #308]	; (402c38 <eink_draw_display+0x7c8>)
  402b02:	47b8      	blx	r7
			gfx_eink_text_write_string("Aldermaston RG7 8HA", 54, 236, PIXEL_BLACK, Arvo_22pt);
  402b04:	f509 7901 	add.w	r9, r9, #516	; 0x204
  402b08:	e899 000f 	ldmia.w	r9, {r0, r1, r2, r3}
  402b0c:	e88d 000f 	stmia.w	sp, {r0, r1, r2, r3}
  402b10:	4623      	mov	r3, r4
  402b12:	22ec      	movs	r2, #236	; 0xec
  402b14:	2136      	movs	r1, #54	; 0x36
  402b16:	4849      	ldr	r0, [pc, #292]	; (402c3c <eink_draw_display+0x7cc>)
  402b18:	47b8      	blx	r7
			gfx_eink_text_write_string("UNITED KINGDOM (UK)", 54, 272, PIXEL_BLACK, Arvo_22pt);
  402b1a:	e899 000f 	ldmia.w	r9, {r0, r1, r2, r3}
  402b1e:	e88d 000f 	stmia.w	sp, {r0, r1, r2, r3}
  402b22:	4623      	mov	r3, r4
  402b24:	f44f 7288 	mov.w	r2, #272	; 0x110
  402b28:	2136      	movs	r1, #54	; 0x36
  402b2a:	4845      	ldr	r0, [pc, #276]	; (402c40 <eink_draw_display+0x7d0>)
  402b2c:	47b8      	blx	r7
			gfx_eink_text_write_string("Piece:", 546, 183, PIXEL_BLACK, Arvo_10pt);
  402b2e:	e895 000f 	ldmia.w	r5, {r0, r1, r2, r3}
  402b32:	e88d 000f 	stmia.w	sp, {r0, r1, r2, r3}
  402b36:	4623      	mov	r3, r4
  402b38:	22b7      	movs	r2, #183	; 0xb7
  402b3a:	f240 2122 	movw	r1, #546	; 0x222
  402b3e:	4841      	ldr	r0, [pc, #260]	; (402c44 <eink_draw_display+0x7d4>)
  402b40:	47b8      	blx	r7
			gfx_eink_text_write_string("1/1", 550, 195, PIXEL_BLACK, ArvoBold_18pt);
  402b42:	e898 000f 	ldmia.w	r8, {r0, r1, r2, r3}
  402b46:	e88d 000f 	stmia.w	sp, {r0, r1, r2, r3}
  402b4a:	4623      	mov	r3, r4
  402b4c:	22c3      	movs	r2, #195	; 0xc3
  402b4e:	f240 2126 	movw	r1, #550	; 0x226
  402b52:	483d      	ldr	r0, [pc, #244]	; (402c48 <eink_draw_display+0x7d8>)
  402b54:	47b8      	blx	r7
			gfx_eink_text_write_string("Pce/Shpt Weight:", 475, 226, PIXEL_BLACK, Arvo_10pt);
  402b56:	e895 000f 	ldmia.w	r5, {r0, r1, r2, r3}
  402b5a:	e88d 000f 	stmia.w	sp, {r0, r1, r2, r3}
  402b5e:	4623      	mov	r3, r4
  402b60:	22e2      	movs	r2, #226	; 0xe2
  402b62:	f240 11db 	movw	r1, #475	; 0x1db
  402b66:	4839      	ldr	r0, [pc, #228]	; (402c4c <eink_draw_display+0x7dc>)
  402b68:	47b8      	blx	r7
			gfx_eink_text_write_string("1.2 kg", 514, 238, PIXEL_BLACK, ArvoBold_18pt);
  402b6a:	e898 000f 	ldmia.w	r8, {r0, r1, r2, r3}
  402b6e:	e88d 000f 	stmia.w	sp, {r0, r1, r2, r3}
  402b72:	4623      	mov	r3, r4
  402b74:	22ee      	movs	r2, #238	; 0xee
  402b76:	f240 2102 	movw	r1, #514	; 0x202
  402b7a:	4835      	ldr	r0, [pc, #212]	; (402c50 <eink_draw_display+0x7e0>)
  402b7c:	47b8      	blx	r7
			gfx_eink_text_write_string("Ref: 484", 540, 295, PIXEL_BLACK, Arvo_10pt);
  402b7e:	e895 000f 	ldmia.w	r5, {r0, r1, r2, r3}
  402b82:	e88d 000f 	stmia.w	sp, {r0, r1, r2, r3}
  402b86:	4623      	mov	r3, r4
  402b88:	f240 1227 	movw	r2, #295	; 0x127
  402b8c:	f44f 7107 	mov.w	r1, #540	; 0x21c
  402b90:	4830      	ldr	r0, [pc, #192]	; (402c54 <eink_draw_display+0x7e4>)
  402b92:	47b8      	blx	r7
			gfx_eink_load_mono_image(&eink_ShippingBarcode, sizeof(eink_ShippingBarcode), eink_ShippingBarcode_width_px, eink_ShippingBarcode_height_bytes, 167, 330, PIXEL_BLACK, PIXEL_WHITE);
  402b94:	2301      	movs	r3, #1
  402b96:	9303      	str	r3, [sp, #12]
  402b98:	9402      	str	r4, [sp, #8]
  402b9a:	f44f 73a5 	mov.w	r3, #330	; 0x14a
  402b9e:	9301      	str	r3, [sp, #4]
  402ba0:	23a7      	movs	r3, #167	; 0xa7
  402ba2:	9300      	str	r3, [sp, #0]
  402ba4:	230a      	movs	r3, #10
  402ba6:	f240 120b 	movw	r2, #267	; 0x10b
  402baa:	f640 216e 	movw	r1, #2670	; 0xa6e
  402bae:	482a      	ldr	r0, [pc, #168]	; (402c58 <eink_draw_display+0x7e8>)
  402bb0:	47d8      	blx	fp
			gfx_eink_text_write_string("(J) JD01 4600 0024 3373 5713", 174, 405, PIXEL_BLACK, Arvo_14pt);
  402bb2:	e896 000f 	ldmia.w	r6, {r0, r1, r2, r3}
  402bb6:	e88d 000f 	stmia.w	sp, {r0, r1, r2, r3}
  402bba:	4623      	mov	r3, r4
  402bbc:	f240 1295 	movw	r2, #405	; 0x195
  402bc0:	21ae      	movs	r1, #174	; 0xae
  402bc2:	4826      	ldr	r0, [pc, #152]	; (402c5c <eink_draw_display+0x7ec>)
  402bc4:	47b8      	blx	r7
			break;
  402bc6:	e465      	b.n	402494 <eink_draw_display+0x24>
  402bc8:	00403a1c 	.word	0x00403a1c
  402bcc:	004004f1 	.word	0x004004f1
  402bd0:	20000000 	.word	0x20000000
  402bd4:	00428750 	.word	0x00428750
  402bd8:	00428760 	.word	0x00428760
  402bdc:	00428774 	.word	0x00428774
  402be0:	00428780 	.word	0x00428780
  402be4:	00428794 	.word	0x00428794
  402be8:	004287b8 	.word	0x004287b8
  402bec:	004287c4 	.word	0x004287c4
  402bf0:	004287d0 	.word	0x004287d0
  402bf4:	004287e8 	.word	0x004287e8
  402bf8:	004287f4 	.word	0x004287f4
  402bfc:	0040203d 	.word	0x0040203d
  402c00:	0042882c 	.word	0x0042882c
  402c04:	00402385 	.word	0x00402385
  402c08:	00428830 	.word	0x00428830
  402c0c:	00428838 	.word	0x00428838
  402c10:	0042884c 	.word	0x0042884c
  402c14:	00428864 	.word	0x00428864
  402c18:	00428870 	.word	0x00428870
  402c1c:	00428880 	.word	0x00428880
  402c20:	00428888 	.word	0x00428888
  402c24:	00428890 	.word	0x00428890
  402c28:	00428894 	.word	0x00428894
  402c2c:	004288a8 	.word	0x004288a8
  402c30:	004288b0 	.word	0x004288b0
  402c34:	004288b4 	.word	0x004288b4
  402c38:	004288c4 	.word	0x004288c4
  402c3c:	004288e4 	.word	0x004288e4
  402c40:	004288f8 	.word	0x004288f8
  402c44:	0042890c 	.word	0x0042890c
  402c48:	00428914 	.word	0x00428914
  402c4c:	00428918 	.word	0x00428918
  402c50:	0042892c 	.word	0x0042892c
  402c54:	00428934 	.word	0x00428934
  402c58:	004058a4 	.word	0x004058a4
  402c5c:	00428940 	.word	0x00428940
  402c60:	00402021 	.word	0x00402021

00402c64 <main>:
{
  402c64:	b508      	push	{r3, lr}
	system_init();
  402c66:	4b16      	ldr	r3, [pc, #88]	; (402cc0 <main+0x5c>)
  402c68:	4798      	blx	r3
	eink_init_display();
  402c6a:	4b16      	ldr	r3, [pc, #88]	; (402cc4 <main+0x60>)
  402c6c:	4798      	blx	r3
  402c6e:	f44f 0200 	mov.w	r2, #8388608	; 0x800000
  402c72:	4b15      	ldr	r3, [pc, #84]	; (402cc8 <main+0x64>)
  402c74:	631a      	str	r2, [r3, #48]	; 0x30
	return ((Pio *)hw)->PIO_PDSR;
  402c76:	461c      	mov	r4, r3
			eink_draw_display(0);
  402c78:	4d14      	ldr	r5, [pc, #80]	; (402ccc <main+0x68>)
  402c7a:	e01e      	b.n	402cba <main+0x56>
  402c7c:	6be3      	ldr	r3, [r4, #60]	; 0x3c
		if(!gpio_get_pin_level(EINK_X_BUTTON_2_PIN)) {
  402c7e:	f413 7f00 	tst.w	r3, #512	; 0x200
  402c82:	d014      	beq.n	402cae <main+0x4a>
  402c84:	6be3      	ldr	r3, [r4, #60]	; 0x3c
		if(!gpio_get_pin_level(EINK_X_BUTTON_0_PIN)) {
  402c86:	f013 0f01 	tst.w	r3, #1
  402c8a:	d105      	bne.n	402c98 <main+0x34>
  402c8c:	6be3      	ldr	r3, [r4, #60]	; 0x3c
			while(!gpio_get_pin_level(EINK_X_BUTTON_0_PIN));
  402c8e:	f013 0f01 	tst.w	r3, #1
  402c92:	d0fb      	beq.n	402c8c <main+0x28>
			eink_draw_display(0);
  402c94:	4630      	mov	r0, r6
  402c96:	47a8      	blx	r5
  402c98:	6be3      	ldr	r3, [r4, #60]	; 0x3c
		if(!gpio_get_pin_level(EINK_X_BUTTON_1_PIN)) {
  402c9a:	f013 7f80 	tst.w	r3, #16777216	; 0x1000000
  402c9e:	d1ed      	bne.n	402c7c <main+0x18>
  402ca0:	6be3      	ldr	r3, [r4, #60]	; 0x3c
			while(!gpio_get_pin_level(EINK_X_BUTTON_1_PIN));
  402ca2:	f013 7f80 	tst.w	r3, #16777216	; 0x1000000
  402ca6:	d0fb      	beq.n	402ca0 <main+0x3c>
			eink_draw_display(1);
  402ca8:	2001      	movs	r0, #1
  402caa:	47a8      	blx	r5
  402cac:	e7e6      	b.n	402c7c <main+0x18>
  402cae:	6be3      	ldr	r3, [r4, #60]	; 0x3c
			while(!gpio_get_pin_level(EINK_X_BUTTON_2_PIN));
  402cb0:	f413 7f00 	tst.w	r3, #512	; 0x200
  402cb4:	d0fb      	beq.n	402cae <main+0x4a>
			eink_draw_display(2);
  402cb6:	2002      	movs	r0, #2
  402cb8:	47a8      	blx	r5
			eink_draw_display(0);
  402cba:	2600      	movs	r6, #0
  402cbc:	e7e2      	b.n	402c84 <main+0x20>
  402cbe:	bf00      	nop
  402cc0:	00400211 	.word	0x00400211
  402cc4:	004023f1 	.word	0x004023f1
  402cc8:	400e0e00 	.word	0x400e0e00
  402ccc:	00402471 	.word	0x00402471

00402cd0 <__libc_init_array>:
  402cd0:	b570      	push	{r4, r5, r6, lr}
  402cd2:	4e0d      	ldr	r6, [pc, #52]	; (402d08 <__libc_init_array+0x38>)
  402cd4:	4c0d      	ldr	r4, [pc, #52]	; (402d0c <__libc_init_array+0x3c>)
  402cd6:	1ba4      	subs	r4, r4, r6
  402cd8:	10a4      	asrs	r4, r4, #2
  402cda:	2500      	movs	r5, #0
  402cdc:	42a5      	cmp	r5, r4
  402cde:	d109      	bne.n	402cf4 <__libc_init_array+0x24>
  402ce0:	4e0b      	ldr	r6, [pc, #44]	; (402d10 <__libc_init_array+0x40>)
  402ce2:	4c0c      	ldr	r4, [pc, #48]	; (402d14 <__libc_init_array+0x44>)
  402ce4:	f025 fe6c 	bl	4289c0 <_init>
  402ce8:	1ba4      	subs	r4, r4, r6
  402cea:	10a4      	asrs	r4, r4, #2
  402cec:	2500      	movs	r5, #0
  402cee:	42a5      	cmp	r5, r4
  402cf0:	d105      	bne.n	402cfe <__libc_init_array+0x2e>
  402cf2:	bd70      	pop	{r4, r5, r6, pc}
  402cf4:	f856 3025 	ldr.w	r3, [r6, r5, lsl #2]
  402cf8:	4798      	blx	r3
  402cfa:	3501      	adds	r5, #1
  402cfc:	e7ee      	b.n	402cdc <__libc_init_array+0xc>
  402cfe:	f856 3025 	ldr.w	r3, [r6, r5, lsl #2]
  402d02:	4798      	blx	r3
  402d04:	3501      	adds	r5, #1
  402d06:	e7f2      	b.n	402cee <__libc_init_array+0x1e>
  402d08:	004289cc 	.word	0x004289cc
  402d0c:	004289cc 	.word	0x004289cc
  402d10:	004289cc 	.word	0x004289cc
  402d14:	004289d0 	.word	0x004289d0

00402d18 <malloc>:
  402d18:	4b02      	ldr	r3, [pc, #8]	; (402d24 <malloc+0xc>)
  402d1a:	4601      	mov	r1, r0
  402d1c:	6818      	ldr	r0, [r3, #0]
  402d1e:	f000 b80b 	b.w	402d38 <_malloc_r>
  402d22:	bf00      	nop
  402d24:	20000314 	.word	0x20000314

00402d28 <memset>:
  402d28:	4402      	add	r2, r0
  402d2a:	4603      	mov	r3, r0
  402d2c:	4293      	cmp	r3, r2
  402d2e:	d100      	bne.n	402d32 <memset+0xa>
  402d30:	4770      	bx	lr
  402d32:	f803 1b01 	strb.w	r1, [r3], #1
  402d36:	e7f9      	b.n	402d2c <memset+0x4>

00402d38 <_malloc_r>:
  402d38:	b570      	push	{r4, r5, r6, lr}
  402d3a:	1ccd      	adds	r5, r1, #3
  402d3c:	f025 0503 	bic.w	r5, r5, #3
  402d40:	3508      	adds	r5, #8
  402d42:	2d0c      	cmp	r5, #12
  402d44:	bf38      	it	cc
  402d46:	250c      	movcc	r5, #12
  402d48:	2d00      	cmp	r5, #0
  402d4a:	4606      	mov	r6, r0
  402d4c:	db01      	blt.n	402d52 <_malloc_r+0x1a>
  402d4e:	42a9      	cmp	r1, r5
  402d50:	d903      	bls.n	402d5a <_malloc_r+0x22>
  402d52:	230c      	movs	r3, #12
  402d54:	6033      	str	r3, [r6, #0]
  402d56:	2000      	movs	r0, #0
  402d58:	bd70      	pop	{r4, r5, r6, pc}
  402d5a:	f000 f85b 	bl	402e14 <__malloc_lock>
  402d5e:	4a23      	ldr	r2, [pc, #140]	; (402dec <_malloc_r+0xb4>)
  402d60:	6814      	ldr	r4, [r2, #0]
  402d62:	4621      	mov	r1, r4
  402d64:	b991      	cbnz	r1, 402d8c <_malloc_r+0x54>
  402d66:	4c22      	ldr	r4, [pc, #136]	; (402df0 <_malloc_r+0xb8>)
  402d68:	6823      	ldr	r3, [r4, #0]
  402d6a:	b91b      	cbnz	r3, 402d74 <_malloc_r+0x3c>
  402d6c:	4630      	mov	r0, r6
  402d6e:	f000 f841 	bl	402df4 <_sbrk_r>
  402d72:	6020      	str	r0, [r4, #0]
  402d74:	4629      	mov	r1, r5
  402d76:	4630      	mov	r0, r6
  402d78:	f000 f83c 	bl	402df4 <_sbrk_r>
  402d7c:	1c43      	adds	r3, r0, #1
  402d7e:	d126      	bne.n	402dce <_malloc_r+0x96>
  402d80:	230c      	movs	r3, #12
  402d82:	6033      	str	r3, [r6, #0]
  402d84:	4630      	mov	r0, r6
  402d86:	f000 f846 	bl	402e16 <__malloc_unlock>
  402d8a:	e7e4      	b.n	402d56 <_malloc_r+0x1e>
  402d8c:	680b      	ldr	r3, [r1, #0]
  402d8e:	1b5b      	subs	r3, r3, r5
  402d90:	d41a      	bmi.n	402dc8 <_malloc_r+0x90>
  402d92:	2b0b      	cmp	r3, #11
  402d94:	d90f      	bls.n	402db6 <_malloc_r+0x7e>
  402d96:	600b      	str	r3, [r1, #0]
  402d98:	50cd      	str	r5, [r1, r3]
  402d9a:	18cc      	adds	r4, r1, r3
  402d9c:	4630      	mov	r0, r6
  402d9e:	f000 f83a 	bl	402e16 <__malloc_unlock>
  402da2:	f104 000b 	add.w	r0, r4, #11
  402da6:	1d23      	adds	r3, r4, #4
  402da8:	f020 0007 	bic.w	r0, r0, #7
  402dac:	1ac3      	subs	r3, r0, r3
  402dae:	d01b      	beq.n	402de8 <_malloc_r+0xb0>
  402db0:	425a      	negs	r2, r3
  402db2:	50e2      	str	r2, [r4, r3]
  402db4:	bd70      	pop	{r4, r5, r6, pc}
  402db6:	428c      	cmp	r4, r1
  402db8:	bf0d      	iteet	eq
  402dba:	6863      	ldreq	r3, [r4, #4]
  402dbc:	684b      	ldrne	r3, [r1, #4]
  402dbe:	6063      	strne	r3, [r4, #4]
  402dc0:	6013      	streq	r3, [r2, #0]
  402dc2:	bf18      	it	ne
  402dc4:	460c      	movne	r4, r1
  402dc6:	e7e9      	b.n	402d9c <_malloc_r+0x64>
  402dc8:	460c      	mov	r4, r1
  402dca:	6849      	ldr	r1, [r1, #4]
  402dcc:	e7ca      	b.n	402d64 <_malloc_r+0x2c>
  402dce:	1cc4      	adds	r4, r0, #3
  402dd0:	f024 0403 	bic.w	r4, r4, #3
  402dd4:	42a0      	cmp	r0, r4
  402dd6:	d005      	beq.n	402de4 <_malloc_r+0xac>
  402dd8:	1a21      	subs	r1, r4, r0
  402dda:	4630      	mov	r0, r6
  402ddc:	f000 f80a 	bl	402df4 <_sbrk_r>
  402de0:	3001      	adds	r0, #1
  402de2:	d0cd      	beq.n	402d80 <_malloc_r+0x48>
  402de4:	6025      	str	r5, [r4, #0]
  402de6:	e7d9      	b.n	402d9c <_malloc_r+0x64>
  402de8:	bd70      	pop	{r4, r5, r6, pc}
  402dea:	bf00      	nop
  402dec:	2000039c 	.word	0x2000039c
  402df0:	200003a0 	.word	0x200003a0

00402df4 <_sbrk_r>:
  402df4:	b538      	push	{r3, r4, r5, lr}
  402df6:	4c06      	ldr	r4, [pc, #24]	; (402e10 <_sbrk_r+0x1c>)
  402df8:	2300      	movs	r3, #0
  402dfa:	4605      	mov	r5, r0
  402dfc:	4608      	mov	r0, r1
  402dfe:	6023      	str	r3, [r4, #0]
  402e00:	f7fd faa4 	bl	40034c <_sbrk>
  402e04:	1c43      	adds	r3, r0, #1
  402e06:	d102      	bne.n	402e0e <_sbrk_r+0x1a>
  402e08:	6823      	ldr	r3, [r4, #0]
  402e0a:	b103      	cbz	r3, 402e0e <_sbrk_r+0x1a>
  402e0c:	602b      	str	r3, [r5, #0]
  402e0e:	bd38      	pop	{r3, r4, r5, pc}
  402e10:	20000430 	.word	0x20000430

00402e14 <__malloc_lock>:
  402e14:	4770      	bx	lr

00402e16 <__malloc_unlock>:
  402e16:	4770      	bx	lr

00402e18 <SSD1608_A45_IU_LUT>:
  402e18:	1824 1818 1800 1018 0008 0000 0000 0000     $...............
  402e28:	0000 0000 1141 1111 0001 0000 0000 0000     ....A...........

00402e38 <SSD1608_A05_IU_LUT>:
  402e38:	1810 2818 1818 1818 0008 0000 0000 0000     ...(............
  402e48:	0000 0000 1233 1322 0011 0000 0000 0000     ....3.".........

00402e58 <ED028TC1_WF_LUT>:
  402e58:	042e 0011 0000 0000 0000 0000 0000 0000     ................
  402e68:	0010 0000 0100 0000 0100 0000 0100 1004     ................
  402e78:	0100 0044 0000 0040 0000 0000 0000 0040     ..D...@.......@.
  402e88:	0000 0000 0100 1040 0500 1040 0000 0000     ......@...@.....
  402e98:	1400 0051 0000 0000 0000 0000 0010 0000     ..Q.............
  402ea8:	0010 0000 0100 0040 1100 0040 0100 1004     ......@...@.....
  402eb8:	0100 0044 0000 0040 0000 0000 0100 1044     ..D...@.......D.
  402ec8:	0100 0000 0100 1040 0500 1040 0100 0000     ......@...@.....
  402ed8:	1500 0051 0000 0010 0010 0000 0010 0000     ..Q.............
  402ee8:	0010 0000 0100 0040 1100 1040 0100 1004     ......@...@.....
  402ef8:	1100 0044 0100 0040 0000 1040 4100 1044     ..D...@...@..AD.
  402f08:	0100 0000 1500 1044 4500 1044 0100 0004     ......D..ED.....
  402f18:	1500 0051 0000 0010 0010 0000 0010 0000     ..Q.............
  402f28:	0010 0000 0100 0044 1100 1040 0100 1004     ......D...@.....
  402f38:	1100 0044 4100 0040 0000 1040 4500 1044     ..D..A@...@..ED.
  402f48:	0100 1040 1500 1044 4500 1044 0500 1044     ..@...D..ED...D.
  402f58:	2500 0051 0004 0010 0010 0000 0010 0040     .%Q...........@.
  402f68:	0010 0040 0100 1044 1500 1040 0500 1004     ..@...D...@.....
  402f78:	1100 1044 4100 0040 1100 1040 4500 1044     ..D..A@...@..ED.
  402f88:	0100 1044 1500 1044 4500 1044 0500 1044     ..D...D..ED...D.
  402f98:	2500 0051 1104 0054 0010 0040 0110 0040     .%Q...T...@...@.
  402fa8:	4110 0044 0100 1044 5500 1040 4504 1004     .AD...D..U@..E..
  402fb8:	5500 1044 4500 0044 1100 1040 4500 1044     .UD..ED...@..ED.
  402fc8:	0100 1044 1500 1044 4500 1044 0500 1054     ..D...D..ED...T.
  402fd8:	2500 0051 1104 0054 0110 0040 0110 0040     .%Q...T...@...@.
  402fe8:	4110 0044 0500 1044 5500 1444 4504 1054     .AD...D..UD..ET.
  402ff8:	5500 1044 4500 1044 1100 1044 4500 1044     .UD..ED...D..ED.
  403008:	0500 1044 5500 1454 4500 1454 0500 1054     ..D..UT..ET...T.
  403018:	2500 0051 5504 1054 0114 0050 5110 1044     .%Q..UT...P..QD.
  403028:	4114 1044 4500 1054 5504 1444 4504 1054     .AD..ET..UD..ET.
  403038:	5500 1044 4500 1044 5500 1044 4500 1454     .UD..ED..UD..ET.
  403048:	1500 1444 5500 1454 4500 1455 0500 1454     ..D..UT..EU...T.
  403058:	2900 0051 5504 1054 0114 1050 5110 1054     .)Q..UT...P..QT.
  403068:	4114 1044 5500 1054 5504 1444 4504 1454     .AD..UT..UD..ET.
  403078:	5500 1444 4510 1454 5500 1044 4500 1454     .UD..ET..UD..ET.
  403088:	1500 1454 5500 1454 4500 1455 0500 1454     ..T..UT..EU...T.
  403098:	2900 0051 5514 1054 0114 1050 5510 1454     .)Q..UT...P..UT.
  4030a8:	4114 1044 5510 1054 5504 1454 4504 1454     .AD..UT..UT..ET.
  4030b8:	5500 1444 4510 1454 5504 1054 4500 1454     .UD..ET..UT..ET.
  4030c8:	1500 1454 5500 1454 5500 1455 0500 1454     ..T..UT..UU...T.
  4030d8:	2900 00a1 5514 1054 0114 1450 5510 1454     .)...UT...P..UT.
  4030e8:	4114 1054 5514 1454 5504 1454 4514 1454     .AT..UT..UT..ET.
  4030f8:	5510 1444 4510 1454 5504 1454 4500 1454     .UD..ET..UT..ET.
  403108:	1500 1454 5500 1455 5511 1455 0511 1454     ..T..UU..UU...T.
  403118:	2a00 00a2 5518 1454 0114 1450 5510 1454     .*...UT...P..UT.
  403128:	4114 1454 5514 1454 5504 1454 4514 1454     .AT..UT..UT..ET.
  403138:	5510 1454 4510 1454 5504 1454 4500 1454     .UT..ET..UT..ET.
  403148:	1511 1454 5501 1455 5511 1555 0511 1455     ..T..UU..UU...U.
  403158:	6a10 00a2 5518 1455 4514 1454 5510 1454     .j...UU..ET..UT.
  403168:	4114 1454 5514 1454 5514 1455 4515 1455     .AT..UT..UU..EU.
  403178:	5511 1454 4511 1454 5515 1454 4501 1454     .UT..ET..UT..ET.
  403188:	1511 1454 5501 1455 5511 1555 0511 1455     ..T..UU..UU...U.
  403198:	aa10 00a6 5518 1455 4515 1454 5510 1454     .....UU..ET..UT.
  4031a8:	4514 1454 5514 1454 5514 1555 4515 1555     .ET..UT..UU..EU.
  4031b8:	5515 1454 4515 1454 5515 1454 4501 1454     .UT..ET..UT..ET.
  4031c8:	1511 1454 5511 1455 5511 1555 0511 1455     ..T..UU..UU...U.
  4031d8:	aa11 10a6 6518 1555 4515 1455 5514 1454     .....eU..EU..UT.
  4031e8:	4514 1454 5514 1454 5515 1555 4515 1555     .ET..UT..UU..EU.
  4031f8:	6515 1454 4515 1454 5515 1454 5511 1455     .eT..ET..UT..UU.
  403208:	5511 1454 5511 1455 5511 1555 0511 1455     .UT..UU..UU...U.
  403218:	aa11 10a6 a518 55a9 4555 1455 5514 1454     .......UUEU..UT.
  403228:	8515 1455 5515 1599 6515 1555 4515 1559     ..U..U...eU..EY.
  403238:	6515 1459 8515 1555 5515 1455 9511 1455     .eY...U..UU...U.
  403248:	5511 1454 5511 1455 5511 1555 0551 5555     .UT..UU..UU.Q.UU
  403258:	aa51 10aa a518 55a9 5559 1555 a515 1555     Q......UYUU...U.
  403268:	8555 1499 5615 1599 6515 5555 5515 5559     U....V...eUU.UYU
  403278:	6515 5599 9515 1595 6515 1495 9511 1455     .e.U.....e....U.
  403288:	5611 1454 6511 5455 9551 5595 1551 5555     .VT..eUTQ..UQ.UU
  403298:	aa51 10aa aa28 55a9 5569 1595 a525 1595     Q...(..UiU..%...
  4032a8:	8569 1499 9615 1599 aa15 5595 9a15 5559     i..........U..YU
  4032b8:	a655 5599 9515 5599 a515 1495 9511 1499     U..U...U........
  4032c8:	6611 1495 6911 5599 9951 5595 1551 5559     .f...i.UQ..UQ.YU
  4032d8:	aa55 54aa aa28 55a9 9669 55a5 a625 5599     U..T(..Ui..U%..U
  4032e8:	8669 5499 aa19 5599 aa15 5595 9a55 6599     i..T...U...UU..e
  4032f8:	aa55 5599 9a15 5599 a555 1499 9615 1499     U..U...UU.......
  403308:	6651 1499 aa11 5599 aa55 5595 1551 5599     Qf.....UU..UQ..U
  403318:	aa55 64aa aa28 65a9 9669 55a5 aa25 55a9     U..d(..ei..U%..U
  403328:	9669 5499 aa19 65a9 aa19 6595 9a59 6599     i..T...e...eY..e
  403338:	aa55 5599 9a15 5599 aa55 2499 9a15 2599     U..U...UU..$...%
  403348:	6a55 1499 aa11 6599 aa55 65a9 1a51 5599     Uj.....eU..eQ..U
  403358:	aa55 a5aa aa28 65a9 aa69 65a5 aa69 65a9     U...(..ei..ei..e
  403368:	9669 64a9 aa59 65a9 aa59 65a9 9a59 65a9     i..dY..eY..eY..e
  403378:	aa55 6599 9a55 5599 aa55 6499 9a55 6599     U..eU..UU..dU..e
  403388:	6a55 2499 aa15 6599 aa55 65a9 1a51 55a9     Uj.$...eU..eQ..U
  403398:	aa55 a5aa aa68 a5aa aa69 65a9 aa69 65a9     U...h...i..ei..e
  4033a8:	9a69 65a9 aa59 65a9 aa59 65a9 9a59 65a9     i..eY..eY..eY..e
  4033b8:	aa55 65a9 9a55 65a9 aa59 64a9 aa55 65a9     U..eU..eY..dU..e
  4033c8:	aa55 24a9 aa15 65a9 aa55 65a9 1a51 65a9     U..$...eU..eQ..e
  4033d8:	aa55 aaaa aa68 aaaa aa68 69aa aa69 69a9     U...h...h..ii..i
  4033e8:	9a69 65a9 aa69 65a9 aa59 69aa aa59 65aa     i..ei..eY..iY..e
  4033f8:	aa55 65a9 aa55 65a9 aa59 65a9 aa55 65a9     U..eU..eY..eU..e
  403408:	aa55 64a9 aa55 65a9 aa55 65aa 2a55 65a9     U..dU..eU..eU*.e
  403418:	aa55 aaaa aaa8 aaaa aaa8 6aaa aa69 69a9     U..........ji..i
  403428:	aa69 69aa aa69 69a9 aa59 69aa aa59 69aa     i..ii..iY..iY..i
  403438:	aa59 69a9 aa69 69a9 aa59 65aa aa55 69a9     Y..ii..iY..eU..i
  403448:	aa55 69a9 aa55 69aa aa55 69aa 2a55 65aa     U..iU..iU..iU*.e
  403458:	aa55 aaaa aaa8 aaaa aaaa aaaa aa68 aaaa     U...........h...
  403468:	aa68 a9aa aa68 6aaa aa68 aaaa aa68 6aaa     h...h..jh...h..j
  403478:	aa68 69a9 aa68 69aa aa58 69aa aa54 69aa     h..ih..iX..iT..i
  403488:	aa54 69a9 aa54 69aa aa54 6aaa 2a54 69aa     T..iT..iT..jT*.i
  403498:	aa55 aaaa aaa8 aaaa aaaa aaaa aa68 aaaa     U...........h...
  4034a8:	aaa8 a9aa aa68 aaaa aa68 aaaa aa68 aaaa     ....h...h...h...
  4034b8:	aa68 a9aa aa68 aaaa aa68 69aa aa58 69aa     h...h...h..iX..i
  4034c8:	aa64 69aa aa54 a9aa aa64 aaaa 2a64 69aa     d..iT...d...d*.i
  4034d8:	9a59 aaaa aaaa aaaa aaaa aaaa aa6a aaaa     Y...........j...
  4034e8:	aaaa aaaa aa6a aaaa aa6a aaaa aa6a aaaa     ....j...j...j...
  4034f8:	aa6a aaaa aa6a aaaa aa6a 69aa aa6a 69aa     j...j...j..ij..i
  403508:	aa6a 69aa aa6a a9aa aa6a aaaa 2aa6 aaaa     j..ij...j....*..
  403518:	aa68 aaaa aaaa aaaa aaaa aaaa aaaa aaaa     h...............
  403528:	aaaa aaaa aaaa aaaa aa6a aaaa aa6a aaaa     ........j...j...
  403538:	aaaa aaaa aa6a aaaa aaaa a9aa aa6a aaaa     ....j.......j...
  403548:	aaaa 69aa aa6a aaaa aaaa aaaa 2aa6 aaaa     ...ij........*..
  403558:	4aa8 aaaa aaaa aaaa aaaa aaaa aaaa aaaa     .J..............
  403568:	aaaa aaaa aaaa aaaa aaaa aaaa aaaa aaaa     ................
  403578:	aaaa aaaa aa6a aaaa aaaa aaaa aaaa aaaa     ....j...........
  403588:	aaaa a9aa aa6a aaaa aaaa aaaa 2aa6 aaaa     ....j........*..
  403598:	4aaa aaaa aaaa aaaa aaaa aaaa aaaa aaaa     .J..............
  4035a8:	aaaa aaaa aaaa aaaa aaaa aaaa aaaa aaaa     ................
  4035b8:	aaaa aaaa aaaa aaaa aaaa aaaa aaaa aaaa     ................
  4035c8:	aaaa aaaa aa6a aaaa 9aaa aaaa 1aaa aaaa     ....j...........
  4035d8:	4aaa aaaa 6aaa aaaa 6aaa aaaa 6aaa aaaa     .J...j...j...j..
  4035e8:	6aaa aaaa aaaa aaaa aaaa aaaa aaaa aaaa     .j..............
  4035f8:	9aaa aaaa 6aaa aaaa 6aaa aaaa 6aaa aaaa     .....j...j...j..
  403608:	5aaa aaaa aaaa aaaa aaaa aaaa 2aaa aaaa     .Z...........*..
  403618:	4aaa aaaa 6aaa aaaa 6aaa aaaa 6aaa aaaa     .J...j...j...j..
  403628:	6aaa aaaa 6aaa aaaa 6aaa aaaa 6aaa aaaa     .j...j...j...j..
  403638:	6aaa aaaa 6aaa aaaa 6aaa aaaa 5aaa aaaa     .j...j...j...Z..
  403648:	6aaa aaaa 6aaa aaaa 4aaa aaaa 4aaa aaaa     .j...j...J...J..
  403658:	4aaa aaaa 5aaa aaaa 5aaa aaaa 5aaa aaaa     .J...Z...Z...Z..
  403668:	6aaa aaaa 6aa6 aaaa 6aaa aaaa 5aaa aaaa     .j...j...j...Z..
  403678:	4aaa aaaa 5aaa aaaa 5aaa aaaa 6aaa aaaa     .J...Z...Z...j..
  403688:	49aa aaaa 5aaa aaaa 4aaa aa9a 4aaa aaaa     .I...Z...J...J..
  403698:	52aa aaaa 6aa6 aa2a 6aa6 aaaa 6aa6 aaaa     .R...j*..j...j..
  4036a8:	6aa6 aaaa 6aaa aaa2 52aa aa9a 62aa aa2a     .j...j...R...b*.
  4036b8:	4aaa aa9a 6aaa aaa2 6aaa aa2a 4aaa aaaa     .J...j...j*..J..
  4036c8:	4aaa aa2a 62aa aaaa 4aaa aa2a 4aaa aa22     .J*..b...J*..J".
  4036d8:	12a6 aaaa 4aaa 6a22 4aaa aaaa 4aaa aaaa     .....J"j.J...J..
  4036e8:	5aaa aa22 5aa2 aa22 62aa 6aaa 42aa aa22     .Z"..Z"..b.j.B".
  4036f8:	42aa aaa2 42aa aaa2 42aa aa20 4aaa aaaa     .B...B...B ..J..
  403708:	40aa aa2a 42a6 6aa2 4aaa 6a0a 4aaa aa12     .@*..B.j.J.j.J..
  403718:	15aa aa52 42a2 aa12 42a2 aa9a 42a2 6a9a     ..R..B...B...B.j
  403728:	62a2 6a12 62a2 aa12 42aa aa88 42aa aa20     .b.j.b...B...B .
  403738:	42aa aa02 42aa 6a22 42aa aa10 4aa6 6aaa     .B...B"j.B...J.j
  403748:	40a6 6a10 42aa aa22 42a6 aa0a 42aa aa20     .@.j.B"..B...B .
  403758:	16a2 6a62 11a2 2a62 11a2 696a 11a2 aa62     ..bj..b*..ji..b.
  403768:	11a2 a962 51a2 6a62 51a6 2a48 51a6 6a50     ..b..Qbj.QH*.QPj
  403778:	51a6 6a42 51a6 aa50 51a6 6960 59aa a950     .QBj.QP..Q`i.YP.
  403788:	50aa a960 51a2 2a52 51aa 2a4a 51aa 6940     .P`..QR*.QJ*.Q@i
  403798:	15a2 aa52 16a2 2942 16a2 aa48 16a2 2942     ..R...B)..H...B)
  4037a8:	16a2 2a40 16a2 a942 16aa 2948 16aa a960     ..@*..B...H)..`.
  4037b8:	16aa aa42 16aa 2960 16aa aa40 16a2 2a60     ..B...`)..@...`*
  4037c8:	1422 2a40 56a2 2960 56a2 294a 5626 aa40     ".@*.V`).VJ)&V@.
  4037d8:	55a2 1955 55a2 1a54 5522 1854 55a2 1a54     .UU..UT."UT..UT.
  4037e8:	55a2 1854 55a2 1a54 55a2 1a54 55a2 1a54     .UT..UT..UT..UT.
  4037f8:	55a2 1954 55a2 1a54 5522 1854 5522 1854     .UT..UT."UT."UT.
  403808:	5522 1854 55a2 1a54 5522 1a54 552a 1854     "UT..UT."UT.*UT.
  403818:	5522 2a55 5526 2855 5526 2855 55a6 2855     "UU*&UU(&UU(.UU(
  403828:	5526 2855 5526 2855 55a6 2855 55a6 2855     &UU(&UU(.UU(.UU(
  403838:	5526 2a55 55a6 2855 5526 2855 5526 2855     &UU*.UU(&UU(&UU(
  403848:	5526 2855 5526 2855 5526 2855 5526 2855     &UU(&UU(&UU(&UU(
  403858:	5526 5455 5506 5455 5506 5455 5506 5455     &UUT.UUT.UUT.UUT
  403868:	5506 5455 5526 5455 5526 5455 5526 5455     .UUT&UUT&UUT&UUT
  403878:	5526 5455 5526 5455 5526 5455 5526 5455     &UUT&UUT&UUT&UUT
  403888:	5526 5455 5526 5455 5526 5455 5526 5455     &UUT&UUT&UUT&UUT
  403898:	5526 5555 5554 5555 5554 5555 5554 5555     &UUUTUUUTUUUTUUU
  4038a8:	5554 5555 5554 5555 5554 5555 5554 5555     TUUUTUUUTUUUTUUU
  4038b8:	5554 5555 5554 5555 5554 5555 5554 5555     TUUUTUUUTUUUTUUU
  4038c8:	5554 5555 5554 5555 5554 5555 5554 5555     TUUUTUUUTUUUTUUU
  4038d8:	5554 5555 5554 5555 5554 5555 5554 5555     TUUUTUUUTUUUTUUU
  4038e8:	5554 5555 5554 5555 5554 5555 5554 5555     TUUUTUUUTUUUTUUU
  4038f8:	5554 5555 5554 5555 5554 5555 5554 5555     TUUUTUUUTUUUTUUU
  403908:	5554 5555 5554 5555 5554 5555 5554 5555     TUUUTUUUTUUUTUUU
  403918:	5454 aaaa 54a8 aaaa 54a8 aaaa 54a8 aaaa     TT...T...T...T..
  403928:	54a8 aaaa 54a8 aaaa 54a8 aaaa 54a8 aaaa     .T...T...T...T..
  403938:	54a8 aaaa 54a8 aaaa 54a8 aaaa 54a8 aaaa     .T...T...T...T..
  403948:	54a8 aaaa 54a8 aaaa 54a8 aaaa 54a8 aaaa     .T...T...T...T..
  403958:	50a8 0000 5008 0000 5008 0000 5008 0000     .P...P...P...P..
  403968:	5008 0000 5008 0000 5008 0000 5008 0000     .P...P...P...P..
  403978:	5008 0000 5008 0000 5008 0000 5008 0000     .P...P...P...P..
  403988:	5008 0000 5008 0000 5008 0000 5008 0000     .P...P...P...P..
  403998:	4008 0000 4008 0000 4008 0000 4008 0000     .@...@...@...@..
  4039a8:	4008 0000 4008 0000 4008 0000 4008 0000     .@...@...@...@..
  4039b8:	4008 0000 4008 0000 4008 0000 4008 0000     .@...@...@...@..
  4039c8:	4008 0000 4008 0000 4008 0000 4008 0000     .@...@...@...@..
  4039d8:	0008 0000 0000 0000 0000 0000 0000 0000     ................
	...

00403a1c <eink_IneltekLogo>:
	...
  403a4c:	0100 00f0 0000 0000 0100 00fe 0000 0000     ................
  403a5c:	0100 c0ff 0000 0000 0100 f8ff 0000 0000     ................
  403a6c:	0100 ffff 0000 0000 0100 ffff 00f0 0000     ................
  403a7c:	0100 ffff 00fe 0000 0100 ffff c0ff 0000     ................
  403a8c:	0100 ffff f8ff 0000 0100 ffff fcff 0000     ................
  403a9c:	0100 ffff fcff 0060 0100 ffff fcff 007c     ......`.......|.
  403aac:	0100 ffff fcff 807f 0100 ffff fcff c07f     ................
  403abc:	0100 ffff fcff c07f 0100 ffff fcff c07f     ................
  403acc:	0100 ffff fcff c07f 0100 ffff fcff c07f     ................
  403adc:	0100 ffff fcff c07f 0000 ffff fcff c07f     ................
  403aec:	0000 ff3f fcff c07f 0000 ff03 fcff c07f     ..?.............
  403afc:	0000 7f00 fcff c07f 0000 0f00 fcff c07f     ................
  403b0c:	0100 01f0 fcff c07f 0100 00fe fc3f c07f     ............?...
  403b1c:	0100 c0ff fc07 c07f 0100 f8ff fc00 c07f     ................
  403b2c:	0100 ffff 1c00 c07f 0100 ffff 00f0 c07f     ................
  403b3c:	0100 ffff 00fe c03f 0100 ffff c0ff c007     ......?.........
  403b4c:	0100 ffff f8ff c000 0100 ffff fcff 0000     ................
  403b5c:	0100 ffff fcff 0070 0100 ffff fcff 007e     ......p.......~.
  403b6c:	0100 ffff fcff 807f 0100 ffff fcff c07f     ................
  403b7c:	0100 ffff fcff c07f 0000 ff3f fcff c07f     ..........?.....
  403b8c:	0000 ff07 fcff c07f 0000 ff00 fcff c07f     ................
  403b9c:	0000 1f00 fcff c07f 0000 0700 fcff c07f     ................
  403bac:	0000 3f00 fcff c07f 0000 ff01 fcff c07f     ...?............
  403bbc:	0000 ff1f fcff c07f 0000 ffff fcff c07f     ................
  403bcc:	0100 ffff fcff c07f 0100 ffff fcff c07f     ................
  403bdc:	0100 ffff fcff c07f 0100 ffff fcff c07f     ................
  403bec:	0100 ffff fcff c07f 0100 ffff fcff c07f     ................
  403bfc:	0100 ffff fcff c07f 0100 ffff fcff c07f     ................
  403c0c:	0100 ffff f0ff c07f 0100 ffff 00ff c07f     ................
  403c1c:	0100 ffff 00f8 c07f 0100 ffff 0080 c07f     ................
  403c2c:	0100 ffff 00c0 c07f 0100 ffff 00f8 c07f     ................
  403c3c:	0100 ffff 00ff c07f 0100 ffff e0ff c07f     ................
  403c4c:	0100 ffff fcff c07f 0100 ffff fcff c07f     ................
  403c5c:	0100 ffff fcff c07f 0100 ffff fcff c07f     ................
  403c6c:	0100 ffff fcff c07f 0100 ffff fcff c07f     ................
  403c7c:	0000 ff7f fcff c07f 0000 ff0f fcff c07f     ................
  403c8c:	0000 ff01 fcff c07f 0000 3f00 fcff c07f     ...........?....
  403c9c:	0100 07e0 fcff c07f 0100 00fc fcff c07f     ................
  403cac:	0100 80ff fc1f c07f 0100 f0ff fc03 c07f     ................
  403cbc:	0100 feff 3c00 c07f 0100 ffff 1cc0 c07f     .....<..........
  403ccc:	0100 ffff 00f8 c07f 0100 ffff 00ff c07f     ................
  403cdc:	0100 ffff e0ff c07f 0100 ffff fcff c07f     ................
  403cec:	0100 ffff fcff c07f 0100 ffff fcff c07f     ................
  403cfc:	0100 ffff fcff c07f 0100 ffff fcff c07f     ................
  403d0c:	0100 ffff fcff c07f 0100 ffff fcff c07f     ................
  403d1c:	0100 ffff fcff c07f 0100 ffff fcff c07f     ................
  403d2c:	0100 ffff fcff c07f 0100 ffff fcff c07f     ................
  403d3c:	0100 ffff fcff c07f 0100 ffff fcff c07f     ................
  403d4c:	0100 3fff fcff c07f 0100 1fff fcff c07f     ...?............
  403d5c:	0100 1fff fcff c07f 0100 1fff fcff c07f     ................
  403d6c:	0100 1fff fce3 c07f 0100 1fff fce3 c07f     ................
  403d7c:	0100 1fff fce3 c07f 0100 1fff fce3 c07f     ................
  403d8c:	0100 1fff fce3 c07f 0100 1fff fce3 c07f     ................
  403d9c:	0100 1fff fce3 c07f 0100 1fff fce3 c07f     ................
  403dac:	0100 1fff fce3 c07f 0100 1fff fce3 c07f     ................
  403dbc:	0000 1fff fce3 c07f 0000 1f0f fce3 c07f     ................
  403dcc:	0000 1f01 fce3 c07f 0100 0fc0 fce3 c07f     ................
  403ddc:	0100 01f8 fce3 c07f 0100 00ff fc23 c07f     ............#...
  403dec:	0100 f0ff fc03 c07f 0100 feff fc03 c07f     ................
  403dfc:	0100 ffff 7cc0 c07f 0100 ffff 0cf8 c07f     .....|..........
  403e0c:	0100 ffff 00ff c07f 0100 ffff e0ff c07f     ................
  403e1c:	0100 ffff fcff c07f 0100 ffff fcff c07f     ................
  403e2c:	0100 ffff fcff c07f 0100 ffff fcff c07f     ................
  403e3c:	0100 ffff fcff c07f 0100 ffff fcff c07f     ................
  403e4c:	0100 ffff fcff c07f 0100 ffff fcff c07f     ................
  403e5c:	0100 ffff fcff c07f 0100 ffff fcff c07f     ................
  403e6c:	0100 ffff fcff c07f 0100 ffff fcff c07f     ................
  403e7c:	0100 ffff fcff c07f 0100 ffff fcff c07f     ................
  403e8c:	0100 3fff fcff c07f 0100 07ff fcff c07f     ...?............
  403e9c:	0100 00ff fcff c07f 0100 00ff fc1f c07f     ................
  403eac:	0100 00ff fc01 c07f 0100 00ff 3c00 c07f     .............<..
  403ebc:	0100 00ff 1c00 c07f 0100 00ff 0000 c07f     ................
  403ecc:	0100 00ff 0000 c07f 0100 00ff 0000 c07f     ................
  403edc:	0100 00ff 0000 c07f 0100 00ff 0000 c07f     ................
  403eec:	0100 00ff 0000 c07f 0100 00ff 0000 c07f     ................
  403efc:	0000 003f 0000 c07f 0000 0007 0000 c07f     ..?.............
  403f0c:	0100 0080 0000 c07f 0100 00f0 0000 c07f     ................
  403f1c:	0100 00fe 0000 c07f 0100 c0ff 0000 c07f     ................
  403f2c:	0100 f8ff 0000 c07f 0100 ffff 0000 c07f     ................
  403f3c:	0100 ffff 00e0 c07f 0100 ffff 00fc c07f     ................
  403f4c:	0100 ffff c0ff c07f 0100 ffff f8ff c07f     ................
  403f5c:	0100 ffff ffff c0ff 0100 ffff ffff c0ff     ................
  403f6c:	0100 ffff ffff c0ff 0100 ffff ffff c0ff     ................
  403f7c:	0100 ffff ffff c0ff 0100 ffff ffff c0ff     ................
  403f8c:	0100 ffff ffff c0ff 0100 ffff ffff c0ff     ................
  403f9c:	0100 ffff ffff c0ff 0100 ffff ffff c0ff     ................
  403fac:	0000 ffff ffff c0ff 0000 ff1f ffff c0ff     ................
  403fbc:	0000 ff03 ffff c0ff 0000 7f00 ffff c0ff     ................
  403fcc:	0100 0fc0 ffff c0ff 0100 00fc ffff c0ff     ................
  403fdc:	0100 80ff ff1f c0ff 0100 f0ff ff03 c0ff     ................
  403fec:	0100 feff 7f00 c0ff 0100 ffff 0fc0 c0ff     ................
  403ffc:	0100 ffff 01f8 c0ff 0100 ffff 00ff c07f     ................
  40400c:	0100 ffff e0ff c07f 0100 ffff fcff c07f     ................
  40401c:	0100 ffff fcff c07f 0100 ffff fcff c07f     ................
  40402c:	0100 ffff fcff c07f 0100 ffff fcff c07f     ................
  40403c:	0100 ffff fcff c07f 0100 ffff fcff c07f     ................
  40404c:	0100 ffff fcff c07f 0100 ffff fcff c07f     ................
  40405c:	0100 ffff fcff c07f 0100 ffff fcff c07f     ................
  40406c:	0100 ffff fcff c07f 0100 ffff fcff c07f     ................
  40407c:	0100 3fff fcff c07f 0100 1fff fcff c07f     ...?............
  40408c:	0100 1fff fcff c07f 0100 1fff fcff c07f     ................
  40409c:	0100 1fff fce7 c07f 0100 1fff fce3 c07f     ................
  4040ac:	0100 1fff fce3 c07f 0100 1fff fce3 c07f     ................
  4040bc:	0100 1fff fce3 c07f 0100 1fff fce3 c07f     ................
  4040cc:	0100 1fff fce3 c07f 0100 1fff fce3 c07f     ................
  4040dc:	0100 1fff fce3 c07f 0100 1fff fce3 c07f     ................
  4040ec:	0000 1fff fce3 c07f 0000 1f1f fce3 c07f     ................
  4040fc:	0000 1f03 fce3 c07f 0100 0fc0 fce3 c07f     ................
  40410c:	0100 01f8 fce3 c07f 0100 00ff fc23 c07f     ............#...
  40411c:	0100 e0ff fc03 c07f 0100 fcff fc03 c07f     ................
  40412c:	0100 ffff 7c80 c07f 0100 ffff 0cf0 c07f     .....|..........
  40413c:	0100 ffff 00fe c07f 0100 ffff c0ff c07f     ................
  40414c:	0100 ffff fcff c07f 0100 ffff fcff c07f     ................
  40415c:	0100 ffff fcff c07f 0100 ffff fcff c07f     ................
  40416c:	0100 ffff fcff c07f 0100 ffff fcff c07f     ................
  40417c:	0100 ffff fcff c07f 0100 ffff fcff c07f     ................
  40418c:	0100 ffff fcff c07f 0100 ffff fcff c07f     ................
  40419c:	0100 ffff fcff c07f 0000 ff3f fcff c07f     ..........?.....
  4041ac:	0000 ff07 fcff c07f 0000 ff00 fcff c07f     ................
  4041bc:	0000 1f00 fcff c07f 0000 0300 fcff c07f     ................
  4041cc:	0000 0700 fcff c07f 0000 7f00 fccf c07f     ................
  4041dc:	0000 ff07 fce1 c07f 0000 ff7f 1cf0 c07f     ................
  4041ec:	0100 ffff 00fc c07f 0100 ffff 00fe c07f     ................
  4041fc:	0100 ffff 00ff c07f 0100 ffff 80ff c07f     ................
  40420c:	0100 ffff c0ff c07f 0100 ffff e0ff c07f     ................
  40421c:	0100 ffff f0ff c07f 0100 ffff f8ff c07f     ................
  40422c:	0100 ffff fcff c07f 0100 ffff fcff c07f     ................
  40423c:	0100 ffff fcff c07f 0100 ffff fcff c07f     ................
  40424c:	0100 ffff fcff c07f 0100 ffff fcff c07f     ................
  40425c:	0100 feff fcff c07f 0100 f8ff fc7f c07f     ................
  40426c:	0100 c0ff fc3f c07f 0100 00ff fc1f c07f     ....?...........
  40427c:	0100 00fc fc0f c07f 0100 00e0 fc07 c07f     ................
  40428c:	0100 0080 fc03 c07f 0000 0000 fc01 c07f     ................
  40429c:	0000 0000 fc00 c07f 0000 0000 7c00 c07f     .............|..
  4042ac:	0000 0000 7c00 c07f 0000 0000 3c00 c07f     .....|.......<..
  4042bc:	0000 0000 1c00 c07f 0000 0000 0c00 c07f     ................
  4042cc:	0000 0000 0400 c07f 0000 0000 0000 c07f     ................
  4042dc:	0000 0000 0000 c07f 0000 0000 0000 c07f     ................
  4042ec:	0000 0000 0000 c07f 0000 0000 0000 c03f     ..............?.
  4042fc:	0000 0000 0000 c01f 0000 0000 0000 c00f     ................
  40430c:	0000 0000 0000 c007 0000 0000 0000 c003     ................
  40431c:	0000 0000 0000 c001 0000 0000 0000 c000     ................
	...

0040435c <eink_Kanban1>:
  40435c:	ff1f ffff 00fe ff01 0ffc ffff ffff ff1f     ................
  40436c:	ffff 00fe ff01 0ffc ffff ffff ff1f ffff     ................
  40437c:	00fe ff01 0ffc ffff ffff ff1f ffff 00fe     ................
  40438c:	ff01 0ffc ffff ffff ff1f ffff 00fe ff01     ................
  40439c:	0ffc ffff ffff 001f 0000 0f3e f0c1 0f7c     ..........>...|.
  4043ac:	0080 1f00 001f 0000 0f3e f0c1 0f7c 0080     ........>...|...
  4043bc:	1f00 001f 0000 0f3e f0c1 0f7c 0080 1f00     ......>...|.....
  4043cc:	001f 0000 0f3e f0c1 0f7c 0080 1f00 001f     ....>...|.......
  4043dc:	0000 0f3e f0c1 0f7c 0080 1f00 071f f8ff     ..>...|.........
  4043ec:	003e 0000 0f00 ff83 1ffc 071f f8ff 003e     >.............>.
  4043fc:	0000 0f00 ff83 1ffc 071f f8ff 003e 0000     ............>...
  40440c:	0f00 ff83 1ffc 071f f8ff 003e 0000 0f00     ..........>.....
  40441c:	ff83 1ffc 071f f8ff 003e 0000 0f00 ff83     ........>.......
  40442c:	1ffc 071f f8ff 003e 0000 0f00 ff83 1ffc     ......>.........
  40443c:	071f f8ff 0f3e f0ff 0f00 ff83 1ffc 071f     ....>...........
  40444c:	f8ff 0f3e f0ff 0f00 ff83 1ffc 071f f8ff     ..>.............
  40445c:	0f3e f0ff 0f00 ff83 1ffc 071f f8ff 0f3e     >.............>.
  40446c:	f0ff 0f00 ff83 1ffc 071f f8ff 0f3e f0ff     ............>...
  40447c:	0f00 ff83 1ffc 071f f8ff 0f3e ffff 0f80     ..........>.....
  40448c:	ff83 1ffc 071f f8ff 0f3e ffff 0f80 ff83     ........>.......
  40449c:	1ffc 071f f8ff 0f3e ffff 0f80 ff83 1ffc     ......>.........
  4044ac:	071f f8ff 0f3e ffff 0f80 ff83 1ffc 071f     ....>...........
  4044bc:	f8ff 0f3e ffff 0f80 ff83 1ffc 001f 0000     ..>.............
  4044cc:	003e 003e 0f7c 0080 1f00 001f 0000 003e     >.>.|.........>.
  4044dc:	003e 0f7c 0080 1f00 001f 0000 003e 003e     >.|.........>.>.
  4044ec:	0f7c 0080 1f00 001f 0000 003e 003e 0f7c     |.........>.>.|.
  4044fc:	0080 1f00 001f 0000 003e 003e 0f7c 0080     ........>.>.|...
  40450c:	1f00 ff1f ffff 0ffe f0c1 0f7c ffff ffff     ..........|.....
  40451c:	ff1f ffff 0ffe f0c1 0f7c ffff ffff ff1f     ........|.......
  40452c:	ffff 0ffe f0c1 0f7c ffff ffff ff1f ffff     ......|.........
  40453c:	0ffe f0c1 0f7c ffff ffff ff1f ffff 0ffe     ....|...........
  40454c:	f0c1 0f7c ffff ffff 0000 0000 0000 ff01     ..|.............
  40455c:	00fc 0000 0000 0000 0000 0000 ff01 00fc     ................
	...
  404574:	0000 ff01 00fc 0000 0000 0000 0000 0000     ................
  404584:	ff01 00fc 0000 0000 0000 0000 0000 ff01     ................
  404594:	00fc 0000 0000 0000 0000 0000 ff01 00fc     ................
  4045a4:	0000 0000 f81f 0700 ffff 00c0 0f00 ff83     ................
  4045b4:	0000 f81f 0700 ffff 00c0 0f00 ff83 0000     ................
  4045c4:	f81f 0700 ffff 00c0 0f00 ff83 0000 f81f     ................
  4045d4:	0700 ffff 00c0 0f00 ff83 0000 f81f 0700     ................
  4045e4:	ffff 00c0 0f00 ff83 0000 f81f 073f f0ff     ............?...
  4045f4:	ff01 f0ff 1f00 ffff f81f 073f f0ff ff01     ..........?.....
  404604:	f0ff 1f00 ffff f81f 073f f0ff ff01 f0ff     ........?.......
  404614:	1f00 ffff f81f 073f f0ff ff01 f0ff 1f00     ......?.........
  404624:	ffff f81f 073f f0ff ff01 f0ff 1f00 ffff     ....?...........
  404634:	ff1f 07ff ffc1 f0ff ff03 ffff 1f00 ff1f     ................
  404644:	07ff ffc1 f0ff ff03 ffff 1f00 ff1f 07ff     ................
  404654:	ffc1 f0ff ff03 ffff 1f00 ff1f 07ff ffc1     ................
  404664:	f0ff ff03 ffff 1f00 ff1f 07ff ffc1 f0ff     ................
  404674:	ff03 ffff 1f00 001f f800 ff3f 00c0 0000     ..........?.....
  404684:	1f00 ff03 001f f800 ff3f 00c0 0000 1f00     ........?.......
  404694:	ff03 001f f800 ff3f 00c0 0000 1f00 ff03     ......?.........
  4046a4:	001f f800 ff3f 00c0 0000 1f00 ff03 001f     ....?...........
  4046b4:	f800 ff3f 00c0 0000 1f00 ff03 0000 073f     ..?...........?.
  4046c4:	0ffe ffff ffff e0ff 1f00 0000 073f 0ffe     ............?...
  4046d4:	ffff ffff e0ff 1f00 0000 073f 0ffe ffff     ..........?.....
  4046e4:	ffff e0ff 1f00 0000 073f 0ffe ffff ffff     ........?.......
  4046f4:	e0ff 1f00 0000 073f 0ffe ffff ffff e0ff     ......?.........
  404704:	1f00 0000 073f 0ffe ffff ffff e0ff 1f00     ....?...........
  404714:	0700 00ff 0f3e ffc1 0080 0000 0000 0700     ....>...........
  404724:	00ff 0f3e ffc1 0080 0000 0000 0700 00ff     ..>.............
  404734:	0f3e ffc1 0080 0000 0000 0700 00ff 0f3e     >.............>.
  404744:	ffc1 0080 0000 0000 0700 00ff 0f3e ffc1     ............>...
  404754:	0080 0000 0000 0700 00c0 0f3e 00c0 0f00     ..........>.....
  404764:	ffff ffff 0700 00c0 0f3e 00c0 0f00 ffff     ........>.......
  404774:	ffff 0700 00c0 0f3e 00c0 0f00 ffff ffff     ......>.........
  404784:	0700 00c0 0f3e 00c0 0f00 ffff ffff 0700     ....>...........
  404794:	00c0 0f3e 00c0 0f00 ffff ffff ff1f f8ff     ..>.............
  4047a4:	0000 f03f 0f00 0080 1f00 ff1f f8ff 0000     ..?.............
  4047b4:	f03f 0f00 0080 1f00 ff1f f8ff 0000 f03f     ?.............?.
  4047c4:	0f00 0080 1f00 ff1f f8ff 0000 f03f 0f00     ............?...
  4047d4:	0080 1f00 ff1f f8ff 0000 f03f 0f00 0080     ..........?.....
  4047e4:	1f00 0000 f83f f001 ff3f 0ffc ff83 1ffc     ....?...?.......
  4047f4:	0000 f83f f001 ff3f 0ffc ff83 1ffc 0000     ..?...?.........
  404804:	f83f f001 ff3f 0ffc ff83 1ffc 0000 f83f     ?...?.........?.
  404814:	f001 ff3f 0ffc ff83 1ffc 0000 f83f f001     ..?.........?...
  404824:	ff3f 0ffc ff83 1ffc ff1f 00c0 0000 0000     ?...............
  404834:	0f7c ff83 1ffc ff1f 00c0 0000 0000 0f7c     |.............|.
  404844:	ff83 1ffc ff1f 00c0 0000 0000 0f7c ff83     ............|...
  404854:	1ffc ff1f 00c0 0000 0000 0f7c ff83 1ffc     ..........|.....
  404864:	ff1f 00c0 0000 0000 0f7c ff83 1ffc ff1f     ........|.......
  404874:	00c0 0000 0000 0f7c ff83 1ffc f81f ff3f     ......|.......?.
  404884:	ffc1 ffff 0f80 ff83 1ffc f81f ff3f ffc1     ............?...
  404894:	ffff 0f80 ff83 1ffc f81f ff3f ffc1 ffff     ..........?.....
  4048a4:	0f80 ff83 1ffc f81f ff3f ffc1 ffff 0f80     ........?.......
  4048b4:	ff83 1ffc f81f ff3f ffc1 ffff 0f80 ff83     ......?.........
  4048c4:	1ffc 0700 00c0 0f3e 00fe 0f00 0080 1f00     ......>.........
  4048d4:	0700 00c0 0f3e 00fe 0f00 0080 1f00 0700     ....>...........
  4048e4:	00c0 0f3e 00fe 0f00 0080 1f00 0700 00c0     ..>.............
  4048f4:	0f3e 00fe 0f00 0080 1f00 0700 00c0 0f3e     >.............>.
  404904:	00fe 0f00 0080 1f00 ff00 f8c0 f001 f03f     ..............?.
  404914:	0f00 ffff ffff ff00 f8c0 f001 f03f 0f00     ............?...
  404924:	ffff ffff ff00 f8c0 f001 f03f 0f00 ffff     ..........?.....
  404934:	ffff ff00 f8c0 f001 f03f 0f00 ffff ffff     ........?.......
  404944:	ff00 f8c0 f001 f03f 0f00 ffff ffff 0000     ......?.........
	...

00404960 <eink_Kanban2>:
  404960:	ffff ffff ffff ffff 0000 0000 ffff ffff     ................
	...
  404978:	ffff ffff 0000 0000 0000 0000 0000 0000     ................
  404988:	0000 0000 ffff ffff 0000 0000 ffff ffff     ................
	...
  4049a4:	ffff ffff ffff ffff 0000 0000 0000 0000     ................
  4049b4:	0000 0000 ffff ffff ffff ffff 0000 0000     ................
  4049c4:	ffff ffff ffff ffff ffff ffff 0000 0000     ................
	...
  4049dc:	ffff ffff 0000 0000 ffff ffff ffff ffff     ................
  4049ec:	0000 0000 ffff ffff ffff ffff ffff ffff     ................
  4049fc:	0000 0000 ffff ffff 0000 0000 0000 0000     ................
  404a0c:	0000 0000 ffff ffff 0000 0000 ffff ffff     ................
	...
  404a28:	ffff ffff ffff ffff 0000 0000 0000 0000     ................
  404a38:	0000 0000 ffff ffff 0000 0000 ffff ffff     ................
  404a48:	ffff ffff ffff ffff 0000 0000 ffff ffff     ................
  404a58:	ffff ffff 0000 0000 0000 0000 0000 0000     ................
  404a68:	ffff ffff ffff ffff 0000 0000 ffff ffff     ................
	...
  404a84:	ffff ffff 0000 0000 0000 0000 0000 0000     ................
  404a94:	ffff ffff ffff ffff 0000 0000 ffff ffff     ................
  404aa4:	ffff ffff ffff ffff 0000 0000 0000 0000     ................
  404ab4:	ffff ffff 0000 0000 0000 0000 ffff ffff     ................
  404ac4:	ffff ffff 0000 0000 ffff ffff ffff ffff     ................
  404ad4:	ffff ffff 0000 0000 0000 0000 ffff ffff     ................
	...
  404aec:	ffff ffff 0000 0000 ffff ffff ffff ffff     ................
  404afc:	0000 0000 ffff ffff ffff ffff ffff ffff     ................
	...
  404b18:	ffff ffff 0000 0000 0000 0000 ffff ffff     ................
  404b28:	ffff ffff ffff ffff 0000 0000 0000 0000     ................
  404b38:	ffff ffff ffff ffff 0000 0000 ffff ffff     ................
  404b48:	ffff ffff ffff ffff 0000 0000 0000 0000     ................
  404b58:	ffff ffff 0000 0000 ffff ffff ffff ffff     ................
	...
  404b70:	ffff ffff 0000 0000 0000 0000 0000 0000     ................
  404b80:	ffff ffff 0000 0000 ffff ffff ffff ffff     ................
	...
  404b9c:	ffff ffff 0000 0000 0000 0000 ffff ffff     ................
  404bac:	ffff ffff 0000 0000 ffff ffff ffff ffff     ................
  404bbc:	ffff ffff 0000 0000 0000 0000 ffff ffff     ................
  404bcc:	0000 0000 ffff ffff ffff ffff ffff ffff     ................
  404bdc:	0000 0000 ffff ffff ffff ffff 0000 0000     ................
	...
  404bf4:	ffff ffff ffff ffff 0000 0000 ffff ffff     ................
  404c04:	ffff ffff ffff ffff 0000 0000 ffff ffff     ................
  404c14:	ffff ffff ffff ffff 0000 0000 ffff ffff     ................
  404c24:	ffff ffff 0000 0000 ffff ffff ffff ffff     ................
  404c34:	ffff ffff 0000 0000 0000 0000 0000 0000     ................
  404c44:	ffff ffff 0000 0000 ffff ffff 0000 0000     ................
  404c54:	0000 0000 ffff ffff ffff ffff 0000 0000     ................
  404c64:	ffff ffff ffff ffff ffff ffff 0000 0000     ................
  404c74:	0000 0000 ffff ffff ffff ffff 0000 0000     ................
	...
  404c8c:	ffff ffff ffff ffff ffff ffff 0000 0000     ................
  404c9c:	ffff ffff 0000 0000 ffff ffff ffff ffff     ................
  404cac:	0000 0000                                   ....

00404cb0 <eink_Kanban3>:
  404cb0:	ff01 ffff ffff ffff ffff ffff ffff ffff     ................
  404cc0:	ffff ffff ff01 ffff ffff ffff ffff ffff     ................
  404cd0:	ffff ffff ffff ffff ff01 ffff ffff ffff     ................
  404ce0:	ffff ffff ffff ffff ffff ffff ff01 ffff     ................
  404cf0:	ffff ffff ffff ffff ffff ffff ffff ffff     ................
  404d00:	ff01 ffff ffff ffff ffff ffff ffff ffff     ................
  404d10:	ffff ffff ff01 c183 78f0 003e 3e00 ff0f     .........x>..>..
  404d20:	1fc0 c1ff f8e0 0000 ff01 c183 78f0 003e     .............x>.
  404d30:	3e00 ff0f 1fc0 c1ff f8e0 0000 ff01 c183     .>..............
  404d40:	78f0 003e 3e00 ff0f 1fc0 c1ff f8e0 0000     .x>..>..........
  404d50:	ff01 c183 78f0 003e 3e00 ff0f 1fc0 c1ff     .....x>..>......
  404d60:	f8e0 0000 ff01 c183 78f0 003e 3e00 ff0f     .........x>..>..
  404d70:	1fc0 c1ff f8e0 0000 f001 c003 0000 ff01     ................
  404d80:	c187 f8ff e001 fe07 ff00 1fc0 f001 c003     ................
  404d90:	0000 ff01 c187 f8ff e001 fe07 ff00 1fc0     ................
  404da0:	f001 c003 0000 ff01 c187 f8ff e001 fe07     ................
  404db0:	ff00 1fc0 f001 c003 0000 ff01 c187 f8ff     ................
  404dc0:	e001 fe07 ff00 1fc0 f001 3e00 f80f 0f3e     ...........>..>.
  404dd0:	3e80 000f 1f3e c107 f8ff e03f f001 3e00     .>..>.....?....>
  404de0:	f80f 0f3e 3e80 000f 1f3e c107 f8ff e03f     ..>..>..>.....?.
  404df0:	f001 3e00 f80f 0f3e 3e80 000f 1f3e c107     ...>..>..>..>...
  404e00:	f8ff e03f f001 3e00 f80f 0f3e 3e80 000f     ..?....>..>..>..
  404e10:	1f3e c107 f8ff e03f f001 3e00 f80f 0f3e     >.....?....>..>.
  404e20:	3e80 000f 1f3e c107 f8ff e03f ff01 fe83     .>..>.....?.....
  404e30:	800f f001 c17f 07ff 00fe c1ff ffe0 ffff     ................
  404e40:	ff01 fe83 800f f001 c17f 07ff 00fe c1ff     ................
  404e50:	ffe0 ffff ff01 fe83 800f f001 c17f 07ff     ................
  404e60:	00fe c1ff ffe0 ffff ff01 fe83 800f f001     ................
  404e70:	c17f 07ff 00fe c1ff ffe0 ffff ff01 fe83     ................
  404e80:	800f f001 c17f 07ff 00fe c1ff ffe0 ffff     ................
  404e90:	ff01 c083 800f f001 3e78 000f 003e feff     ........x>..>...
  404ea0:	ff1f 00fc ff01 c083 800f f001 3e78 000f     ............x>..
  404eb0:	003e feff ff1f 00fc ff01 c083 800f f001     >...............
  404ec0:	3e78 000f 003e feff ff1f 00fc ff01 c083     x>..>...........
  404ed0:	800f f001 3e78 000f 003e feff ff1f 00fc     ....x>..>.......
  404ee0:	ff01 c083 800f f001 3e78 000f 003e feff     ........x>..>...
  404ef0:	ff1f 00fc ff01 c0ff 7f00 ffc1 ff87 00ff     ................
  404f00:	1f3e ff07 f8ff ff03 ff01 c0ff 7f00 ffc1     >...............
  404f10:	ff87 00ff 1f3e ff07 f8ff ff03 ff01 c0ff     ....>...........
  404f20:	7f00 ffc1 ff87 00ff 1f3e ff07 f8ff ff03     ........>.......
  404f30:	ff01 c0ff 7f00 ffc1 ff87 00ff 1f3e ff07     ............>...
  404f40:	f8ff ff03 ff01 c183 f8ff ff3f 3e80 f80f     ..........?..>..
  404f50:	003e 0100 ffff 00c0 ff01 c183 f8ff ff3f     >.............?.
  404f60:	3e80 f80f 003e 0100 ffff 00c0 ff01 c183     .>..>...........
  404f70:	f8ff ff3f 3e80 f80f 003e 0100 ffff 00c0     ..?..>..>.......
  404f80:	ff01 c183 f8ff ff3f 3e80 f80f 003e 0100     ......?..>..>...
  404f90:	ffff 00c0 ff01 c183 f8ff ff3f 3e80 f80f     ..........?..>..
  404fa0:	003e 0100 ffff 00c0 f001 c07f ff0f f0ff     >...............
  404fb0:	c17f ffff 00fe 00f8 ff1f ffc3 f001 c07f     ................
  404fc0:	ff0f f0ff c17f ffff 00fe 00f8 ff1f ffc3     ................
  404fd0:	f001 c07f ff0f f0ff c17f ffff 00fe 00f8     ................
  404fe0:	ff1f ffc3 f001 c07f ff0f f0ff c17f ffff     ................
  404ff0:	00fe 00f8 ff1f ffc3 f001 c07f ff0f f0ff     ................
  405000:	c17f ffff 00fe 00f8 ff1f ffc3 ff01 0180     ................
  405010:	7ff0 00c0 c07f 000f 003e c1ff f8e0 e03f     ........>.....?.
  405020:	ff01 0180 7ff0 00c0 c07f 000f 003e c1ff     ............>...
  405030:	f8e0 e03f ff01 0180 7ff0 00c0 c07f 000f     ..?.............
  405040:	003e c1ff f8e0 e03f ff01 0180 7ff0 00c0     >.....?.........
  405050:	c07f 000f 003e c1ff f8e0 e03f ff01 0180     ....>.....?.....
  405060:	7ff0 00c0 c07f 000f 003e c1ff f8e0 e03f     ........>.....?.
  405070:	ff01 c0ff 7f00 f0ff 0100 f8ff ff3f 3f00     ............?..?
  405080:	00e0 ff3f ff01 c0ff 7f00 f0ff 0100 f8ff     ..?.............
  405090:	ff3f 3f00 00e0 ff3f ff01 c0ff 7f00 f0ff     ?..?..?.........
  4050a0:	0100 f8ff ff3f 3f00 00e0 ff3f ff01 c0ff     ....?..?..?.....
  4050b0:	7f00 f0ff 0100 f8ff ff3f 3f00 00e0 ff3f     ........?..?..?.
  4050c0:	ff01 c0ff 7f00 f0ff 0100 f8ff ff3f 3f00     ............?..?
  4050d0:	00e0 ff3f f001 3e7c 870f ffff c087 070f     ..?...|>........
  4050e0:	e0ff c0ff f81f e003 f001 3e7c 870f ffff     ..........|>....
  4050f0:	c087 070f e0ff c0ff f81f e003 f001 3e7c     ..............|>
  405100:	870f ffff c087 070f e0ff c0ff f81f e003     ................
  405110:	f001 3e7c 870f ffff c087 070f e0ff c0ff     ..|>............
  405120:	f81f e003 ff01 c0ff 7f00 ffc1 01f8 07ff     ................
  405130:	e0c1 c107 f8e0 1f00 ff01 c0ff 7f00 ffc1     ................
  405140:	01f8 07ff e0c1 c107 f8e0 1f00 ff01 c0ff     ................
  405150:	7f00 ffc1 01f8 07ff e0c1 c107 f8e0 1f00     ................
  405160:	ff01 c0ff 7f00 ffc1 01f8 07ff e0c1 c107     ................
  405170:	f8e0 1f00 ff01 c0ff 7f00 ffc1 01f8 07ff     ................
  405180:	e0c1 c107 f8e0 1f00 ff01 3ffc ffff 0fc0     ...........?....
  405190:	0080 ff0f 00fe 0000 001f 003c ff01 3ffc     ..........<....?
  4051a0:	ffff 0fc0 0080 ff0f 00fe 0000 001f 003c     ..............<.
  4051b0:	ff01 3ffc ffff 0fc0 0080 ff0f 00fe 0000     ...?............
  4051c0:	001f 003c ff01 3ffc ffff 0fc0 0080 ff0f     ..<....?........
  4051d0:	00fe 0000 001f 003c ff01 3ffc ffff 0fc0     ......<....?....
  4051e0:	0080 ff0f 00fe 0000 001f 003c f001 007c     ..........<...|.
  4051f0:	ff0f 00fe 0100 f8ff ff3f 01f8 ffe0 ffc3     ........?.......
  405200:	f001 007c ff0f 00fe 0100 f8ff ff3f 01f8     ..|.........?...
  405210:	ffe0 ffc3 f001 007c ff0f 00fe 0100 f8ff     ......|.........
  405220:	ff3f 01f8 ffe0 ffc3 f001 007c ff0f 00fe     ?.........|.....
  405230:	0100 f8ff ff3f 01f8 ffe0 ffc3 f001 007c     ....?.........|.
  405240:	ff0f 00fe 0100 f8ff ff3f 01f8 ffe0 ffc3     ........?.......
  405250:	f001 3e7c 870f f0c1 3e78 070f e0c1 3ef8     ..|>....x>.....>
  405260:	071f e0c3 f001 3e7c 870f f0c1 3e78 070f     ......|>....x>..
  405270:	e0c1 3ef8 071f e0c3 f001 3e7c 870f f0c1     ...>......|>....
  405280:	3e78 070f e0c1 3ef8 071f e0c3 f001 3e7c     x>.....>......|>
  405290:	870f f0c1 3e78 070f e0c1 3ef8 071f e0c3     ....x>.....>....
  4052a0:	ff01 ffff ffff ffff ffff ffff ffff ffff     ................
  4052b0:	ffff ffff ff01 ffff ffff ffff ffff ffff     ................
  4052c0:	ffff ffff ffff ffff ff01 ffff ffff ffff     ................
  4052d0:	ffff ffff ffff ffff ffff ffff ff01 ffff     ................
  4052e0:	ffff ffff ffff ffff ffff ffff ffff ffff     ................
  4052f0:	ff01 ffff ffff ffff ffff ffff ffff ffff     ................
  405300:	ffff ffff ff01 3ffc f8ff 0f00 c087 ff0f     .......?........
  405310:	00c0 c0ff 0700 00fc ff01 3ffc f8ff 0f00     ...........?....
  405320:	c087 ff0f 00c0 c0ff 0700 00fc ff01 3ffc     ...............?
  405330:	f8ff 0f00 c087 ff0f 00c0 c0ff 0700 00fc     ................
  405340:	ff01 3ffc f8ff 0f00 c087 ff0f 00c0 c0ff     ...?............
  405350:	0700 00fc ff01 3ffc f8ff 0f00 c087 ff0f     .......?........
  405360:	00c0 c0ff 0700 00fc f001 ff7f 00f0 f001     ................
  405370:	c107 ffff e0c1 c0ff ff1f ffff f001 ff7f     ................
  405380:	00f0 f001 c107 ffff e0c1 c0ff ff1f ffff     ................
  405390:	f001 ff7f 00f0 f001 c107 ffff e0c1 c0ff     ................
  4053a0:	ff1f ffff f001 ff7f 00f0 f001 c107 ffff     ................
  4053b0:	e0c1 c0ff ff1f ffff f001 ff7f 00f0 f001     ................
  4053c0:	c107 ffff e0c1 c0ff ff1f ffff f001 3e00     ...............>
  4053d0:	7f00 0ffe fe87 070f ffff 01f8 07e0 00fc     ................
  4053e0:	f001 3e00 7f00 0ffe fe87 070f ffff 01f8     ...>............
  4053f0:	07e0 00fc f001 3e00 7f00 0ffe fe87 070f     .......>........
  405400:	ffff 01f8 07e0 00fc f001 3e00 7f00 0ffe     ...........>....
  405410:	fe87 070f ffff 01f8 07e0 00fc f001 c103     ................
  405420:	78f0 0f00 ffff f8ff 0000 00f8 f81f 1f3c     .x............<.
  405430:	f001 c103 78f0 0f00 ffff f8ff 0000 00f8     .....x..........
  405440:	f81f 1f3c f001 c103 78f0 0f00 ffff f8ff     ..<......x......
  405450:	0000 00f8 f81f 1f3c f001 c103 78f0 0f00     ......<......x..
  405460:	ffff f8ff 0000 00f8 f81f 1f3c f001 c103     ..........<.....
  405470:	78f0 0f00 ffff f8ff 0000 00f8 f81f 1f3c     .x............<.
  405480:	f001 007c 870f ffc1 00f8 ff0f e0ff c1ff     ..|.............
  405490:	00e0 003c f001 007c 870f ffc1 00f8 ff0f     ..<...|.........
  4054a0:	e0ff c1ff 00e0 003c f001 007c 870f ffc1     ......<...|.....
  4054b0:	00f8 ff0f e0ff c1ff 00e0 003c f001 007c     ..........<...|.
  4054c0:	870f ffc1 00f8 ff0f e0ff c1ff 00e0 003c     ..............<.
  4054d0:	f001 007c 870f ffc1 00f8 ff0f e0ff c1ff     ..|.............
  4054e0:	00e0 003c ff01 3f80 87ff 0fc0 0180 ffff     ..<....?........
  4054f0:	e0c1 fe07 0000 ff03 ff01 3f80 87ff 0fc0     ...........?....
  405500:	0180 ffff e0c1 fe07 0000 ff03 ff01 3f80     ...............?
  405510:	87ff 0fc0 0180 ffff e0c1 fe07 0000 ff03     ................
  405520:	ff01 3f80 87ff 0fc0 0180 ffff e0c1 fe07     ...?............
  405530:	0000 ff03 ff01 3f80 87ff 0fc0 0180 ffff     .......?........
  405540:	e0c1 fe07 0000 ff03 ff01 c183 7ff0 00c0     ................
  405550:	fe07 070f ffff fe07 f800 003c ff01 c183     ..........<.....
  405560:	7ff0 00c0 fe07 070f ffff fe07 f800 003c     ..............<.
  405570:	ff01 c183 7ff0 00c0 fe07 070f ffff fe07     ................
  405580:	f800 003c ff01 c183 7ff0 00c0 fe07 070f     ..<.............
  405590:	ffff fe07 f800 003c ff01 c183 7ff0 00c0     ......<.........
  4055a0:	fe07 070f ffff fe07 f800 003c f001 fe7f     ..........<.....
  4055b0:	f80f 0000 ff7f 07ff ffc1 0100 00e0 1f00     ................
  4055c0:	f001 fe7f f80f 0000 ff7f 07ff ffc1 0100     ................
  4055d0:	00e0 1f00 f001 fe7f f80f 0000 ff7f 07ff     ................
  4055e0:	ffc1 0100 00e0 1f00 f001 fe7f f80f 0000     ................
  4055f0:	ff7f 07ff ffc1 0100 00e0 1f00 ff01 0080     ................
  405600:	7800 ff01 c087 f80f 1f00 0000 ff00 00c0     .x..............
  405610:	ff01 0080 7800 ff01 c087 f80f 1f00 0000     .....x..........
  405620:	ff00 00c0 ff01 0080 7800 ff01 c087 f80f     .........x......
  405630:	1f00 0000 ff00 00c0 ff01 0080 7800 ff01     .............x..
  405640:	c087 f80f 1f00 0000 ff00 00c0 ff01 0080     ................
  405650:	7800 ff01 c087 f80f 1f00 0000 ff00 00c0     .x..............
  405660:	ff01 3f80 78f0 ff3f c1ff f8ff 003e fe07     ...?.x?.....>...
  405670:	001f ff3f ff01 3f80 78f0 ff3f c1ff f8ff     ..?....?.x?.....
  405680:	003e fe07 001f ff3f ff01 3f80 78f0 ff3f     >.....?....?.x?.
  405690:	c1ff f8ff 003e fe07 001f ff3f ff01 3f80     ....>.....?....?
  4056a0:	78f0 ff3f c1ff f8ff 003e fe07 001f ff3f     .x?.....>.....?.
  4056b0:	ff01 3f80 78f0 ff3f c1ff f8ff 003e fe07     ...?.x?.....>...
  4056c0:	001f ff3f f001 fe03 7800 0f00 00f8 000f     ..?......x......
  4056d0:	ff3f c1ff f8e0 0000 f001 fe03 7800 0f00     ?............x..
  4056e0:	00f8 000f ff3f c1ff f8e0 0000 f001 fe03     ....?...........
  4056f0:	7800 0f00 00f8 000f ff3f c1ff f8e0 0000     .x......?.......
  405700:	f001 fe03 7800 0f00 00f8 000f ff3f c1ff     .....x......?...
  405710:	f8e0 0000 f001 fe03 7800 0f00 00f8 000f     .........x......
  405720:	ff3f c1ff f8e0 0000 f001 c07f 7f00 f0ff     ?...............
  405730:	3f00 00ff 1f00 3ff8 f8e0 ff03 f001 c07f     .?.....?........
  405740:	7f00 f0ff 3f00 00ff 1f00 3ff8 f8e0 ff03     .....?.....?....
  405750:	f001 c07f 7f00 f0ff 3f00 00ff 1f00 3ff8     .........?.....?
  405760:	f8e0 ff03 f001 c07f 7f00 f0ff 3f00 00ff     .............?..
  405770:	1f00 3ff8 f8e0 ff03 f001 3e00 0000 0f00     ...?.......>....
  405780:	feff ff0f e0c1 ffff ffff 00c0 f001 3e00     ...............>
  405790:	0000 0f00 feff ff0f e0c1 ffff ffff 00c0     ................
  4057a0:	f001 3e00 0000 0f00 feff ff0f e0c1 ffff     ...>............
  4057b0:	ffff 00c0 f001 3e00 0000 0f00 feff ff0f     .......>........
  4057c0:	e0c1 ffff ffff 00c0 f001 3e00 0000 0f00     ...........>....
  4057d0:	feff ff0f e0c1 ffff ffff 00c0 f001 0100     ................
  4057e0:	7ff0 f0c1 0100 ffff 00fe 3ff8 f8e0 1f00     ...........?....
  4057f0:	f001 0100 7ff0 f0c1 0100 ffff 00fe 3ff8     ...............?
  405800:	f8e0 1f00 f001 0100 7ff0 f0c1 0100 ffff     ................
  405810:	00fe 3ff8 f8e0 1f00 f001 0100 7ff0 f0c1     ...?............
  405820:	0100 ffff 00fe 3ff8 f8e0 1f00 f001 0100     .......?........
  405830:	7ff0 f0c1 0100 ffff 00fe 3ff8 f8e0 1f00     ...........?....
  405840:	f001 3e7c 870f f0c1 3e78 070f e0c1 3ef8     ..|>....x>.....>
  405850:	071f e0c3 f001 3e7c 870f f0c1 3e78 070f     ......|>....x>..
  405860:	e0c1 3ef8 071f e0c3 f001 3e7c 870f f0c1     ...>......|>....
  405870:	3e78 070f e0c1 3ef8 071f e0c3 f001 3e7c     x>.....>......|>
  405880:	870f f0c1 3e78 070f e0c1 3ef8 071f e0c3     ....x>.....>....
  405890:	f001 3e7c 870f f0c1 3e78 070f e0c1 3ef8     ..|>....x>.....>
  4058a0:	071f e0c3                                   ....

004058a4 <eink_ShippingBarcode>:
	...
  4058ac:	0000 ffff ffff ffff ffff ffff ffff ffff     ................
  4058bc:	ffff ffff ffff 0000 0000 0000 0000 0000     ................
  4058cc:	ffff ffff ffff ffff ffff 0000 0000 0000     ................
	...
  4058e8:	0000 ffff ffff ffff ffff ffff 0000 0000     ................
	...
  40591c:	ffff ffff ffff ffff ffff 0000 0000 0000     ................
	...
  40594c:	0000 ffff ffff ffff ffff ffff ffff ffff     ................
  40595c:	ffff ffff ffff 0000 0000 0000 0000 0000     ................
	...
  405974:	0000 ffff ffff ffff ffff ffff 0000 0000     ................
  405984:	0000 0000 0000 ffff ffff ffff ffff ffff     ................
	...
  4059bc:	ffff ffff ffff ffff ffff ffff ffff ffff     ................
  4059cc:	ffff ffff 0000 0000 0000 0000 0000 0000     ................
	...
  4059e4:	ffff ffff ffff ffff ffff 0000 0000 0000     ................
  4059f4:	0000 0000 ffff ffff ffff ffff ffff 0000     ................
	...
  405a28:	0000 ffff ffff ffff ffff ffff 0000 0000     ................
	...
  405a48:	ffff ffff ffff ffff ffff ffff ffff ffff     ................
  405a58:	ffff ffff 0000 0000 0000 0000 0000 ffff     ................
  405a68:	ffff ffff ffff ffff 0000 0000 0000 0000     ................
	...
  405a84:	ffff ffff ffff ffff ffff ffff ffff ffff     ................
  405a94:	ffff ffff ffff ffff ffff ffff ffff 0000     ................
	...
  405aac:	ffff ffff ffff ffff ffff ffff ffff ffff     ................
  405abc:	ffff ffff 0000 0000 0000 0000 0000 0000     ................
	...
  405ad4:	ffff ffff ffff ffff ffff 0000 0000 0000     ................
	...
  405af0:	0000 ffff ffff ffff ffff ffff ffff ffff     ................
  405b00:	ffff ffff ffff ffff ffff ffff ffff ffff     ................
	...
  405b24:	ffff ffff ffff ffff ffff ffff ffff ffff     ................
  405b34:	ffff ffff 0000 0000 0000 0000 0000 ffff     ................
  405b44:	ffff ffff ffff ffff ffff ffff ffff ffff     ................
  405b54:	ffff 0000 0000 0000 0000 0000 0000 0000     ................
  405b64:	0000 0000 0000 ffff ffff ffff ffff ffff     ................
	...
  405b88:	ffff ffff ffff ffff ffff ffff ffff ffff     ................
  405b98:	ffff ffff ffff ffff ffff ffff ffff 0000     ................
	...
  405bb0:	ffff ffff ffff ffff ffff ffff ffff ffff     ................
  405bc0:	ffff ffff 0000 0000 0000 0000 0000 0000     ................
	...
  405bd8:	ffff ffff ffff ffff ffff ffff ffff ffff     ................
  405be8:	ffff ffff ffff ffff ffff ffff ffff 0000     ................
	...
  405c00:	ffff ffff ffff ffff ffff 0000 0000 0000     ................
	...
  405c1c:	0000 ffff ffff ffff ffff ffff 0000 0000     ................
	...
  405c3c:	ffff ffff ffff ffff ffff ffff ffff ffff     ................
  405c4c:	ffff ffff ffff ffff ffff ffff ffff 0000     ................
	...
  405c64:	ffff ffff ffff ffff ffff ffff ffff ffff     ................
  405c74:	ffff ffff 0000 0000 0000 0000 0000 0000     ................
	...
  405c8c:	ffff ffff ffff ffff ffff 0000 0000 0000     ................
	...
  405ca8:	0000 ffff ffff ffff ffff ffff ffff ffff     ................
  405cb8:	ffff ffff ffff ffff ffff ffff ffff ffff     ................
	...
  405cd0:	0000 ffff ffff ffff ffff ffff ffff ffff     ................
  405ce0:	ffff ffff ffff 0000 0000 0000 0000 0000     ................
	...
  405cf8:	0000 ffff ffff ffff ffff ffff 0000 0000     ................
	...
  405d18:	ffff ffff ffff ffff ffff ffff ffff ffff     ................
  405d28:	ffff ffff ffff ffff ffff ffff ffff 0000     ................
	...
  405d40:	ffff ffff ffff ffff ffff ffff ffff ffff     ................
  405d50:	ffff ffff 0000 0000 0000 0000 0000 0000     ................
	...
  405d68:	ffff ffff ffff ffff ffff 0000 0000 0000     ................
	...
  405d84:	0000 ffff ffff ffff ffff ffff ffff ffff     ................
  405d94:	ffff ffff ffff ffff ffff ffff ffff ffff     ................
	...
  405dac:	0000 ffff ffff ffff ffff ffff ffff ffff     ................
  405dbc:	ffff ffff ffff 0000 0000 0000 0000 0000     ................
	...
  405dd4:	0000 ffff ffff ffff ffff ffff ffff ffff     ................
  405de4:	ffff ffff ffff 0000 0000 0000 0000 0000     ................
	...
  405dfc:	0000 ffff ffff ffff ffff ffff ffff ffff     ................
  405e0c:	ffff ffff ffff ffff ffff ffff ffff ffff     ................
	...
  405e30:	ffff ffff ffff ffff ffff 0000 0000 0000     ................
  405e40:	0000 0000 ffff ffff ffff ffff ffff ffff     ................
  405e50:	ffff ffff ffff ffff 0000 0000 0000 0000     ................
	...
  405e6c:	ffff ffff ffff ffff ffff 0000 0000 0000     ................
	...
  405e88:	0000 ffff ffff ffff ffff ffff ffff ffff     ................
  405e98:	ffff ffff ffff ffff ffff ffff ffff ffff     ................
	...
  405eb0:	0000 ffff ffff ffff ffff ffff ffff ffff     ................
  405ec0:	ffff ffff ffff 0000 0000 0000 0000 0000     ................
	...
  405ed8:	0000 ffff ffff ffff ffff ffff 0000 0000     ................
  405ee8:	0000 0000 0000 ffff ffff ffff ffff ffff     ................
  405ef8:	ffff ffff ffff ffff ffff ffff ffff ffff     ................
  405f08:	ffff ffff 0000 0000 0000 0000 0000 0000     ................
	...
  405f20:	ffff ffff ffff ffff ffff ffff ffff ffff     ................
  405f30:	ffff ffff 0000 0000 0000 0000 0000 0000     ................
	...
  405f48:	ffff ffff ffff ffff ffff 0000 0000 0000     ................
  405f58:	0000 0000 ffff ffff ffff ffff ffff ffff     ................
  405f68:	ffff ffff ffff ffff ffff ffff ffff ffff     ................
  405f78:	ffff 0000 0000 0000 0000 0000 0000 0000     ................
  405f88:	0000 0000 0000 ffff ffff ffff ffff ffff     ................
  405f98:	ffff ffff ffff ffff ffff ffff ffff ffff     ................
  405fa8:	ffff ffff 0000 0000 0000 0000 0000 ffff     ................
  405fb8:	ffff ffff ffff ffff ffff ffff ffff ffff     ................
  405fc8:	ffff 0000 0000 0000 0000 0000 ffff ffff     ................
  405fd8:	ffff ffff ffff ffff ffff ffff ffff ffff     ................
  405fe8:	ffff ffff ffff ffff ffff 0000 0000 0000     ................
  405ff8:	0000 0000 ffff ffff ffff ffff ffff ffff     ................
  406008:	ffff ffff ffff ffff 0000 0000 0000 0000     ................
	...
  406024:	ffff ffff ffff ffff ffff 0000 0000 0000     ................
  406034:	0000 0000 ffff ffff ffff ffff ffff ffff     ................
  406044:	ffff ffff ffff ffff ffff ffff ffff ffff     ................
  406054:	ffff 0000 0000 0000 0000 0000 0000 0000     ................
  406064:	0000 0000 0000 ffff ffff ffff ffff ffff     ................
  406074:	ffff ffff ffff ffff ffff 0000 0000 0000     ................
  406084:	0000 0000 ffff ffff ffff ffff ffff ffff     ................
  406094:	ffff ffff ffff ffff ffff ffff ffff ffff     ................
  4060a4:	ffff 0000 0000 0000 0000 0000 0000 0000     ................
  4060b4:	0000 0000 0000 ffff ffff ffff ffff ffff     ................
	...
  4060d8:	ffff ffff ffff ffff ffff ffff ffff ffff     ................
  4060e8:	ffff ffff ffff ffff ffff ffff ffff 0000     ................
	...
  406100:	ffff ffff ffff ffff ffff ffff ffff ffff     ................
  406110:	ffff ffff 0000 0000 0000 0000 0000 ffff     ................
  406120:	ffff ffff ffff ffff ffff ffff ffff ffff     ................
  406130:	ffff ffff ffff ffff ffff ffff 0000 0000     ................
  406140:	0000 0000 0000 ffff ffff ffff ffff ffff     ................
	...
  406164:	ffff ffff ffff ffff ffff ffff ffff ffff     ................
  406174:	ffff ffff ffff ffff ffff ffff ffff 0000     ................
	...
  406194:	0000 ffff ffff ffff ffff ffff ffff ffff     ................
  4061a4:	ffff ffff ffff 0000 0000 0000 0000 0000     ................
  4061b4:	ffff ffff ffff ffff ffff ffff ffff ffff     ................
  4061c4:	ffff ffff 0000 0000 0000 0000 0000 0000     ................
	...
  4061dc:	ffff ffff ffff ffff ffff 0000 0000 0000     ................
  4061ec:	0000 0000 ffff ffff ffff ffff ffff ffff     ................
  4061fc:	ffff ffff ffff ffff ffff ffff ffff ffff     ................
  40620c:	ffff 0000 0000 0000 0000 0000 0000 0000     ................
  40621c:	0000 0000 0000 ffff ffff ffff ffff ffff     ................
	...
  406234:	0000 ffff ffff ffff ffff ffff ffff ffff     ................
  406244:	ffff ffff ffff ffff ffff ffff ffff ffff     ................
  406254:	ffff ffff ffff ffff ffff 0000 0000 0000     ................
  406264:	0000 0000 ffff ffff ffff ffff ffff 0000     ................
	...
  406290:	ffff ffff ffff ffff ffff ffff ffff ffff     ................
  4062a0:	ffff ffff 0000 0000 0000 0000 0000 0000     ................
	...
  4062c0:	0000 ffff ffff ffff ffff ffff ffff ffff     ................
  4062d0:	ffff ffff ffff ffff ffff ffff ffff ffff     ................
	...
  4062e8:	0000 ffff ffff ffff ffff ffff 0000 0000     ................
  4062f8:	0000 0000 0000 ffff ffff ffff ffff ffff     ................
  406308:	ffff ffff ffff ffff ffff 0000               ............

00406314 <RobotoMedium_14pt_CharCount>:
  406314:	0505 0c06 0e0b 030c 0707 0b08 0604 0805     ................
  406324:	0b0b 0b0b 0b0b 0b0b 0b0b 0505 0b0a 090a     ................
  406334:	0d11 0c0c 0b0c 0d0a 050e 0c0b 110a 0d0d     ................
  406344:	0d0c 0b0c 0c0c 110c 0c0c 050b 0508 0908     ................
  406354:	0a06 0a0b 0a0b 0b07 050b 0a05 1105 0b0b     ................
  406364:	0b0b 0a07 0b06 0e09 090a 060a 0605 000d     ................

00406374 <RobotoMedium_14pt_Table>:
	...
  406384:	0000 0fe0 e006 067f 7fe0 0006 0000 0000     ................
  406394:	e000 0003 0060 0000 0000 03e0 6000 0000     ....`........`..
  4063a4:	0000 0000 0040 4400 0007 07fc 7fe0 e000     ....@..D........
  4063b4:	0045 4400 0007 07fc 7fe0 e000 0045 4400     E..D........E..D
	...
  4063cc:	0180 87c0 e003 070f 1c60 7806 1e18 1878     ........`..x..x.
  4063dc:	e01e 0730 f1c0 8003 01e1 0000 0000 0000     ..0.............
  4063ec:	03c0 e000 0007 0420 2002 0384 c7e0 8000     ...... .. ......
  4063fc:	0071 9c00 0001 03c6 2380 8004 0420 6000     q........#.. ..`
  40640c:	0006 03c0 0000 0000 0000 e000 c001 03f3     ................
  40641c:	3fe0 6007 061c 3c60 6006 0676 c7c0 8007     .?.`..`<.`v.....
  40642c:	0381 f000 0007 06f0 0000 0004 0000 03e0     ................
	...
  406444:	0070 ff00 c007 1f8f 00e0 3038 6000 0000     p.........80.`..
  406454:	0000 0000 0030 e060 3800 8fc0 001f 07ff     ....0.`..8......
  406464:	f800 0000 0000 0180 8000 0009 1d00 6000     ...............`
  406474:	0007 07e0 0000 001d 0900 8000 0001 0000     ................
  406484:	0000 0030 3000 0000 0030 ff00 0003 03ff     ..0..0..0.......
  406494:	3000 0000 0030 3000 0000 0030 0000 0000     .0..0..0..0.....
  4064a4:	2000 0000 003e 1e00 0000 0000 0000 3000     . ..>..........0
  4064b4:	0000 0030 3000 0000 0030 3000 0000 0000     ..0..0..0..0....
  4064c4:	0000 0006 0600 0000 0006 0000 0000 0008     ................
  4064d4:	0f00 e000 0003 007c 0f80 e000 0003 0060     ......|.......`.
	...
  4064ec:	00ff ffc0 e003 0781 0060 6006 0600 0060     ........`..`..`.
  4064fc:	e006 0781 ffc0 0003 00ff 0000 0000 0000     ................
  40650c:	0000 8000 0001 00c0 c000 0000 ffc0 e007     ................
  40651c:	07ff 0000 0000 0000 0000 0000 0000 0000     ................
  40652c:	8000 0603 03c0 e007 0780 c060 6006 0660     ..........`..``.
  40653c:	3860 e006 061f 0fc0 0006 0603 0000 0000     `8..............
  40654c:	0000 8180 c001 0381 00e0 6007 0618 1860     ...........`..`.
  40655c:	6006 0618 7fe0 c007 03f7 c300 0001 0000     .`..............
  40656c:	0000 0000 00e0 f800 0000 00dc c700 c000     ................
  40657c:	00c3 ffe0 e007 07ff ffe0 0007 00c0 0000     ................
  40658c:	0000 0000 8000 e000 039f 9fe0 6007 060c     .............`..
  40659c:	0c60 6006 060c 1c60 6007 03f8 f060 0001     `..`..`..`..`...
  4065ac:	0000 0000 0000 00fc ff00 c003 039f 0cc0     ................
  4065bc:	e006 060c 0c60 6006 071c f800 0003 01f0     ....`..`........
  4065cc:	0000 0000 0000 0060 6000 0400 0060 6007     ......`..`..`..`
  4065dc:	07c0 f060 6001 007c 0fe0 e000 0003 00e0     ..`..`|.........
	...
  4065f4:	01e3 f7c0 e003 073f 1860 6006 0618 1860     ......?.`..`..`.
  406604:	e006 073f f7c0 0003 01c3 0000 0000 0000     ..?.............
  406614:	0f80 c000 001f 38e0 6006 0630 3060 6006     .......8.`0.`0.`
  406624:	0330 f9c0 c003 00ff 3f00 0000 0000 0000     0........?......
  406634:	0000 0606 0600 0006 0606 0000 0000 2000     ............... 
  406644:	0600 003e 1e06 0600 0000 0000 0000 0000     ..>.............
  406654:	0070 7000 0000 0058 d800 0000 00cc 8c00     p..p..X.........
  406664:	0001 038e 0000 0000 0000 0000 0000 00cc     ................
  406674:	cc00 0000 00cc cc00 0000 00cc cc00 0000     ................
  406684:	00cc cc00 0000 0000 0000 0000 0000 8600     ................
  406694:	0003 018c 8c00 0001 00cc d800 0000 0058     ..............X.
  4066a4:	7000 0000 0070 0000 0000 0000 01c0 e000     .p..p...........
  4066b4:	0001 6060 6006 0678 3c60 e000 000f 07c0     ..``.`x.`<......
	...
  4066cc:	07f0 fe00 001f 3807 0180 8020 63e0 f840     .......8.. ..c@.
  4066dc:	4047 440c 0440 4044 4204 fc40 4063 64f8     G@.D@.D@.B@.c@.d
  4066ec:	0080 8004 0401 0700 0003 01fc 0000 0000     ................
  4066fc:	0000 8000 0007 07e0 fc00 8001 00ff c3e0     ................
  40670c:	e000 00c1 cfe0 0000 00ff f800 0001 07e0     ................
  40671c:	8000 0007 0000 0000 e000 07ff ffe0 e007     ................
  40672c:	07ff 1860 6006 0618 1860 6006 0618 3ce0     ..`..`..`..`...<
  40673c:	c007 03f7 e380 0001 0000 0000 0000 00ff     ................
  40674c:	ffc0 c003 0381 00e0 6006 0600 0060 6006     .........`..`..`
  40675c:	0600 00e0 c007 03c3 c380 0001 0000 0000     ................
  40676c:	e000 07ff ffe0 e007 07ff 0060 6006 0600     ..........`..`..
  40677c:	0060 e006 0700 81c0 8003 01ff ff00 0000     `...............
  40678c:	0000 0000 e000 07ff ffe0 e007 07ff 1860     ..............`.
  40679c:	6006 0618 1860 6006 0618 1860 6006 0600     .`..`..`..`..`..
  4067ac:	0000 0000 0000 ffe0 e007 07ff ffe0 6007     ...............`
  4067bc:	0018 1860 6000 0018 1860 6000 0018 0060     ..`..`..`..`..`.
  4067cc:	0000 0000 7f00 8000 01ff c3c0 e003 0700     ................
  4067dc:	0060 6006 0600 3060 e006 0630 f1c0 8007     `..`..`0..0.....
  4067ec:	03f1 f100 0001 0000 0000 e000 07ff ffe0     ................
  4067fc:	e007 07ff 1800 0000 0018 1800 0000 0018     ................
  40680c:	1800 0000 0018 ffe0 e007 07ff ffe0 0007     ................
	...
  406824:	ffe0 e007 07ff 0000 0000 0000 8000 0003     ................
  406834:	0380 0000 0007 0600 0000 0006 0700 ffe0     ................
  406844:	e003 03ff 0000 0000 0000 0000 e000 07ff     ................
  406854:	ffe0 e007 07ff 3800 0000 001e 7f00 8000     .......8........
  406864:	00f3 c1c0 e003 0780 0060 2006 0400 0000     ........`.. ....
  406874:	e000 07ff ffe0 e007 07ff 0000 0006 0600     ................
  406884:	0000 0006 0600 0000 0006 0600 0000 e000     ................
  406894:	07ff ffe0 e007 07ff 07e0 0000 003f f800     ............?...
  4068a4:	0000 03e0 8000 0003 03f0 7c00 8000 001f     ...........|....
  4068b4:	03e0 e000 07ff ffe0 0007 0000 0000 0000     ................
  4068c4:	0000 ffe0 e007 07ff 01e0 8000 0007 1e00     ................
  4068d4:	0000 003c f000 0000 03e0 ffe0 e007 07ff     ..<.............
  4068e4:	ffe0 0007 0000 0000 0000 00ff ff80 c001     ................
  4068f4:	03c3 00e0 6007 0600 0060 6006 0600 00e0     .....`..`..`....
  406904:	c007 0381 ff80 0001 00ff 0000 0000 0000     ................
  406914:	ffe0 e007 07ff ffe0 6007 0030 3060 6000     .........`0.`0.`
  406924:	0030 3060 e000 0038 1fc0 8000 000f 0000     0.`0..8.........
  406934:	0000 0000 ff00 8000 01ff 81c0 e003 0700     ................
  406944:	0060 6006 0600 0060 e006 0f00 c3c0 800f     `..`..`.........
  406954:	19ff ff00 0018 0000 0000 e000 07ff ffe0     ................
  406964:	e007 07ff 3060 6000 0030 3060 6000 00f0     ....`0.`0.`0.`..
  406974:	f8e0 c003 079f 0f80 0006 0400 0000 8000     ................
  406984:	0187 8fc0 e003 070c 1c60 6006 0618 1860     ........`..`..`.
  406994:	e006 0638 f1c0 c003 03e1 0000 6000 0000     ..8..........`..
  4069a4:	0060 6000 0000 0060 6000 0000 ffe0 e007     `..`..`..`......
  4069b4:	07ff 0060 6000 0000 0060 6000 0000 0000     ..`..`..`..`....
  4069c4:	0000 0000 ffe0 e001 03ff 8000 0007 0600     ................
  4069d4:	0000 0006 0600 0000 0006 0700 ffe0 e003     ................
  4069e4:	01ff 0000 2000 0000 01e0 e000 000f 7f00     ..... ..........
  4069f4:	0000 03f8 c000 0007 07c0 f800 0003 007f     ................
  406a04:	0fe0 e000 0001 0020 0000 0000 01e0 e000     ...... .........
  406a14:	003f ff00 0003 07e0 c000 0007 01fe 1fe0     ?...............
  406a24:	e000 0001 0fe0 0000 00fe e000 0007 07c0     ................
  406a34:	ff00 e007 003f 03e0 2000 0000 0020 6004     ....?.... .. ..`
  406a44:	0600 80e0 c007 03c3 ff80 0001 007e 7e00     ............~..~
  406a54:	8000 00ff c3c0 e003 0781 0060 2006 0400     ..........`.. ..
  406a64:	0020 e000 0000 03e0 8000 000f 3e00 0000      ............>..
  406a74:	07f8 fc00 0007 001f 07c0 e000 0001 0060     ..............`.
  406a84:	0000 0000 0000 6000 0700 8060 6007 07e0     .......`..`..`..
  406a94:	f060 6006 063c 1e60 e006 0607 03e0 e006     `..`<.`.........
  406aa4:	0600 0060 0006 0000 fff8 f83f 3fff 0018     ..`.......?..?..
  406ab4:	1830 3000 0020 e000 0000 07e0 0000 003f     0..0 .........?.
  406ac4:	f800 0000 07e0 0000 000f 0800 0018 1830     ..............0.
  406ad4:	3000 fff8 f83f 3fff 0000 0000 0008 0e00     .0..?..?........
  406ae4:	8000 000f 01e0 e000 0001 0f80 0000 000e     ................
  406af4:	0800 0000 1800 0000 0018 1800 0000 0018     ................
  406b04:	1800 0000 0018 1800 0000 0018 1800 0020     .............. .
  406b14:	2000 0000 0060 c000 0000 0080 0000 0000     . ..`...........
  406b24:	0000 0000 03c8 ec00 0007 0666 6600 0006     ..........f..f..
  406b34:	0666 6e00 0003 07fc f800 0007 0000 0000     f..n............
  406b44:	e000 07ff ffe0 e007 03ff 0600 0006 0606     ................
  406b54:	0600 0006 070e fc00 0003 01f8 0000 0000     ................
  406b64:	0000 f800 0001 03fc 0e00 0007 0606 0600     ................
  406b74:	0006 0606 1e00 0003 031c 0000 0000 0000     ................
  406b84:	f800 0001 03fc 0e00 0007 0606 0600 0006     ................
  406b94:	0606 ffe0 e003 07ff ffe0 0007 0000 0000     ................
  406ba4:	0000 01f8 fc00 0003 076e 6600 0006 0666     ........n..f..f.
  406bb4:	6600 0006 067c 7c00 0003 0000 0000 0000     .f..|..|........
  406bc4:	0006 ffc0 e007 07ff 06e0 6000 0006 0060     ...........`..`.
  406bd4:	0000 0000 f800 0031 73fc 0e00 0067 6606     ......1..s..g..f
  406be4:	0600 0066 6606 fc00 007f 3ffe fe00 000f     ..f..f.....?....
  406bf4:	0000 0000 e000 07ff ffe0 e007 07ff 0400     ................
  406c04:	0000 0006 0600 0000 07fe fc00 0007 07f8     ................
  406c14:	0000 0000 0000 fec0 c007 07fe fec0 0007     ................
  406c24:	0000 0000 c060 7ffe fec0 c03f 1ffe 0000     ....`.....?.....
  406c34:	0000 0000 ffe0 e007 07ff e000 0000 0070     ..............p.
  406c44:	f800 0000 03ce 8600 0007 0602 0000 0004     ................
  406c54:	0000 ffe0 e007 07ff ffe0 0007 0000 0000     ................
  406c64:	0000 07fe fe00 0007 07fe 0600 0000 0006     ................
  406c74:	0600 0000 07fe fc00 0007 07fc 0600 0000     ................
  406c84:	0006 0600 0000 07fe fc00 0007 07f8 0000     ................
  406c94:	0000 0000 fe00 0007 07fe fc00 0007 0006     ................
  406ca4:	0600 0000 0006 fe00 0007 07fc f800 0007     ................
  406cb4:	0000 0000 0000 01f8 fc00 0003 070e 0600     ................
  406cc4:	0006 0606 0600 0006 070e fc00 0003 01f8     ................
  406cd4:	0000 0000 0000 fe00 007f 7ffe fc00 007f     ................
  406ce4:	0606 0600 0006 0606 0e00 0007 03fc f800     ................
  406cf4:	0001 0000 0000 0000 01f8 fc00 0003 070e     ................
  406d04:	0600 0006 0606 0600 0006 7ffc fe00 007f     ................
  406d14:	7ffe 0000 0000 0000 fe00 0007 07fe fc00     ................
  406d24:	0007 0006 0600 0000 0006 0000 0000 0318     ................
  406d34:	3c00 0003 063e 6600 0006 0666 6e00 0006     .<..>..f..f..n..
  406d44:	03cc c800 0003 0000 0600 0000 0006 ff80     ................
  406d54:	8007 07ff 0600 0006 0606 0000 0000 01fe     ................
  406d64:	fe00 0003 07fe 0000 0006 0600 0000 0006     ................
  406d74:	07fe fe00 0007 07fe 0000 0000 0002 1e00     ................
  406d84:	0000 00fe e000 0007 0700 e000 0007 00fe     ................
  406d94:	1e00 0000 0002 0200 0000 003e fe00 0001     ..........>.....
  406da4:	07e0 c000 0007 01f8 3e00 0000 003e f800     .........>..>...
  406db4:	0001 0780 e000 0007 01fe 1e00 0000 0002     ................
  406dc4:	0200 0004 0606 8e00 0007 03fc f000 0000     ................
  406dd4:	01f8 9e00 0003 070e 0200 0004 0000 0200     ................
  406de4:	0000 601e fe00 0060 7ff0 0000 003f 07e0     ...`..`.....?...
  406df4:	fe00 0000 001e 0200 0000 0000 0600 0007     ................
  406e04:	0786 c600 0007 06e6 7e00 0006 061e 0e00     .........~......
  406e14:	0006 0606 0000 0000 0030 3000 c000 0fff     ........0..0....
  406e24:	cfe0 701f 3800 0010 0020 0000 0000 e000     ...p.8.. .......
  406e34:	3fff 0000 0000 0000 0010 7030 3800 cfe0     .?........0p.8..
  406e44:	c01f 0fff 3000 0000 0030 0000 0000 0060     .....0..0.....`.
  406e54:	7000 0000 0018 1800 0000 0018 3000 0000     .p...........0..
  406e64:	0060 6000 0000 0060 3800 0000 0018 0000     `..`..`..8......
  406e74:	0000 0000                                   ....

00406e78 <RobotoLight_24pt_CharCount>:
  406e78:	0708 1309 1812 0514 0a0a 120e 0906 0d08     ................
  406e88:	1212 1212 1212 1212 1212 0607 1210 0f11     ................
  406e98:	141d 1514 1215 1612 0917 1412 1c11 1617     ................
  406ea8:	1614 1314 1513 1d14 1314 0813 080d 0e0d     ................
  406eb8:	1109 1012 1112 120b 0712 1007 1c07 1212     ................
  406ec8:	1212 100b 120a 180f 0f10 0b10 0b07 0016     ................

00406ed8 <RobotoLight_24pt_Table>:
	...
  406f0c:	4000 0000 fffc 00e1 0000 4000 0000 0000     .@.........@....
	...
  406f2c:	0000 007c 0000 7c00 0000 0000 0000 0000     ..|....|........
  406f3c:	0000 0000 0000 007c 0000 7c00 0000 0000     ......|....|....
	...
  406f58:	0003 0000 0300 0000 0300 0003 0000 c303     ................
  406f68:	0000 0300 00ff 0000 0ff3 0000 3fc0 0003     .............?..
  406f78:	fc00 0303 0000 0304 0003 0000 0303 0000     ................
  406f88:	0300 00fb 0000 3fc3 0000 ff00 0003 f800     .......?........
  406f98:	030f 0000 033c 0003 0000 0303 0000 0300     ....<...........
  406fa8:	0003 0000 0003 0000 0000 0000 0000 0000     ................
  406fb8:	0000 0000 000e f000 3e03 0000 07f8 0070     .........>....p.
  406fc8:	0c00 600e 0000 0c0c 00e0 0400 c018 0000     ...`............
  406fd8:	1804 00c0 0400 c018 0007 3004 00c0 0400     ...........0....
  406fe8:	c030 0000 600c 0060 3c00 70e0 0000 c0f8     0....``..<.p....
  406ff8:	003f e000 1f80 0000 0000 0000 0000 0000     ?...............
	...
  407014:	03f8 0000 1c00 0007 0000 0c04 0000 0400     ................
  407024:	000c 0000 0c04 0030 0400 1c0c 0000 060c     ......0.........
  407034:	0006 f800 0383 0000 c0e0 0000 0000 0070     ..............p.
  407044:	0000 1800 0000 0000 1f0e 0000 c380 007f     ................
  407054:	c000 60c0 0000 6070 00c0 1000 c060 0000     ...`..p`....`...
  407064:	6000 00c0 0000 e0e0 0000 c000 0071 0000     .`..........q...
  407074:	3f80 0000 0000 0000 0000 0000 0000 0000     .?..............
	...
  40708c:	0000 001f 0000 3fc0 0000 e1f8 0070 fc00     .......?....p...
  40709c:	6033 0000 3e0c 00c0 0400 c01c 0000 3c04     3`...>.........<
  4070ac:	00c0 0400 c066 0000 c604 00c0 0c00 c183     ....f...........
  4070bc:	0000 01fc 0063 7800 7600 0000 0000 003c     ....c..x.v....<.
  4070cc:	0000 3c00 0000 8000 006f 0000 c3c0 0000     ...<....o.......
  4070dc:	0000 0080 0000 0000 0000 0000 0000 0000     ................
  4070ec:	0000 0000 007c 0000 0400 0000 0000 0000     ....|...........
	...
  407108:	0000 07fc 0000 ffc0 007f f000 f001 0001     ................
  407118:	001c 0700 0400 0000 001c 0000 3000 0000     .............0..
  407128:	0000 0060 0000 4000 0000 0000 0040 0000     ..`....@....@...
  407138:	6000 0000 0000 0038 0004 1c00 3c00 8000     .`....8......<..
  407148:	0007 01f0 01f0 c000 7fff 0000 fc00 0007     ................
	...
  407168:	0060 0000 6000 0000 0000 38c0 0000 c000     `....`.....8....
  407178:	001c 0000 0680 0000 fc00 0003 0000 03fc     ................
  407188:	0000 8000 000e 0000 18c0 0000 c000 0030     ..............0.
  407198:	0000 0060 0000 6000 0000 0000 0000 0000     ..`....`........
  4071a8:	0000 0000 0000 3000 0000 0000 0030 0000     .......0....0...
  4071b8:	3000 0000 0000 0030 0000 3000 0000 0000     .0....0....0....
  4071c8:	0030 0000 3000 0000 e000 3fff 0000 ffe0     0....0.....?....
  4071d8:	003f 0000 0030 0000 3000 0000 0000 0030     ?...0....0....0.
  4071e8:	0000 3000 0000 0000 0030 0000 3000 0000     ...0....0....0..
  4071f8:	0000 0030 0000 0000 0000 0000 0000 0000     ..0.............
  407208:	0000 0800 0000 e000 000f 0000 03e0 0000     ................
	...
  407224:	0000 6000 0000 0000 0060 0000 6000 0000     ...`....`....`..
  407234:	0000 0060 0000 6000 0000 0000 0060 0000     ..`....`....`...
  407244:	6000 0000 0000 0000 0000 0000 0000 0000     .`..............
  407254:	0000 0000 0000 0040 0000 e000 0000 0000     ......@.........
  407264:	00e0 0000 0000 0000 0000 0000 0000 0000     ................
  407274:	0000 0000 0200 0000 8000 0003 0000 01e0     ................
  407284:	0000 3c00 0000 8000 000f 0000 01e0 0000     ...<............
  407294:	7c00 0000 8000 000f 0000 01e0 0000 7c00     .|.............|
  4072a4:	0000 0000 000c 0000 0000 0000 0000 0000     ................
	...
  4072c0:	c000 07ff 0000 fff0 001f 3800 3800 0000     ...........8.8..
  4072d0:	000c 0070 0c00 e000 0000 0004 00c0 0400     ..p.............
  4072e0:	c000 0000 0004 00c0 0400 c000 0000 000c     ................
  4072f0:	00e0 0c00 6000 0000 0038 0038 f000 1fff     .....`..8.8.....
  407300:	0000 ffc0 0007 0000 0000 0000 0000 0000     ................
	...
  407320:	0030 0000 1800 0000 0000 0018 0000 1800     0...............
  407330:	0000 0000 000c 0000 0c00 0000 0000 fffc     ................
  407340:	00ff fc00 ffff 0000 0000 0000 0000 0000     ................
	...
  407374:	e000 c000 0000 00f0 00e0 1800 f000 0000     ................
  407384:	000c 00d8 0400 cc00 0000 0004 00c7 0400     ................
  407394:	c380 0000 c004 00c1 0400 c0e0 0000 700c     ...............p
  4073a4:	00c0 0c00 c018 0000 0ff8 00c0 f000 c003     ................
  4073b4:	0000 0000 00c0 0000 c000 0000 0000 0000     ................
	...
  4073cc:	0000 6000 1c00 0000 0078 003c 1c00 7000     ...`....x.<....p
  4073dc:	0000 000c 0060 0400 c018 0000 1804 00c0     ....`...........
  4073ec:	0400 c018 0000 1804 00c0 0400 c018 0000     ................
  4073fc:	3c04 00c0 0c00 603c 0000 673c 0070 f800     .<....<`..<gp...
  40740c:	3fc3 0000 80e0 000f 0000 0000 0000 0000     .?..............
	...
  407424:	0000 0006 0000 0780 0000 c000 0007 0000     ................
  407434:	0670 0000 3800 0006 0000 060e 0000 0380     p....8..........
  407444:	0006 c000 0601 0000 0070 0006 3800 0600     ........p....8..
  407454:	0000 000c 0006 fc00 ffff 0000 fffc 00ff     ................
  407464:	0000 0600 0000 0000 0006 0000 0600 0000     ................
	...
  407488:	0000 001c f800 3c0f 0000 0ffc 0070 0400     .......<....p...
  407498:	600c 0000 0604 00c0 0400 c006 0000 0604     .`..............
  4074a8:	00c0 0400 c006 0000 0604 00c0 0400 e00e     ................
  4074b8:	0000 1c04 0070 0400 3c78 0000 f004 001f     ....p...x<......
  4074c8:	0000 07c0 0000 0000 0000 0000 0000 0000     ................
  4074d8:	0000 0000 0000 03fc 0000 ff80 001f e000     ................
  4074e8:	3819 0000 0c70 0070 1800 600c 0000 061c     .8..p.p....`....
  4074f8:	00c0 0c00 c006 0000 060c 00c0 0400 c006     ................
  407508:	0000 0604 00c0 0400 600c 0000 1c00 0070     .........`....p.
  407518:	0000 3ff8 0000 e000 000f 0000 0000 0000     ...?............
	...
  407530:	0000 0004 0000 0400 0000 0000 0004 0000     ................
  407540:	0400 8000 0000 0004 00c0 0400 f000 0000     ................
  407550:	0004 003e 0400 0780 0000 e004 0001 0400     ..>.............
  407560:	0078 0000 1e04 0000 8400 0007 0000 00f4     x...............
  407570:	0000 3c00 0000 0000 000c 0000 0000 0000     ...<............
	...
  407590:	c000 1f80 0000 c3f8 003f 3c00 7067 0000     ........?..<gp..
  4075a0:	3c0c 0060 0c00 c01c 0000 1804 00c0 0400     .<`.............
  4075b0:	c018 0000 1804 00c0 0400 c018 0000 180c     ................
  4075c0:	00c0 0c00 603c 0000 663c 0070 f800 3fc3     ....<`..<fp....?
  4075d0:	0000 80e0 001f 0000 0000 0000 0000 0000     ................
	...
  4075e8:	0000 e000 000f 0000 3ff8 0000 1c00 0070     .........?....p.
  4075f8:	0000 600c 00c0 0400 c0c0 0000 c004 00c0     ...`............
  407608:	0400 c0c0 0000 c004 0060 0400 60c0 0000     ........`....`..
  407618:	600c 0030 1c00 3830 0000 3838 001f f000     .`0...08..88....
  407628:	07ff 0000 ff80 0000 0000 0000 0000 0000     ................
	...
  407644:	0000 4001 0000 0380 00e0 8000 e003 0000     ...@............
	...
  407664:	0000 0008 0100 0fe0 8000 e003 0003 0380     ................
	...
  407680:	0000 0020 0000 7000 0000 0000 0050 0000     .. ....p....P...
  407690:	d800 0000 0000 00d8 0000 8c00 0001 0000     ................
  4076a0:	018c 0000 0600 0003 0000 0306 0000 0200     ................
  4076b0:	0002 0000 0603 0000 0300 0006 8000 0c01     ................
	...
  4076d4:	0000 0c00 0003 0000 030c 0000 0c00 0003     ................
  4076e4:	0000 030c 0000 0c00 0003 0000 030c 0000     ................
  4076f4:	0c00 0003 0000 030c 0000 0c00 0003 0000     ................
  407704:	030c 0000 0c00 0003 0000 030c 0000 0c00     ................
  407714:	0003 0000 0000 0000 0000 0000 0000 0000     ................
	...
  407730:	0180 000c 0000 0603 0000 0300 0006 0000     ................
  407740:	0202 0000 0600 0003 0000 0306 0000 8c00     ................
  407750:	0001 0000 018c 0000 8800 0000 0000 00d8     ................
  407760:	0000 5000 0000 0000 0070 0000 7000 0000     ...P....p....p..
	...
  407784:	7000 0000 0000 003c 0000 0c00 0000 0000     .p....<.........
  407794:	0004 0000 0400 e180 0000 e004 00e1 0400     ................
  4077a4:	0030 0000 1804 0000 0c00 000c 0000 073c     0.............<.
  4077b4:	0000 f800 0003 0000 0000 0000 0000 0000     ................
	...
  4077d0:	f000 007f 0000 f07e 0001 0700 0780 c000     ......~.........
  4077e0:	0001 000e 00e0 1c00 7000 0000 0018 0030     .........p....0.
  4077f0:	3000 1800 3fc0 0030 f018 6071 1800 e038     .0...?0...q`..8.
  407800:	0060 0c0c 60c0 0c00 c00e 0060 060c 60c0     `....`....`....`
  407810:	0c00 6006 0060 060c 6030 0c00 1c06 0030     ...``...0`....0.
  407820:	fc0c 307f 1800 e01c 0020 0018 00c0 1800     ...0.... .......
  407830:	c000 0000 0030 00c0 6000 4000 0000 00c0     ....0....`.@....
  407840:	0070 8000 3c07 0000 fe00 000f 0000 0000     p....<..........
	...
  407858:	8000 0000 0000 00e0 0000 f800 0000 0000     ................
  407868:	001f 0000 07e0 0000 f800 0003 0000 031f     ................
  407878:	0000 03e0 0003 7800 0300 0000 001c 0003     .......x........
  407888:	1c00 0300 0000 00f8 0003 e000 0303 0000     ................
  407898:	1f00 0003 0000 03f8 0000 e000 0007 0000     ................
  4078a8:	1f00 0000 0000 00f8 0000 e000 0000 0000     ................
  4078b8:	0080 0000 0000 0000 0000 0000 0000 0000     ................
  4078c8:	0000 fffc 00ff fc00 ffff 0000 1804 00c0     ................
  4078d8:	0400 c018 0000 1804 00c0 0400 c018 0000     ................
  4078e8:	1804 00c0 0400 c018 0000 1804 00c0 0400     ................
  4078f8:	c018 0000 1c0c 00e0 1c00 6036 0000 67f8     ..........6`...g
  407908:	0070 f000 3fe3 0000 8000 000f 0000 0000     p....?..........
	...
  407928:	0000 01ff 0000 ffe0 000f f000 1e00 0000     ................
  407938:	0038 0038 1c00 7000 0000 000c 0060 0400     8.8....p....`...
  407948:	c000 0000 0004 00c0 0400 c000 0000 0004     ................
  407958:	00c0 0400 c000 0000 0004 00c0 0c00 6000     ...............`
  407968:	0000 001c 0070 3800 3800 0000 01f0 001f     ....p..8.8......
  407978:	c000 0701 0000 0000 0000 0000 0000 0000     ................
	...
  407994:	0000 fc00 ffff 0000 fffc 00ff 0400 c000     ................
  4079a4:	0000 0004 00c0 0400 c000 0000 0004 00c0     ................
  4079b4:	0400 c000 0000 0004 00c0 0400 c000 0000     ................
  4079c4:	000c 0060 0c00 6000 0000 001c 0070 3800     ..`....`....p..8
  4079d4:	3800 0000 00f0 001e c000 07ff 0000 ff00     .8..............
  4079e4:	0001 0000 0000 0000 0000 0000 0000 0000     ................
	...
  407a00:	fffc 00ff fc00 ffff 0000 1804 00c0 0400     ................
  407a10:	c018 0000 1804 00c0 0400 c018 0000 1804     ................
  407a20:	00c0 0400 c018 0000 1804 00c0 0400 c018     ................
  407a30:	0000 1804 00c0 0400 c018 0000 0004 00c0     ................
  407a40:	0400 c000 0000 0000 0000 0000 0000 0000     ................
	...
  407a58:	0000 fffc 00ff fc00 ffff 0000 1804 0000     ................
  407a68:	0400 0018 0000 1804 0000 0400 0018 0000     ................
  407a78:	1804 0000 0400 0018 0000 1804 0000 0400     ................
  407a88:	0018 0000 1804 0000 0400 0018 0000 0004     ................
  407a98:	0000 0400 0000 0000 0000 0000 0000 0000     ................
	...
  407ab0:	00fe 0000 ffe0 0007 f000 1f01 0000 0038     ..............8.
  407ac0:	0038 1c00 7000 0000 000c 0060 0400 e000     8....p....`.....
  407ad0:	0000 0004 00c0 0400 c000 0000 6004 00c0     .............`..
  407ae0:	0400 c060 0000 6004 00c0 0c00 c060 0000     ..`....`....`...
  407af0:	600c 0060 1800 6060 0000 e0f8 007f e000     .``...``........
  407b00:	3fe0 0000 0000 0000 0000 0000 0000 0000     .?..............
	...
  407b20:	0000 fffc 00ff fc00 ffff 0000 1800 0000     ................
  407b30:	0000 0018 0000 1800 0000 0000 0018 0000     ................
  407b40:	1800 0000 0000 0018 0000 1800 0000 0000     ................
  407b50:	0018 0000 1800 0000 0000 0018 0000 1800     ................
  407b60:	0000 0000 0018 0000 1800 0000 fc00 ffff     ................
  407b70:	0000 fffc 00ff 0000 0000 0000 0000 0000     ................
	...
  407b94:	fc00 ffff 0000 fffc 00ff 0000 0000 0000     ................
	...
  407bb8:	0000 0006 0000 1e00 0000 0000 0078 0000     ............x...
  407bc8:	6000 0000 0000 00e0 0000 c000 0000 0000     .`..............
  407bd8:	00c0 0000 c000 0000 0000 00c0 0000 e000     ................
  407be8:	0000 0000 0060 0000 7800 0000 fffc 003f     ....`....x....?.
  407bf8:	fc00 0fff 0000 0000 0000 0000 0000 0000     ................
	...
  407c1c:	fffc 00ff fc00 ffff 0000 6000 0000 0000     ...........`....
  407c2c:	0038 0000 1c00 0000 0000 001e 0000 7700     8..............w
  407c3c:	0000 8000 00e3 0000 c1c0 0001 e000 0380     ................
  407c4c:	0000 0070 0006 3800 1c00 0000 001c 0038     ..p....8......8.
  407c5c:	0400 7000 0000 0000 00e0 0000 8000 0000     ...p............
  407c6c:	0000 0080 0000 0000 0000 0000 0000 0000     ................
  407c7c:	0000 0000 fffc 00ff fc00 ffff 0000 0000     ................
  407c8c:	00c0 0000 c000 0000 0000 00c0 0000 c000     ................
  407c9c:	0000 0000 00c0 0000 c000 0000 0000 00c0     ................
  407cac:	0000 c000 0000 0000 00c0 0000 c000 0000     ................
  407cbc:	0000 00c0 0000 0000 0000 0000 0000 0000     ................
	...
  407cd4:	fc00 ffff 0000 fffc 00ff 3c00 0000 0000     ...........<....
  407ce4:	00f0 0000 c000 0007 0000 1f00 0000 0000     ................
  407cf4:	0078 0000 e000 0003 0000 0f00 0000 0000     x...............
  407d04:	007c 0000 e000 0000 0000 00f0 0000 3e00     |..............>
  407d14:	0000 8000 0007 0000 01f0 0000 7c00 0000     .............|..
  407d24:	0000 000f 0000 03e0 0000 7800 0000 0000     ...........x....
  407d34:	001c 0000 fc00 ffff 0000 fffc 00ff 0000     ................
	...
  407d60:	fc00 ffff 0000 fffc 00ff 1c00 0000 0000     ................
  407d70:	0078 0000 e000 0000 0000 03c0 0000 0000     x...............
  407d80:	0007 0000 1e00 0000 0000 0038 0000 f000     ..........8.....
  407d90:	0000 0000 01c0 0000 8000 0007 0000 0e00     ................
  407da0:	0000 0000 003c 0000 7000 0000 fffc 00ff     ....<....p......
  407db0:	fc00 ffff 0000 0000 0000 0000 0000 0000     ................
	...
  407dd0:	01ff 0000 ffe0 000f f000 1e00 0000 0038     ..............8.
  407de0:	0038 1c00 7000 0000 000c 0060 0400 c000     8....p....`.....
  407df0:	0000 0004 00c0 0400 c000 0000 0004 00c0     ................
  407e00:	0400 c000 0000 0004 00c0 0c00 6000 0000     .............`..
  407e10:	001c 0070 3800 3800 0000 00f0 001e e000     ..p..8.8........
  407e20:	0fff 0000 ff00 0001 0000 0000 0000 0000     ................
	...
  407e40:	0000 fffc 00ff fc00 ffff 0000 6004 0000     .............`..
  407e50:	0400 0060 0000 6004 0000 0400 0060 0000     ..`....`....`...
  407e60:	6004 0000 0400 0060 0000 6004 0000 0400     .`....`....`....
  407e70:	0060 0000 6004 0000 0c00 0030 0000 381c     `....`....0....8
  407e80:	0000 f800 001e 0000 0ff0 0000 0000 0000     ................
	...
  407ea0:	0000 01ff 0000 ffe0 000f f000 1e00 0000     ................
  407eb0:	0038 0038 1c00 7000 0000 000c 0060 0400     8.8....p....`...
  407ec0:	c000 0000 0004 00c0 0400 c000 0000 0004     ................
  407ed0:	00c0 0400 c000 0000 0004 00c0 0c00 e000     ................
  407ee0:	0000 001c 01f0 3800 3800 0003 00f0 0e1e     .......8.8......
  407ef0:	e000 0fff 0004 ff00 0401 0000 0000 0000     ................
	...
  407f14:	fffc 00ff fc00 ffff 0000 6004 0000 0400     ...........`....
  407f24:	0060 0000 6004 0000 0400 0060 0000 6004     `....`....`....`
  407f34:	0000 0400 0060 0000 6004 0000 0400 01e0     ....`....`......
  407f44:	0000 b00c 0007 0c00 0e30 0000 1c38 0038     ........0...8.8.
  407f54:	f000 f00f 0000 03c0 00c0 0000 8000 0000     ................
	...
  407f70:	0006 e000 1e01 0000 03f8 0038 1c00 7006     ..........8....p
  407f80:	0000 0c0c 0060 0c00 e00c 0000 1804 00c0     ....`...........
  407f90:	0400 c018 0000 1804 00c0 0400 c010 0000     ................
  407fa0:	3004 00c0 0400 c030 0000 600c 0060 1c00     .0....0....``...
  407fb0:	6060 0000 c078 0039 f000 3f80 0000 00c0     ``..x.9....?....
  407fc0:	000f 0000 0000 0000 0000 0000 0400 0000     ................
  407fd0:	0000 0004 0000 0400 0000 0000 0004 0000     ................
  407fe0:	0400 0000 0000 0004 0000 0400 0000 0000     ................
  407ff0:	0004 0000 fc00 ffff 0000 fffc 00ff 0400     ................
  408000:	0000 0000 0004 0000 0400 0000 0000 0004     ................
  408010:	0000 0400 0000 0000 0004 0000 0400 0000     ................
	...
  408030:	fc00 03ff 0000 fffc 000f 0000 3e00 0000     .............>..
  408040:	0000 0070 0000 6000 0000 0000 00e0 0000     ..p....`........
  408050:	c000 0000 0000 00c0 0000 c000 0000 0000     ................
  408060:	00c0 0000 c000 0000 0000 00e0 0000 6000     ...............`
  408070:	0000 0000 0070 0000 3e00 0000 fffc 000f     ....p....>......
  408080:	fc00 01ff 0000 0000 0000 0000 0000 0000     ................
  408090:	0000 0000 0c00 0000 0000 003c 0000 f000     ..........<.....
  4080a0:	0001 0000 0fc0 0000 0000 007e 0000 f000     ..........~.....
  4080b0:	0001 0000 0f80 0000 0000 007c 0000 f000     ..........|.....
  4080c0:	0000 0000 00f0 0000 3e00 0000 c000 0007     .........>......
  4080d0:	0000 01f8 0000 3f00 0000 c000 0007 0000     .......?........
  4080e0:	01f8 0000 3c00 0000 0000 0004 0000 0000     .....<..........
	...
  4080f8:	0400 0000 0000 007c 0000 f800 0007 0000     ......|.........
  408108:	7f80 0000 0000 07f8 0000 8000 007f 0000     ................
  408118:	f000 0000 0000 00f8 0000 1f80 0000 f000     ................
  408128:	0003 0000 003f 0000 07e0 0000 7c00 0000     ....?........|..
  408138:	0000 000c 0000 fc00 0000 0000 07e0 0000     ................
  408148:	0000 007e 0000 f000 0003 0000 3f00 0000     ..~..........?..
  408158:	0000 00f8 0000 f800 0000 8000 003f 0000     ............?...
  408168:	03f8 0000 3f80 0000 f800 0003 0000 003c     .....?........<.
	...
  40818c:	0080 0400 c000 0000 001c 0070 3800 3800     ..........p..8.8
  40819c:	0000 00f0 000e c000 0701 0000 c780 0001     ................
  4081ac:	0000 00ee 0000 3c00 0000 0000 007c 0000     .......<....|...
  4081bc:	ef00 0001 8000 0383 0000 01e0 000f 7000     ...............p
  4081cc:	1c00 0000 003c 0078 0c00 e000 0000 0004     ....<.x.........
  4081dc:	00c0 0000 8000 0000 0000 0000 0000 0000     ................
  4081ec:	0000 0004 0000 1c00 0000 0000 0038 0000     ............8...
  4081fc:	f000 0000 0000 03c0 0000 0000 000f 0000     ................
  40820c:	1c00 0000 0000 0070 0000 e000 00ff 0000     ......p.........
  40821c:	fff0 0000 3c00 0000 0000 000f 0000 03c0     .....<..........
  40822c:	0000 e000 0000 0000 0078 0000 1c00 0000     ........x.......
  40823c:	0000 0004 0000 0000 0000 0000 0000 0000     ................
  40824c:	0000 c000 0000 0004 00e0 0400 f800 0000     ................
  40825c:	0004 00dc 0400 c700 0000 8004 00c3 0400     ................
  40826c:	c1c0 0000 7004 00c0 0400 c038 0000 0e04     .....p....8.....
  40827c:	00c0 0400 c007 0000 01c4 00c0 e400 c000     ................
  40828c:	0000 0074 00c0 1c00 c000 0000 000c 00c0     ..t.............
  40829c:	0000 c000 0000 0000 0000 0000 0000 0000     ................
	...
  4082b4:	0000 fffc 1fff 0000 0000 0018 0000 1800     ................
  4082c4:	0000 0000 0018 0000 1800 0000 0000 0000     ................
  4082d4:	0004 0000 3c00 0000 0000 00f8 0000 c000     .....<..........
  4082e4:	0007 0000 3e00 0000 0000 00f8 0000 c000     .....>..........
  4082f4:	0007 0000 1e00 0000 0000 00f8 0000 c000     ................
  408304:	0003 0000 0300 0000 0000 0000 0000 1800     ................
  408314:	0000 0000 0018 0000 1800 fc00 ffff 001f     ................
  408324:	fffc 1fff 0000 0000 0000 0000 0000 0000     ................
	...
  40833c:	0000 0008 0000 0e00 0000 c000 0003 0000     ................
  40834c:	00f0 0000 3c00 0000 0000 000c 0000 3c00     .....<.........<
  40835c:	0000 0000 00f0 0000 8000 0007 0000 0e00     ................
  40836c:	0000 0000 0008 0000 0000 0000 0000 0000     ................
  40837c:	0003 0000 0300 0000 0000 0003 0000 0300     ................
  40838c:	0000 0000 0003 0000 0300 0000 0000 0003     ................
  40839c:	0000 0300 0000 0000 0003 0000 0300 0000     ................
  4083ac:	0000 0003 0000 0300 0000 0000 0003 0000     ................
  4083bc:	0300 0000 0000 0000 0000 0000 0000 0000     ................
  4083cc:	0000 0000 0000 0400 0000 0000 000c 0000     ................
  4083dc:	0800 0000 0000 0000 0000 0000 0000 0000     ................
  4083ec:	0000 0000 0000 1c00 0000 0600 003f 0000     ............?...
  4083fc:	7387 0000 8300 00e1 8000 c1c1 0000 c180     .s..............
  40840c:	00c0 8000 c0c1 0000 c180 00c0 8000 c0c1     ................
  40841c:	0000 c180 0060 0000 60c3 0000 c700 0038     ....`....`....8.
  40842c:	0000 fffe 0000 f000 00ff 0000 0000 0000     ................
	...
  408448:	0000 fc00 ffff 0000 fffc 00ff 0000 380c     ...............8
  408458:	0000 0300 0060 0000 6003 0000 0180 00c0     ....`....`......
  408468:	8000 c001 0000 0180 00c0 8000 c001 0000     ................
  408478:	0180 00c0 0000 6003 0000 0700 0070 0000     .......`....p...
  408488:	3ffe 0000 f800 000f 0000 0000 0000 0000     .?..............
	...
  4084a0:	e000 0003 0000 1ffc 0000 0e00 0038 0000     ............8...
  4084b0:	7007 0000 0300 0060 8000 c001 0000 0180     .p....`.........
  4084c0:	00c0 8000 c001 0000 0180 00c0 8000 c001     ................
  4084d0:	0000 0300 0060 0000 7007 0000 1e00 0038     ....`....p....8.
  4084e0:	0000 0818 0000 0000 0000 0000 0000 0000     ................
  4084f0:	0000 0000 0000 0ff8 0000 fe00 003f 0000     ............?...
  408500:	7007 0000 0300 0060 8000 c001 0000 0180     .p....`.........
  408510:	00c0 8000 c001 0000 0180 00c0 8000 c001     ................
  408520:	0000 0300 0060 0000 6003 0000 0c00 0038     ....`....`....8.
  408530:	fc00 ffff 0000 fffc 00ff 0000 0000 0000     ................
	...
  408550:	0ff8 0000 fc00 001f 0000 30c6 0000 c300     ...........0....
  408560:	0060 8000 e0c3 0000 c180 00c0 8000 c0c1     `...............
  408570:	0000 c180 00c0 8000 c0c1 0000 c380 00c0     ................
  408580:	0000 60c7 0000 ce00 0070 0000 20fc 0000     ...`....p.... ..
  408590:	e000 0000 0000 0000 0000 0000 0000 8000     ................
  4085a0:	0001 0000 0180 0000 8000 0001 0000 fffc     ................
  4085b0:	00ff fc00 ffff 0000 0184 0000 8000 0001     ................
  4085c0:	0000 0180 0000 8000 0001 0000 0000 0000     ................
	...
  4085dc:	0ff8 0000 fe00 183f 0000 700f 0038 0300     ......?....p8...
  4085ec:	3060 8000 c001 0060 0180 60c0 8000 c001     `0....`....`....
  4085fc:	0060 0180 60c0 8000 c001 0060 0300 3060     `....`....`...`0
  40860c:	0000 6003 0038 fe00 1f3f 8000 ffff 000f     ...`8...?.......
	...
  408638:	0000 fffc 00ff fc00 ffff 0000 0600 0000     ................
  408648:	0000 0003 0000 0100 0000 8000 0001 0000     ................
  408658:	0180 0000 8000 0001 0000 0180 0000 8000     ................
  408668:	0003 0000 0f00 0000 0000 fffe 0000 fc00     ................
  408678:	00ff 0000 0000 0000 0000 0000 0000 0000     ................
	...
  408694:	ff84 00ff 8400 ffff 0000 0000 0000 0000     ................
  4086a4:	0000 0000 0000 6000 0000 0000 0070 ff84     .......`....p...
  4086b4:	3fff 8400 ffff 001f 0000 0000 0000 0000     .?..............
	...
  4086d4:	fc00 ffff 0000 fffc 00ff 0000 0180 0000     ................
  4086e4:	c000 0000 0000 0060 0000 f000 0001 0000     ......`.........
  4086f4:	0398 0000 0c00 0007 0000 1c06 0000 0300     ................
  408704:	0038 8000 7001 0000 0080 00e0 8000 c000     8....p..........
  408714:	0000 0000 0080 0000 0000 0000 0000 0000     ................
  408724:	0000 0000 0000 fffc 00ff fc00 ffff 0000     ................
	...
  408748:	ff80 00ff 8000 ffff 0000 0e00 0000 0000     ................
  408758:	0003 0000 0300 0000 8000 0001 0000 0180     ................
  408768:	0000 8000 0001 0000 0180 0000 8000 0003     ................
  408778:	0000 0700 0000 0000 ffff 0000 fc00 00ff     ................
  408788:	0000 0006 0000 0300 0000 0000 0003 0000     ................
  408798:	0180 0000 8000 0001 0000 0180 0000 8000     ................
  4087a8:	0001 0000 0380 0000 0000 0007 0000 fe00     ................
  4087b8:	00ff 0000 fffc 0000 0000 0000 0000 0000     ................
	...
  4087d8:	8000 ffff 0000 fc00 00ff 0000 0006 0000     ................
  4087e8:	0300 0000 8000 0001 0000 0180 0000 8000     ................
  4087f8:	0001 0000 0180 0000 8000 0001 0000 0380     ................
  408808:	0000 0000 ffff 0000 fe00 00ff 0000 0000     ................
	...
  408828:	0000 01c0 0000 f800 000f 0000 3c3e 0000     ............><..
  408838:	0700 0070 0000 6003 0000 0380 00e0 8000     ..p....`........
  408848:	c001 0000 0180 00c0 8000 c001 0000 0180     ................
  408858:	00c0 8000 e003 0000 0300 0060 0000 7007     ..........`....p
  408868:	0000 3e00 003e 0000 0ff8 0000 c000 0001     ...>>...........
	...
  408888:	ff80 7fff 8000 ffff 007f 0e00 0038 0000     ............8...
  408898:	6003 0000 0300 0060 8000 c001 0000 0180     .`....`.........
  4088a8:	00c0 8000 c001 0000 0180 00c0 8000 c001     ................
  4088b8:	0000 0300 0060 0000 780f 0000 fe00 003f     ....`....x....?.
  4088c8:	0000 0ff8 0000 0000 0000 0000 0000 0000     ................
	...
  4088e0:	0000 f800 000f 0000 3ffe 0000 0700 0070     .........?....p.
  4088f0:	0000 6003 0000 0180 00c0 8000 c001 0000     ...`............
  408900:	0180 00c0 8000 c001 0000 0180 00c0 0000     ................
  408910:	6003 0000 0300 0060 8000 ffff 007f ff80     .`....`.........
  408920:	7fff 0000 0000 0000 0000 0000 0000 0000     ................
	...
  40893c:	ff80 00ff 8000 ffff 0000 0c00 0000 0000     ................
  40894c:	0007 0000 0300 0000 8000 0001 0000 0180     ................
  40895c:	0000 8000 0001 0000 0000 0000 0000 0000     ................
  40896c:	0000 0000 0008 0000 381c 0000 3f00 0070     .........8...?p.
  40897c:	0000 6063 0000 6180 00c0 8000 c0c1 0000     ..c`...a........
  40898c:	c180 00c0 8000 c0c1 0000 c180 00c0 8000     ................
  40899c:	c181 0000 8300 0061 0000 7f0f 0000 0e00     ......a.........
  4089ac:	003f 0000 0000 0000 0000 0000 8000 0001     ?...............
  4089bc:	0000 0180 0000 8000 0001 0000 fff8 001f     ................
  4089cc:	f800 7fff 0000 0180 00e0 8000 c001 0000     ................
  4089dc:	0180 00c0 8000 c001 0000 0000 0000 0000     ................
	...
  4089f8:	0000 ff80 003f 8000 7fff 0000 0000 00e0     ....?...........
  408a08:	0000 c000 0000 0000 00c0 0000 c000 0000     ................
  408a18:	0000 00c0 0000 c000 0000 0000 0060 0000     ............`...
  408a28:	7000 0000 ff80 003f 8000 ffff 0000 0000     .p....?.........
	...
  408a44:	8000 0000 0000 0380 0000 0000 001f 0000     ................
  408a54:	7c00 0000 0000 03e0 0000 0000 001f 0000     .|..............
  408a64:	7800 0000 0000 00e0 0000 7800 0000 0000     .x.........x....
  408a74:	001f 0000 03e0 0000 7c00 0000 8000 001f     .........|......
  408a84:	0000 0380 0000 8000 0000 0000 0000 0000     ................
  408a94:	8000 0001 0000 0f80 0000 0000 00fe 0000     ................
  408aa4:	e000 0007 0000 7f00 0000 0000 00f0 0000     ................
  408ab4:	f800 0000 0000 001f 0000 03f0 0000 3e00     ...............>
  408ac4:	0000 8000 0007 0000 0f80 0000 0000 007e     ..............~.
  408ad4:	0000 f000 0003 0000 1f00 0000 0000 00f8     ................
  408ae4:	0000 e000 0000 0000 007e 0000 07e0 0000     ........~.......
  408af4:	fe00 0000 8000 000f 0000 0180 0000 0000     ................
	...
  408b0c:	8000 8000 0000 0180 00e0 8000 7007 0000     .............p..
  408b1c:	0e00 0038 0000 0e3c 0000 7000 0007 0000     ..8...<....p....
  408b2c:	01c0 0000 e000 0003 0000 0738 0000 1c00     ..........8.....
  408b3c:	001c 0000 3807 0000 0380 00e0 8000 c000     .....8..........
  408b4c:	0000 0080 0080 0000 0000 0000 0080 0000     ................
  408b5c:	8000 0003 0060 0f80 6000 0000 007c 0060     ....`....`..|.`.
  408b6c:	e000 7003 0000 0f80 0038 0000 1f7c 0000     ...p....8...|...
  408b7c:	e000 0007 0000 00f8 0000 1f00 0000 e000     ................
  408b8c:	0007 0000 00fc 0000 1f80 0000 8000 0003     ................
  408b9c:	0000 0080 0000 0000 0000 0000 0000 00c0     ................
  408bac:	8000 e001 0000 0180 00f8 8000 dc01 0000     ................
  408bbc:	0180 00ce 8000 c301 0000 c180 00c1 8000     ................
  408bcc:	c0e1 0000 3180 00c0 8000 c01d 0000 0f80     .....1..........
  408bdc:	00c0 8000 c007 0000 0180 00c0 0000 c000     ................
	...
  408bf8:	c000 0000 0000 00c0 0000 e000 0001 0000     ................
  408c08:	03f0 0000 3ff8 03ff fc00 fc0f 000f 0004     .....?..........
  408c18:	1c00 0000 0000 0010 0000 3000 0000 0000     ...........0....
  408c28:	0020 0000 0000 0000 0000 0000 0000 0000      ...............
  408c38:	fc00 ffff 000f 0000 0000 0000 0000 0000     ................
	...
  408c50:	0020 0000 3000 0000 0000 0010 0004 1c00      ....0..........
  408c60:	fc00 fc0f 000f 3ff8 03ff 0000 03f0 0000     .......?........
  408c70:	e000 0001 0000 00c0 0000 c000 0000 0000     ................
	...
  408c90:	0003 0000 03c0 0000 6000 0000 0000 0030     .........`....0.
  408ca0:	0000 3000 0000 0000 0030 0000 3000 0000     ...0....0....0..
  408cb0:	0000 0060 0000 e000 0000 0000 01c0 0000     ..`.............
  408cc0:	8000 0001 0000 0300 0000 0000 0003 0000     ................
  408cd0:	0300 0000 0000 0003 0000 0180 0000 f000     ................
  408ce0:	0000 0000 0030 0000 0000 0000 0000 0000     ....0...........
  408cf0:	0000 0000                                   ....

00408cf4 <RobotoBold_18pt_CharCount>:
  408cf4:	0706 0e08 120e 0410 0808 0d0b 0906 0907     ................
  408d04:	0e0e 0e0e 0e0e 0e0e 0e0e 0607 0e0c 0c0c     ................
  408d14:	1015 100f 0e10 100d 0711 0f0d 150d 1111     ................
  408d24:	110f 0f0f 100f 1510 0f0f 070f 070a 0b0a     ................
  408d34:	0d08 0d0e 0d0e 0e09 060d 0d06 1506 0e0d     ................
  408d44:	0e0e 0c09 0d08 120c 0c0c 080c 0806 0010     ................

00408d54 <RobotoBold_18pt_Table>:
	...
  408d74:	fe00 03cf fe00 03cf fe00 03cf 0000 0000     ................
	...
  408d8c:	3f00 0000 3f00 0000 0000 0000 0000 0000     .?...?..........
  408d9c:	3f00 0000 3f00 0000 0000 0000 0000 0000     .?...?..........
  408dac:	c000 0018 c000 0218 c000 03f8 c000 03ff     ................
  408dbc:	fe00 001f fe00 0018 c200 03d8 c000 03fe     ................
  408dcc:	f800 007f fe00 0019 ce00 0018 c000 0018     ................
  408ddc:	c000 0000 0000 0000 0000 0060 f800 00e0     ..........`.....
  408dec:	fc00 01e1 fe00 03e3 9e00 0383 8fc0 0f87     ................
  408dfc:	0fc0 0f87 0e00 038f 3e00 03fe 3c00 01fe     .........>...<..
  408e0c:	3800 01fc 3000 0070 0000 0000 0000 0000     .8...0p.........
  408e1c:	7800 0000 fc00 0000 fe00 0001 8600 0081     .x..............
  408e2c:	8600 01c1 fe00 00f1 fc00 003c 7800 000e     ..........<..x..
  408e3c:	8000 0067 e000 01f9 7800 03fc 3c00 030c     ..g......x...<..
  408e4c:	0800 030c 0000 039c 0000 01f8 0000 00f0     ................
	...
  408e64:	0000 00f8 3000 01fc fc00 01fe fc00 03cf     .....0..........
  408e74:	de00 0387 0e00 038f 8e00 039f de00 03bd     ................
  408e84:	fc00 03f8 7c00 01f0 0000 03f8 0000 03fc     .....|..........
  408e94:	0000 033c 0000 0204 0000 0200 0000 0000     ..<.............
  408ea4:	3f00 0000 3f00 0000 0000 0000 0000 0000     .?...?..........
  408eb4:	0000 003f f000 03ff fc00 0fff 7e00 1f80     ..?..........~..
  408ec4:	0f00 3c00 0380 7000 0100 2000 0100 2000     ...<...p... ... 
  408ed4:	0380 7000 0f00 3c00 7e00 1f80 fc00 0fff     ...p...<.~......
  408ee4:	f000 03ff 8000 007f 0000 0000 0000 0000     ................
  408ef4:	2000 0000 3000 0003 b000 0003 f200 0001     . ...0..........
  408f04:	fe00 0000 fe00 0001 b000 0003 3000 0003     .............0..
  408f14:	2000 0000 0000 0000 0000 0000 0000 0007     . ..............
  408f24:	0000 0007 0000 0007 0000 0007 f800 00ff     ................
  408f34:	f800 00ff f800 00ff 0000 0007 0000 0007     ................
  408f44:	0000 0007 0000 0007 0000 0000 0000 2000     ............... 
  408f54:	0000 3800 0000 3f80 0000 1f80 0000 0380     ...8...?........
	...
  408f6c:	0000 000e 0000 000e 0000 000e 0000 000e     ................
  408f7c:	0000 000e 0000 000e 0000 000e 0000 0000     ................
  408f8c:	0000 0000 0000 0100 0000 03c0 0000 03c0     ................
  408f9c:	0000 03c0 0000 0100 0000 0000 0000 0600     ................
  408fac:	0000 07c0 0000 07f8 0000 00fe c000 001f     ................
  408fbc:	f800 0003 7e00 0000 0e00 0000 0200 0000     .....~..........
  408fcc:	0000 0000 e000 003f f800 00ff fc00 01ff     ......?.........
  408fdc:	fe00 03ff 1e00 03c0 0e00 0380 0e00 0380     ................
  408fec:	1e00 03c0 fe00 03ff fc00 01ff f800 00ff     ................
  408ffc:	e000 001f 0000 0000 0000 0000 0000 0000     ................
  40900c:	7000 0000 7800 0000 3800 0000 3c00 0000     .p...x...8...<..
  40901c:	fc00 03ff fe00 03ff fe00 03ff 0000 0000     ................
	...
  409040:	7000 0380 7800 03c0 7c00 03e0 1e00 03f0     .p...x...|......
  409050:	0e00 03f8 0e00 03bc 0e00 039e 1e00 038f     ................
  409060:	fe00 0387 fc00 0383 f800 0381 0000 0380     ................
	...
  409078:	3000 00e0 3c00 01e0 3c00 01e0 1e00 03c0     .0...<...<......
  409088:	0e00 0387 0e00 0387 0e00 0387 9e00 0387     ................
  409098:	fe00 03ff fc00 01fd f800 00fc 0000 0070     ..............p.
	...
  4090b0:	0000 0078 0000 007c 0000 007f c000 0077     ..x...|.......w.
  4090c0:	e000 0073 f800 0070 3e00 0070 fe00 03ff     ..s...p..>p.....
  4090d0:	fe00 03ff fe00 03ff 0000 0070 0000 0070     ..........p...p.
	...
  4090ec:	f800 00e3 fe00 01e7 fe00 01e7 0e00 0383     ................
  4090fc:	8e00 0383 8e00 0383 8e00 0383 8e00 03ff     ................
  40910c:	0e00 01ff 0e00 00ff 0000 007c 0000 0000     ..........|.....
  40911c:	0000 0000 0000 001f e000 00ff f000 01ff     ................
  40912c:	f800 01ff 3c00 03c3 9c00 0383 9e00 0383     .....<..........
  40913c:	8e00 0383 8e00 03ef 0000 01ff 0000 00ff     ................
  40914c:	0000 007c 0000 0000 0000 0000 0e00 0000     ..|.............
  40915c:	0e00 0000 0e00 0300 0e00 03c0 0e00 03f0     ................
  40916c:	0e00 01fc 0e00 007f ee00 001f fe00 0003     ................
  40917c:	fe00 0000 3e00 0000 0e00 0000 0000 0000     .....>..........
  40918c:	0000 0000 0000 0070 f800 00fc fc00 01fd     ......p.........
  40919c:	fe00 03ff 9e00 0387 0e00 0387 0e00 0387     ................
  4091ac:	9e00 0387 fe00 03ff fc00 01fd f800 01fc     ................
  4091bc:	0000 0070 0000 0000 0000 0000 e000 0001     ..p.............
  4091cc:	f800 0007 fc00 0007 fe00 038f 0e00 038e     ................
  4091dc:	0e00 038e 0e00 01ce 1e00 01e6 fc00 00ff     ................
  4091ec:	fc00 007f f800 003f c000 0007 0000 0000     ......?.........
  4091fc:	0000 0000 4000 0100 f000 03c0 f000 03c0     .....@..........
  40920c:	f000 03c0 0000 0000 0000 0000 0000 2000     ............... 
  40921c:	4000 3800 f000 3f80 f000 1f80 f000 0380     .@.8...?........
	...
  409234:	0000 000e 0000 001f 0000 001f 0000 001b     ................
  409244:	8000 003b 8000 003b c000 0071 c000 0071     ..;...;...q...q.
  409254:	c000 0071 e000 00e0 0000 0000 0000 0000     ..q.............
  409264:	0000 0000 8000 0073 8000 0073 8000 0073     ......s...s...s.
  409274:	8000 0073 8000 0073 8000 0073 8000 0073     ..s...s...s...s.
  409284:	8000 0073 8000 0073 8000 0073 0000 0000     ..s...s...s.....
	...
  40929c:	e000 00e0 e000 00f1 c000 0071 c000 0071     ..........q...q.
  4092ac:	8000 003b 8000 003b 8000 003b 0000 001f     ..;...;...;.....
  4092bc:	0000 001f 0000 000e 0000 000e 0000 0000     ................
  4092cc:	1800 0000 1c00 0000 1e00 0180 0e00 03cc     ................
  4092dc:	0e00 03cf 8e00 03cf de00 0183 fe00 0001     ................
  4092ec:	fc00 0000 7800 0000 0000 0000 0000 0000     .....x..........
  4092fc:	0000 03ff c000 07ff f000 1f01 7800 1c00     .............x..
  40930c:	1800 3000 1c00 30fc 0c00 63ff 8600 63cf     ...0...0...c...c
  40931c:	c600 6301 c600 6300 c600 6180 c600 61ff     ...c...c...a...a
  40932c:	c600 73ff 8c00 730f 0c00 0300 1c00 0300     ...s...s........
  40933c:	7800 0180 f000 01ff c000 007f 0000 0000     .x..............
  40934c:	0000 0200 0000 03c0 0000 03f0 0000 03fe     ................
  40935c:	c000 00ff f000 007f fe00 0073 7e00 0070     ..........s..~p.
  40936c:	7e00 0070 fe00 0073 f800 007f c000 00ff     .~p...s.........
  40937c:	0000 03ff 0000 03f8 0000 03c0 0000 0300     ................
  40938c:	0000 0000 fe00 03ff fe00 03ff fe00 03ff     ................
  40939c:	fe00 03ff 0e00 0387 0e00 0387 0e00 0387     ................
  4093ac:	0e00 0387 8e00 0387 fe00 03ff fc00 01ff     ................
  4093bc:	f800 01fd 7000 00f8 0000 0000 0000 0000     .....p..........
  4093cc:	c000 001f f000 007f f800 00ff fc00 01ff     ................
  4093dc:	1e00 03c0 0e00 0380 0e00 0380 0e00 0380     ................
  4093ec:	0e00 0380 1e00 03c0 7c00 01f0 7c00 01f0     .........|...|..
  4093fc:	7800 00f0 6000 0030 0000 0000 0000 0000     .x...`0.........
  40940c:	0000 0000 fe00 03ff fe00 03ff fe00 03ff     ................
  40941c:	0e00 0380 0e00 0380 0e00 0380 0e00 0380     ................
  40942c:	1e00 03c0 3c00 01e0 fc00 01ff f800 00ff     .....<..........
  40943c:	e000 003f 0000 0007 0000 0000 0000 0000     ..?.............
  40944c:	0000 0000 fe00 03ff fe00 03ff fe00 03ff     ................
  40945c:	0e00 0387 0e00 0387 0e00 0387 0e00 0387     ................
  40946c:	0e00 0387 0e00 0387 0e00 0387 0e00 0380     ................
	...
  409488:	fe00 03ff fe00 03ff fe00 03ff 0e00 0007     ................
  409498:	0e00 0007 0e00 0007 0e00 0007 0e00 0007     ................
  4094a8:	0e00 0007 0e00 0007 0e00 0000 0000 0000     ................
  4094b8:	e000 003f f000 007f f800 00ff fc00 01ff     ..?.............
  4094c8:	1e00 03c0 0e00 0380 0e00 0380 0e00 038e     ................
  4094d8:	0e00 038e 1e00 038e 3c00 03fe 3c00 01fe     .........<...<..
  4094e8:	3800 01fe 2000 00fe 0000 0000 0000 0000     .8... ..........
  4094f8:	0000 0000 fe00 03ff fe00 03ff fe00 03ff     ................
  409508:	0000 0007 0000 0007 0000 0007 0000 0007     ................
  409518:	0000 0007 0000 0007 0000 0007 fe00 03ff     ................
  409528:	fe00 03ff fe00 03ff 0000 0000 0000 0000     ................
	...
  409540:	fe00 03ff fe00 03ff fe00 03ff 0000 0000     ................
  409550:	0000 0000 0000 0020 0000 00e0 0000 01e0     ...... .........
  409560:	0000 03e0 0000 0380 0000 0380 0000 0380     ................
  409570:	0000 03c0 fe00 03ff fe00 01ff fe00 00ff     ................
  409580:	fe00 003f 0000 0000 0000 0000 fe00 03ff     ..?.............
  409590:	fe00 03ff fe00 03ff fe00 03ff 0000 001f     ................
  4095a0:	8000 0007 e000 000f f000 003f f800 007e     ..........?...~.
  4095b0:	7e00 01f8 3e00 03f0 0e00 03c0 0600 0380     .~...>..........
  4095c0:	0200 0200 0000 0000 0000 0000 fe00 03ff     ................
  4095d0:	fe00 03ff fe00 03ff 0000 0380 0000 0380     ................
  4095e0:	0000 0380 0000 0380 0000 0380 0000 0380     ................
  4095f0:	0000 0380 0000 0380 0000 0000 0000 0000     ................
  409600:	fe00 03ff fe00 03ff fe00 03ff fe00 0000     ................
  409610:	fc00 0003 e000 001f 0000 00ff 0000 03f8     ................
  409620:	0000 03e0 0000 03f8 0000 00ff e000 001f     ................
  409630:	fc00 0003 fe00 0000 fe00 03ff fe00 03ff     ................
  409640:	fe00 03ff 0000 0000 0000 0000 0000 0000     ................
  409650:	0000 0000 fe00 03ff fe00 03ff fe00 03ff     ................
  409660:	fc00 0000 f800 0001 e000 0007 8000 000f     ................
  409670:	0000 003f 0000 00fc 0000 01f0 fe00 03ff     ..?.............
  409680:	fe00 03ff fe00 03ff 0000 0000 0000 0000     ................
  409690:	0000 0000 8000 000f f000 007f f800 00ff     ................
  4096a0:	fc00 01ff 3c00 01e0 1e00 03c0 0e00 0380     .....<..........
  4096b0:	0e00 0380 0e00 0380 1e00 03c0 3c00 01e0     .............<..
  4096c0:	fc00 01ff f800 00ff f000 007f 8000 000f     ................
	...
  4096d8:	fe00 03ff fe00 03ff fe00 03ff fe00 03ff     ................
  4096e8:	0e00 000e 0e00 000e 0e00 000e 0e00 000e     ................
  4096f8:	0e00 000e 1e00 000f fc00 0007 fc00 0007     ................
  409708:	f000 0003 0000 0000 0000 0000 c000 001f     ................
  409718:	f000 007f f800 00ff fc00 01ff 3c00 01e0     .............<..
  409728:	1e00 03c0 0e00 0380 0e00 0380 0e00 0380     ................
  409738:	1e00 03c0 3c00 07e0 fc00 0fff f800 1eff     .....<..........
  409748:	f000 0c7f 8000 080f 0000 0000 0000 0000     ................
  409758:	fe00 03ff fe00 03ff fe00 03ff fe00 03ff     ................
  409768:	0e00 000e 0e00 000e 0e00 000e 0e00 003e     ..............>.
  409778:	0e00 007e fe00 01ff fc00 03f7 fc00 03c3     ..~.............
  409788:	f000 0301 0000 0200 0000 0000 0000 0060     ..............`.
  409798:	f800 00e0 fc00 01e1 fc00 01e3 9e00 0383     ................
  4097a8:	8e00 0387 0e00 0387 0e00 0387 0e00 038f     ................
  4097b8:	3e00 03fe 3c00 01fe 3800 01fc 3000 0078     .>...<...8...0x.
	...
  4097d0:	0e00 0000 0e00 0000 0e00 0000 0e00 0000     ................
  4097e0:	0e00 0000 fe00 03ff fe00 03ff fe00 03ff     ................
  4097f0:	0e00 0000 0e00 0000 0e00 0000 0e00 0000     ................
  409800:	0e00 0000 0000 0000 0000 0000 fe00 001f     ................
  409810:	fe00 00ff fe00 01ff fe00 01ff 0000 03c0     ................
  409820:	0000 0380 0000 0380 0000 0380 0000 0380     ................
  409830:	0000 03c0 fe00 01ff fe00 01ff fe00 00ff     ................
  409840:	fe00 001f 0000 0000 0200 0000 1e00 0000     ................
  409850:	fe00 0000 fe00 0003 fc00 001f c000 00ff     ................
  409860:	0000 03fe 0000 03f0 0000 03f0 0000 03fe     ................
  409870:	e000 00ff fc00 001f fe00 0003 7e00 0000     .............~..
  409880:	1e00 0000 0200 0000 0200 0000 3e00 0000     .............>..
  409890:	fe00 0003 fe00 007f f000 03ff 0000 03fe     ................
  4098a0:	0000 03f0 0000 03ff f800 007f fe00 0007     ................
  4098b0:	7e00 0000 fe00 0007 f800 007f 8000 03ff     .~..............
  4098c0:	0000 03f0 0000 03fe f000 03ff fe00 007f     ................
  4098d0:	fe00 0003 3e00 0000 0200 0000 0200 0200     .....>..........
  4098e0:	0600 0300 1e00 03c0 3e00 03e0 fe00 03f8     .........>......
  4098f0:	f800 00ff e000 003f 8000 000f e000 003f     ......?.......?.
  409900:	f800 007f fc00 01fc 7e00 03f0 1e00 03c0     .........~......
  409910:	0600 0380 0200 0200 0200 0000 0e00 0000     ................
  409920:	3e00 0000 fe00 0000 fc00 0003 e000 000f     .>..............
  409930:	8000 03ff 0000 03ff c000 03ff f000 0007     ................
  409940:	fc00 0001 7e00 0000 1e00 0000 0e00 0000     .....~..........
  409950:	0200 0000 0000 0000 0e00 0380 0e00 03c0     ................
  409960:	0e00 03f0 0e00 03f8 0e00 03fe 0e00 039f     ................
  409970:	8e00 038f ee00 0383 fe00 0381 fe00 0380     ................
  409980:	3e00 0380 1e00 0380 0600 0380 0000 0000     .>..............
  409990:	0000 0000 ffc0 3fff ffc0 3fff ffc0 3fff     .......?...?...?
  4099a0:	ffc0 3fff 01c0 3800 0000 0000 0200 0000     ...?...8........
  4099b0:	1e00 0000 7e00 0000 fe00 0003 f000 000f     .....~..........
  4099c0:	c000 007f 0000 01fe 0000 07f8 0000 07c0     ................
  4099d0:	0000 0700 01c0 3800 01c0 3800 ffc0 3fff     .......8...8...?
  4099e0:	ffc0 3fff ffc0 3fff 0000 0000 0000 0000     ...?...?........
  4099f0:	0000 0001 c000 0001 f000 0001 fc00 0000     ................
  409a00:	1e00 0000 1e00 0000 fc00 0000 f000 0001     ................
  409a10:	c000 0001 0000 0001 0000 1c00 0000 1c00     ................
  409a20:	0000 1c00 0000 1c00 0000 1c00 0000 1c00     ................
  409a30:	0000 1c00 0000 1c00 0000 1c00 0000 1c00     ................
  409a40:	0000 1c00 0000 0000 0100 0000 0300 0000     ................
  409a50:	0f00 0000 0f00 0000 0c00 0000 0800 0000     ................
	...
  409a68:	8000 00f0 c000 01f8 e000 03fc e000 03bc     ................
  409a78:	e000 039c e000 039c e000 019c e000 03ff     ................
  409a88:	c000 03ff c000 03ff 0000 03fe 0000 0000     ................
	...
  409aa0:	ff00 03ff ff00 03ff ff00 03ff c000 01c0     ................
  409ab0:	e000 0380 e000 0380 e000 0380 e000 03e3     ................
  409ac0:	c000 01ff c000 01ff 0000 007f 0000 0000     ................
  409ad0:	0000 0000 0000 003e 8000 00ff c000 01ff     ......>.........
  409ae0:	e000 03e3 e000 0380 e000 0380 e000 0380     ................
  409af0:	e000 03c1 c000 01e3 c000 01e3 8000 00e3     ................
	...
  409b08:	0000 007f 8000 00ff c000 01ff e000 03e3     ................
  409b18:	e000 0380 e000 0380 e000 0380 c000 01c1     ................
  409b28:	ff00 03ff ff00 03ff ff00 03ff 0000 0000     ................
	...
  409b40:	0000 007f 8000 00ff c000 01ff e000 03dd     ................
  409b50:	e000 039c e000 039c e000 039c e000 039d     ................
  409b60:	c000 039f c000 019f 0000 019f 0000 0000     ................
  409b70:	0000 0000 e000 0000 f800 03ff fe00 03ff     ................
  409b80:	fe00 03ff ff00 03ff e700 0000 e700 0000     ................
  409b90:	0700 0000 0000 0000 0000 007f 8000 38ff     ...............8
  409ba0:	c000 39ff e000 73e3 e000 7380 e000 7380     ...9...s...s...s
  409bb0:	e000 7380 c000 7980 e000 3fff e000 3fff     ...s...y...?...?
  409bc0:	e000 1fff e000 03ff 0000 0000 0000 0000     ................
  409bd0:	ff00 03ff ff00 03ff ff00 03ff c000 0001     ................
  409be0:	c000 0000 e000 0000 e000 0000 e000 0001     ................
  409bf0:	e000 03ff c000 03ff 8000 03ff 0000 0000     ................
  409c00:	0000 0000 e300 03ff e780 03ff e780 03ff     ................
  409c10:	e300 03ff 0000 0000 0000 7000 e300 7fff     ...........p....
  409c20:	e780 7fff e780 3fff e300 0fff 0000 0000     .......?........
  409c30:	0000 0000 ff00 03ff ff00 03ff ff00 03ff     ................
  409c40:	ff00 03ff 0000 001e 0000 003f c000 007f     ..........?.....
  409c50:	e000 01fb e000 03e1 e000 03c0 2000 0300     ............. ..
  409c60:	2000 0200 0000 0000 ff00 03ff ff00 03ff     . ..............
  409c70:	ff00 03ff ff00 03ff 0000 0000 0000 0000     ................
  409c80:	e000 03ff e000 03ff e000 03ff e000 03ff     ................
  409c90:	c000 0000 e000 0000 e000 0000 e000 0001     ................
  409ca0:	e000 03ff c000 03ff 8000 03ff c000 0001     ................
  409cb0:	e000 0000 e000 0000 e000 0000 e000 03ff     ................
  409cc0:	e000 03ff c000 03ff 0000 03ff 0000 0000     ................
  409cd0:	0000 0000 e000 03ff e000 03ff e000 03ff     ................
  409ce0:	c000 0001 c000 0000 e000 0000 e000 0000     ................
  409cf0:	e000 0001 e000 03ff c000 03ff 8000 03ff     ................
	...
  409d08:	0000 003e 8000 00ff c000 01ff e000 03e3     ..>.............
  409d18:	e000 0380 e000 0380 e000 0380 e000 0380     ................
  409d28:	e000 03e3 c000 01ff 8000 00ff 0000 003e     ..............>.
	...
  409d44:	e000 7fff e000 7fff e000 7fff c000 0180     ................
  409d54:	e000 0380 e000 0380 e000 0380 e000 03e3     ................
  409d64:	c000 01ff c000 00ff 0000 007f 0000 0000     ................
  409d74:	0000 0000 0000 007f 8000 00ff c000 01ff     ................
  409d84:	e000 03e3 e000 0380 e000 0380 e000 0380     ................
  409d94:	c000 01c0 e000 7fff e000 7fff e000 7fff     ................
	...
  409db0:	e000 03ff e000 03ff e000 03ff e000 03ff     ................
  409dc0:	c000 0000 e000 0000 e000 0000 e000 0000     ................
  409dd0:	0000 0000 8000 00c7 c000 01cf e000 03cf     ................
  409de0:	e000 038c e000 039c e000 039c e000 039c     ................
  409df0:	e000 03f9 c000 01f9 8000 00f1 0000 0000     ................
  409e00:	e000 0000 e000 0000 fc00 01ff fc00 03ff     ................
  409e10:	fc00 03ff e000 0380 e000 0380 0000 0380     ................
  409e20:	0000 0000 e000 00ff e000 01ff e000 03ff     ................
  409e30:	0000 03c0 0000 0380 0000 0380 0000 0180     ................
  409e40:	0000 01c0 e000 03ff e000 03ff e000 03ff     ................
  409e50:	0000 0000 2000 0000 e000 0001 e000 000f     ..... ..........
  409e60:	e000 007f 0000 03ff 0000 03f0 0000 03f0     ................
  409e70:	0000 03ff e000 007f e000 000f e000 0001     ................
  409e80:	2000 0000 2000 0000 e000 0001 e000 001f     . ... ..........
  409e90:	e000 01ff 0000 03fe 0000 03e0 0000 03fe     ................
  409ea0:	c000 007f e000 0007 e000 000f c000 007f     ................
  409eb0:	0000 03fc 0000 03e0 0000 03ff e000 01ff     ................
  409ec0:	e000 001f e000 0001 0000 0000 2000 0200     ............. ..
  409ed0:	6000 0300 e000 03c1 e000 03f3 c000 01ff     .`..............
  409ee0:	0000 007f 0000 007f c000 00ff e000 03f7     ................
  409ef0:	e000 03c1 6000 0380 2000 0200 2000 0000     .....`... ... ..
  409f00:	e000 7001 e000 700f e000 707f 0000 7fff     ...p...p...p....
  409f10:	0000 3ff8 0000 1ff8 0000 03ff e000 007f     ...?............
  409f20:	e000 000f e000 0001 2000 0000 0000 0000     ......... ......
  409f30:	e000 0380 e000 03c0 e000 03f0 e000 03f8     ................
  409f40:	e000 03fc e000 039f e000 038f e000 0387     ................
  409f50:	e000 0381 e000 0380 0000 0000 0000 0000     ................
  409f60:	0000 000e 0000 001f fe00 0fff ff00 1ffb     ................
  409f70:	ff00 1fe0 0380 3800 0200 1000 0000 0000     .......8........
  409f80:	0000 0000 fe00 1fff fe00 1fff 0000 0000     ................
  409f90:	0000 0000 0200 1000 0380 3800 ff00 1fe0     ...........8....
  409fa0:	ff00 1ffb fe00 0fff 0000 001f 0000 000e     ................
	...
  409fb8:	0000 0038 0000 003e 0000 003f 0000 0007     ..8...>...?.....
  409fc8:	0000 0007 0000 000f 0000 001e 0000 001c     ................
  409fd8:	0000 0038 0000 0038 0000 003c 0000 001f     ..8...8...<.....
  409fe8:	0000 000f 0000 0000 0000 0000               ............

00409ff4 <Roboto_8pt_CharCount>:
  409ff4:	0303 0704 0806 0207 0404 0605 0302 0503     ................
  40a004:	0606 0606 0606 0606 0606 0203 0606 0506     ................
  40a014:	070a 0707 0607 0806 0308 0706 0a06 0808     ................
  40a024:	0807 0707 0707 0a07 0707 0307 0305 0505     ................
  40a034:	0603 0606 0606 0604 0306 0603 0a03 0606     ................
  40a044:	0606 0604 0604 0805 0506 0405 0403 0007     ................

0040a054 <Roboto_8pt_Table>:
	...
  40a05c:	17e0 0000 0000 00e0 0000 00e0 0400 1c80     ................
  40a06c:	07e0 0480 1f80 04e0 0080 0000 19c0 1120     .............. .
  40a07c:	3330 1a60 0c80 00c0 0120 0d20 02c0 0d80     03`..... . .....
  40a08c:	1240 1200 0c00 0000 1ec0 1120 1320 1ce0     @......... . ...
  40a09c:	0a00 1000 0000 0060 0000 1f80 6060 8010     ......`.....``..
  40a0ac:	8010 6060 1f80 0000 0040 0180 00e0 0180     ..``....@.......
  40a0bc:	0040 0000 0200 0200 0f80 0200 0200 4000     @..............@
  40a0cc:	3000 0200 0200 0200 0000 1000 0000 3000     .0.............0
  40a0dc:	0c00 0380 0060 0000 0000 0fc0 1020 1020     ....`....... . .
  40a0ec:	1020 0fc0 0000 0040 0020 1fe0 0000 0000      .....@. .......
  40a0fc:	0000 1860 1420 1220 11e0 1000 0000 1860     ..`. . .......`.
  40a10c:	1120 1120 1ee0 0000 0400 0700 0480 0460      . ...........`.
  40a11c:	1fe0 0400 0000 09e0 1120 1120 1120 0e20     ........ . . . .
  40a12c:	0000 0fc0 1160 1120 1120 0e00 0020 1020     ....`. . ... . .
  40a13c:	1820 0720 00e0 0000 0000 1ee0 1120 1120      . ......... . .
  40a14c:	1ee0 0000 0000 03e0 1220 1220 0fc0 0000     ........ . .....
  40a15c:	0000 1080 0000 4000 3080 0200 0200 0500     .......@.0......
  40a16c:	0500 0880 0000 0000 0500 0500 0500 0500     ................
  40a17c:	0000 0000 0880 0500 0500 0200 0000 0040     ..............@.
  40a18c:	0020 1620 0120 00c0 0000 1f80 2040 5f20      . . .......@  _
  40a19c:	50a0 48a0 5fa0 1040 0f80 0000 1000 0e00     .P.H._@.........
  40a1ac:	05c0 0420 05c0 0e00 1000 0000 1fe0 1120     .. ........... .
  40a1bc:	1120 1120 0ec0 0000 0000 0fc0 1020 1020      . ......... . .
  40a1cc:	1020 1860 0480 0000 1fe0 1020 1020 1020      .`....... . . .
  40a1dc:	0cc0 0300 0000 1fe0 1120 1120 1120 1020     ........ . . . .
  40a1ec:	0000 1fe0 0220 0220 0220 0020 0000 0fc0     .... . . . .....
  40a1fc:	1820 1020 1220 1260 0e80 0000 0000 1fe0      . . .`.........
  40a20c:	0100 0100 0100 0100 1fe0 0000 0000 1fe0     ................
  40a21c:	0000 0800 1800 1000 1000 0fe0 0000 0000     ................
  40a22c:	1fe0 0300 0380 0440 1820 1020 0000 1fe0     ......@. . .....
  40a23c:	1000 1000 1000 1000 0000 1fe0 0060 0380     ............`...
  40a24c:	0c00 0c00 0380 0060 1fe0 0000 0000 1fe0     ......`.........
  40a25c:	00c0 0180 0600 0c00 1fe0 0000 0000 0fc0     ................
  40a26c:	1020 1020 1020 1020 0fc0 0000 0000 1fe0      . . . .........
  40a27c:	0220 0220 0220 0220 01c0 0000 0fc0 1860      . . . .......`.
  40a28c:	1020 1020 1860 2fc0 0000 0000 1fe0 0220      . .`../...... .
  40a29c:	0220 0620 19c0 1000 0000 08c0 1120 1120      . ......... . .
  40a2ac:	1220 0e40 0000 0000 0020 0020 1fe0 0020      .@..... . ... .
  40a2bc:	0020 0000 0000 0fe0 1000 1000 1000 0fe0      ...............
  40a2cc:	0000 0020 01c0 0e00 1000 0e00 01c0 0020     .. ........... .
  40a2dc:	0020 03c0 1c00 0f00 01e0 01e0 0f00 1c00      ...............
  40a2ec:	03c0 0020 1020 1860 0480 0300 0cc0 1860     .. . .`.......`.
  40a2fc:	1020 0020 00e0 0180 1e00 0180 00e0 0020      . ........... .
  40a30c:	0000 1c20 1a20 1120 10e0 1060 0000 0000     .. . . ...`.....
  40a31c:	7ff0 4010 0020 01c0 0600 3800 0000 4010     ...@ ......8...@
  40a32c:	7ff0 0000 0000 01c0 0060 01c0 0000 2000     ........`...... 
  40a33c:	2000 2000 2000 2000 0010 0030 0020 0000     . . . . ..0. ...
  40a34c:	1e80 1280 1280 1f80 0000 0000 1fe0 1080     ................
  40a35c:	1080 1980 0600 0000 0f00 1080 1080 1880     ................
  40a36c:	0900 0600 1980 1080 1080 1fe0 0000 0000     ................
  40a37c:	0f00 1280 1280 1a80 0b00 0080 1fe0 0090     ................
  40a38c:	0090 0600 5980 5080 5080 7f80 0000 0000     .....Y.P.P......
  40a39c:	1fe0 0080 0080 1f80 0000 0000 1fa0 0000     ................
  40a3ac:	4000 7fa0 0000 0000 1ff0 0200 0d00 1080     .@..............
  40a3bc:	1000 0000 1ff0 0000 0000 1f80 0100 0080     ................
  40a3cc:	1f80 0100 0080 0080 1f80 0000 0000 1f80     ................
  40a3dc:	0080 0080 1f80 0000 0600 1980 1080 1080     ................
  40a3ec:	1980 0600 0000 7f80 1080 1080 1980 0600     ................
  40a3fc:	0600 1980 1080 1080 7f80 0000 0000 1f80     ................
  40a40c:	0080 0080 0000 1b80 1280 1280 1d80 0000     ................
  40a41c:	0080 0fc0 1080 0000 0000 1f80 1000 1000     ................
  40a42c:	1f80 0000 0180 0e00 1800 0e00 0180 0180     ................
  40a43c:	0e00 1c00 0780 0780 1c00 0e00 0180 1080     ................
  40a44c:	1980 0600 0600 1980 1080 4080 4700 3800     ...........@.G.8
  40a45c:	0700 0080 0000 1880 1680 1280 1180 0200     ................
  40a46c:	0700 78f0 4010 0000 3fe0 0000 4010 3df0     ...x.@...?...@.=
  40a47c:	0700 0200 0400 0200 0200 0600 0400 0400     ................
  40a48c:	0200 0000                                   ....

0040a490 <IBMPlexSans_18pt_CharCount>:
  40a490:	0706 110a 160e 0611 0808 0e0b 0a07 0907     ................
  40a4a0:	0e0e 0e0e 0e0e 0e0e 0e0e 0707 0e0e 0b0e     ................
  40a4b0:	0f15 0f10 0e10 110d 0a11 0f0c 130c 1111     ................
  40a4c0:	110f 0e0f 100e 150f 0e0f 080e 0809 0e0e     ................
  40a4d0:	0d0e 0c0e 0d0e 0d08 060e 0d06 1507 0d0e     ................
  40a4e0:	0e0e 0c09 0e08 120c 0c0c 080b 0808 000e     ................

0040a4f0 <IBMPlexSans_18pt_Table>:
	...
  40a510:	3f00 0080 ff00 01cf 3f00 0080 0000 0000     .?.......?......
	...
  40a52c:	3f80 0000 3f80 0000 0000 0000 0000 0000     .?...?..........
  40a53c:	3f80 0000 3f80 0000 0000 0000 0000 0000     .?...?..........
  40a54c:	0000 0000 0000 000c 6000 000c 6000 000c     .........`...`..
  40a55c:	6000 01fc e000 007f ff00 000d 6700 000c     .`...........g..
  40a56c:	6000 000c 6000 01ec e000 00ff fe00 000f     .`...`..........
  40a57c:	6f00 000c 6000 000c 6000 000c 0000 0000     .o...`...`......
	...
  40a594:	0000 0020 7c00 0060 ee00 00c0 c700 01c1     .. ..|`.........
  40a5a4:	8300 0181 ffc0 07ff ffc0 07ff 8300 0183     ................
  40a5b4:	0700 01c3 0600 00c7 0c00 007e 0800 003c     ..........~...<.
	...
  40a5cc:	3800 0000 fe00 0000 c700 0001 8300 0101     .8..............
  40a5dc:	8300 0181 8300 00c1 fe00 0070 7c00 0038     ..........p..|8.
  40a5ec:	0000 000e 0000 0007 c000 0001 e000 0000     ................
  40a5fc:	3000 007c 1c00 00fe 0600 0183 0300 0183     .0|.............
  40a60c:	0100 0183 0000 01c7 0000 00fe 0000 0038     ..............8.
	...
  40a628:	0000 007c 1800 00fe 7e00 01c3 e600 0183     ..|......~......
  40a638:	c300 0181 8300 0183 c300 0186 6700 018c     .............g..
  40a648:	3e00 00d8 1c00 0070 0000 00ff 0000 01cf     .>....p.........
  40a658:	0000 0183 0000 0103 0000 0000 0000 0000     ................
  40a668:	0000 0000 3f80 0000 3f80 0000 0000 0000     .....?...?......
	...
  40a684:	e000 003f f800 00ff 1e00 03c0 0300 0600     ..?.............
  40a694:	0180 0c00 0080 0800 0080 0800 0180 0c00     ................
  40a6a4:	0300 0600 1e00 03c0 f800 00ff e000 003f     ..............?.
	...
  40a6c0:	0600 0000 4400 0000 ec00 0000 3e00 0000     .....D.......>..
  40a6d0:	1f80 0000 3e00 0000 ec00 0000 4400 0000     .....>.......D..
  40a6e0:	0600 0000 0000 0000 0000 0000 0000 0006     ................
  40a6f0:	0000 0006 0000 0006 0000 0006 0000 0006     ................
  40a700:	f000 00ff f000 00ff 0000 0006 0000 0006     ................
  40a710:	0000 0006 0000 0006 0000 0006 0000 0000     ................
  40a720:	0000 0000 0000 0800 0000 0dc0 0000 07c0     ................
  40a730:	0000 03c0 0000 0000 0000 0000 0000 0000     ................
  40a740:	0000 0000 0000 0006 0000 0006 0000 0006     ................
  40a750:	0000 0006 0000 0006 0000 0006 0000 0000     ................
	...
  40a76c:	0000 01c0 0000 01c0 0000 01c0 0000 0000     ................
  40a77c:	0000 0000 0000 1000 0000 1f00 0000 07f0     ................
  40a78c:	0000 007e e000 000f fc00 0000 0f80 0000     ..~.............
  40a79c:	0180 0000 0000 0000 0000 0000 e000 000f     ................
  40a7ac:	fc00 007f 1e00 00f0 0600 00c0 0300 0180     ................
  40a7bc:	0300 0180 0300 0180 0300 0180 0600 00c0     ................
  40a7cc:	1e00 00f0 fc00 007f e000 000f 0000 0000     ................
  40a7dc:	0000 0000 1000 0000 3800 0180 1c00 0180     .........8......
  40a7ec:	0e00 0180 0700 0180 0300 0180 ff00 01ff     ................
  40a7fc:	ff00 01ff 0000 0180 0000 0180 0000 0180     ................
  40a80c:	0000 0180 0000 0000 0000 0000 1000 0000     ................
  40a81c:	1c00 01c0 0e00 01e0 0700 01b0 0300 01b8     ................
  40a82c:	0300 019c 0300 018e 0300 0187 8600 0183     ................
  40a83c:	fe00 0181 7800 0180 0000 0180 0000 0000     .....x..........
  40a84c:	0000 0000 1800 0060 1c00 00e0 0600 00c0     ......`.........
  40a85c:	8300 0181 8300 0181 8300 0181 8300 0181     ................
  40a86c:	c300 0181 7e00 00c3 7e00 00fe 1800 003c     .....~...~....<.
	...
  40a888:	0000 0038 0000 003e 8000 0033 c000 0031     ..8...>...3...1.
  40a898:	7000 0030 1c00 0030 0f00 0030 0300 0030     .p0...0...0...0.
  40a8a8:	ff00 01ff ff00 01ff 0000 0030 0000 0030     ..........0...0.
	...
  40a8c4:	fe00 0061 ff00 00e1 0300 01c1 8300 0180     ..a.............
  40a8d4:	c300 0180 c300 0180 c300 0180 c300 00c1     ................
  40a8e4:	8300 00ff 0300 007f 0000 0000 0000 0000     ................
  40a8f4:	0000 0000 0000 000e c000 007f f000 00ff     ................
  40a904:	b800 00c1 8c00 0180 c600 0180 c300 0180     ................
  40a914:	c100 0180 c100 00c1 8000 00ff 0000 007f     ................
  40a924:	0000 001c 0000 0000 0000 0000 3f00 0000     .............?..
  40a934:	3f00 0000 0300 0000 0300 0100 0300 01c0     .?..............
  40a944:	0300 00f8 0300 003e 8300 0007 f300 0001     ......>.........
  40a954:	7f00 0000 0f00 0000 0000 0000 0000 0000     ................
  40a964:	0000 0000 0000 003c 3c00 007e 7e00 00e7     ......<..<~..~..
  40a974:	c700 01c3 8300 0181 8300 0181 8300 0181     ................
  40a984:	8300 0181 c700 01c3 7e00 00e7 3c00 007e     .........~...<~.
  40a994:	0000 003c 0000 0000 0000 0000 6000 0000     ..<..........`..
  40a9a4:	fc00 0001 fe00 0003 0600 0107 0300 0106     ................
  40a9b4:	0300 0186 0300 00c6 0300 0062 0600 003b     ..........b...;.
  40a9c4:	fe00 001f fc00 0007 e000 0000 0000 0000     ................
	...
  40a9dc:	7000 01c0 7000 01c0 7000 01c0 0000 0000     .p...p...p......
	...
  40a9f4:	0000 0800 7000 0dc0 7000 07c0 7000 03c0     .....p...p...p..
	...
  40aa14:	0000 0006 0000 000f 0000 000f 8000 0019     ................
  40aa24:	c000 0030 c000 0030 6000 0060 6000 0060     ..0...0..``..``.
  40aa34:	3000 00c0 1800 0180 0000 0000 0000 0000     .0..............
	...
  40aa4c:	c000 0018 c000 0018 c000 0018 c000 0018     ................
  40aa5c:	c000 0018 c000 0018 c000 0018 c000 0018     ................
  40aa6c:	c000 0018 c000 0018 c000 0018 0000 0000     ................
	...
  40aa84:	1800 0180 3000 00c0 6000 0060 6000 0060     .....0...``..``.
  40aa94:	c000 0030 c000 0030 8000 0019 0000 000f     ..0...0.........
  40aaa4:	0000 000f 0000 0006 0000 0000 0000 0000     ................
  40aab4:	0000 0000 1c00 0000 0e00 0000 0700 0000     ................
  40aac4:	0300 01cf 8300 01cf 8300 0001 8700 0001     ................
  40aad4:	fe00 0000 7c00 0000 0000 0000 0000 0000     .....|..........
  40aae4:	0000 000f e000 007f 7800 01c0 1c00 0380     .........x......
  40aaf4:	0e00 0700 8600 061f c600 0e3f e300 0c70     ..........?...p.
  40ab04:	6300 0c60 6300 0c60 6300 0c60 8300 0c10     .c`..c`..c`.....
  40ab14:	e300 0c3f 0600 0c70 0600 0c60 0c00 0060     ..?...p...`...`.
  40ab24:	3800 0030 f000 001f 8000 0007 0000 0000     .80.............
  40ab34:	0000 0100 0000 01c0 0000 01f8 0000 003f     ..............?.
  40ab44:	e000 000f 7c00 000c 0f00 000c 0300 000c     .....|..........
  40ab54:	1f00 000c fc00 000c e000 000f 0000 003f     ..............?.
  40ab64:	0000 01f8 0000 01c0 0000 0100 0000 0000     ................
  40ab74:	0000 0000 ff00 01ff ff00 01ff 8300 0181     ................
  40ab84:	8300 0181 8300 0181 8300 0181 8300 0181     ................
  40ab94:	8300 0181 8300 0181 c700 01c3 7e00 00ff     .............~..
  40aba4:	3800 007e 0000 0000 0000 0000 0000 0000     .8~.............
  40abb4:	8000 0003 f800 003f fc00 007f 0e00 00e0     ......?.........
  40abc4:	0700 01c0 0300 0180 0300 0180 0300 0180     ................
  40abd4:	0300 0180 0700 01c0 0600 00c0 1c00 0070     ..............p.
  40abe4:	1800 0030 0000 0000 0000 0000 0000 0000     ..0.............
  40abf4:	ff00 01ff ff00 01ff 0300 0180 0300 0180     ................
  40ac04:	0300 0180 0300 0180 0300 0180 0300 0180     ................
  40ac14:	0700 01c0 0e00 00e0 fc00 007f f800 003f     ..............?.
  40ac24:	c000 0007 0000 0000 0000 0000 0000 0000     ................
  40ac34:	ff00 01ff ff00 01ff 8300 0181 8300 0181     ................
  40ac44:	8300 0181 8300 0181 8300 0181 8300 0181     ................
  40ac54:	8300 0181 8300 0181 0000 0000 0000 0000     ................
	...
  40ac6c:	ff00 01ff ff00 01ff 8300 0001 8300 0001     ................
  40ac7c:	8300 0001 8300 0001 8300 0001 8300 0001     ................
  40ac8c:	8300 0001 0300 0000 0000 0000 0000 0000     ................
  40ac9c:	0000 0000 f000 001f fc00 007f 0e00 00e0     ................
  40acac:	0600 00c0 0300 0180 0300 0180 0300 0180     ................
  40acbc:	0300 0183 0300 0183 0600 00c3 0e00 0043     ..............C.
  40accc:	1c00 01ff 1800 01ff 0000 0000 0000 0000     ................
	...
  40ace4:	ff00 01ff ff00 01ff 8000 0001 8000 0001     ................
  40acf4:	8000 0001 8000 0001 8000 0001 8000 0001     ................
  40ad04:	8000 0001 8000 0001 8000 0001 ff00 01ff     ................
  40ad14:	ff00 01ff 0000 0000 0000 0000 0000 0000     ................
  40ad24:	0000 0000 0300 0180 0300 0180 ff00 01ff     ................
  40ad34:	ff00 01ff 0300 0180 0300 0180 0000 0000     ................
	...
  40ad4c:	0000 0060 0300 00e0 0300 01c0 0300 0180     ..`.............
  40ad5c:	0300 0180 0300 0180 0300 01c0 ff00 00ff     ................
  40ad6c:	ff00 007f 0000 0000 0000 0000 0000 0000     ................
  40ad7c:	0000 0000 ff00 01ff ff00 01ff 0000 0007     ................
  40ad8c:	8000 0003 c000 0003 e000 0007 7000 000e     .............p..
  40ad9c:	1800 001c 0c00 0038 0600 0070 0300 00e0     ......8...p.....
  40adac:	0100 01c0 0000 0180 0000 0000 0000 0000     ................
  40adbc:	ff00 01ff ff00 01ff 0000 0180 0000 0180     ................
  40adcc:	0000 0180 0000 0180 0000 0180 0000 0180     ................
  40addc:	0000 0180 0000 0000 0000 0000 0000 0000     ................
  40adec:	ff00 01ff ff00 01ff 0f00 0000 3c00 0000     .............<..
  40adfc:	7000 0000 e000 0001 8000 0007 0000 000e     .p..............
  40ae0c:	0000 0007 c000 0001 7000 0000 3c00 0000     .........p...<..
  40ae1c:	0700 0000 ff00 01ff ff00 01ff 0000 0000     ................
	...
  40ae38:	ff00 01ff ff00 01ff 0700 0000 1c00 0000     ................
  40ae48:	7800 0000 e000 0001 8000 0003 0000 000f     .x..............
  40ae58:	0000 003c 0000 0070 0000 00c0 ff00 01ff     ..<...p.........
  40ae68:	ff00 01ff 0000 0000 0000 0000 0000 0000     ................
  40ae78:	8000 0003 f800 003f fc00 007f 0e00 00e0     ......?.........
  40ae88:	0600 00c0 0300 0180 0300 0180 0300 0180     ................
  40ae98:	0300 0180 0300 0180 0600 00c0 0e00 00e0     ................
  40aea8:	fc00 007f f800 003f 8000 0003 0000 0000     ......?.........
	...
  40aec4:	ff00 01ff ff00 01ff 0300 0003 0300 0003     ................
  40aed4:	0300 0003 0300 0003 0300 0003 0300 0003     ................
  40aee4:	8700 0003 fe00 0001 7800 0000 0000 0000     .........x......
  40aef4:	0000 0000 8000 0003 f800 003f fc00 007f     ..........?.....
  40af04:	0e00 00e0 0600 00c0 0300 0180 0300 0180     ................
  40af14:	0300 1f80 0300 1f80 0300 1980 0600 18c0     ................
  40af24:	0e00 00e0 fc00 007f f800 003f 8000 0003     ..........?.....
	...
  40af40:	ff00 01ff ff00 01ff 0300 0003 0300 0003     ................
  40af50:	0300 0003 0300 0003 0300 0007 0300 001f     ................
  40af60:	8700 007b fe00 01e1 fc00 01c0 0000 0100     ..{.............
	...
  40af78:	0000 0060 7c00 0060 fe00 00c0 c700 01c1     ..`..|`.........
  40af88:	8300 0181 8300 0181 8300 0181 8300 0183     ................
  40af98:	0700 01c3 0600 00e7 1c00 007e 1800 003c     ..........~...<.
	...
  40afb0:	0300 0000 0300 0000 0300 0000 0300 0000     ................
  40afc0:	0300 0000 ff00 01ff ff00 01ff 0300 0000     ................
  40afd0:	0300 0000 0300 0000 0300 0000 0300 0000     ................
	...
  40afec:	ff00 003f ff00 00ff 0000 00e0 0000 01c0     ..?.............
  40affc:	0000 0180 0000 0180 0000 0180 0000 0180     ................
  40b00c:	0000 01c0 0000 00e0 ff00 007f ff00 003f     ..............?.
	...
  40b028:	0700 0000 3f00 0000 fc00 0001 e000 000f     .....?..........
  40b038:	0000 007f 0000 01f0 0000 0180 0000 01f0     ................
  40b048:	0000 007f e000 000f fc00 0001 3f00 0000     .............?..
  40b058:	0300 0000 0000 0000 0100 0000 1f00 0000     ................
  40b068:	ff00 0001 e000 001f 0000 01fe 0000 01c0     ................
  40b078:	0000 01f8 8000 003f f800 0003 3f00 0000     ......?......?..
  40b088:	0300 0000 3f00 0000 f800 0003 8000 003f     .....?........?.
  40b098:	0000 01f0 0000 01c0 0000 01fe e000 001f     ................
  40b0a8:	fe00 0001 1f00 0000 0100 0000 0000 0000     ................
  40b0b8:	0100 0100 0700 01c0 0f00 00e0 3c00 0078     .............<x.
  40b0c8:	7000 001e e000 0007 8000 0003 e000 000f     .p..............
  40b0d8:	7000 001e 3c00 0078 0e00 00e0 0700 01c0     .p...<x.........
  40b0e8:	0100 0100 0000 0000 0100 0000 0300 0000     ................
  40b0f8:	0f00 0000 3c00 0000 7000 0000 e000 0001     .....<...p......
  40b108:	8000 01ff 8000 01ff e000 0001 7000 0000     .............p..
  40b118:	3c00 0000 0f00 0000 0300 0000 0100 0000     .<..............
  40b128:	0000 0000 0300 01c0 0300 01e0 0300 01b0     ................
  40b138:	0300 019c 0300 018e 0300 0183 c300 0181     ................
  40b148:	e300 0180 3b00 0180 1f00 0180 0f00 0180     .....;..........
  40b158:	0300 0180 0000 0000 0000 0000 0000 0000     ................
  40b168:	ff80 0fff ff80 0fff 0180 0c00 0180 0c00     ................
	...
  40b184:	0180 0000 1f80 0000 fc00 0000 c000 000f     ................
  40b194:	0000 007e 0000 07e0 0000 1f00 0000 1000     ..~.............
	...
  40b1ac:	0180 0c00 0180 0c00 ff80 0fff ff80 0fff     ................
	...
  40b1c8:	0000 0001 c000 0003 f000 0000 3800 0000     .............8..
  40b1d8:	0e00 0000 0700 0000 0700 0000 0e00 0000     ................
  40b1e8:	3800 0000 f000 0000 c000 0003 0000 0001     .8..............
	...
  40b200:	0000 1800 0000 1800 0000 1800 0000 1800     ................
  40b210:	0000 1800 0000 1800 0000 1800 0000 1800     ................
  40b220:	0000 1800 0000 1800 0000 1800 0000 1800     ................
	...
  40b244:	0080 0000 01c0 0000 0380 0000 0600 0000     ................
	...
  40b270:	0000 0070 c000 00f8 c000 01dc 6000 018c     ..p..........`..
  40b280:	6000 018c 6000 018c 6000 008c e000 004c     .`...`...`....L.
  40b290:	c000 00ff 8000 01ff 0000 0180 0000 0000     ................
	...
  40b2a8:	ff80 01ff ff80 01ff 8000 0040 4000 0080     ..........@..@..
  40b2b8:	6000 0180 6000 0180 6000 0180 e000 01c0     .`...`...`......
  40b2c8:	c000 00e1 8000 007f 0000 001e 0000 0000     ................
  40b2d8:	0000 0000 0000 003f 8000 007f c000 00e1     ......?.........
  40b2e8:	e000 01c0 6000 0180 6000 0180 6000 0180     .....`...`...`..
  40b2f8:	e000 0180 c000 00c1 8000 0061 0000 0000     ..........a.....
  40b308:	0000 0000 0000 001e 8000 007f c000 00e1     ................
  40b318:	e000 01c0 6000 0180 6000 0180 6000 0180     .....`...`...`..
  40b328:	4000 0080 8000 0040 ff80 01ff ff80 01ff     .@....@.........
	...
  40b344:	0000 003f 8000 007f c000 00cc 6000 018c     ..?..........`..
  40b354:	6000 018c 6000 018c 6000 018c 6000 018c     .`...`...`...`..
  40b364:	c000 00cc 8000 00cf 0000 004f 0000 0000     ..........O.....
  40b374:	0000 0000 6000 0000 6000 0000 ff00 01ff     .....`...`......
  40b384:	ff80 01ff 6180 0000 6180 0000 0000 0000     .....a...a......
  40b394:	0000 0000 0000 0c00 8000 1ee7 c000 39ef     ...............9
  40b3a4:	6000 319c 6000 3198 6000 3198 6000 3198     .`.1.`.1.`.1.`.1
  40b3b4:	6000 3198 f800 318f 9800 1b87 1800 1f00     .`.1...1........
  40b3c4:	0000 0600 0000 0000 0000 0000 ff80 01ff     ................
  40b3d4:	ff80 01ff 8000 0000 4000 0000 6000 0000     .........@...`..
  40b3e4:	6000 0000 6000 0000 e000 0000 c000 01ff     .`...`..........
  40b3f4:	8000 01ff 0000 0000 0000 0000 0000 0000     ................
  40b404:	0000 0000 e180 01ff e180 01ff 0000 0000     ................
  40b414:	0000 0000 0000 3000 0000 3000 e180 3fff     .......0...0...?
  40b424:	e180 1fff 0000 0000 0000 0000 0000 0000     ................
  40b434:	0000 0000 ff80 01ff ff80 01ff 0000 000c     ................
  40b444:	0000 0006 0000 000f 8000 001f c000 0079     ..............y.
  40b454:	e000 00f0 6000 01c0 2000 0180 0000 0100     .....`... ......
	...
  40b46c:	ff80 00ff ff80 01ff 0000 0180 0000 0180     ................
	...
  40b488:	e000 01ff e000 01ff 8000 0000 4000 0000     .............@..
  40b498:	6000 0000 6000 0000 6000 0000 c000 0001     .`...`...`......
  40b4a8:	c000 01ff 8000 01ff 4000 0000 6000 0000     .........@...`..
  40b4b8:	6000 0000 6000 0000 e000 0000 c000 01ff     .`...`..........
  40b4c8:	8000 01ff 0000 0000 0000 0000 0000 0000     ................
  40b4d8:	0000 0000 e000 01ff e000 01ff 8000 0000     ................
  40b4e8:	4000 0000 6000 0000 6000 0000 6000 0000     .@...`...`...`..
  40b4f8:	e000 0000 c000 01ff 8000 01ff 0000 0000     ................
	...
  40b510:	0000 003f 8000 007f c000 00c0 6000 0180     ..?..........`..
  40b520:	6000 0180 6000 0180 6000 0180 6000 0180     .`...`...`...`..
  40b530:	c000 00c0 8000 007f 0000 003f 0000 0000     ..........?.....
	...
  40b548:	e000 3fff e000 3fff 8000 0040 4000 0080     ...?...?..@..@..
  40b558:	6000 0180 6000 0180 6000 0180 e000 01c0     .`...`...`......
  40b568:	c000 00e1 8000 007f 0000 001e 0000 0000     ................
  40b578:	0000 0000 0000 001e 8000 007f c000 00e1     ................
  40b588:	e000 01c0 6000 0180 6000 0180 6000 0180     .....`...`...`..
  40b598:	4000 0080 8000 0040 e000 3fff e000 3fff     .@....@....?...?
	...
  40b5b8:	e000 01ff e000 01ff 8000 0000 4000 0000     .............@..
  40b5c8:	6000 0000 6000 0000 6000 0000 0000 0000     .`...`...`......
  40b5d8:	0000 0060 c000 00e7 e000 00c6 6000 018c     ..`..........`..
  40b5e8:	6000 018c 6000 018c 6000 018c c000 00dd     .`...`...`......
  40b5f8:	c000 00f9 0000 0000 0000 0000 6000 0000     .............`..
  40b608:	6000 0000 e000 007f fc00 01ff 6000 0180     .`...........`..
  40b618:	6000 0180 6000 0180 0000 0000 0000 0000     .`...`..........
  40b628:	0000 0000 e000 007f e000 00ff 0000 01c0     ................
  40b638:	0000 0180 0000 0180 0000 0180 0000 0080     ................
  40b648:	0000 0040 e000 01ff e000 01ff 0000 0000     ..@.............
	...
  40b660:	e000 0000 e000 0003 0000 001f 0000 00f8     ................
  40b670:	0000 01c0 0000 01c0 0000 00f8 0000 001f     ................
  40b680:	e000 0003 e000 0000 0000 0000 0000 0000     ................
  40b690:	e000 0001 e000 000f 0000 00fe 0000 01e0     ................
  40b6a0:	0000 01c0 0000 00fc 8000 001f e000 0001     ................
  40b6b0:	e000 0001 8000 001f 0000 00fc 0000 01c0     ................
  40b6c0:	0000 01c0 0000 00fe c000 000f e000 0001     ................
	...
  40b6d8:	2000 0100 e000 01c0 c000 00e1 8000 0033     . ............3.
  40b6e8:	0000 001e 0000 001e 0000 003b c000 00e1     ..........;.....
  40b6f8:	e000 01c0 2000 0100 0000 0000 2000 0000     ..... ....... ..
  40b708:	e000 0000 e000 3007 0000 301f 0000 38f8     .......0...0...8
  40b718:	0000 1fc0 0000 07c0 0000 00f8 0000 001f     ................
  40b728:	c000 0007 e000 0000 2000 0000 0000 0000     ......... ......
  40b738:	6000 01c0 6000 01e0 6000 01b0 6000 0198     .`...`...`...`..
  40b748:	6000 018c 6000 0186 e000 0183 e000 0181     .`...`..........
  40b758:	6000 0180 0000 0000 0000 0002 0000 0007     .`..............
  40b768:	0000 0005 ff80 0ffd 0180 0c00 0180 0c00     ................
  40b778:	0180 0c00 0000 0000 0000 0000 0000 0000     ................
  40b788:	0000 0000 ff80 0fff ff80 0fff 0000 0000     ................
	...
  40b7a4:	0180 0c00 0180 0c00 0180 0c00 ff80 0ffd     ................
  40b7b4:	0000 0005 0000 0007 0000 0002 0000 0000     ................
  40b7c4:	0000 0002 0000 0007 0000 0003 0000 0003     ................
  40b7d4:	0000 0003 0000 0006 0000 0006 0000 000c     ................
  40b7e4:	0000 000c 0000 000c 0000 000e 0000 0004     ................
  40b7f4:	0000 0000                                   ....

0040b7f8 <ArvoBold_40pt_CharCount>:
  40b7f8:	130b 2811 2f20 0923 1313 201a 140d 150e     ...( /#.... ....
  40b808:	1522 1c1e 1f20 1f1e 1e1f 0c0e 1a16 1f15     "... ...........
  40b818:	273b 2824 2426 2a21 1531 2b13 3d23 2a2c     ;'$(&$!*1..+#=,*
  40b828:	2a24 2028 2825 3d28 2829 1121 1214 1b20     $*( %((=)(!... .
  40b838:	2114 1f22 1f24 2215 1424 2610 3814 2026     .!".$.."$..&.8& 
  40b848:	2323 1d1d 2414 3121 2020 171e 1712 0017     ##...$!1  ......

0040b858 <ArvoBold_40pt_Table>:
	...
  40b8d0:	fc00 01ff c000 0001 fc00 ffff f03f 0007     ............?...
  40b8e0:	fc00 ffff f03f 0007 fc00 ffff f83f 000f     ....?.......?...
  40b8f0:	fc00 ffff f83f 000f fc00 ffff f83f 000f     ....?.......?...
  40b900:	fc00 ffff f83f 000f fc00 ffff f03f 0007     ....?.......?...
  40b910:	fc00 ffff f03f 0007 fc00 01ff c000 0001     ....?...........
	...
  40b950:	fc00 0001 0000 0000 fc00 007f 0000 0000     ................
  40b960:	fc00 007f 0000 0000 fc00 007f 0000 0000     ................
  40b970:	fc00 007f 0000 0000 fc00 007f 0000 0000     ................
  40b980:	fc00 007f 0000 0000 0000 0000 0000 0000     ................
	...
  40b998:	fc00 007f 0000 0000 fc00 007f 0000 0000     ................
  40b9a8:	fc00 007f 0000 0000 fc00 007f 0000 0000     ................
  40b9b8:	fc00 007f 0000 0000 fc00 0000 0000 0000     ................
	...
  40b9d4:	0400 0000 0000 0000 07c0 0000 0000 0000     ................
  40b9e4:	07f0 0000 0000 0380 07f0 0007 0000 03f8     ................
  40b9f4:	fff0 0007 0000 03f8 fff0 0007 0000 03f8     ................
  40ba04:	fffe 0007 0000 f3f8 ffff 0007 0000 fff8     ................
  40ba14:	ffff 0007 0000 fffc ffff 0007 e000 ffff     ................
  40ba24:	ffff 0007 fc00 ffff ffff 0007 fc00 ffff     ................
  40ba34:	ffff 0001 fc00 ffff 0fff 0000 fc00 ffff     ................
  40ba44:	07ff 0000 fc00 ffff 07f3 0000 fc00 1fff     ................
  40ba54:	07f0 0000 fc00 03ff 07f0 0000 fc00 03fb     ................
  40ba64:	07f0 0000 1c00 03f8 07f0 0000 0000 03f8     ................
  40ba74:	07f0 0006 0000 03f8 f7f0 0007 0000 03f8     ................
  40ba84:	fff0 0007 0000 03f8 fffe 0007 0000 f3f8     ................
  40ba94:	ffff 0007 0000 fff8 ffff 0007 0000 fffc     ................
  40baa4:	ffff 0007 e000 ffff ffff 0007 fc00 ffff     ................
  40bab4:	ffff 0007 fc00 ffff ffff 0003 fc00 ffff     ................
  40bac4:	0fff 0000 fc00 ffff 07ff 0000 fc00 ffff     ................
  40bad4:	07f3 0000 fc00 1fff 07f0 0000 fc00 03ff     ................
  40bae4:	07f0 0000 fc00 03ff 07f0 0000 1c00 03f8     ................
  40baf4:	0070 0000 0000 03f8 0000 0000 0000 00f8     p...............
  40bb04:	0000 0000 0000 0008 0000 0000 0000 0000     ................
	...
  40bb24:	1ff0 0000 0000 0000 1ff0 0000 0000 1f80     ................
  40bb34:	1ff0 0000 0000 7fc0 1ff0 0000 0000 fff0     ................
  40bb44:	1ff0 0000 0000 fff0 1ff1 0000 0000 fff8     ................
  40bb54:	3ff1 0000 0000 fff8 7ff3 0000 0000 fffc     .?..............
  40bb64:	7ff3 0000 0000 fffc ffc3 0000 fc00 e7ff     ................
  40bb74:	ff87 00ff fc00 e3ff ff87 00ff fc00 c3ff     ................
  40bb84:	ff07 00ff fc00 c3ff ff0f 00ff fc00 c3ff     ................
  40bb94:	ff0f 00ff fc00 83ff ff0f 00ff fc00 87ff     ................
  40bba4:	ff0f 00ff fc00 8fff ff9f 00ff fc00 bfff     ................
  40bbb4:	ffff 00ff 0000 3ffc ffff 0000 0000 3ff8     .......?.......?
  40bbc4:	7fff 0000 0000 3ff0 7ffe 0000 0000 3fe0     .......?.......?
  40bbd4:	3ffe 0000 0000 3fe0 1ffc 0000 0000 3fe0     .?.....?.......?
  40bbe4:	0ff8 0000 0000 3fe0 03f0 0000 0000 3fe0     .......?.......?
	...
  40bc38:	0000 01fc 0000 0000 0000 07ff 0000 0000     ................
  40bc48:	8000 0fff 0000 0000 c000 1fff 0000 0000     ................
  40bc58:	c000 3fff 0000 0004 e000 3fff 0000 0006     ...?.......?....
  40bc68:	e000 3f8f 8000 0007 f000 7f07 e000 0007     ...?............
  40bc78:	f000 7e03 f000 0007 f000 7e03 fc00 0007     ...~.......~....
  40bc88:	f000 7e03 fe00 0007 f000 7e03 ff80 0007     ...~.......~....
  40bc98:	f000 7f07 ffc0 0007 e000 3f8f fff0 0007     ...........?....
  40bca8:	e000 3fff fffc 0001 e000 3fff fffe 0000     ...?.......?....
  40bcb8:	c000 9fff 3fff 0000 8000 cfff 0fff 0000     .....?..........
  40bcc8:	0000 f7ff 07ff 0000 0000 f9fc 01ff 0000     ................
  40bcd8:	0000 fe00 00ff 0000 0000 ff80 1fff 0000     ................
  40bce8:	0000 ffc0 7fff 0000 0000 fff0 ffff 0000     ................
  40bcf8:	0000 fff8 fffd 0001 0000 fffe fffc 0003     ................
  40bd08:	0000 3fff fffe 0003 c000 1fff f8fe 0003     ...?............
  40bd18:	f000 07ff f07f 0007 f800 01ff e03f 0007     ............?...
  40bd28:	fc00 00ff e03f 0007 fc00 003f e03f 0007     ....?.....?.?...
  40bd38:	fc00 001f e03f 0007 fc00 0007 f07f 0007     ....?...........
  40bd48:	fc00 0003 f8fe 0003 fc00 0000 fffe 0003     ................
  40bd58:	3c00 0000 fffe 0003 1c00 0000 fffc 0001     .<..............
  40bd68:	0400 0000 fff8 0000 0000 0000 7ff0 0000     ................
  40bd78:	0000 0000 1fc0 0000 0000 0000 0000 0000     ................
	...
  40bd9c:	07e0 0000 0000 0000 3ffc 0000 0000 01fc     .........?......
  40bdac:	7ffe 0000 0000 07ff ffff 0000 8000 8fff     ................
  40bdbc:	ffff 0001 c000 dfff ffff 0003 e000 ffff     ................
  40bdcc:	ffff 0007 e000 ffff ffff 0007 f000 ffff     ................
  40bddc:	ffff 0007 f000 ffff fe0f 000f f800 ffff     ................
  40bdec:	fc07 000f f800 fe1f f803 000f f800 fc0f     ................
  40bdfc:	f803 000f f800 f80f f80f 000f f800 fc0f     ................
  40be0c:	f81f 000f f800 fe1f f83f 000f f800 ffff     ........?.......
  40be1c:	f87f 000f f000 bfff fcff 0007 f000 1fff     ................
  40be2c:	fdff 0007 f000 0fff fffe 0003 e000 07ff     ................
  40be3c:	fffc 0003 c000 03ff fffe 0001 8000 c1ff     ................
  40be4c:	ffff 0000 0000 c0ff 7fff 0000 0000 c07c     ..............|.
  40be5c:	ffff 0000 0000 c000 ffff 0001 0000 c000     ................
  40be6c:	ffff 0003 0000 c000 ffff 0007 0000 c000     ................
  40be7c:	feff 001f 0000 c000 fc1f 000f 0000 c000     ................
  40be8c:	f803 0007 0000 0000 f000 0003 0000 0000     ................
  40be9c:	e000 0003 0000 0000 0000 0000 fc00 007f     ................
  40beac:	0000 0000 fc00 007f 0000 0000 fc00 007f     ................
  40bebc:	0000 0000 fc00 007f 0000 0000 fc00 007f     ................
  40becc:	0000 0000 fc00 003f 0000 0000 3c00 0000     ......?......<..
	...
  40bf00:	0000 f800 01ff 0000 0000 ffc0 3fff 0000     .............?..
  40bf10:	0000 fff8 ffff 0001 0000 ffff ffff 000f     ................
  40bf20:	c000 ffff ffff 003f f000 ffff ffff 00ff     ......?.........
  40bf30:	fc00 ffff ffff 03ff fe00 ffff ffff 0fff     ................
  40bf40:	ff80 0fff ff00 1fff ffc0 007f e000 3fff     ...............?
  40bf50:	ffe0 000f 0000 7fff ffc0 0003 0000 3ffc     ...............?
  40bf60:	ff80 0000 0000 1fe0 3f80 0000 0000 1fc0     .........?......
  40bf70:	0f00 0000 0000 0f00 0600 0000 0000 0400     ................
	...
  40bf88:	0200 0000 0000 0600 0f00 0000 0000 0f00     ................
  40bf98:	3f80 0000 0000 1fc0 7f80 0000 0000 1ff0     .?..............
  40bfa8:	ffc0 0003 0000 3ffc ffe0 000f 0000 7fff     .......?........
  40bfb8:	ffc0 007f e000 3fff ff80 0fff ff00 1fff     .......?........
  40bfc8:	ff00 ffff ffff 07ff fc00 ffff ffff 03ff     ................
  40bfd8:	f000 ffff ffff 00ff c000 ffff ffff 003f     ..............?.
  40bfe8:	0000 ffff ffff 000f 0000 fff8 ffff 0001     ................
  40bff8:	0000 ffc0 3fff 0000 0000 f800 01ff 0000     .....?..........
	...
  40c028:	0000 000e 0000 0000 c000 000f 0000 0000     ................
  40c038:	c000 0c1f 0000 0000 c000 0e1f 0000 0000     ................
  40c048:	8000 1f1f 0000 0000 8000 3fff 0000 0000     ...........?....
  40c058:	8000 3fff 0000 0000 0000 3fff 0000 0000     ...?.......?....
  40c068:	fe00 1fff 0000 0000 fe00 0fff 0000 0000     ................
  40c078:	fe00 03ff 0000 0000 fe00 03ff 0000 0000     ................
  40c088:	fe00 0fff 0000 0000 fe00 1fff 0000 0000     ................
  40c098:	0000 3fff 0000 0000 8000 3fff 0000 0000     ...?.......?....
  40c0a8:	8000 3fff 0000 0000 8000 1f1f 0000 0000     ...?............
  40c0b8:	c000 0e1f 0000 0000 c000 0c1f 0000 0000     ................
  40c0c8:	c000 000f 0000 0000 0000 000e 0000 0000     ................
	...
  40c104:	007f 0000 0000 0000 007f 0000 0000 0000     ................
  40c114:	007f 0000 0000 0000 007f 0000 0000 0000     ................
  40c124:	007f 0000 0000 0000 007f 0000 0000 0000     ................
  40c134:	007f 0000 0000 0000 007f 0000 0000 0000     ................
  40c144:	007f 0000 0000 ff80 ffff 0000 0000 ff80     ................
  40c154:	ffff 0000 0000 ff80 ffff 0000 0000 ff80     ................
  40c164:	ffff 0000 0000 ff80 ffff 0000 0000 ff80     ................
  40c174:	ffff 0000 0000 ff80 ffff 0000 0000 ff80     ................
  40c184:	ffff 0000 0000 0000 007f 0000 0000 0000     ................
  40c194:	007f 0000 0000 0000 007f 0000 0000 0000     ................
  40c1a4:	007f 0000 0000 0000 007f 0000 0000 0000     ................
  40c1b4:	007f 0000 0000 0000 007f 0000 0000 0000     ................
  40c1c4:	007f 0000 0000 0000 007f 0000 0000 0000     ................
	...
  40c1f4:	0000 0600 0000 0000 0000 0fc0 0000 0000     ................
  40c204:	0000 0ffc 0000 0000 c000 1fff 0000 0000     ................
  40c214:	f000 1fff 0000 0000 e000 07ff 0000 0000     ................
  40c224:	e000 01ff 0000 0000 e000 007f 0000 0000     ................
  40c234:	c000 000f 0000 0000 c000 0003 0000 0000     ................
  40c244:	8000 0000 0000 0000 0000 0000 0000 0000     ................
	...
  40c264:	007f 0000 0000 0000 007f 0000 0000 0000     ................
  40c274:	007f 0000 0000 0000 007f 0000 0000 0000     ................
  40c284:	007f 0000 0000 0000 007f 0000 0000 0000     ................
  40c294:	007f 0000 0000 0000 007f 0000 0000 0000     ................
  40c2a4:	007f 0000 0000 0000 007f 0000 0000 0000     ................
  40c2b4:	007f 0000 0000 0000 007f 0000 0000 0000     ................
  40c2c4:	007f 0000 0000 0000 007f 0000 0000 0000     ................
  40c2d4:	007f 0000 0000 0000 007f 0000 0000 0000     ................
	...
  40c304:	e000 0001 0000 0000 f800 0007 0000 0000     ................
  40c314:	f800 0007 0000 0000 fc00 000f 0000 0000     ................
  40c324:	fc00 000f 0000 0000 fc00 000f 0000 0000     ................
  40c334:	fc00 000f 0000 0000 f800 0007 0000 0000     ................
  40c344:	f800 0007 0000 0000 e000 0001 0000 0000     ................
	...
  40c36c:	0000 0004 0000 0000 8000 0007 0000 0000     ................
  40c37c:	f000 0007 0000 0000 fe00 0007 0000 0000     ................
  40c38c:	ff80 0007 0000 0000 fff0 0007 0000 0000     ................
  40c39c:	fffe 0007 0000 c000 ffff 0007 0000 f000     ................
  40c3ac:	ffff 0007 0000 fe00 ffff 0000 0000 ffc0     ................
  40c3bc:	1fff 0000 0000 fff0 07ff 0000 0000 fffe     ................
  40c3cc:	00ff 0000 c000 ffff 001f 0000 f800 ffff     ................
  40c3dc:	0003 0000 fc00 ffff 0000 0000 fc00 1fff     ................
  40c3ec:	0000 0000 fc00 03ff 0000 0000 fc00 00ff     ................
  40c3fc:	0000 0000 fc00 001f 0000 0000 0000 0000     ................
	...
  40c418:	0000 fe00 003f 0000 0000 ffe0 03ff 0000     ....?...........
  40c428:	0000 fff8 0fff 0000 0000 fffe 3fff 0000     .............?..
  40c438:	0000 ffff 7fff 0000 8000 ffff ffff 0000     ................
  40c448:	c000 ffff ffff 0001 e000 ffff ffff 0003     ................
  40c458:	e000 ffff ffff 0007 f000 01ff ffc0 0007     ................
  40c468:	f000 007f fe00 0007 f800 001f fc00 000f     ................
  40c478:	f800 001f fc00 000f f800 000f f800 000f     ................
  40c488:	f800 000f f800 000f f800 000f f800 000f     ................
  40c498:	f800 000f f800 000f f800 000f f800 000f     ................
  40c4a8:	f800 001f fc00 000f f800 001f fc00 000f     ................
  40c4b8:	f000 003f fe00 0007 f000 01ff ffc0 0007     ..?.............
  40c4c8:	f000 ffff ffff 0003 e000 ffff ffff 0003     ................
  40c4d8:	c000 ffff ffff 0001 8000 ffff ffff 0000     ................
  40c4e8:	0000 ffff 7fff 0000 0000 fffe 3fff 0000     .............?..
  40c4f8:	0000 fff8 0fff 0000 0000 ffe0 03ff 0000     ................
  40c508:	0000 fe00 003f 0000 0000 0000 0000 0000     ....?...........
	...
  40c520:	0000 07fc 0000 0000 0000 03fe 0000 0000     ................
  40c530:	0000 03fe f000 0007 0000 01ff f000 0007     ................
  40c540:	0000 01ff f000 0007 8000 00ff f000 0007     ................
  40c550:	8000 ffff ffff 0007 c000 ffff ffff 0007     ................
  40c560:	e000 ffff ffff 0007 e000 ffff ffff 0007     ................
  40c570:	f000 ffff ffff 0007 f000 ffff ffff 0007     ................
  40c580:	f000 ffff ffff 0007 f000 ffff ffff 0007     ................
  40c590:	f000 ffff ffff 0007 0000 0000 f000 0007     ................
  40c5a0:	0000 0000 f000 0007 0000 0000 f000 0007     ................
  40c5b0:	0000 0000 f000 0007 0000 0000 0000 0000     ................
	...
  40c5d8:	0000 00f0 e000 0007 0000 00fe f000 0007     ................
  40c5e8:	0000 00ff f800 0007 8000 00ff fc00 0007     ................
  40c5f8:	c000 00ff fe00 0007 e000 00ff ff80 0007     ................
  40c608:	f000 00ff ffc0 0007 f000 00ff ffe0 0007     ................
  40c618:	f000 00ff fff0 0007 f800 003f fff8 0007     ..........?.....
  40c628:	f800 001f fffc 0007 f800 000f f7fe 0007     ................
  40c638:	f800 000f f3ff 0007 f800 800f f1ff 0007     ................
  40c648:	f800 c01f f0ff 0007 f800 f03f f07f 0007     ..........?.....
  40c658:	f000 ffff f03f 0007 f000 ffff f01f 0007     ....?...........
  40c668:	f000 ffff f00f 0007 e000 ffff f007 0007     ................
  40c678:	c000 ffff f003 0007 c000 ffff f001 0007     ................
  40c688:	0000 ffff f000 0007 0000 3ffe f000 0007     ...........?....
  40c698:	0000 0ff0 f000 0007 0000 0000 f000 0007     ................
	...
  40c6b4:	03c0 0000 0000 01e0 0fc0 0000 0000 01f8     ................
  40c6c4:	3fc0 0000 0000 01fe 7fc0 0000 8000 01ff     .?..............
  40c6d4:	ffc0 0000 c000 01ff ffc0 0001 e000 01ff     ................
  40c6e4:	ffc0 0003 e000 01ff ffc0 0007 f000 01ff     ................
  40c6f4:	ffc0 0007 f000 01ff fe00 0007 f800 f03f     ..............?.
  40c704:	fc07 000f f800 f01f f807 000f f800 f00f     ................
  40c714:	f807 000f f800 f00f f807 000f f800 f00f     ................
  40c724:	f807 000f f800 f00f f807 000f f800 f81f     ................
  40c734:	fc0f 000f f800 fc3f fe1f 0007 f000 ffff     ......?.........
  40c744:	ffff 0007 f000 ffff ffff 0007 e000 ffff     ................
  40c754:	ffff 0003 e000 ffff ffff 0003 c000 ffff     ................
  40c764:	ffff 0001 8000 ffff ffff 0000 0000 3fff     ...............?
  40c774:	7fff 0000 0000 1ffe 1ffe 0000 0000 03f0     ................
  40c784:	07f8 0000 0000 0000 0000 0000 0000 0000     ................
  40c794:	01fe 0000 0000 0000 01ff 0000 0000 c000     ................
  40c7a4:	01ff 0000 0000 f000 01ff 0000 0000 f800     ................
  40c7b4:	01ff 0000 0000 fe00 01ff 0000 0000 ff00     ................
  40c7c4:	01ff 0000 0000 ffc0 01ff 0000 0000 ffe0     ................
  40c7d4:	01ff 0000 0000 fff8 01ff 0000 0000 fffe     ................
  40c7e4:	01ff 0000 0000 ffff 01fc 0000 c000 7fff     ................
  40c7f4:	01fc 0000 e000 1fff f1fc 0007 f000 0fff     ................
  40c804:	f1fc 0007 f000 03ff f1fc 0007 f000 00ff     ................
  40c814:	f1fc 0007 f000 fc7f ffff 0007 f000 fc1f     ................
  40c824:	ffff 0007 f000 fc0f ffff 0007 f000 fc03     ................
  40c834:	ffff 0007 f000 fc01 ffff 0007 7000 fc00     .............p..
  40c844:	ffff 0007 1000 fc00 ffff 0007 0000 fc00     ................
  40c854:	ffff 0007 0000 fc00 ffff 0007 0000 0000     ................
  40c864:	f1fc 0007 0000 0000 f1fc 0007 0000 0000     ................
  40c874:	f1fc 0007 0000 0000 f1fc 0007 0000 0000     ................
  40c884:	01fc 0000 0000 0000 0000 0000 0000 0000     ................
	...
  40c8ac:	0300 0000 f000 ffff 0f01 0000 f000 ffff     ................
  40c8bc:	3f81 0000 f000 ffff ff81 0000 f000 ffff     .?..............
  40c8cc:	ff83 0001 f000 ffff ff83 0001 f000 ffff     ................
  40c8dc:	ffc3 0003 f000 ffff ffc3 0007 f000 ffff     ................
  40c8ec:	ffc3 0007 f000 ffff ff01 0007 f000 fe07     ................
  40c8fc:	fc01 000f f000 fe07 fc01 000f f000 ff07     ................
  40c90c:	f801 000f f000 ff07 f801 000f f000 ff07     ................
  40c91c:	f801 000f f000 ff07 f803 000f f000 ff07     ................
  40c92c:	fc03 000f f000 ff07 ff0f 0007 f000 ff07     ................
  40c93c:	ffff 0007 f000 fe07 ffff 0007 f000 fe07     ................
  40c94c:	ffff 0003 f000 fc07 ffff 0001 f000 f807     ................
  40c95c:	ffff 0001 f000 f007 ffff 0000 f000 e007     ................
  40c96c:	3fff 0000 f000 c007 1fff 0000 0000 0000     .?..............
  40c97c:	03fe 0000 0000 0000 0000 0000 0000 0000     ................
	...
  40c99c:	03fc 0000 0000 8000 0fff 0000 0000 e000     ................
  40c9ac:	3fff 0000 0000 f000 7fff 0000 0000 fc00     .?..............
  40c9bc:	ffff 0000 0000 ff00 ffff 0001 0000 ff80     ................
  40c9cc:	ffff 0003 0000 ffe0 ffff 0007 0000 fff8     ................
  40c9dc:	ffff 0007 0000 fffc ff07 0007 0000 ffff     ................
  40c9ec:	fc03 000f c000 ffff f801 000f e000 ffff     ................
  40c9fc:	f801 000f f000 ffff f801 000f f000 ffff     ................
  40ca0c:	f801 000f f000 ffff fc03 000f f000 ff7f     ................
  40ca1c:	fc03 000f f000 ff3f ff0f 0007 f000 ff0f     ......?.........
  40ca2c:	ffff 0007 f000 fe03 ffff 0007 f000 fe01     ................
  40ca3c:	ffff 0003 7000 fc00 ffff 0001 1000 f800     .....p..........
  40ca4c:	ffff 0000 0000 f000 7fff 0000 0000 e000     ................
  40ca5c:	3fff 0000 0000 8000 0fff 0000 0000 0000     .?..............
  40ca6c:	03fe 0000 0000 0000 0000 0000 0000 0000     ................
  40ca7c:	0000 0000 f000 007f 0000 0000 f000 007f     ................
  40ca8c:	0000 0000 f000 007f 0000 0000 f000 007f     ................
  40ca9c:	0000 0000 f000 007f 0000 0000 f000 007f     ................
  40caac:	f000 0007 f000 007f f000 0007 f000 007f     ................
  40cabc:	f000 0007 f000 007f fc00 0007 f000 0007     ................
  40cacc:	ff80 0007 f000 0007 ffe0 0007 f000 0007     ................
  40cadc:	fff8 0007 f000 0007 ffff 0007 f000 c007     ................
  40caec:	ffff 0007 f000 f807 ffff 0007 f000 fe07     ................
  40cafc:	ffff 0007 f000 ff87 ffff 0007 f000 fff7     ................
  40cb0c:	ffff 0007 f000 ffff f1ff 0007 f000 ffff     ................
  40cb1c:	f07f 0007 f000 ffff f00f 0007 f000 ffff     ................
  40cb2c:	0003 0000 f000 7fff 0000 0000 f000 1fff     ................
  40cb3c:	0000 0000 f000 03ff 0000 0000 f000 00ff     ................
  40cb4c:	0000 0000 f000 003f 0000 0000 f000 0007     ......?.........
  40cb5c:	0000 0000 f000 0000 0000 0000 0000 0000     ................
	...
  40cb8c:	07e0 0000 0000 03f0 1ff8 0000 0000 0ffe     ................
  40cb9c:	7ffe 0000 0000 3fff ffff 0000 8000 ffff     .......?........
  40cbac:	ffff 0001 c000 ffff ffff 0003 e000 ffff     ................
  40cbbc:	ffff 0003 e000 ffff ffff 0007 f000 ffff     ................
  40cbcc:	ffff 0007 f000 ffff fe1f 0007 f800 fc3f     ..............?.
  40cbdc:	fc0f 000f f800 f81f f807 000f f800 f00f     ................
  40cbec:	f807 000f f800 f00f f807 000f f800 f00f     ................
  40cbfc:	f807 000f f800 f81f f807 000f f800 fc3f     ..............?.
  40cc0c:	fc0f 000f f000 ffff fe1f 0007 f000 ffff     ................
  40cc1c:	ffff 0007 e000 ffff ffff 0007 e000 ffff     ................
  40cc2c:	ffff 0003 c000 ffff ffff 0003 8000 7fff     ................
  40cc3c:	ffff 0001 0000 3fff ffff 0000 0000 0ffe     .......?........
  40cc4c:	7ffe 0000 0000 03f0 1ff8 0000 0000 0000     ................
  40cc5c:	07e0 0000 0000 0000 0000 0000 0000 0000     ................
	...
  40cc80:	0000 0fe0 0000 0000 0000 3ffc 0000 0000     ...........?....
  40cc90:	0000 fffe 0000 0000 8000 ffff 0001 0000     ................
  40cca0:	c000 ffff 0003 0000 c000 ffff 0007 0004     ................
  40ccb0:	e000 ffff 0007 0006 f000 ffff 800f 0007     ................
  40ccc0:	f000 ffff e00f 0007 f000 fc3f f81f 0007     ..........?.....
  40ccd0:	f800 f81f fc1f 0007 f800 f00f ff1f 0007     ................
  40cce0:	f800 f00f ffdf 0007 f800 f00f ffff 0007     ................
  40ccf0:	f800 f00f ffff 0003 f800 f00f ffff 0001     ................
  40cd00:	f800 f81f 7fff 0000 f000 fc3f 1fff 0000     ..........?.....
  40cd10:	f000 ffff 07ff 0000 f000 ffff 01ff 0000     ................
  40cd20:	e000 ffff 007f 0000 c000 ffff 003f 0000     ............?...
  40cd30:	c000 ffff 000f 0000 8000 ffff 0003 0000     ................
  40cd40:	0000 ffff 0000 0000 0000 3ffc 0000 0000     ...........?....
  40cd50:	0000 07f0 0000 0000 0000 0000 0000 0000     ................
	...
  40cd68:	0000 7800 f000 0000 0000 fe00 f800 0003     ...x............
  40cd78:	0000 fe00 fc01 0003 0000 ff00 fc01 0007     ................
  40cd88:	0000 ff00 fc01 0007 0000 ff00 fc01 0007     ................
  40cd98:	0000 ff00 fc01 0007 0000 fe00 fc01 0003     ................
  40cda8:	0000 fe00 f800 0003 0000 7800 f000 0000     ...........x....
	...
  40cdcc:	0000 0ffc 0000 0000 c000 0fff 0000 3c00     ...............<
  40cddc:	e000 0fff 0000 7f00 e000 07ff 0000 ff00     ................
  40cdec:	e000 00ff 0000 ff80 e000 003f 0000 ff80     ..........?.....
  40cdfc:	c000 000f 0000 ff80 c000 0003 0000 ff80     ................
  40ce0c:	c000 0000 0000 ff00 0000 0000 0000 7f00     ................
  40ce1c:	0000 0000 0000 3c00 0000 0000 0000 0000     .......<........
  40ce2c:	0000 0000 0000 8000 001f 0000 0000 8000     ................
  40ce3c:	003f 0000 0000 8000 003f 0000 0000 c000     ?.......?.......
  40ce4c:	007f 0000 0000 c000 007f 0000 0000 e000     ................
  40ce5c:	00ff 0000 0000 e000 00ff 0000 0000 e000     ................
  40ce6c:	01ff 0000 0000 f000 01ff 0000 0000 f000     ................
  40ce7c:	03f3 0000 0000 f800 03f3 0000 0000 f800     ................
  40ce8c:	07e3 0000 0000 f800 07e1 0000 0000 fc00     ................
  40ce9c:	07e1 0000 0000 fc00 0fc1 0000 0000 fe00     ................
  40ceac:	0fc0 0000 0000 fe00 1f80 0000 0000 7e00     ...............~
  40cebc:	1f80 0000 0000 7f00 3f80 0000 0000 0000     .........?......
	...
  40cee8:	0000 7f00 07f0 0000 0000 7f00 07f0 0000     ................
  40cef8:	0000 7f00 07f0 0000 0000 7f00 07f0 0000     ................
  40cf08:	0000 7f00 07f0 0000 0000 7f00 07f0 0000     ................
  40cf18:	0000 7f00 07f0 0000 0000 7f00 07f0 0000     ................
  40cf28:	0000 7f00 07f0 0000 0000 7f00 07f0 0000     ................
  40cf38:	0000 7f00 07f0 0000 0000 7f00 07f0 0000     ................
  40cf48:	0000 7f00 07f0 0000 0000 7f00 07f0 0000     ................
  40cf58:	0000 7f00 07f0 0000 0000 7f00 07f0 0000     ................
  40cf68:	0000 7f00 07f0 0000 0000 7f00 07f0 0000     ................
  40cf78:	0000 7f00 07f0 0000 0000 7f00 07f0 0000     ................
  40cf88:	0000 7f00 07f0 0000 0000 7f00 07f0 0000     ................
	...
  40cfb0:	0000 7f00 3f80 0000 0000 7e00 1f80 0000     .....?.....~....
  40cfc0:	0000 fe00 1f80 0000 0000 fe00 0fc0 0000     ................
  40cfd0:	0000 fc00 0fc1 0000 0000 fc00 07e1 0000     ................
  40cfe0:	0000 f800 07e1 0000 0000 f800 07e3 0000     ................
  40cff0:	0000 f800 03f3 0000 0000 f000 03f3 0000     ................
  40d000:	0000 f000 01ff 0000 0000 e000 01ff 0000     ................
  40d010:	0000 e000 00ff 0000 0000 e000 00ff 0000     ................
  40d020:	0000 c000 007f 0000 0000 c000 007f 0000     ................
  40d030:	0000 8000 003f 0000 0000 8000 003f 0000     ....?.......?...
  40d040:	0000 8000 001f 0000 0000 0000 0000 0000     ................
	...
  40d060:	0000 00f0 0000 0000 0000 00fe 0000 0000     ................
  40d070:	0000 00ff 0000 0000 c000 00ff 0000 0000     ................
  40d080:	c000 00ff 0000 0000 e000 00ff c000 0003     ................
  40d090:	f000 00ff f1f8 0007 f000 00ff f1fe 000f     ................
  40d0a0:	f000 00ff f9ff 000f f800 803f f9ff 000f     ..........?.....
  40d0b0:	f800 c01f f9ff 000f f800 c00f f9ff 000f     ................
  40d0c0:	f800 e00f f1ff 000f f800 f00f f1ff 0007     ................
  40d0d0:	f800 f80f c1ff 0003 f800 fc1f 000f 0000     ................
  40d0e0:	f800 ffff 0003 0000 f000 ffff 0001 0000     ................
  40d0f0:	f000 ffff 0000 0000 e000 ffff 0000 0000     ................
  40d100:	e000 7fff 0000 0000 c000 3fff 0000 0000     ...........?....
  40d110:	8000 1fff 0000 0000 0000 0fff 0000 0000     ................
  40d120:	0000 01f8 0000 0000 0000 0000 0000 0000     ................
	...
  40d174:	07fc 0000 0000 c000 7fff 0000 0000 f000     ................
  40d184:	ffff 0001 0000 fc00 ffff 0007 0000 ff00     ................
  40d194:	ffff 001f 0000 ff80 ffff 003f 0000 ffc0     ..........?.....
  40d1a4:	ffff 007f 0000 ffe0 ffff 00ff 0000 fff0     ................
  40d1b4:	f803 01ff 0000 fff8 e000 03ff 0000 3ff8     ...............?
  40d1c4:	8000 03ff 0000 0ffc 0000 07fe 0000 07fe     ................
  40d1d4:	03f8 0ffc 0000 03fe 0ffe 0ff8 0000 81ff     ................
  40d1e4:	1fff 1ff8 0000 c1ff 3fff 1ff0 8000 e0ff     .........?......
  40d1f4:	7fff 3fe0 8000 e0ff ffff 3fe0 8000 f07f     ...?.......?....
  40d204:	ffff 3fc1 8000 f07f ffff 3fc1 c000 f87f     ...?.......?....
  40d214:	ff1f 7fc1 c000 f83f fe0f 7f83 c000 f83f     ......?.......?.
  40d224:	fc07 7f83 c000 f83f fc07 7f83 c000 f83f     ......?.......?.
  40d234:	fc07 7f83 c000 f83f fc07 7f83 c000 f83f     ......?.......?.
  40d244:	fe0f 7f83 c000 f83f fe1f 7f83 c000 f03f     ......?.......?.
  40d254:	ffff 7f81 c000 f83f ffff 3fc1 8000 f87f     ......?....?....
  40d264:	ffff 3fc0 8000 f87f 7fff 3fc0 8000 f87f     ...?.......?....
  40d274:	ffff 3fe0 8000 f8ff ffff 1fe1 0000 f8ff     ...?............
  40d284:	ffff 1ff1 0000 f9ff ffff 0fe3 0000 03fe     ................
  40d294:	fc00 0fc3 0000 03fe fc00 0703 0000 07fc     ................
  40d2a4:	fc00 0003 0000 0ffc fc00 0003 0000 3ff8     ...............?
  40d2b4:	fe00 0003 0000 fff0 ff80 0003 0000 fff0     ................
  40d2c4:	ffff 0001 0000 ffe0 ffff 0001 0000 ffc0     ................
  40d2d4:	ffff 0000 0000 ff00 7fff 0000 0000 fe00     ................
  40d2e4:	3fff 0000 0000 f800 1fff 0000 0000 e000     .?..............
  40d2f4:	07ff 0000 0000 0000 00ff 0000 0000 0000     ................
	...
  40d32c:	f000 0007 0000 0000 f000 0007 0000 0000     ................
  40d33c:	f000 0007 0000 0000 fc00 0007 0000 0000     ................
  40d34c:	ff80 0007 0000 0000 fff0 0007 0000 0000     ................
  40d35c:	ffff 0007 0000 e000 ffff 0007 0000 fc00     ................
  40d36c:	ffff 0007 0000 ffc0 ffff 0007 0000 fff8     ................
  40d37c:	ffff 0007 0000 ffff f7ff 0007 f000 ffff     ................
  40d38c:	f0ff 0007 f000 ffff f03f 0007 f000 ffff     ........?.......
  40d39c:	f03f 0007 f000 bfff 003f 0000 f000 87ff     ?.......?.......
  40d3ac:	003f 0000 f000 807f 003f 0000 f000 800f     ?.......?.......
  40d3bc:	003f 0000 f000 803f 003f 0000 f000 81ff     ?.....?.?.......
  40d3cc:	003f 0000 f000 9fff 003f 0000 f000 ffff     ?.......?.......
  40d3dc:	f03f 0007 f000 ffff f03f 0007 f000 ffff     ?.......?.......
  40d3ec:	f0ff 0007 f000 ffff ffff 0007 f000 ffff     ................
  40d3fc:	ffff 0007 0000 ffff ffff 0007 0000 fff0     ................
  40d40c:	ffff 0007 0000 ff00 ffff 0007 0000 f800     ................
  40d41c:	ffff 0007 0000 8000 ffff 0007 0000 0000     ................
  40d42c:	fff8 0007 0000 0000 ffc0 0007 0000 0000     ................
  40d43c:	fc00 0007 0000 0000 f000 0007 0000 0000     ................
  40d44c:	f000 0007 0000 0000 f000 0007 0000 0000     ................
	...
  40d470:	f000 0007 f000 0007 f000 0007 f000 0007     ................
  40d480:	f000 0007 f000 0007 f000 0007 f000 0007     ................
  40d490:	f000 ffff ffff 0007 f000 ffff ffff 0007     ................
  40d4a0:	f000 ffff ffff 0007 f000 ffff ffff 0007     ................
  40d4b0:	f000 ffff ffff 0007 f000 ffff ffff 0007     ................
  40d4c0:	f000 ffff ffff 0007 f000 ffff ffff 0007     ................
  40d4d0:	f000 ffff ffff 0007 f000 f007 f007 0007     ................
  40d4e0:	f000 f007 f007 0007 f000 f007 f007 0007     ................
  40d4f0:	f000 f007 f007 0007 f000 f007 f007 0007     ................
  40d500:	f000 f007 f007 0007 f000 f007 f007 0007     ................
  40d510:	f000 f007 f007 0007 f000 f80f f80f 0007     ................
  40d520:	f000 fc1f fc1f 0007 e000 ffff ffff 0007     ................
  40d530:	e000 ffff ffff 0003 e000 ffff ffff 0003     ................
  40d540:	c000 ffff ffff 0001 8000 ffff ffff 0001     ................
  40d550:	0000 7fff ffff 0000 0000 3ffe 7ffe 0000     ...........?....
  40d560:	0000 1ffc 1ffc 0000 0000 07f0 07f0 0000     ................
	...
  40d588:	0000 f800 000f 0000 0000 ff80 00ff 0000     ................
  40d598:	0000 ffe0 03ff 0000 0000 fff0 07ff 0000     ................
  40d5a8:	0000 fffc 1fff 0000 0000 fffe 3fff 0000     .............?..
  40d5b8:	0000 ffff 7fff 0000 8000 ffff ffff 0000     ................
  40d5c8:	c000 ffff ffff 0001 c000 0fff fff8 0001     ................
  40d5d8:	e000 01ff ffc0 0003 e000 00ff ff80 0003     ................
  40d5e8:	f000 007f ff00 0007 f000 003f fe00 0007     ..........?.....
  40d5f8:	f000 001f fc00 0007 f800 001f fc00 000f     ................
  40d608:	f800 000f f800 000f f800 000f f800 000f     ................
  40d618:	f800 000f f800 000f f800 000f f800 000f     ................
  40d628:	f800 000f f800 000f f800 000f f800 000f     ................
  40d638:	f800 001f fc00 000f f800 001f fc00 0007     ................
  40d648:	f000 003f fe00 0007 f000 003f ff00 0007     ..?.......?.....
  40d658:	e000 007f ff80 0003 e000 00ff ffc0 0003     ................
  40d668:	c000 00ff ffc0 0001 8000 00ff ff80 0001     ................
  40d678:	0000 00ff ff80 0000 0000 00fe 7f80 0000     ................
  40d688:	0000 00fe 3f80 0000 0000 00fe 0f00 0000     .....?..........
  40d698:	0000 00fe 0300 0000 0000 00fe 0000 0000     ................
  40d6a8:	0000 00fe 0000 0000 0000 0000 0000 0000     ................
	...
  40d6c0:	f000 0007 f000 0007 f000 0007 f000 0007     ................
  40d6d0:	f000 0007 f000 0007 f000 0007 f000 0007     ................
  40d6e0:	f000 ffff ffff 0007 f000 ffff ffff 0007     ................
  40d6f0:	f000 ffff ffff 0007 f000 ffff ffff 0007     ................
  40d700:	f000 ffff ffff 0007 f000 ffff ffff 0007     ................
  40d710:	f000 ffff ffff 0007 f000 ffff ffff 0007     ................
  40d720:	f000 ffff ffff 0007 f000 0007 f000 0007     ................
  40d730:	f000 0007 f000 0007 f000 0007 f000 0007     ................
  40d740:	f000 0007 f000 0007 f000 0007 f000 0007     ................
  40d750:	f000 0007 f000 0007 f000 000f f800 0007     ................
  40d760:	e000 000f f800 0003 e000 001f fc00 0003     ................
  40d770:	e000 003f fe00 0003 c000 007f ff00 0001     ..?.............
  40d780:	c000 01ff ffc0 0001 8000 07ff fff8 0000     ................
  40d790:	8000 ffff ffff 0000 0000 ffff 7fff 0000     ................
  40d7a0:	0000 fffe 3fff 0000 0000 fffc 1fff 0000     .....?..........
  40d7b0:	0000 fff8 0fff 0000 0000 fff0 07ff 0000     ................
  40d7c0:	0000 ffc0 01ff 0000 0000 ff00 007f 0000     ................
  40d7d0:	0000 f800 000f 0000 0000 0000 0000 0000     ................
	...
  40d800:	f000 0007 f000 0007 f000 0007 f000 0007     ................
  40d810:	f000 0007 f000 0007 f000 0007 f000 0007     ................
  40d820:	f000 ffff ffff 0007 f000 ffff ffff 0007     ................
  40d830:	f000 ffff ffff 0007 f000 ffff ffff 0007     ................
  40d840:	f000 ffff ffff 0007 f000 ffff ffff 0007     ................
  40d850:	f000 ffff ffff 0007 f000 ffff ffff 0007     ................
  40d860:	f000 ffff ffff 0007 f000 f807 f003 0007     ................
  40d870:	f000 f807 f003 0007 f000 f807 f003 0007     ................
  40d880:	f000 f807 f003 0007 f000 f807 f003 0007     ................
  40d890:	f000 f807 f003 0007 f000 f807 f003 0007     ................
  40d8a0:	f000 0007 f000 0007 f000 0007 f000 0007     ................
  40d8b0:	f000 01ff ffe0 0007 f000 01ff ffe0 0007     ................
  40d8c0:	f000 01ff ffe0 0007 f000 01ff ffe0 0007     ................
  40d8d0:	f000 01ff ffe0 0007 f000 01ff ffe0 0007     ................
  40d8e0:	f000 01ff ffe0 0007 f000 01ff ffe0 0007     ................
  40d8f0:	f000 01ff ffe0 0007 0000 0000 0000 0000     ................
	...
  40d920:	f000 0007 f000 0007 f000 0007 f000 0007     ................
  40d930:	f000 0007 f000 0007 f000 0007 f000 0007     ................
  40d940:	f000 ffff ffff 0007 f000 ffff ffff 0007     ................
  40d950:	f000 ffff ffff 0007 f000 ffff ffff 0007     ................
  40d960:	f000 ffff ffff 0007 f000 ffff ffff 0007     ................
  40d970:	f000 ffff ffff 0007 f000 ffff ffff 0007     ................
  40d980:	f000 ffff ffff 0007 f000 f007 f00f 0007     ................
  40d990:	f000 f007 f00f 0007 f000 f007 f00f 0007     ................
  40d9a0:	f000 f007 f00f 0007 f000 f007 000f 0000     ................
  40d9b0:	f000 f007 000f 0000 f000 f007 000f 0000     ................
  40d9c0:	f000 0007 0000 0000 f000 01ff 0000 0000     ................
  40d9d0:	f000 01ff 0000 0000 f000 01ff 0000 0000     ................
  40d9e0:	f000 01ff 0000 0000 f000 01ff 0000 0000     ................
  40d9f0:	f000 01ff 0000 0000 f000 01ff 0000 0000     ................
  40da00:	f000 01ff 0000 0000 f000 01ff 0000 0000     ................
	...
  40da20:	0000 f800 001f 0000 0000 ff00 00ff 0000     ................
  40da30:	0000 ffe0 03ff 0000 0000 fff0 0fff 0000     ................
  40da40:	0000 fffc 1fff 0000 0000 fffe 3fff 0000     .............?..
  40da50:	0000 ffff 7fff 0000 8000 ffff ffff 0000     ................
  40da60:	c000 ffff ffff 0001 c000 0fff fff8 0003     ................
  40da70:	e000 01ff ffc0 0003 e000 00ff ff80 0007     ................
  40da80:	f000 007f ff00 0007 f000 003f fe00 0007     ..........?.....
  40da90:	f000 001f fc00 000f f800 001f fc00 000f     ................
  40daa0:	f800 000f f800 000f f800 000f f800 000f     ................
  40dab0:	f800 000f f800 000f f800 c00f f81f 000f     ................
  40dac0:	f800 c00f f81f 000f f800 c00f fc1f 0007     ................
  40dad0:	f800 c01f fc1f 0007 f000 c01f ff1f 0003     ................
  40dae0:	f000 c03f ff9f 0001 f000 c07f ffff 0000     ..?.............
  40daf0:	e000 c0ff 7fff 0000 c000 c0ff 1fff 0000     ................
  40db00:	c000 c0ff ffff 0007 8000 c0ff ffff 0007     ................
  40db10:	0000 c0ff ffff 0007 0000 c0fe ffff 0007     ................
  40db20:	0000 c0fe ffff 0007 0000 c0fe ffff 0007     ................
  40db30:	0000 c0fe ffff 0007 0000 c0fe ffff 0007     ................
  40db40:	0000 c0fe ffff 0007 0000 0000 0000 0000     ................
	...
  40db78:	f000 0007 f000 0007 f000 0007 f000 0007     ................
  40db88:	f000 0007 f000 0007 f000 0007 f000 0007     ................
  40db98:	f000 ffff ffff 0007 f000 ffff ffff 0007     ................
  40dba8:	f000 ffff ffff 0007 f000 ffff ffff 0007     ................
  40dbb8:	f000 ffff ffff 0007 f000 ffff ffff 0007     ................
  40dbc8:	f000 ffff ffff 0007 f000 ffff ffff 0007     ................
  40dbd8:	f000 ffff ffff 0007 f000 f807 f003 0007     ................
  40dbe8:	f000 f807 f003 0007 f000 f807 f003 0007     ................
  40dbf8:	f000 f807 f003 0007 0000 f800 0003 0000     ................
  40dc08:	0000 f800 0003 0000 0000 f800 0003 0000     ................
  40dc18:	0000 f800 0003 0000 0000 f800 0003 0000     ................
  40dc28:	0000 f800 0003 0000 0000 f800 0003 0000     ................
  40dc38:	0000 f800 0003 0000 0000 f800 0003 0000     ................
  40dc48:	f000 f807 f003 0007 f000 f807 f003 0007     ................
  40dc58:	f000 f807 f003 0007 f000 f807 f003 0007     ................
  40dc68:	f000 ffff ffff 0007 f000 ffff ffff 0007     ................
  40dc78:	f000 ffff ffff 0007 f000 ffff ffff 0007     ................
  40dc88:	f000 ffff ffff 0007 f000 ffff ffff 0007     ................
  40dc98:	f000 ffff ffff 0007 f000 ffff ffff 0007     ................
  40dca8:	f000 ffff ffff 0007 f000 0007 f000 0007     ................
  40dcb8:	f000 0007 f000 0007 f000 0007 f000 0007     ................
  40dcc8:	f000 0007 f000 0007 0000 0000 0000 0000     ................
	...
  40dd00:	f000 0007 f000 0007 f000 0007 f000 0007     ................
  40dd10:	f000 0007 f000 0007 f000 0007 f000 0007     ................
  40dd20:	f000 ffff ffff 0007 f000 ffff ffff 0007     ................
  40dd30:	f000 ffff ffff 0007 f000 ffff ffff 0007     ................
  40dd40:	f000 ffff ffff 0007 f000 ffff ffff 0007     ................
  40dd50:	f000 ffff ffff 0007 f000 ffff ffff 0007     ................
  40dd60:	f000 ffff ffff 0007 f000 0007 f000 0007     ................
  40dd70:	f000 0007 f000 0007 f000 0007 f000 0007     ................
  40dd80:	f000 0007 f000 0007 0000 0000 0000 0000     ................
	...
  40dd9c:	0000 0080 f000 0007 0000 00e0 f000 0007     ................
  40ddac:	0000 00f8 f000 0007 0000 00fe f000 0007     ................
  40ddbc:	8000 00ff f000 ffff ffff 00ff f000 ffff     ................
  40ddcc:	ffff 00ff f000 ffff ffff 00ff f000 ffff     ................
  40dddc:	ffff 007f f000 ffff ffff 003f f000 ffff     ..........?.....
  40ddec:	ffff 000f f000 ffff ffff 0007 f000 ffff     ................
  40ddfc:	ffff 0001 f000 ffff 7fff 0000 f000 0007     ................
  40de0c:	0000 0000 f000 0007 0000 0000 f000 0007     ................
  40de1c:	0000 0000 f000 0007 0000 0000 0000 0000     ................
	...
  40de40:	f000 0007 f000 0007 f000 0007 f000 0007     ................
  40de50:	f000 0007 f000 0007 f000 0007 f000 0007     ................
  40de60:	f000 ffff ffff 0007 f000 ffff ffff 0007     ................
  40de70:	f000 ffff ffff 0007 f000 ffff ffff 0007     ................
  40de80:	f000 ffff ffff 0007 f000 ffff ffff 0007     ................
  40de90:	f000 ffff ffff 0007 f000 ffff ffff 0007     ................
  40dea0:	f000 ffff ffff 0007 f000 4007 f000 0007     ...........@....
  40deb0:	f000 e007 f000 0007 f000 f007 f003 0007     ................
  40dec0:	f000 f807 f007 0007 0000 fc00 000f 0000     ................
  40ded0:	0000 fe00 003f 0000 0000 ff00 007f 0000     ....?...........
  40dee0:	0000 ff80 00ff 0000 0000 ffc0 03ff 0000     ................
  40def0:	0000 ffe0 07ff 0000 0000 fff0 1fff 0000     ................
  40df00:	0000 fff8 3fff 0000 f000 9fff ffff 0007     .....?..........
  40df10:	f000 0fff fffe 0007 f000 07ff fffc 0007     ................
  40df20:	f000 03ff fff8 0007 f000 01ff ffe0 0007     ................
  40df30:	f000 00ff ffc0 0007 f000 00ff ff80 0007     ................
  40df40:	f000 007f fe00 0007 f000 003f fc00 0007     ..........?.....
  40df50:	f000 001f f800 0007 f000 000f f000 0007     ................
  40df60:	f000 0007 f000 0007 f000 0007 f000 0007     ................
	...
  40df98:	f000 0007 f000 0007 f000 0007 f000 0007     ................
  40dfa8:	f000 0007 f000 0007 f000 0007 f000 0007     ................
  40dfb8:	f000 ffff ffff 0007 f000 ffff ffff 0007     ................
  40dfc8:	f000 ffff ffff 0007 f000 ffff ffff 0007     ................
  40dfd8:	f000 ffff ffff 0007 f000 ffff ffff 0007     ................
  40dfe8:	f000 ffff ffff 0007 f000 ffff ffff 0007     ................
  40dff8:	f000 ffff ffff 0007 f000 0007 f000 0007     ................
  40e008:	f000 0007 f000 0007 f000 0007 f000 0007     ................
  40e018:	f000 0007 f000 0007 0000 0000 f000 0007     ................
  40e028:	0000 0000 f000 0007 0000 0000 f000 0007     ................
  40e038:	0000 0000 f000 0007 0000 0000 f800 0007     ................
  40e048:	0000 0000 ffe0 0007 0000 0000 ffe0 0007     ................
  40e058:	0000 0000 ffe0 0007 0000 0000 ffe0 0007     ................
  40e068:	0000 0000 ffe0 0007 0000 0000 ffe0 0007     ................
  40e078:	0000 0000 ffe0 0007 0000 0000 ffe0 0007     ................
  40e088:	0000 0000 ffe0 0007 0000 0000 0000 0000     ................
	...
  40e0b0:	f000 0007 f000 0007 f000 0007 f000 0007     ................
  40e0c0:	f000 0007 f000 0007 f000 0007 f000 0007     ................
  40e0d0:	f000 ffff ffff 0007 f000 ffff ffff 0007     ................
  40e0e0:	f000 ffff ffff 0007 f000 ffff ffff 0007     ................
  40e0f0:	f000 ffff ffff 0007 f000 ffff ffff 0007     ................
  40e100:	f000 ffff ffff 0007 f000 ffff ffff 0007     ................
  40e110:	f000 ffff ffff 0007 f000 00ff f000 0007     ................
  40e120:	f000 07ff f000 0007 f000 3fff f000 0007     ...........?....
  40e130:	f000 ffff 0001 0000 f000 ffff 000f 0000     ................
  40e140:	f000 ffff 007f 0000 c000 ffff 03ff 0000     ................
  40e150:	0000 fffe 1fff 0000 0000 fff0 ffff 0000     ................
  40e160:	0000 ff80 ffff 0007 0000 fc00 ffff 0007     ................
  40e170:	0000 c000 ffff 0007 0000 0000 fffe 0007     ................
  40e180:	0000 0000 fff0 0007 0000 0000 ff80 0007     ................
  40e190:	0000 0000 ffc0 0007 0000 0000 fff8 0007     ................
  40e1a0:	0000 0000 ffff 0007 0000 e000 ffff 0007     ................
  40e1b0:	0000 fc00 ffff 0007 0000 ffc0 7fff 0000     ................
  40e1c0:	0000 fff8 0fff 0000 0000 ffff 01ff 0000     ................
  40e1d0:	e000 ffff 003f 0000 f000 ffff 0007 0000     ....?...........
  40e1e0:	f000 ffff 0000 0000 f000 1fff f000 0007     ................
  40e1f0:	f000 03ff f000 0007 f000 007f f000 0007     ................
  40e200:	f000 ffff ffff 0007 f000 ffff ffff 0007     ................
  40e210:	f000 ffff ffff 0007 f000 ffff ffff 0007     ................
  40e220:	f000 ffff ffff 0007 f000 ffff ffff 0007     ................
  40e230:	f000 ffff ffff 0007 f000 ffff ffff 0007     ................
  40e240:	f000 ffff ffff 0007 f000 0007 f000 0007     ................
  40e250:	f000 0007 f000 0007 f000 0007 f000 0007     ................
  40e260:	f000 0007 f000 0007 0000 0000 0000 0000     ................
	...
  40e290:	f000 0007 f000 0007 f000 0007 f000 0007     ................
  40e2a0:	f000 0007 f000 0007 f000 0007 f000 0007     ................
  40e2b0:	f000 ffff ffff 0007 f000 ffff ffff 0007     ................
  40e2c0:	f000 ffff ffff 0007 f000 ffff ffff 0007     ................
  40e2d0:	f000 ffff ffff 0007 f000 ffff ffff 0007     ................
  40e2e0:	f000 ffff ffff 0007 f000 ffff ffff 0007     ................
  40e2f0:	f000 ffff ffff 0007 f000 07ff f000 0007     ................
  40e300:	f000 0fff f000 0007 c000 3fff f000 0007     ...........?....
  40e310:	8000 7fff f000 0007 0000 fffe 0001 0000     ................
  40e320:	0000 fffc 0007 0000 0000 fff0 000f 0000     ................
  40e330:	0000 ffe0 003f 0000 0000 ff80 007f 0000     ....?...........
  40e340:	0000 ff00 01ff 0000 0000 fc00 03ff 0000     ................
  40e350:	0000 f000 0fff 0000 0000 e000 3fff 0000     .............?..
  40e360:	f000 8007 7fff 0000 f000 0007 ffff 0001     ................
  40e370:	f000 0007 fffc 0003 f000 ffff ffff 0007     ................
  40e380:	f000 ffff ffff 0007 f000 ffff ffff 0007     ................
  40e390:	f000 ffff ffff 0007 f000 ffff ffff 0007     ................
  40e3a0:	f000 ffff ffff 0007 f000 ffff ffff 0007     ................
  40e3b0:	f000 ffff ffff 0007 f000 ffff ffff 0007     ................
  40e3c0:	f000 0007 0000 0000 f000 0007 0000 0000     ................
  40e3d0:	f000 0007 0000 0000 f000 0007 0000 0000     ................
	...
  40e3f0:	0000 f800 000f 0000 0000 ff80 00ff 0000     ................
  40e400:	0000 ffe0 03ff 0000 0000 fff0 07ff 0000     ................
  40e410:	0000 fffc 1fff 0000 0000 fffe 3fff 0000     .............?..
  40e420:	0000 ffff 7fff 0000 8000 ffff ffff 0000     ................
  40e430:	c000 ffff ffff 0001 c000 0fff fff8 0001     ................
  40e440:	e000 01ff ffc0 0003 e000 00ff ff80 0003     ................
  40e450:	f000 007f ff00 0007 f000 003f fe00 0007     ..........?.....
  40e460:	f000 001f fc00 0007 f800 001f fc00 000f     ................
  40e470:	f800 000f f800 000f f800 000f f800 000f     ................
  40e480:	f800 000f f800 000f f800 000f f800 000f     ................
  40e490:	f800 000f f800 000f f800 000f f800 000f     ................
  40e4a0:	f800 001f fc00 000f f000 001f fc00 0007     ................
  40e4b0:	f000 003f fe00 0007 f000 007f ff00 0007     ..?.............
  40e4c0:	e000 00ff ff80 0003 e000 01ff ffc0 0003     ................
  40e4d0:	c000 0fff fff8 0001 c000 ffff ffff 0001     ................
  40e4e0:	8000 ffff ffff 0000 0000 ffff 7fff 0000     ................
  40e4f0:	0000 fffe 3fff 0000 0000 fffc 1fff 0000     .....?..........
  40e500:	0000 fff0 07ff 0000 0000 ffe0 03ff 0000     ................
  40e510:	0000 ff80 00ff 0000 0000 f800 000f 0000     ................
	...
  40e548:	f000 0007 f000 0007 f000 0007 f000 0007     ................
  40e558:	f000 0007 f000 0007 f000 0007 f000 0007     ................
  40e568:	f000 ffff ffff 0007 f000 ffff ffff 0007     ................
  40e578:	f000 ffff ffff 0007 f000 ffff ffff 0007     ................
  40e588:	f000 ffff ffff 0007 f000 ffff ffff 0007     ................
  40e598:	f000 ffff ffff 0007 f000 ffff ffff 0007     ................
  40e5a8:	f000 ffff ffff 0007 f000 c007 f01f 0007     ................
  40e5b8:	f000 c007 f01f 0007 f000 c007 f01f 0007     ................
  40e5c8:	f000 c007 f01f 0007 f000 c007 001f 0000     ................
  40e5d8:	f000 c007 001f 0000 f000 c007 001f 0000     ................
  40e5e8:	f000 e00f 001f 0000 f000 e01f 001f 0000     ................
  40e5f8:	e000 f83f 001f 0000 e000 ffff 000f 0000     ..?.............
  40e608:	e000 ffff 000f 0000 c000 ffff 0007 0000     ................
  40e618:	c000 ffff 0007 0000 8000 ffff 0003 0000     ................
  40e628:	0000 ffff 0001 0000 0000 fffe 0000 0000     ................
  40e638:	0000 7ffc 0000 0000 0000 0fe0 0000 0000     ................
	...
  40e660:	0000 fc00 000f 0000 0000 ff80 007f 0000     ................
  40e670:	0000 ffe0 01ff 0000 0000 fff8 07ff 0000     ................
  40e680:	0000 fffc 0fff 0000 0000 fffe 3fff 0000     .............?..
  40e690:	0000 ffff 7fff 0000 8000 ffff 7fff 0000     ................
  40e6a0:	c000 ffff ffff 0000 e000 07ff fff8 0001     ................
  40e6b0:	e000 01ff ffe0 0001 f000 007f ff80 0003     ................
  40e6c0:	f000 003f ff00 0003 f000 003f ff00 0007     ..?.......?.....
  40e6d0:	f800 001f fe00 0007 f800 001f fe00 07ff     ................
  40e6e0:	f800 000f fc00 03ff f800 000f fc00 07ff     ................
  40e6f0:	f800 000f fc00 07ff f800 000f fc00 07ff     ................
  40e700:	f800 000f fc00 0fff f800 001f fe00 0fff     ................
  40e710:	f800 001f fe00 1ff7 f000 003f ff00 1ff7     ..........?.....
  40e720:	f000 003f ff00 3fe3 f000 007f ff80 3fe3     ..?....?.......?
  40e730:	e000 01ff ffe0 7fc1 c000 07ff fff8 7fc1     ................
  40e740:	c000 ffff ffff 7fc0 8000 ffff 7fff 7fc0     ................
  40e750:	0000 ffff 7fff 7fe0 0000 fffe 3fff 3ff0     .............?.?
  40e760:	0000 fffc 0fff 3ffc 0000 fff8 07ff 1ff8     .......?........
  40e770:	0000 ffe0 01ff 1ff8 0000 ff80 007f 0ff0     ................
  40e780:	0000 fc00 000f 03f0 0000 0000 0000 00e0     ................
	...
  40e7b8:	f000 0007 f000 0007 f000 0007 f000 0007     ................
  40e7c8:	f000 0007 f000 0007 f000 0007 f000 0007     ................
  40e7d8:	f000 ffff ffff 0007 f000 ffff ffff 0007     ................
  40e7e8:	f000 ffff ffff 0007 f000 ffff ffff 0007     ................
  40e7f8:	f000 ffff ffff 0007 f000 ffff ffff 0007     ................
  40e808:	f000 ffff ffff 0007 f000 ffff ffff 0007     ................
  40e818:	f000 ffff ffff 0007 f000 f007 f007 0007     ................
  40e828:	f000 f007 f007 0007 f000 f007 f007 0007     ................
  40e838:	f000 f007 f007 0007 f000 f007 0007 0000     ................
  40e848:	f000 f007 0007 0000 f000 f007 000f 0000     ................
  40e858:	f000 f007 000f 0000 f000 f007 003f 0000     ............?...
  40e868:	f000 f80f 01ff 0000 f000 f80f ffff 0000     ................
  40e878:	f000 fc1f ffff 0007 e000 ffff ffff 0007     ................
  40e888:	e000 ffff ffff 0007 e000 ffff ffff 0007     ................
  40e898:	c000 ffff fffe 0007 c000 7fff fffc 0007     ................
  40e8a8:	8000 7fff fff8 0007 0000 3fff ffc0 0007     ...........?....
  40e8b8:	0000 1ffe fc00 0007 0000 07f0 f000 0007     ................
  40e8c8:	0000 0000 f000 0007 0000 0000 f000 0007     ................
	...
  40e8ec:	1fe0 0000 0000 03f8 1fe0 0000 0000 0ffe     ................
  40e8fc:	1fe0 0000 8000 3fff 3fe0 0000 c000 7fff     .......?.?......
  40e90c:	ffe0 0000 c000 ffff ffe0 0001 e000 ffff     ................
  40e91c:	ffe0 0001 f000 ffff ffe1 0003 f000 ffff     ................
  40e92c:	ffe1 0007 f000 ffff ff03 0007 f800 fe3f     ..............?.
  40e93c:	fc03 0007 f800 fc1f fc03 000f f800 fc0f     ................
  40e94c:	f807 000f f800 f80f f807 000f f800 f80f     ................
  40e95c:	f807 000f f800 f80f f807 000f f800 f80f     ................
  40e96c:	f80f 000f f800 f00f f80f 000f f800 f01f     ................
  40e97c:	f80f 000f f000 f01f fc1f 000f f000 e03f     ..............?.
  40e98c:	fe3f 0007 f000 e1ff ffff 0007 e000 e1ff     ?...............
  40e99c:	ffff 0007 e000 c1ff ffff 0003 c000 c1ff     ................
  40e9ac:	ffff 0003 8000 81ff ffff 0001 0000 81ff     ................
  40e9bc:	ffff 0000 0000 01fe 7fff 0000 0000 01fe     ................
  40e9cc:	1ffc 0000 0000 01fe 07f0 0000 0000 0000     ................
	...
  40e9e8:	f000 00ff 0000 0000 f000 00ff 0000 0000     ................
  40e9f8:	f000 00ff 0000 0000 f000 00ff 0000 0000     ................
  40ea08:	f000 00ff 0000 0000 f000 00ff 0000 0000     ................
  40ea18:	f000 00ff 0000 0000 f000 00ff 0000 0000     ................
  40ea28:	f000 00ff 0000 0000 f000 0007 f000 0007     ................
  40ea38:	f000 0007 f000 0007 f000 0007 f000 0007     ................
  40ea48:	f000 0007 f000 0007 f000 ffff ffff 0007     ................
  40ea58:	f000 ffff ffff 0007 f000 ffff ffff 0007     ................
  40ea68:	f000 ffff ffff 0007 f000 ffff ffff 0007     ................
  40ea78:	f000 ffff ffff 0007 f000 ffff ffff 0007     ................
  40ea88:	f000 ffff ffff 0007 f000 ffff ffff 0007     ................
  40ea98:	f000 0007 f000 0007 f000 0007 f000 0007     ................
  40eaa8:	f000 0007 f000 0007 f000 0007 f000 0007     ................
  40eab8:	f000 00ff 0000 0000 f000 00ff 0000 0000     ................
  40eac8:	f000 00ff 0000 0000 f000 00ff 0000 0000     ................
  40ead8:	f000 00ff 0000 0000 f000 00ff 0000 0000     ................
  40eae8:	f000 00ff 0000 0000 f000 00ff 0000 0000     ................
  40eaf8:	f000 00ff 0000 0000 0000 0000 0000 0000     ................
	...
  40eb10:	f000 0007 0000 0000 f000 0007 0000 0000     ................
  40eb20:	f000 0007 0000 0000 f000 0007 0000 0000     ................
  40eb30:	f000 ffff 00ff 0000 f000 ffff 07ff 0000     ................
  40eb40:	f000 ffff 1fff 0000 f000 ffff 3fff 0000     .............?..
  40eb50:	f000 ffff ffff 0000 f000 ffff ffff 0001     ................
  40eb60:	f000 ffff ffff 0001 f000 ffff ffff 0003     ................
  40eb70:	f000 ffff ffff 0007 f000 0007 ff80 0007     ................
  40eb80:	f000 0007 fe00 0007 f000 0007 fc00 000f     ................
  40eb90:	f000 0007 f800 000f 0000 0000 f800 000f     ................
  40eba0:	0000 0000 f800 000f 0000 0000 f800 000f     ................
  40ebb0:	0000 0000 f800 000f f000 0007 f800 000f     ................
  40ebc0:	f000 0007 fc00 000f f000 0007 fe00 0007     ................
  40ebd0:	f000 0007 ff80 0007 f000 ffff ffff 0007     ................
  40ebe0:	f000 ffff ffff 0003 f000 ffff ffff 0001     ................
  40ebf0:	f000 ffff ffff 0000 f000 ffff ffff 0000     ................
  40ec00:	f000 ffff 3fff 0000 f000 ffff 1fff 0000     .....?..........
  40ec10:	f000 ffff 07ff 0000 f000 ffff 00ff 0000     ................
  40ec20:	f000 0007 0000 0000 f000 0007 0000 0000     ................
  40ec30:	f000 0007 0000 0000 f000 0007 0000 0000     ................
	...
  40ec48:	f000 0007 0000 0000 f000 0007 0000 0000     ................
  40ec58:	f000 0007 0000 0000 f000 0007 0000 0000     ................
  40ec68:	f000 001f 0000 0000 f000 00ff 0000 0000     ................
  40ec78:	f000 07ff 0000 0000 f000 7fff 0000 0000     ................
  40ec88:	f000 ffff 0003 0000 f000 ffff 001f 0000     ................
  40ec98:	f000 ffff 01ff 0000 f000 ffff 0fff 0000     ................
  40eca8:	f000 ffff 7fff 0000 f000 ffff ffff 0007     ................
  40ecb8:	f000 ff87 ffff 0007 f000 fc07 ffff 0007     ................
  40ecc8:	f000 e007 ffff 0007 f000 0007 fffe 0007     ................
  40ecd8:	0000 0000 fff0 0007 0000 0000 ff80 0007     ................
  40ece8:	0000 0000 ff00 0007 0000 0000 fff0 0007     ................
  40ecf8:	f000 0007 fffe 0007 f000 e007 ffff 0007     ................
  40ed08:	f000 fc07 ffff 0007 f000 ff87 ffff 0007     ................
  40ed18:	f000 ffff ffff 0007 f000 ffff ffff 0000     ................
  40ed28:	f000 ffff 1fff 0000 f000 ffff 01ff 0000     ................
  40ed38:	f000 ffff 003f 0000 f000 ffff 0003 0000     ....?...........
  40ed48:	f000 7fff 0000 0000 f000 0fff 0000 0000     ................
  40ed58:	f000 00ff 0000 0000 f000 001f 0000 0000     ................
  40ed68:	f000 0007 0000 0000 f000 0007 0000 0000     ................
  40ed78:	f000 0007 0000 0000 0000 0000 0000 0000     ................
  40ed88:	f000 0007 0000 0000 f000 0007 0000 0000     ................
  40ed98:	f000 0007 0000 0000 f000 0007 0000 0000     ................
  40eda8:	f000 001f 0000 0000 f000 03ff 0000 0000     ................
  40edb8:	f000 3fff 0000 0000 f000 ffff 0007 0000     ...?............
  40edc8:	f000 ffff 007f 0000 f000 ffff 0fff 0000     ................
  40edd8:	f000 ffff ffff 0000 f000 ffff ffff 0007     ................
  40ede8:	f000 ffff ffff 0007 f000 fff7 ffff 0007     ................
  40edf8:	f000 ff07 ffff 0007 f000 e007 ffff 0007     ................
  40ee08:	f000 0007 fffe 0007 0000 0000 ffc0 0007     ................
  40ee18:	0000 0000 ffc0 0007 0000 0000 fffc 0007     ................
  40ee28:	0000 c000 ffff 0007 0000 fc00 ffff 0007     ................
  40ee38:	0000 ffc0 ffff 0007 0000 fffc ffff 0007     ................
  40ee48:	8000 ffff ffff 0007 f000 ffff 7fff 0000     ................
  40ee58:	f000 ffff 07ff 0000 f000 ffff 007f 0000     ................
  40ee68:	f000 ffff 0007 0000 f000 7fff 0000 0000     ................
  40ee78:	f000 07ff 0000 0000 f000 7fff 0000 0000     ................
  40ee88:	f000 ffff 0007 0000 f000 ffff 007f 0000     ................
  40ee98:	f000 ffff 07ff 0000 f000 ffff 7fff 0000     ................
  40eea8:	c000 ffff ffff 0007 0000 fffc ffff 0007     ................
  40eeb8:	0000 ffc0 ffff 0007 0000 fc00 ffff 0007     ................
  40eec8:	0000 c000 ffff 0007 0000 0000 fffc 0007     ................
  40eed8:	0000 0000 ffc0 0007 f000 0007 ffc0 0007     ................
  40eee8:	f000 0007 fffc 0007 f000 e007 ffff 0007     ................
  40eef8:	f000 ff07 ffff 0007 f000 fff7 ffff 0007     ................
  40ef08:	f000 ffff ffff 0007 f000 ffff ffff 0007     ................
  40ef18:	f000 ffff ffff 0001 f000 ffff 0fff 0000     ................
  40ef28:	f000 ffff 007f 0000 f000 ffff 0007 0000     ................
  40ef38:	f000 3fff 0000 0000 f000 03ff 0000 0000     ...?............
  40ef48:	f000 001f 0000 0000 f000 0007 0000 0000     ................
  40ef58:	f000 0007 0000 0000 f000 0007 0000 0000     ................
  40ef68:	f000 0007 0000 0000 0000 0000 0000 0000     ................
  40ef78:	f000 0007 f000 0007 f000 0007 f000 0007     ................
  40ef88:	f000 000f f800 0007 f000 001f fc00 0007     ................
  40ef98:	f000 003f fe00 0007 f000 007f ff00 0007     ..?.............
  40efa8:	f000 00ff ff80 0007 f000 01ff ffc0 0007     ................
  40efb8:	f000 03ff ffe0 0007 f000 07ff fff0 0007     ................
  40efc8:	f000 0fff fff8 0007 f000 1fff fffc 0007     ................
  40efd8:	f000 3fff fffe 0007 f000 7fff ffff 0007     ...?............
  40efe8:	f000 ffe7 f7ff 0007 f000 ffc7 f3ff 0007     ................
  40eff8:	f000 ff87 f1ff 0007 0000 ff00 00ff 0000     ................
  40f008:	0000 fe00 007f 0000 0000 fe00 003f 0000     ............?...
  40f018:	0000 ff00 007f 0000 f000 ff87 f0ff 0007     ................
  40f028:	f000 ffc7 f1ff 0007 f000 ffe7 f3ff 0007     ................
  40f038:	f000 fff7 f7ff 0007 f000 7fff ffff 0007     ................
  40f048:	f000 3fff fffe 0007 f000 1fff fffc 0007     ...?............
  40f058:	f000 0fff fff8 0007 f000 07ff fff0 0007     ................
  40f068:	f000 03ff ffe0 0007 f000 01ff ffc0 0007     ................
  40f078:	f000 00ff ff80 0007 f000 007f ff00 0007     ................
  40f088:	f000 003f fe00 0007 f000 000f fc00 0007     ..?.............
  40f098:	f000 0007 f800 0007 f000 0007 f000 0007     ................
	...
  40f0c8:	f000 0007 0000 0000 f000 0007 0000 0000     ................
  40f0d8:	f000 0007 0000 0000 f000 000f 0000 0000     ................
  40f0e8:	f000 003f 0000 0000 f000 007f 0000 0000     ..?.............
  40f0f8:	f000 01ff 0000 0000 f000 07ff 0000 0000     ................
  40f108:	f000 1fff 0000 0000 f000 3fff 0000 0000     ...........?....
  40f118:	f000 ffff f000 0007 f000 ffff f003 0007     ................
  40f128:	f000 ffff f007 0007 f000 ffff f01f 0007     ................
  40f138:	f000 ffe7 ffff 0007 f000 ff87 ffff 0007     ................
  40f148:	f000 ff07 ffff 0007 0000 fc00 ffff 0007     ................
  40f158:	0000 f000 ffff 0007 f000 fc07 ffff 0007     ................
  40f168:	f000 ff07 ffff 0007 f000 ffc7 ffff 0007     ................
  40f178:	f000 fff7 ff7f 0007 f000 ffff f01f 0007     ................
  40f188:	f000 ffff f00f 0007 f000 ffff f003 0007     ................
  40f198:	f000 ffff f000 0007 f000 3fff 0000 0000     ...........?....
  40f1a8:	f000 1fff 0000 0000 f000 07ff 0000 0000     ................
  40f1b8:	f000 01ff 0000 0000 f000 007f 0000 0000     ................
  40f1c8:	f000 003f 0000 0000 f000 000f 0000 0000     ..?.............
  40f1d8:	f000 0007 0000 0000 f000 0007 0000 0000     ................
  40f1e8:	f000 0007 0000 0000 0000 0000 0000 0000     ................
	...
  40f208:	f000 03ff fc00 0007 f000 03ff fe00 0007     ................
  40f218:	f000 03ff ff00 0007 f000 03ff ff80 0007     ................
  40f228:	f000 03ff ffc0 0007 f000 03ff fff0 0007     ................
  40f238:	f000 03ff fff8 0007 f000 03ff fffc 0007     ................
  40f248:	f000 03ff fffe 0007 f000 800f ffff 0007     ................
  40f258:	f000 c00f ffff 0007 f000 e00f ffff 0007     ................
  40f268:	f000 f00f fbff 0007 f000 f80f f8ff 0007     ................
  40f278:	f000 fe0f f87f 0007 f000 ff0f f83f 0007     ............?...
  40f288:	f000 ff8f f81f 0007 f000 ffcf f80f 0007     ................
  40f298:	f000 ffef f803 0007 f000 ffff f801 0007     ................
  40f2a8:	f000 ffff ffe0 0007 f000 7fff ffe0 0007     ................
  40f2b8:	f000 3fff ffe0 0007 f000 0fff ffe0 0007     ...?............
  40f2c8:	f000 07ff ffe0 0007 f000 03ff ffe0 0007     ................
  40f2d8:	f000 01ff ffe0 0007 f000 007f ffe0 0007     ................
  40f2e8:	f000 003f ffe0 0007 0000 001c 0000 0000     ..?.............
	...
  40f310:	fe00 ffff ffff ffff fe00 ffff ffff ffff     ................
  40f320:	fe00 ffff ffff ffff fe00 ffff ffff ffff     ................
  40f330:	fe00 ffff ffff ffff fe00 ffff ffff ffff     ................
  40f340:	fe00 ffff ffff ffff fe00 0000 0000 fe00     ................
  40f350:	fe00 0000 0000 fe00 fe00 0000 0000 fe00     ................
  40f360:	fe00 0000 0000 fe00 0000 0000 0000 0000     ................
	...
  40f388:	8000 0000 0000 0000 8000 0007 0000 0000     ................
  40f398:	8000 003f 0000 0000 8000 01ff 0000 0000     ..?.............
  40f3a8:	8000 0fff 0000 0000 8000 7fff 0000 0000     ................
  40f3b8:	8000 ffff 0003 0000 8000 ffff 001f 0000     ................
  40f3c8:	8000 ffff 00ff 0000 0000 fffc 07ff 0000     ................
  40f3d8:	0000 ffe0 3fff 0000 0000 ff00 ffff 0001     .....?..........
  40f3e8:	0000 f800 ffff 000f 0000 c000 ffff 007f     ................
  40f3f8:	0000 0000 fffe 03ff 0000 0000 fff0 07ff     ................
  40f408:	0000 0000 ff80 07ff 0000 0000 fc00 07ff     ................
  40f418:	0000 0000 e000 07ff 0000 0000 0000 07ff     ................
	...
  40f440:	fe00 0000 0000 fe00 fe00 0000 0000 fe00     ................
  40f450:	fe00 0000 0000 fe00 fe00 0000 0000 fe00     ................
  40f460:	fe00 ffff ffff ffff fe00 ffff ffff ffff     ................
  40f470:	fe00 ffff ffff ffff fe00 ffff ffff ffff     ................
  40f480:	fe00 ffff ffff ffff fe00 ffff ffff ffff     ................
  40f490:	fe00 ffff ffff ffff fe00 ffff ffff ffff     ................
  40f4a0:	fe00 ffff ffff ffff 0000 0000 0000 0000     ................
	...
  40f4c0:	0000 8000 0000 0000 0000 e000 0000 0000     ................
  40f4d0:	0000 f800 0000 0000 0000 fc00 0000 0000     ................
  40f4e0:	0000 ff00 0000 0000 0000 ffc0 0000 0000     ................
  40f4f0:	0000 fff0 0000 0000 0000 7ffc 0000 0000     ................
  40f500:	0000 1ffe 0000 0000 8000 07ff 0000 0000     ................
  40f510:	e000 01ff 0000 0000 f000 007f 0000 0000     ................
  40f520:	f000 003f 0000 0000 f000 000f 0000 0000     ..?.............
  40f530:	f000 0007 0000 0000 f000 001f 0000 0000     ................
  40f540:	e000 003f 0000 0000 c000 00ff 0000 0000     ..?.............
  40f550:	0000 01ff 0000 0000 0000 07fe 0000 0000     ................
  40f560:	0000 0ffc 0000 0000 0000 1ff0 0000 0000     ................
  40f570:	0000 7fe0 0000 0000 0000 ff80 0000 0000     ................
  40f580:	0000 ff00 0000 0000 0000 fc00 0000 0000     ................
  40f590:	0000 f800 0000 0000 0000 f000 0000 0000     ................
  40f5a0:	0000 c000 0000 0000 0000 8000 0000 0000     ................
	...
  40f5bc:	0000 0fe0 0000 0000 0000 0fe0 0000 0000     ................
  40f5cc:	0000 0fe0 0000 0000 0000 0fe0 0000 0000     ................
  40f5dc:	0000 0fe0 0000 0000 0000 0fe0 0000 0000     ................
  40f5ec:	0000 0fe0 0000 0000 0000 0fe0 0000 0000     ................
  40f5fc:	0000 0fe0 0000 0000 0000 0fe0 0000 0000     ................
  40f60c:	0000 0fe0 0000 0000 0000 0fe0 0000 0000     ................
  40f61c:	0000 0fe0 0000 0000 0000 0fe0 0000 0000     ................
  40f62c:	0000 0fe0 0000 0000 0000 0fe0 0000 0000     ................
  40f63c:	0000 0fe0 0000 0000 0000 0fe0 0000 0000     ................
  40f64c:	0000 0fe0 0000 0000 0000 0fe0 0000 0000     ................
  40f65c:	0000 0fe0 0000 0000 0000 0fe0 0000 0000     ................
  40f66c:	0000 0fe0 0000 0000 0000 0fe0 0000 0000     ................
  40f67c:	0000 0fe0 0000 0000 0000 0fe0 0000 0000     ................
  40f68c:	0000 0fe0 0000 0000 0000 0000 0000 0000     ................
	...
  40f6b0:	1000 0000 0000 0000 3000 0000 0000 0000     .........0......
  40f6c0:	7000 0000 0000 0000 f000 0000 0000 0000     .p..............
  40f6d0:	f000 0001 0000 0000 f000 0003 0000 0000     ................
  40f6e0:	f000 0007 0000 0000 f000 000f 0000 0000     ................
  40f6f0:	f000 000f 0000 0000 e000 000f 0000 0000     ................
  40f700:	8000 000f 0000 0000 0000 000f 0000 0000     ................
  40f710:	0000 000c 0000 0000 0000 0008 0000 0000     ................
	...
  40f744:	3f00 0000 0000 1c00 ffc0 0000 0000 fc00     .?..............
  40f754:	ffe0 0001 0000 fe00 fff0 0003 0000 fe00     ................
  40f764:	fff8 0007 0000 ff00 fff8 0007 0000 7f00     ................
  40f774:	fffc 000f 0000 7f00 fffc 000f 0000 7f80     ................
  40f784:	f1fc 000f 0000 7f80 f0fc 000f 0000 7f80     ................
  40f794:	f0fc 000f 0000 7f80 f0fc 000f 0000 7f80     ................
  40f7a4:	f0fc 0007 0000 7f80 f0fc 0007 0000 ff80     ................
  40f7b4:	f0fc 0003 0000 ff80 f8f8 0003 0000 ff00     ................
  40f7c4:	ffff 0007 0000 ff00 ffff 0007 0000 ff00     ................
  40f7d4:	ffff 0007 0000 fe00 ffff 0007 0000 fe00     ................
  40f7e4:	ffff 0007 0000 fc00 ffff 0007 0000 f000     ................
  40f7f4:	ffff 0007 0000 c000 ffff 0007 0000 0000     ................
  40f804:	f000 0007 0000 0000 f000 0007 0000 0000     ................
  40f814:	f000 0007 0000 0000 f000 0007 0000 0000     ................
	...
  40f840:	fc00 0001 0000 0000 fc00 0001 0000 0000     ................
  40f850:	fc00 0001 0000 0000 fc00 0001 0000 0000     ................
  40f860:	fc00 ffff ffff 0007 fc00 ffff ffff 0007     ................
  40f870:	fc00 ffff ffff 0007 fc00 ffff ffff 0007     ................
  40f880:	fc00 ffff ffff 0007 fc00 ffff ffff 0007     ................
  40f890:	fc00 ffff ffff 0007 fc00 ffff ffff 0007     ................
  40f8a0:	0000 ff00 fc01 0007 0000 ff00 f800 0007     ................
  40f8b0:	0000 ff80 f000 0007 0000 7f80 f000 000f     ................
  40f8c0:	0000 7f80 f000 000f 0000 7f80 f000 000f     ................
  40f8d0:	0000 7f80 f000 000f 0000 ff80 f800 000f     ................
  40f8e0:	0000 ff80 f800 000f 0000 ff00 fc01 0007     ................
  40f8f0:	0000 ff00 ff07 0007 0000 ff00 ffff 0007     ................
  40f900:	0000 fe00 ffff 0003 0000 fc00 ffff 0001     ................
  40f910:	0000 f800 ffff 0001 0000 f000 7fff 0000     ................
  40f920:	0000 e000 3fff 0000 0000 8000 0fff 0000     .....?..........
  40f930:	0000 0000 03fe 0000 0000 0000 0000 0000     ................
	...
  40f95c:	01fe 0000 0000 8000 0fff 0000 0000 e000     ................
  40f96c:	3fff 0000 0000 f000 7fff 0000 0000 f800     .?..............
  40f97c:	ffff 0000 0000 fc00 ffff 0001 0000 fe00     ................
  40f98c:	ffff 0003 0000 fe00 ffff 0003 0000 ff00     ................
  40f99c:	ff07 0007 0000 ff00 fc01 0007 0000 ff80     ................
  40f9ac:	f800 000f 0000 ff80 f800 000f 0000 7f80     ................
  40f9bc:	f000 000f 0000 7f80 f000 000f 0000 7f80     ................
  40f9cc:	f000 000f 0000 7f80 f000 000f 0000 7f80     ................
  40f9dc:	f800 000f 0000 7f80 f800 000f 0000 ff80     ................
  40f9ec:	fc00 0007 0000 ff00 fe01 0007 0000 ff00     ................
  40f9fc:	ff01 0007 0000 fe00 fe01 0003 0000 fe00     ................
  40fa0c:	fe01 0003 0000 fe00 fe01 0001 0000 fe00     ................
  40fa1c:	fe01 0000 0000 fe00 7c01 0000 0000 fe00     .........|......
  40fa2c:	3c01 0000 0000 fe00 0c01 0000 0000 0000     .<..............
	...
  40fa54:	03fe 0000 0000 8000 0fff 0000 0000 e000     ................
  40fa64:	3fff 0000 0000 f800 ffff 0000 0000 fc00     .?..............
  40fa74:	ffff 0001 0000 fc00 ffff 0001 0000 fe00     ................
  40fa84:	ffff 0003 0000 ff00 ffff 0007 0000 ff00     ................
  40fa94:	ff07 0007 0000 ff00 fc01 0007 0000 ff80     ................
  40faa4:	f800 000f 0000 ff80 f800 000f 0000 7f80     ................
  40fab4:	f000 000f 0000 7f80 f000 000f 0000 7f80     ................
  40fac4:	f000 000f fc00 7f81 f000 000f fc00 ff81     ................
  40fad4:	f800 0007 fc00 ff01 f800 0007 fc00 ff01     ................
  40fae4:	fc01 0003 fc00 ffff ffff 0007 fc00 ffff     ................
  40faf4:	ffff 0007 fc00 ffff ffff 0007 fc00 ffff     ................
  40fb04:	ffff 0007 fc00 ffff ffff 0007 fc00 ffff     ................
  40fb14:	ffff 0007 fc00 ffff ffff 0007 fc00 ffff     ................
  40fb24:	ffff 0007 0000 0000 f000 0007 0000 0000     ................
  40fb34:	f000 0007 0000 0000 f000 0007 0000 0000     ................
  40fb44:	f000 0007 0000 0000 0000 0000 0000 0000     ................
	...
  40fb6c:	01fe 0000 0000 8000 0fff 0000 0000 e000     ................
  40fb7c:	3fff 0000 0000 f000 7fff 0000 0000 f800     .?..............
  40fb8c:	ffff 0000 0000 fc00 ffff 0001 0000 fe00     ................
  40fb9c:	ffff 0003 0000 fe00 ffff 0003 0000 ff00     ................
  40fbac:	fefd 0007 0000 ff00 fcfc 0007 0000 7f80     ................
  40fbbc:	f8fc 0007 0000 7f80 f8fc 000f 0000 7f80     ................
  40fbcc:	f0fc 000f 0000 7f80 f0fc 000f 0000 7f80     ................
  40fbdc:	f0fc 000f 0000 7f80 f0fc 000f 0000 7f80     ................
  40fbec:	f0fc 000f 0000 7f80 f0fc 000f 0000 ff00     ................
  40fbfc:	f0fc 000f 0000 ff00 f8fd 0007 0000 ff00     ................
  40fc0c:	f8ff 0007 0000 fe00 f8ff 0007 0000 fe00     ................
  40fc1c:	fcff 0003 0000 fc00 f8ff 0003 0000 f800     ................
  40fc2c:	e0ff 0001 0000 e000 80ff 0000 0000 8000     ................
  40fc3c:	00ff 0000 0000 0000 00fc 0000 0000 0000     ................
	...
  40fc68:	0000 7f00 f000 0007 0000 7f00 f000 0007     ................
  40fc78:	0000 7f00 f000 0007 0000 7f00 f000 0007     ................
  40fc88:	0000 ffff ffff 0007 c000 ffff ffff 0007     ................
  40fc98:	e000 ffff ffff 0007 f000 ffff ffff 0007     ................
  40fca8:	f000 ffff ffff 0007 f800 ffff ffff 0007     ................
  40fcb8:	f800 ffff ffff 0007 fc00 ffff ffff 0007     ................
  40fcc8:	fc00 7f07 f000 0007 fc00 7f03 f000 0007     ................
  40fcd8:	fc00 7f03 f000 0007 fc00 7f03 f000 0007     ................
  40fce8:	fc00 7f03 0000 0000 fc00 0003 0000 0000     ................
  40fcf8:	f800 0007 0000 0000 0000 0000 0000 0000     ................
	...
  40fd14:	01fe 0000 0000 c000 07ff 0000 0000 e000     ................
  40fd24:	1fff 0c00 0000 f800 3fff 0f00 0000 fc00     .........?......
  40fd34:	7fff 1f80 0000 fc00 ffff 1fc0 0000 fe00     ................
  40fd44:	ffff 3fc1 0000 ff00 ffff 3fc1 0000 ff00     ...?.......?....
  40fd54:	ff87 3f83 0000 ff00 fe01 7f83 0000 ff80     ...?............
  40fd64:	fc00 7f87 0000 ff80 fc00 7f87 0000 7f80     ................
  40fd74:	f800 7f87 0000 7f80 f800 7f87 0000 7f80     ................
  40fd84:	f800 7f87 0000 7f80 f800 7f87 0000 7f80     ................
  40fd94:	f800 7f87 0000 ff00 fc00 7fc7 0000 ff00     ................
  40fda4:	fc00 3fc3 0000 ff00 fe01 3ff3 0000 ff00     ...?.......?....
  40fdb4:	ffff 3fff 0000 ff00 ffff 1fff 0000 ff00     ...?............
  40fdc4:	ffff 1fff 0000 ff00 ffff 0fff 0000 ff00     ................
  40fdd4:	ffff 07ff 0000 ff00 ffff 03ff 0000 ff00     ................
  40fde4:	ffff 00ff 0000 ff00 ffff 003f 0000 0000     ..........?.....
	...
  40fe20:	fc00 0001 f000 0007 fc00 0001 f000 0007     ................
  40fe30:	fc00 0001 f000 0007 fc00 0001 f000 0007     ................
  40fe40:	fc00 ffff ffff 0007 fc00 ffff ffff 0007     ................
  40fe50:	fc00 ffff ffff 0007 fc00 ffff ffff 0007     ................
  40fe60:	fc00 ffff ffff 0007 fc00 ffff ffff 0007     ................
  40fe70:	fc00 ffff ffff 0007 fc00 ffff ffff 0007     ................
  40fe80:	0000 fc00 f001 0007 0000 fe00 f000 0007     ................
  40fe90:	0000 ff00 f000 0007 0000 7f00 f000 0007     ................
  40fea0:	0000 7f80 0000 0000 0000 7f80 0000 0000     ................
  40feb0:	0000 7f80 0000 0000 0000 ff80 0000 0000     ................
  40fec0:	0000 ff80 0001 0000 0000 ff80 ffff 0007     ................
  40fed0:	0000 ff80 ffff 0007 0000 ff00 ffff 0007     ................
  40fee0:	0000 ff00 ffff 0007 0000 fe00 ffff 0007     ................
  40fef0:	0000 fc00 ffff 0007 0000 f800 ffff 0007     ................
  40ff00:	0000 c000 ffff 0007 0000 0000 f000 0007     ................
  40ff10:	0000 0000 f000 0007 0000 0000 f000 0007     ................
  40ff20:	0000 0000 f000 0007 0000 0000 0000 0000     ................
	...
  40ff40:	0000 7f00 f000 0007 0000 7f00 f000 0007     ................
  40ff50:	0000 7f00 f000 0007 0000 7f00 f000 0007     ................
  40ff60:	e000 ff00 ffff 0007 f800 ff03 ffff 0007     ................
  40ff70:	f800 ff03 ffff 0007 fc00 ff07 ffff 0007     ................
  40ff80:	fc00 ff07 ffff 0007 fc00 ff07 ffff 0007     ................
  40ff90:	fc00 ff07 ffff 0007 f800 ff03 ffff 0007     ................
  40ffa0:	f800 0003 f000 0007 e000 0000 f000 0007     ................
  40ffb0:	0000 0000 f000 0007 0000 0000 f000 0007     ................
	...
  40ffd8:	0000 7f00 0000 7e00 0000 7f00 0000 7e00     .......~.......~
  40ffe8:	0000 7f00 0000 7f00 0000 7f00 0000 7f80     ................
  40fff8:	f000 ff01 ffff 3fff f800 ff03 ffff 3fff     .......?.......?
  410008:	fc00 ff07 ffff 3fff fc00 ff07 ffff 1fff     .......?........
  410018:	fc00 ff07 ffff 1fff fc00 ff07 ffff 0fff     ................
  410028:	f800 ff03 ffff 03ff f800 ff03 ffff 00ff     ................
  410038:	e000 0000 0000 0000 0000 0000 0000 0000     ................
	...
  410060:	fc00 0001 f000 0007 fc00 0001 f000 0007     ................
  410070:	fc00 0001 f000 0007 fc00 0001 f000 0007     ................
  410080:	fc00 ffff ffff 0007 fc00 ffff ffff 0007     ................
  410090:	fc00 ffff ffff 0007 fc00 ffff ffff 0007     ................
  4100a0:	fc00 ffff ffff 0007 fc00 ffff ffff 0007     ................
  4100b0:	fc00 ffff ffff 0007 fc00 ffff ffff 0007     ................
  4100c0:	0000 0000 f07c 0007 0000 0000 f07c 0007     ....|.......|...
  4100d0:	0000 0000 f07c 0007 0000 0000 f07c 0007     ....|.......|...
  4100e0:	0000 0000 00fc 0000 0000 0000 01ff 0000     ................
  4100f0:	0000 ff00 07ff 0000 0000 ff00 0fff 0000     ................
  410100:	0000 ff00 3fff 0000 0000 ff00 7fff 0000     .....?..........
  410110:	0000 ff00 ffff 0001 0000 ff00 ffff 0003     ................
  410120:	0000 ff00 ffcf 0007 0000 ff00 ff83 0007     ................
  410130:	0000 ff00 fe01 0007 0000 ff00 fc00 0007     ................
  410140:	0000 7f00 f800 0007 0000 7f00 f800 0007     ................
  410150:	0000 7f00 f800 0007 0000 7f00 f800 0007     ................
	...
  410190:	fc00 0001 f000 0007 fc00 0001 f000 0007     ................
  4101a0:	fc00 0001 f000 0007 fc00 0001 f000 0007     ................
  4101b0:	fc00 ffff ffff 0007 fc00 ffff ffff 0007     ................
  4101c0:	fc00 ffff ffff 0007 fc00 ffff ffff 0007     ................
  4101d0:	fc00 ffff ffff 0007 fc00 ffff ffff 0007     ................
  4101e0:	fc00 ffff ffff 0007 fc00 ffff ffff 0007     ................
  4101f0:	0000 0000 f000 0007 0000 0000 f000 0007     ................
  410200:	0000 0000 f000 0007 0000 0000 f000 0007     ................
	...
  410230:	0000 7f00 f000 0007 0000 7f00 f000 0007     ................
  410240:	0000 7f00 f000 0007 0000 7f00 f000 0007     ................
  410250:	0000 ff00 ffff 0007 0000 ff00 ffff 0007     ................
  410260:	0000 ff00 ffff 0007 0000 ff00 ffff 0007     ................
  410270:	0000 ff00 ffff 0007 0000 ff00 ffff 0007     ................
  410280:	0000 ff00 ffff 0007 0000 ff00 ffff 0007     ................
  410290:	0000 fc00 f001 0007 0000 fe00 f000 0007     ................
  4102a0:	0000 fe00 f000 0007 0000 7f00 f000 0007     ................
  4102b0:	0000 7f00 0000 0000 0000 7f80 0000 0000     ................
  4102c0:	0000 7f80 0000 0000 0000 7f80 0000 0000     ................
  4102d0:	0000 ff80 0000 0000 0000 ff80 0001 0000     ................
  4102e0:	0000 ff80 ffff 0007 0000 ff80 ffff 0007     ................
  4102f0:	0000 ff00 ffff 0007 0000 ff00 ffff 0007     ................
  410300:	0000 fe00 ffff 0007 0000 fc00 ffff 0007     ................
  410310:	0000 f800 ffff 0007 0000 fc00 ffff 0007     ................
  410320:	0000 fc00 f001 0007 0000 fe00 f000 0007     ................
  410330:	0000 ff00 f000 0007 0000 7f00 f000 0007     ................
  410340:	0000 7f00 0000 0000 0000 7f80 0000 0000     ................
  410350:	0000 7f80 0000 0000 0000 7f80 0000 0000     ................
  410360:	0000 ff80 0000 0000 0000 ff80 0001 0000     ................
  410370:	0000 ff80 ffff 0007 0000 ff80 ffff 0007     ................
  410380:	0000 ff00 ffff 0007 0000 ff00 ffff 0007     ................
  410390:	0000 fe00 ffff 0007 0000 fc00 ffff 0007     ................
  4103a0:	0000 f800 ffff 0007 0000 c000 ffff 0007     ................
  4103b0:	0000 0000 f000 0007 0000 0000 f000 0007     ................
  4103c0:	0000 0000 f000 0007 0000 0000 f000 0007     ................
	...
  4103f0:	0000 7f00 f000 0007 0000 7f00 f000 0007     ................
  410400:	0000 7f00 f000 0007 0000 7f00 f000 0007     ................
  410410:	0000 ff00 ffff 0007 0000 ff00 ffff 0007     ................
  410420:	0000 ff00 ffff 0007 0000 ff00 ffff 0007     ................
  410430:	0000 ff00 ffff 0007 0000 ff00 ffff 0007     ................
  410440:	0000 ff00 ffff 0007 0000 ff00 ffff 0007     ................
  410450:	0000 fc00 f001 0007 0000 fe00 f000 0007     ................
  410460:	0000 fe00 f000 0007 0000 7f00 f000 0007     ................
  410470:	0000 7f00 0000 0000 0000 7f80 0000 0000     ................
  410480:	0000 7f80 0000 0000 0000 7f80 0000 0000     ................
  410490:	0000 ff80 0000 0000 0000 ff80 0001 0000     ................
  4104a0:	0000 ff80 ffff 0007 0000 ff80 ffff 0007     ................
  4104b0:	0000 ff00 ffff 0007 0000 ff00 ffff 0007     ................
  4104c0:	0000 fe00 ffff 0007 0000 fc00 ffff 0007     ................
  4104d0:	0000 f800 ffff 0007 0000 c000 ffff 0007     ................
  4104e0:	0000 0000 f000 0007 0000 0000 f000 0007     ................
  4104f0:	0000 0000 f000 0007 0000 0000 f000 0007     ................
	...
  410524:	03fc 0000 0000 8000 0fff 0000 0000 e000     ................
  410534:	3fff 0000 0000 f000 7fff 0000 0000 f800     .?..............
  410544:	ffff 0000 0000 fc00 ffff 0001 0000 fe00     ................
  410554:	ffff 0003 0000 fe00 ffff 0007 0000 ff00     ................
  410564:	ff07 0007 0000 ff00 fc01 0007 0000 ff80     ................
  410574:	f800 000f 0000 ff80 f800 000f 0000 7f80     ................
  410584:	f000 000f 0000 7f80 f000 000f 0000 7f80     ................
  410594:	f000 000f 0000 7f80 f000 000f 0000 7f80     ................
  4105a4:	f800 000f 0000 ff80 f800 000f 0000 ff00     ................
  4105b4:	fc01 0007 0000 ff00 ff07 0007 0000 fe00     ................
  4105c4:	ffff 0003 0000 fe00 ffff 0003 0000 fc00     ................
  4105d4:	ffff 0001 0000 f800 ffff 0000 0000 f000     ................
  4105e4:	7fff 0000 0000 e000 3fff 0000 0000 8000     .........?......
  4105f4:	0fff 0000 0000 0000 03fe 0000 0000 0000     ................
	...
  410620:	0000 7f00 0000 7f00 0000 7f00 0000 7f00     ................
  410630:	0000 7f00 0000 7f00 0000 7f00 0000 7f00     ................
  410640:	0000 ff00 ffff 7fff 0000 ff00 ffff 7fff     ................
  410650:	0000 ff00 ffff 7fff 0000 ff00 ffff 7fff     ................
  410660:	0000 ff00 ffff 7fff 0000 ff00 ffff 7fff     ................
  410670:	0000 ff00 ffff 7fff 0000 ff00 ffff 7fff     ................
  410680:	0000 ff00 fc01 7f07 0000 ff00 f800 7f07     ................
  410690:	0000 ff00 f800 7f0f 0000 7f80 f000 7f0f     ................
  4106a0:	0000 7f80 f000 000f 0000 7f80 f000 000f     ................
  4106b0:	0000 7f80 f000 000f 0000 ff80 f800 000f     ................
  4106c0:	0000 ff80 f800 000f 0000 ff00 fc01 0007     ................
  4106d0:	0000 ff00 ff07 0007 0000 ff00 ffff 0007     ................
  4106e0:	0000 fe00 ffff 0003 0000 fc00 ffff 0001     ................
  4106f0:	0000 fc00 ffff 0001 0000 f000 ffff 0000     ................
  410700:	0000 e000 3fff 0000 0000 8000 0fff 0000     .....?..........
  410710:	0000 0000 03fe 0000 0000 0000 0000 0000     ................
	...
  41073c:	01fe 0000 0000 8000 0fff 0000 0000 e000     ................
  41074c:	3fff 0000 0000 f000 7fff 0000 0000 f800     .?..............
  41075c:	ffff 0000 0000 fc00 ffff 0001 0000 fe00     ................
  41076c:	ffff 0003 0000 fe00 ffff 0003 0000 ff00     ................
  41077c:	ff07 0007 0000 ff00 fc01 0007 0000 ff80     ................
  41078c:	f800 000f 0000 ff80 f800 000f 0000 7f80     ................
  41079c:	f000 000f 0000 7f80 f000 000f 0000 7f80     ................
  4107ac:	f000 000f 0000 7f80 f000 000f 0000 7f80     ................
  4107bc:	f000 7f0f 0000 ff80 f800 7f0f 0000 ff00     ................
  4107cc:	f800 7f07 0000 ff00 fc01 7f07 0000 ff80     ................
  4107dc:	ffff 7fff 0000 ff80 ffff 7fff 0000 ff80     ................
  4107ec:	ffff 7fff 0000 ff80 ffff 7fff 0000 ff80     ................
  4107fc:	ffff 7fff 0000 ff80 ffff 7fff 0000 ff80     ................
  41080c:	ffff 7fff 0000 ff80 ffff 7fff 0000 0000     ................
  41081c:	0000 7f00 0000 0000 0000 7f00 0000 0000     ................
  41082c:	0000 7f00 0000 0000 0000 7f00 0000 0000     ................
	...
  410850:	0000 7f00 f000 0007 0000 7f00 f000 0007     ................
  410860:	0000 7f00 f000 0007 0000 7f00 f000 0007     ................
  410870:	0000 ff00 ffff 0007 0000 ff00 ffff 0007     ................
  410880:	0000 ff00 ffff 0007 0000 ff00 ffff 0007     ................
  410890:	0000 ff00 ffff 0007 0000 ff00 ffff 0007     ................
  4108a0:	0000 ff00 ffff 0007 0000 ff00 ffff 0007     ................
  4108b0:	0000 fc00 f003 0007 0000 fe00 f001 0007     ................
  4108c0:	0000 fe00 f000 0007 0000 ff00 f000 0007     ................
  4108d0:	0000 ff00 0000 0000 0000 ff00 0007 0000     ................
  4108e0:	0000 ff00 0007 0000 0000 ff00 0007 0000     ................
  4108f0:	0000 ff00 0007 0000 0000 ff00 0007 0000     ................
  410900:	0000 ff00 0007 0000 0000 ff00 0007 0000     ................
  410910:	0000 ff00 0007 0000 0000 0000 0000 0000     ................
	...
  410938:	0000 e000 fe03 0001 0000 f800 fe0f 0001     ................
  410948:	0000 fc00 fe1f 0001 0000 fe00 fe1f 0001     ................
  410958:	0000 fe00 fe3f 0001 0000 ff00 fe7f 0003     ....?...........
  410968:	0000 ff00 fe7f 0007 0000 ff00 fc7f 0007     ................
  410978:	0000 ff80 f87c 0007 0000 7f80 f8fc 000f     ....|...........
  410988:	0000 7f80 f0fc 000f 0000 7f80 f0fc 000f     ................
  410998:	0000 7f80 f0f8 000f 0000 7f80 f0f8 000f     ................
  4109a8:	0000 7f80 f0f8 000f 0000 ff80 f1f8 000f     ................
  4109b8:	0000 ff00 f9f8 000f 0000 ff00 fff1 0007     ................
  4109c8:	0000 fe00 fff3 0007 0000 fe00 fff3 0007     ................
  4109d8:	0000 fc00 ffe3 0003 0000 fc00 ffe3 0001     ................
  4109e8:	0000 fc00 ffc3 0001 0000 fc00 ff83 0000     ................
  4109f8:	0000 fc00 3f03 0000 0000 0000 0000 0000     .....?..........
	...
  410a10:	0000 7f00 0000 0000 0000 7f00 0000 0000     ................
  410a20:	0000 7f00 0000 0000 0000 7f00 0000 0000     ................
  410a30:	0000 fffe 7fff 0000 0000 fffe ffff 0001     ................
  410a40:	0000 ffff ffff 0003 0000 ffff ffff 0007     ................
  410a50:	8000 ffff ffff 0007 8000 ffff ffff 000f     ................
  410a60:	c000 ffff ffff 000f c000 ffff ffff 000f     ................
  410a70:	0000 7f00 f800 000f 0000 7f00 f000 000f     ................
  410a80:	0000 7f00 f000 000f 0000 7f00 f000 0007     ................
  410a90:	0000 7f00 f000 0007 0000 0000 f000 0003     ................
	...
  410ab8:	0000 7f00 0000 0000 0000 7f00 0000 0000     ................
  410ac8:	0000 7f00 0000 0000 0000 7f00 0000 0000     ................
  410ad8:	0000 ff00 0fff 0000 0000 ff00 7fff 0000     ................
  410ae8:	0000 ff00 ffff 0000 0000 ff00 ffff 0001     ................
  410af8:	0000 ff00 ffff 0003 0000 ff00 ffff 0007     ................
  410b08:	0000 ff00 ffff 0007 0000 ff00 ffff 000f     ................
  410b18:	0000 0000 fe00 000f 0000 0000 f800 000f     ................
  410b28:	0000 0000 f800 000f 0000 0000 f000 000f     ................
  410b38:	0000 0000 f000 000f 0000 0000 f000 000f     ................
  410b48:	0000 7f00 f000 0007 0000 7f00 f800 0007     ................
  410b58:	0000 7f00 f800 0003 0000 7f00 fc00 0003     ................
  410b68:	0000 ff00 ffff 0007 0000 ff00 ffff 0007     ................
  410b78:	0000 ff00 ffff 0007 0000 ff00 ffff 0007     ................
  410b88:	0000 ff00 ffff 0007 0000 ff00 ffff 0007     ................
  410b98:	0000 ff00 ffff 0007 0000 ff00 ffff 0007     ................
  410ba8:	0000 0000 f000 0007 0000 0000 f000 0007     ................
  410bb8:	0000 0000 f000 0007 0000 0000 f000 0007     ................
	...
  410bd0:	0000 7f00 0000 0000 0000 7f00 0000 0000     ................
  410be0:	0000 7f00 0000 0000 0000 7f00 0000 0000     ................
  410bf0:	0000 ff00 0001 0000 0000 ff00 000f 0000     ................
  410c00:	0000 ff00 007f 0000 0000 ff00 03ff 0000     ................
  410c10:	0000 ff00 1fff 0000 0000 ff00 ffff 0000     ................
  410c20:	0000 ff00 ffff 0007 0000 ff00 ffff 0007     ................
  410c30:	0000 ff00 ffff 0007 0000 7f00 fffc 0007     ................
  410c40:	0000 7f00 ffe0 0007 0000 7f00 ff00 0007     ................
  410c50:	0000 7f00 f800 0007 0000 0000 ff80 0007     ................
  410c60:	0000 7f00 fff0 0007 0000 7f00 ffff 0007     ................
  410c70:	0000 ff00 ffff 0007 0000 ff00 ffff 0007     ................
  410c80:	0000 ff00 ffff 0007 0000 ff00 ffff 0000     ................
  410c90:	0000 ff00 1fff 0000 0000 ff00 01ff 0000     ................
  410ca0:	0000 ff00 003f 0000 0000 ff00 0003 0000     ....?...........
  410cb0:	0000 7f00 0000 0000 0000 7f00 0000 0000     ................
  410cc0:	0000 7f00 0000 0000 0000 7f00 0000 0000     ................
	...
  410cd8:	0000 7f00 0000 0000 0000 7f00 0000 0000     ................
  410ce8:	0000 7f00 0000 0000 0000 7f00 0000 0000     ................
  410cf8:	0000 ff00 001f 0000 0000 ff00 ffff 0007     ................
  410d08:	0000 ff00 ffff 0007 0000 ff00 ffff 0007     ................
  410d18:	0000 ff00 ffff 0007 0000 ff00 ffff 0007     ................
  410d28:	0000 ff00 ffff 0007 0000 ff00 ffff 0007     ................
  410d38:	0000 7f00 ffff 0007 0000 7f00 ff00 0007     ................
  410d48:	0000 7f00 ffe0 0007 0000 7f00 fffc 0007     ................
  410d58:	0000 8000 ffff 0007 0000 f000 ffff 0007     ................
  410d68:	0000 fe00 ffff 0003 0000 ff00 7fff 0000     ................
  410d78:	0000 ff00 0fff 0000 0000 ff00 01ff 0000     ................
  410d88:	0000 ff00 003f 0000 0000 ff00 0007 0000     ....?...........
  410d98:	0000 ff00 000f 0000 0000 ff00 007f 0000     ................
  410da8:	0000 ff00 07ff 0000 0000 ff00 3fff 0000     .............?..
  410db8:	0000 ff00 ffff 0001 0000 fc00 ffff 0007     ................
  410dc8:	0000 e000 ffff 0007 0000 0000 ffff 0007     ................
  410dd8:	0000 7f00 fff8 0007 0000 7f00 ffc0 0007     ................
  410de8:	0000 7f00 fe00 0007 0000 7f00 fffe 0007     ................
  410df8:	0000 ff00 ffff 0007 0000 ff00 ffff 0007     ................
  410e08:	0000 ff00 ffff 0007 0000 ff00 ffff 0007     ................
  410e18:	0000 ff00 ffff 0007 0000 ff00 ffff 0007     ................
  410e28:	0000 ff00 ffff 0000 0000 ff00 001f 0000     ................
  410e38:	0000 7f00 0000 0000 0000 7f00 0000 0000     ................
  410e48:	0000 7f00 0000 0000 0000 7f00 0000 0000     ................
	...
  410e60:	0000 7f00 f000 0007 0000 7f00 f000 0007     ................
  410e70:	0000 7f00 f000 0007 0000 7f00 f000 0007     ................
  410e80:	0000 ff00 f000 0007 0000 ff00 f801 0007     ................
  410e90:	0000 ff00 fc03 0007 0000 ff00 fe07 0007     ................
  410ea0:	0000 ff00 ff0f 0007 0000 ff00 ff9f 0007     ................
  410eb0:	0000 ff00 ffff 0007 0000 ff00 ffff 0007     ................
  410ec0:	0000 ff00 ffff 0007 0000 ff00 ffff 0007     ................
  410ed0:	0000 8000 0fff 0000 0000 8000 0fff 0000     ................
  410ee0:	0000 8000 0fff 0000 0000 8000 0fff 0000     ................
  410ef0:	0000 ff00 ffff 0007 0000 ff00 ffff 0007     ................
  410f00:	0000 ff00 ffff 0007 0000 ff00 ffff 0007     ................
  410f10:	0000 ff00 ff9f 0007 0000 ff00 ff0f 0007     ................
  410f20:	0000 ff00 fe07 0007 0000 ff00 fc03 0007     ................
  410f30:	0000 ff00 f801 0007 0000 ff00 f000 0007     ................
  410f40:	0000 7f00 f000 0007 0000 7f00 f000 0007     ................
  410f50:	0000 7f00 f000 0007 0000 7f00 f000 0007     ................
  410f60:	0000 7f00 0000 0000 0000 7f00 0000 0000     ................
  410f70:	0000 7f00 0000 0000 0000 7f00 0000 0000     ................
  410f80:	0000 ff00 0000 0000 0000 ff00 0007 7f00     ................
  410f90:	0000 ff00 001f 7f00 0000 ff00 00ff 7f00     ................
  410fa0:	0000 ff00 03ff 7f00 0000 ff00 1fff 7f00     ................
  410fb0:	0000 ff00 7fff 7f80 0000 ff00 ffff 7ff3     ................
  410fc0:	0000 ff00 ffff 7fff 0000 7f00 fffe 7fff     ................
  410fd0:	0000 0000 fff0 7fff 0000 0000 ff80 7fff     ................
  410fe0:	0000 0000 ff80 7fff 0000 7f00 fff0 7fff     ................
  410ff0:	0000 7f00 fffe 7fff 0000 ff00 ffff 7f3f     ..............?.
  411000:	0000 ff00 ffff 7f07 0000 ff00 ffff 7f00     ................
  411010:	0000 ff00 3fff 7f00 0000 ff00 07ff 0000     .....?..........
  411020:	0000 ff00 00ff 0000 0000 ff00 003f 0000     ............?...
  411030:	0000 ff00 0007 0000 0000 ff00 0000 0000     ................
  411040:	0000 7f00 0000 0000 0000 7f00 0000 0000     ................
  411050:	0000 7f00 0000 0000 0000 7f00 0000 0000     ................
	...
  411070:	0000 ff00 0007 0000 0000 ff00 c007 0007     ................
  411080:	0000 ff00 e007 0007 0000 ff00 f807 0007     ................
  411090:	0000 ff00 fc07 0007 0000 ff00 fe07 0007     ................
  4110a0:	0000 ff00 ff87 0007 0000 7f00 ffc0 0007     ................
  4110b0:	0000 7f00 fff0 0007 0000 7f00 fff8 0007     ................
  4110c0:	0000 7f00 fffe 0007 0000 7f00 ffff 0007     ................
  4110d0:	0000 ff00 ffff 0007 0000 ff00 f7ff 0007     ................
  4110e0:	0000 ff00 f1ff 0007 0000 ff00 f0ff 0007     ................
  4110f0:	0000 ff00 f03f 0007 0000 ff00 f01f 0007     ....?...........
  411100:	0000 ff00 ff8f 0007 0000 ff00 ff83 0007     ................
  411110:	0000 ff00 ff81 0007 0000 7f00 ff80 0007     ................
  411120:	0000 3f00 ff80 0007 0000 0f00 ff80 0007     ...?............
  411130:	0000 0000 ff80 0007 0000 0000 0000 0000     ................
	...
  411168:	0000 c000 000f 0000 0000 c000 000f 0000     ................
  411178:	0000 c000 000f 0000 0000 c000 000f 0000     ................
  411188:	0000 c000 000f 0000 0000 f000 001f 0000     ................
  411198:	fc00 ffff ffff 00ff ff00 ffff ffff 03ff     ................
  4111a8:	ff80 ffff ffff 07ff ffc0 ffff ffff 0fff     ................
  4111b8:	ffe0 ffff ffff 1fff ffe0 ffff ffff 1fff     ................
  4111c8:	ffe0 ffff ffff 1fff ffe0 ffff fffc 1fff     ................
  4111d8:	ffe0 7fff fff0 1fff 1fe0 0000 0000 1fe0     ................
  4111e8:	0fe0 0000 0000 1fc0 0fe0 0000 0000 1fc0     ................
  4111f8:	0fe0 0000 0000 1fc0 0000 0000 0000 0000     ................
	...
  411220:	ffe0 ffff ffff 03ff ffe0 ffff ffff 03ff     ................
  411230:	ffe0 ffff ffff 03ff ffe0 ffff ffff 03ff     ................
  411240:	ffe0 ffff ffff 03ff ffe0 ffff ffff 03ff     ................
  411250:	ffe0 ffff ffff 03ff ffe0 ffff ffff 03ff     ................
  411260:	ffe0 ffff ffff 03ff 0000 0000 0000 0000     ................
	...
  4112a0:	0fe0 0000 0000 1fc0 0fe0 0000 0000 1fc0     ................
  4112b0:	0fe0 0000 0000 1fc0 1fe0 0000 0000 1fe0     ................
  4112c0:	ffe0 7fff fff0 1fff ffe0 ffff fffc 1fff     ................
  4112d0:	ffe0 ffff ffff 1fff ffe0 ffff ffff 1fff     ................
  4112e0:	ffe0 ffff ffff 1fff ffc0 ffff ffff 0fff     ................
  4112f0:	ff80 ffff ffff 07ff ff00 ffff ffff 03ff     ................
  411300:	fc00 ffff ffff 00ff 0000 f000 001f 0000     ................
  411310:	0000 c000 000f 0000 0000 c000 000f 0000     ................
  411320:	0000 c000 000f 0000 0000 c000 000f 0000     ................
  411330:	0000 c000 000f 0000 0000 0000 0000 0000     ................
	...
  411354:	001c 0000 0000 0000 003f 0000 0000 8000     ........?.......
  411364:	003f 0000 0000 c000 003f 0000 0000 e000     ?.......?.......
  411374:	000f 0000 0000 e000 0007 0000 0000 e000     ................
  411384:	0007 0000 0000 e000 0007 0000 0000 e000     ................
  411394:	000f 0000 0000 c000 000f 0000 0000 c000     ................
  4113a4:	001f 0000 0000 8000 001f 0000 0000 8000     ................
  4113b4:	003f 0000 0000 0000 003f 0000 0000 0000     ?.......?.......
  4113c4:	007f 0000 0000 0000 007e 0000 0000 0000     ........~.......
  4113d4:	007e 0000 0000 0000 007e 0000 0000 0000     ~.......~.......
  4113e4:	007f 0000 0000 c000 003f 0000 0000 c000     ........?.......
  4113f4:	003f 0000 0000 c000 001f 0000 0000 8000     ?...............
  411404:	000f 0000                                   ....

00411408 <ArvoBold_32pt_CharCount>:
  411408:	0f09 200e 261a 081c 0f0f 1a15 100a 110a     ... .&..........
  411418:	111b 1719 191a 1918 1819 0a0b 1512 1911     ................
  411428:	1f30 211d 1d1f 221b 1128 230f 311c 2224     0..!..."(..#.1$"
  411438:	221d 1a20 211e 3120 2021 0e1b 0f10 161a     ." ..! 1! ......
  411448:	1b11 191b 191d 1b12 111d 1e0d 2d11 1a1f     .............-..
  411458:	1c1d 1717 1e11 281a 1a1a 1318 130f 0013     .......(........

00411468 <ArvoBold_32pt_Table>:
	...
  4114bc:	f000 01ff 0f00 0000 fff0 83ff 001f f000     ................
  4114cc:	ffff 3fc3 0000 fff0 c3ff 003f f000 ffff     ...?......?.....
  4114dc:	3fc3 0000 fff0 c3ff 003f f000 ffff 1f83     .?......?.......
  4114ec:	0000 fff0 0001 000f 0000 0000 0000 0000     ................
	...
  411518:	01f0 0000 0000 f000 007f 0000 0000 7ff0     ................
  411528:	0000 0000 f000 007f 0000 0000 7ff0 0000     ................
  411538:	0000 f000 007f 0000 0000 0000 0000 0000     ................
	...
  411550:	7ff0 0000 0000 f000 007f 0000 0000 7ff0     ................
  411560:	0000 0000 f000 007f 0000 0000 03f0 0000     ................
  411570:	0000 0000 0000 0070 0000 0000 7f00 0000     ......p.........
  411580:	0000 0380 187f 0000 f800 ff03 001f 0000     ................
  411590:	03f8 1fff 0000 f800 ffe3 001f 0000 fff8     ................
  4115a0:	1fff 0000 f800 ffff 001f c000 ffff 1fff     ................
  4115b0:	0000 fff0 ffff 0007 f000 ffff 007f 0000     ................
  4115c0:	fff0 7fff 0000 f000 1fff 007e 0000 fff0     ..........~.....
  4115d0:	7e03 0000 f000 03ff 007f 0000 f870 7f03     .~..........p...
  4115e0:	0000 0000 03f8 187f 0000 f800 ff03 001f     ................
  4115f0:	0000 03f8 1fff 0000 f800 ffff 001f 0000     ................
  411600:	fff8 1fff 0000 ff80 ffff 001f f000 ffff     ................
  411610:	1fff 0000 fff0 ffff 0007 f000 ffff 007f     ................
  411620:	0000 fff0 7fff 0000 f000 07ff 007f 0000     ................
  411630:	fff0 7f03 0000 7000 03f8 000f 0000 f800     .......p........
  411640:	0003 0000 0000 0038 0000 0000 0000 0000     ......8.........
	...
  411664:	007e 0000 8000 7e0f 0000 0000 1fc0 007e     ~......~......~.
  411674:	0000 e000 7e3f 0000 0000 7ff0 00fe 0000     ....?~..........
  411684:	f000 fe7f 0001 0000 7ff8 01fe 0000 f800     ................
  411694:	fcf9 0003 f000 f1ff fff8 0001 fff0 f0f1     ................
  4116a4:	01ff f000 f1ff fff0 0001 fff0 f1f1 01ff     ................
  4116b4:	f000 e3ff fff1 0001 fff0 f1e7 01ff f000     ................
  4116c4:	efff fffb 0001 f800 ffef 0003 0000 cff0     ................
  4116d4:	01ff 0000 e000 ffcf 0001 0000 8fe0 00ff     ................
  4116e4:	0000 e000 7f0f 0000 0000 0fe0 003e 0000     ............>...
	...
  411724:	0000 007c 0000 0000 ff00 0001 0000 8000     ..|.............
  411734:	03ff 0000 0000 ffc0 0007 0010 c000 07ff     ................
  411744:	1800 0000 c7e0 000f 001e e000 0f83 1f00     ................
  411754:	0000 83e0 c00f 001f e000 0f83 1fe0 0000     ................
  411764:	83e0 f80f 001f e000 0fc7 0ffc 0000 ffc0     ................
  411774:	ff07 0007 c000 87ff 01ff 0000 ff80 ffe3     ................
  411784:	0000 0000 f1ff 003f 0000 7c00 1ffc 0000     ......?....|....
  411794:	0000 fe00 0007 0000 8000 fbff 0000 0000     ................
  4117a4:	ffc0 03fe 0000 f000 ff7f 0007 0000 9ff8     ................
  4117b4:	0fff 0000 fe00 ff8f 000f 0000 c3ff 1f8f     ................
  4117c4:	0000 ffc0 07c1 001f e000 c07f 1f07 0000     ................
  4117d4:	3ff0 07c0 001f f000 c00f 1f07 0000 07f0     .?..............
  4117e4:	8fc0 001f f000 8001 0fff 0000 00f0 ff80     ................
  4117f4:	000f 3000 0000 07ff 0000 0010 fe00 0003     ...0............
  411804:	0000 0000 00f8 0000 0000 0000 0000 0000     ................
	...
  411824:	007e 0000 0000 ff80 0001 0000 c0fc 07ff     ~...............
  411834:	0000 ff00 ffe3 000f 8000 f7ff 0fff 0000     ................
  411844:	ffc0 ffff 001f e000 ffff 1fff 0000 ffe0     ................
  411854:	e3ff 003f f000 ffff 3fc1 0000 0ff0 80ff     ..?......?......
  411864:	003f f000 fe07 3f81 0000 07f0 83ff 003f     ?......?......?.
  411874:	f000 ff8f 3f87 0000 fff0 cfff 003f e000     .....?......?...
  411884:	efff 1fdf 0000 ffe0 ffc7 001f c000 83ff     ................
  411894:	0fff 0000 ffc0 ff81 000f 0000 f0ff 07ff     ................
  4118a4:	0000 3e00 fff0 0007 0000 f000 0fff 0000     ...>............
  4118b4:	0000 fff0 001f 0000 f000 3fff 0000 0000     ...........?....
  4118c4:	e7f0 007f 0000 f000 3f80 0000 0000 0000     .........?......
  4118d4:	001f 0000 0000 0000 0000 7ff0 0000 0000     ................
  4118e4:	f000 007f 0000 0000 7ff0 0000 0000 f000     ................
  4118f4:	007f 0000 0000 7ff0 0000 0000 f000 0000     ................
	...
  41191c:	0000 fc00 003f 0000 e000 ffff 0003 0000     ....?...........
  41192c:	fffc 1fff 0000 ff00 ffff 007f c000 ffff     ................
  41193c:	ffff 0001 fff0 ffff 07ff f800 ffff ffff     ................
  41194c:	000f fffe e003 3fff ff00 003f fe00 007f     .......?..?.....
  41195c:	07fe 0000 3ff0 fe00 0001 c000 003f 007c     .....?......?.|.
  41196c:	0000 1f00 3800 0000 0000 000c 0008 0000     .....8..........
  41197c:	0800 1800 0000 0000 000c 007c 0000 1f00     ..........|.....
  41198c:	fe00 0001 c000 003f 07fe 0000 3ff0 ff00     ......?......?..
  41199c:	003f fe00 007f fffe e003 3fff f800 ffff     ?..........?....
  4119ac:	ffff 000f fff0 ffff 07ff c000 ffff ffff     ................
  4119bc:	0001 ff00 ffff 007f 0000 fffc 1fff 0000     ................
  4119cc:	e000 ffff 0003 0000 fe00 001f 0000 0000     ................
	...
  4119f0:	000f 0000 0000 0f80 0002 0000 8000 071f     ................
  411a00:	0000 0000 9f00 0007 0000 0000 0fff 0000     ................
  411a10:	0000 ff00 000f 0000 f800 07ff 0000 0000     ................
  411a20:	fff8 0003 0000 f800 01ff 0000 0000 fff8     ................
  411a30:	0003 0000 f800 07ff 0000 0000 ff00 000f     ................
  411a40:	0000 0000 0fff 0000 0000 df00 0007 0000     ................
  411a50:	8000 071f 0000 0000 0f80 0002 0000 0000     ................
  411a60:	000f 0000 0000 0000 0000 0000 0000 0000     ................
	...
  411a84:	0fc0 0000 0000 c000 000f 0000 0000 0fc0     ................
  411a94:	0000 0000 c000 000f 0000 0000 0fc0 0000     ................
  411aa4:	0000 c000 000f 0000 0000 0fc0 0000 0000     ................
  411ab4:	c000 000f 0000 c000 ffff 000f 0000 ffc0     ................
  411ac4:	0fff 0000 c000 ffff 000f 0000 ffc0 0fff     ................
  411ad4:	0000 c000 ffff 000f 0000 ffc0 0fff 0000     ................
  411ae4:	c000 ffff 000f 0000 c000 000f 0000 0000     ................
  411af4:	0fc0 0000 0000 c000 000f 0000 0000 0fc0     ................
  411b04:	0000 0000 c000 000f 0000 0000 0fc0 0000     ................
  411b14:	0000 c000 000f 0000 0000 0fc0 0000 0000     ................
	...
  411b2c:	0000 0600 0000 0000 c000 0007 0000 0000     ................
  411b3c:	0ffc 0000 0000 ff80 000f 0000 8000 07ff     ................
  411b4c:	0000 0000 ff00 0001 0000 0000 003f 0000     ............?...
  411b5c:	0000 0f00 0000 0000 0000 0002 0000 0000     ................
	...
  411b78:	c000 000f 0000 0000 0fc0 0000 0000 c000     ................
  411b88:	000f 0000 0000 0fc0 0000 0000 c000 000f     ................
  411b98:	0000 0000 0fc0 0000 0000 c000 000f 0000     ................
  411ba8:	0000 0fc0 0000 0000 c000 000f 0000 0000     ................
  411bb8:	0fc0 0000 0000 c000 000f 0000 0000 0fc0     ................
  411bc8:	0000 0000 c000 000f 0000 0000 0000 0000     ................
	...
  411be8:	0000 0780 0000 0000 c000 000f 0000 0000     ................
  411bf8:	1fe0 0000 0000 e000 001f 0000 0000 1fe0     ................
  411c08:	0000 0000 e000 001f 0000 0000 0fc0 0000     ................
  411c18:	0000 8000 0007 0000 0000 0000 0000 0000     ................
	...
  411c30:	1000 0000 0000 0000 001e 0000 0000 1fc0     ................
  411c40:	0000 0000 f800 001f 0000 0000 1ffe 0000     ................
  411c50:	0000 ffc0 001f 0000 f800 0fff 0000 0000     ................
  411c60:	ffff 0003 0000 ffc0 007f 0000 f800 0fff     ................
  411c70:	0000 0000 ffff 0001 0000 ffe0 007f 0000     ................
  411c80:	f000 0fff 0000 0000 fff0 0001 0000 f000     ................
  411c90:	003f 0000 0000 0ff0 0000 0000 0000 0000     ?...............
	...
  411cac:	ff80 0007 0000 f000 7fff 0000 0000 fffe     ................
  411cbc:	01ff 0000 ff00 ffff 0003 8000 ffff 07ff     ................
  411ccc:	0000 ffc0 ffff 000f e000 ffff 1fff 0000     ................
  411cdc:	7fe0 f800 001f f000 001f 3fe0 0000 0ff0     ...........?....
  411cec:	c000 003f f000 0007 3f80 0000 07f0 8000     ..?......?......
  411cfc:	003f f000 0007 3f80 0000 07f0 8000 003f     ?......?......?.
  411d0c:	f000 000f 3fc0 0000 1ff0 e000 003f e000     .....?......?...
  411d1c:	007f 1ff8 0000 ffe0 ffff 001f c000 ffff     ................
  411d2c:	0fff 0000 ff80 ffff 0007 0000 ffff 03ff     ................
  411d3c:	0000 fe00 ffff 0001 0000 fff8 003f 0000     ............?...
  411d4c:	8000 07ff 0000 0000 0000 0000 0000 0000     ................
  411d5c:	0000 0000 0000 01fc 0000 0000 fe00 0000     ................
  411d6c:	0000 0000 00fe 1fc0 0000 7f00 c000 001f     ................
  411d7c:	8000 003f 1fc0 0000 ff80 ffff 001f c000     ..?.............
  411d8c:	ffff 1fff 0000 ffc0 ffff 001f e000 ffff     ................
  411d9c:	1fff 0000 ffe0 ffff 001f e000 ffff 1fff     ................
  411dac:	0000 ffe0 ffff 001f 0000 0000 1fc0 0000     ................
  411dbc:	0000 c000 001f 0000 0000 1fc0 0000 0000     ................
	...
  411de4:	0000 7800 8000 001f 0000 007e 1fc0 0000     ...x......~.....
  411df4:	7f80 e000 001f c000 007f 1ff0 0000 7fc0     ................
  411e04:	f800 001f e000 007f 1ffe 0000 7fe0 ff00     ................
  411e14:	001f f000 801f 1fff 0000 0ff0 ffc0 001f     ................
  411e24:	f000 e007 1fff 0000 07f0 fff0 001f f000     ................
  411e34:	f807 1fdf 0000 07f0 cffc 001f f000 fe0f     ................
  411e44:	1fc7 0000 ffe0 c3ff 001f e000 ffff 1fc1     ................
  411e54:	0000 ffc0 c0ff 001f c000 7fff 1fc0 0000     ................
  411e64:	ff80 c03f 001f 0000 1fff 1fc0 0000 f800     ..?.............
  411e74:	c00f 001f 0000 0000 1fc0 0000 7000 3800     .............p.8
  411e84:	0000 0000 007c 00f8 0000 7f00 f800 0003     ....|...........
  411e94:	8000 007f 07f8 0000 7fc0 f800 000f e000     ................
  411ea4:	007f 1ff8 0000 7fe0 f800 001f e000 001f     ................
  411eb4:	1fe0 0000 0ff0 c0fe 003f f000 fe07 3f80     ........?......?
  411ec4:	0000 07f0 80fe 003f f000 fe07 3f80 0000     ......?......?..
  411ed4:	07f0 80fe 003f f000 ff0f 3fc1 0000 1fe0     ....?......?....
  411ee4:	e1ff 001f e000 ffff 1fff 0000 ffe0 ffff     ................
  411ef4:	001f c000 ffff 0fff 0000 ff80 ffff 0007     ................
  411f04:	0000 efff 03ff 0000 fe00 ffc7 0001 0000     ................
  411f14:	81f8 007f 0000 0000 0000 0000 0000 e000     ................
  411f24:	001f 0000 0000 1ff0 0000 0000 fc00 001f     ................
  411f34:	0000 0000 1ffe 0000 0000 ff00 001f 0000     ................
  411f44:	c000 1fff 0000 0000 ffe0 001f 0000 f800     ................
  411f54:	1fff 0000 0000 fffc 001f 0000 fe00 1fcf     ................
  411f64:	0000 8000 c7ff 001f 0000 ffc0 dfc3 001f     ................
  411f74:	e000 c0ff 1fdf 0000 7fe0 dfc0 001f e000     ................
  411f84:	ff1f 1fff 0000 0fe0 ffff 001f e000 ff03     ................
  411f94:	1fff 0000 01e0 ffff 001f e000 ff00 1fff     ................
  411fa4:	0000 0020 ffff 001f 0000 ff00 1fff 0000     .. .............
  411fb4:	0000 dfc0 001f 0000 c000 1fdf 0000 0000     ................
  411fc4:	dfc0 001f 0000 c000 001f 0000 0000 0000     ................
	...
  411fe8:	0030 0000 ffe0 f03f 0000 e000 3fff 03f0     0.....?......?..
  411ff8:	0000 ffe0 f03f 0007 e000 7fff 0ff8 0000     ....?...........
  412008:	ffe0 f87f 001f e000 7fff 1ff8 0000 ffe0     ................
  412018:	f07f 001f e000 3f0f 3fc0 0000 8fe0 803f     .......?.?....?.
  412028:	003f e000 3f8f 3f80 0000 8fe0 803f 003f     ?....?.?....?.?.
  412038:	e000 3f8f 3f80 0000 8fe0 c07f 003f e000     ...?.?......?...
  412048:	ff8f 1fe0 0000 0fe0 ffff 001f e000 ff0f     ................
  412058:	1fff 0000 0fe0 fffe 000f e000 fe0f 07ff     ................
  412068:	0000 0fe0 fffc 0003 e000 f00f 00ff 0000     ................
  412078:	0000 3fc0 0000 0000 0000 0000 0000 0000     ...?............
  412088:	0000 0000 0000 8000 003f 0000 0000 fff0     ........?.......
  412098:	0000 0000 f800 03ff 0000 0000 fffe 0007     ................
  4120a8:	0000 ff00 0fff 0000 c000 ffff 000f 0000     ................
  4120b8:	fff0 1fff 0000 f800 e0ff 001f 0000 7ffe     ................
  4120c8:	3fc0 0000 ff80 803f 003f c000 3fff 3f80     .?....?.?....?.?
  4120d8:	0000 ffe0 803f 003f e000 3fff 3f80 0000     ....?.?....?.?..
  4120e8:	bfe0 c07f 003f e000 ff8f 1fe0 0000 87e0     ....?...........
  4120f8:	ffff 001f e000 ff01 0fff 0000 0060 ffff     ............`...
  412108:	000f 2000 fe00 07ff 0000 0000 fffc 0003     ... ............
  412118:	0000 f000 00ff 0000 0000 3fc0 0000 0000     ...........?....
	...
  412134:	e000 00ff 0000 0000 ffe0 0000 0000 e000     ................
  412144:	00ff 0000 0000 ffe0 0000 0000 e000 00ff     ................
  412154:	1fc0 0000 ffe0 c000 001f e000 00ff 1fe0     ................
  412164:	0000 0fe0 f800 001f e000 000f 1ffe 0000     ................
  412174:	0fe0 ff80 001f e000 e00f 1fff 0000 0fe0     ................
  412184:	fff8 001f e000 fe0f 1fff 0000 8fe0 ffff     ................
  412194:	001f e000 ffef 1fdf 0000 ffe0 c3ff 001f     ................
  4121a4:	e000 ffff 1fc0 0000 ffe0 003f 0000 e000     ..........?.....
  4121b4:	0fff 0000 0000 ffe0 0003 0000 e000 00ff     ................
  4121c4:	0000 0000 3fe0 0000 0000 e000 000f 0000     .....?..........
	...
  4121ec:	0000 007e 0000 f800 ff01 0001 0000 87fe     ..~.............
  4121fc:	03ff 0000 ff00 ffdf 0007 8000 ffff 0fff     ................
  41220c:	0000 ffc0 ffff 001f e000 ffff 1fff 0000     ................
  41221c:	ffe0 e7ff 001f f000 ff1f 3fc3 0000 0ff0     ...........?....
  41222c:	81fe 003f f000 fc07 3f81 0000 07f0 81fc     ..?......?......
  41223c:	003f f000 fe0f 3f81 0000 1ff0 c3ff 003f     ?......?......?.
  41224c:	e000 ffff 1fe7 0000 ffe0 ffff 001f c000     ................
  41225c:	ffff 1fff 0000 ff80 ffff 000f 0000 dfff     ................
  41226c:	07ff 0000 fe00 ff87 0003 0000 01f8 01ff     ................
  41227c:	0000 0000 7c00 0000 0000 0000 0000 0000     .....|..........
	...
  412298:	0000 f800 0003 0000 0000 0ffe 0000 0000     ................
  4122a8:	ff00 001f 0000 8000 3fff 0000 0000 ffc0     .........?......
  4122b8:	007f 0010 e000 ffff 1800 0000 ffe0 00ff     ................
  4122c8:	001e e000 ff1f 1f81 0000 0ff0 e1fe 001f     ................
  4122d8:	f000 fc07 1ff9 0000 07f0 fffc 001f f000     ................
  4122e8:	fc07 1fff 0000 07f0 fffc 0007 f000 fe0f     ................
  4122f8:	01ff 0000 1fe0 7fff 0000 e000 ffff 003f     ..............?.
  412308:	0000 ffe0 0fff 0000 c000 ffff 0003 0000     ................
  412318:	ff80 00ff 0000 0000 3fff 0000 0000 fe00     .........?......
  412328:	000f 0000 0000 03f8 0000 0000 0000 0000     ................
	...
  412344:	000e 0007 0000 1f00 0f80 0000 8000 c03f     ..............?.
  412354:	001f 0000 3f80 1fc0 0000 8000 c03f 001f     .....?......?...
  412364:	0000 3f80 1fc0 0000 0000 c01f 000f 0000     ...?............
  412374:	0e00 0700 0000 0000 0000 0000 0000 0000     ................
  412384:	c000 000f 0000 0000 0ffc 0000 0f00 ff80     ................
  412394:	001f 8000 801f 07ff 0000 1fc0 ff00 0001     ................
  4123a4:	c000 001f 007f 0000 1fc0 1e00 0000 c000     ................
  4123b4:	001f 0002 0000 1f80 0000 0000 0000 000f     ................
	...
  4123d0:	3ffe 0000 0000 fe00 007f 0000 0000 7ffe     .?..............
  4123e0:	0000 0000 fe00 007f 0000 0000 7fff 0000     ................
  4123f0:	0000 ff00 007f 0000 0000 7fff 0000 0000     ................
  412400:	ff00 00ff 0000 0000 ffff 0000 0000 7f00     ................
  412410:	00fe 0000 0000 fe7f 0000 0000 7f80 00fe     ................
  412420:	0000 8000 fe7f 0001 0000 7f80 01fe 0000     ................
  412430:	8000 fc7f 0001 0000 0000 0000 0000 0000     ................
	...
  41244c:	8000 3f1f 0000 0000 1f80 003f 0000 8000     ...?......?.....
  41245c:	3f1f 0000 0000 1f80 003f 0000 8000 3f1f     .?......?......?
  41246c:	0000 0000 1f80 003f 0000 8000 3f1f 0000     ......?......?..
  41247c:	0000 1f80 003f 0000 8000 3f1f 0000 0000     ....?......?....
  41248c:	1f80 003f 0000 8000 3f1f 0000 0000 1f80     ..?......?......
  41249c:	003f 0000 8000 3f1f 0000 0000 1f80 003f     ?......?......?.
  4124ac:	0000 8000 3f1f 0000 0000 1f80 003f 0000     .....?......?...
  4124bc:	8000 3f1f 0000 0000 1f80 003f 0000 8000     ...?......?.....
  4124cc:	3f1f 0000 0000 0000 0000 0000 0000 0000     .?..............
  4124dc:	0000 0000 7f80 01fc 0000 8000 fe7f 0001     ................
  4124ec:	0000 7f80 01fe 0000 8000 fe7f 0000 0000     ................
  4124fc:	7f00 00fe 0000 0000 fe7f 0000 0000 ff00     ................
  41250c:	00ff 0000 0000 ffff 0000 0000 ff00 007f     ................
  41251c:	0000 0000 7fff 0000 0000 ff00 007f 0000     ................
  41252c:	0000 7ffe 0000 0000 fe00 007f 0000 0000     ................
  41253c:	7ffe 0000 0000 fe00 003f 0000 0000 0000     ........?.......
	...
  41255c:	0000 0038 0000 0000 3f00 0000 0000 8000     ..8......?......
  41256c:	003f 0000 0000 3fc0 0000 0000 e000 003f     ?......?......?.
  41257c:	0000 0000 3fe0 1f80 000f f000 e03f 1f9f     .....?......?...
  41258c:	0000 0ff0 dff0 001f f000 f007 1fdf 0000     ................
  41259c:	07f0 dff8 001f f000 fc07 1fdf 0000 0ff0     ................
  4125ac:	9fff 001f f000 ffff 0f00 0000 ffe0 007f     ................
  4125bc:	0000 e000 3fff 0000 0000 ffc0 001f 0000     .....?..........
  4125cc:	8000 0fff 0000 0000 ff00 0007 0000 0000     ................
  4125dc:	00fc 0000 0000 0000 0000 0000 0000 0000     ................
	...
  41261c:	7f80 0000 0000 f800 07ff 0000 0000 fffe     ................
  41262c:	001f 0000 ff00 3fff 0000 c000 ffff 00ff     .......?........
  41263c:	0000 ffe0 ffff 0001 f000 807f 03ff 0000     ................
  41264c:	1ff0 fe00 0003 f800 0007 07f8 0000 03fc     ................
  41265c:	f000 000f fc00 3f01 0fe0 0000 c0fe c0ff     .......?........
  41266c:	001f 7e00 ffe0 1f83 0000 f07f 87ff 003f     ...~..........?.
  41267c:	3f00 fff8 3f07 0000 f83f 0fff 003f 3f80     .?...?..?...?..?
  41268c:	e3f8 7f0f 8000 fc1f 1fc1 007e 1f80 80fc     ..........~.....
  41269c:	7e1f 8000 fc1f 1f80 007e 1f80 80fc 7e1f     .~......~......~
  4126ac:	8000 fc1f 1fc1 007e 1f80 c1fc 7e1f 8000     ......~......~..
  4126bc:	f81f 0fff 007e 1f80 fffc 7f0f 0000 fc3f     ....~.........?.
  4126cc:	07ff 003f 3f00 fffc 3f07 0000 fc7f 8fff     ..?..?...?......
  4126dc:	003f 7f00 fffc 1f9f 0000 fcfe 1fff 001f     ?...............
  4126ec:	fe00 8000 0c1f 0000 01fc 1f80 0000 f800     ................
  4126fc:	8003 001f 0000 0ff8 1fc0 0000 f000 e03f     ..............?.
  41270c:	000f 0000 ffe0 0fff 0000 c000 ffff 0007     ................
  41271c:	0000 ff80 03ff 0000 0000 fffe 0001 0000     ................
  41272c:	f800 00ff 0000 0000 1fe0 0000 0000 0000     ................
	...
  412758:	1fc0 0000 0000 c000 001f 0000 0000 1ff0     ................
  412768:	0000 0000 fe00 001f 0000 c000 1fff 0000     ................
  412778:	0000 fff8 001f 0000 ff00 1fff 0000 e000     ................
  412788:	ffff 001f 0000 fffc 1fdf 0000 ffc0 c7ff     ................
  412798:	001f e000 ffff 1fc7 0000 ffe0 c7ef 001f     ................
  4127a8:	e000 e1ff 0007 0000 3fe0 07e0 0000 e000     .........?......
  4127b8:	e00f 0007 0000 7fe0 07e0 0000 e000 e7ff     ................
  4127c8:	0007 0000 ffe0 c7ff 001f e000 ffff 1fc7     ................
  4127d8:	0000 ffe0 dfff 001f 8000 ffff 1fff 0000     ................
  4127e8:	f800 ffff 001f 0000 ffc0 1fff 0000 0000     ................
  4127f8:	fffc 001f 0000 e000 1fff 0000 0000 fe00     ................
  412808:	001f 0000 0000 1ff0 0000 0000 c000 001f     ................
  412818:	0000 0000 1fc0 0000 0000 0000 0000 0000     ................
	...
  41283c:	0fe0 c000 001f e000 000f 1fc0 0000 0fe0     ................
  41284c:	c000 001f e000 ffff 1fff 0000 ffe0 ffff     ................
  41285c:	001f e000 ffff 1fff 0000 ffe0 ffff 001f     ................
  41286c:	e000 ffff 1fff 0000 ffe0 ffff 001f e000     ................
  41287c:	ffff 1fff 0000 0fe0 c0fe 001f e000 fe0f     ................
  41288c:	1fc0 0000 0fe0 c0fe 001f e000 fe0f 1fc0     ................
  41289c:	0000 0fe0 c0fe 001f e000 fe0f 1fc0 0000     ................
  4128ac:	0fe0 c0fe 001f e000 ff1f 1fe1 0000 ffc0     ................
  4128bc:	ffff 001f c000 ffff 0fff 0000 ffc0 ffff     ................
  4128cc:	000f 8000 ffff 07ff 0000 ff00 ffff 0003     ................
  4128dc:	0000 cffe 01ff 0000 f000 3f03 0000 0000     ...........?....
	...
  4128f8:	0000 fe00 0001 0000 c000 0fff 0000 0000     ................
  412908:	fff0 003f 0000 fc00 ffff 0000 0000 fffe     ..?.............
  412918:	01ff 0000 ff00 ffff 0003 8000 ffff 07ff     ................
  412928:	0000 ffc0 ff03 000f c000 007f 0ff8 0000     ................
  412938:	3fe0 f000 001f e000 001f 1fe0 0000 0fe0     .?..............
  412948:	c000 001f f000 000f 3fc0 0000 07f0 8000     .........?......
  412958:	003f f000 0007 3f80 0000 07f0 8000 003f     ?......?......?.
  412968:	f000 0007 3f80 0000 07f0 8000 003f f000     .....?......?...
  412978:	0007 3f80 0000 0ff0 c000 003f e000 000f     ...?......?.....
  412988:	1fe0 0000 1fe0 e000 001f e000 003f 1ff8     ............?...
  412998:	0000 7fc0 f800 000f 8000 007f 07f8 0000     ................
  4129a8:	7f80 f800 0007 0000 007f 03f8 0000 7f00     ................
  4129b8:	f800 0001 0000 007f 0078 0000 7f00 1800     ........x.......
  4129c8:	0000 0000 007f 0000 0000 0000 0000 0000     ................
	...
  4129e0:	0fe0 c000 001f e000 000f 1fc0 0000 0fe0     ................
  4129f0:	c000 001f e000 ffff 1fff 0000 ffe0 ffff     ................
  412a00:	001f e000 ffff 1fff 0000 ffe0 ffff 001f     ................
  412a10:	e000 ffff 1fff 0000 ffe0 ffff 001f e000     ................
  412a20:	ffff 1fff 0000 0fe0 c000 001f e000 000f     ................
  412a30:	1fc0 0000 0fe0 c000 001f e000 000f 1fc0     ................
  412a40:	0000 0fe0 c000 001f e000 000f 1fc0 0000     ................
  412a50:	1fe0 e000 001f c000 001f 0fe0 0000 3fc0     ...............?
  412a60:	f000 000f c000 007f 0ff8 0000 ff80 fc00     ................
  412a70:	0007 8000 03ff 07ff 0000 ff00 ffff 0003     ................
  412a80:	0000 fffe 01ff 0000 fc00 ffff 0000 0000     ................
  412a90:	fff8 007f 0000 f000 3fff 0000 0000 ffc0     .........?......
  412aa0:	000f 0000 0000 01fe 0000 0000 0000 0000     ................
	...
  412ac4:	0000 e000 000f 1fc0 0000 0fe0 c000 001f     ................
  412ad4:	e000 000f 1fc0 0000 ffe0 ffff 001f e000     ................
  412ae4:	ffff 1fff 0000 ffe0 ffff 001f e000 ffff     ................
  412af4:	1fff 0000 ffe0 ffff 001f e000 ffff 1fff     ................
  412b04:	0000 ffe0 ffff 001f e000 fc0f 1fc1 0000     ................
  412b14:	0fe0 c1fc 001f e000 fc0f 1fc1 0000 0fe0     ................
  412b24:	c1fc 001f e000 fc0f 1fc1 0000 0fe0 c1fc     ................
  412b34:	001f e000 000f 1fc0 0000 0fe0 c000 001f     ................
  412b44:	e000 00ff 1ffc 0000 ffe0 fc00 001f e000     ................
  412b54:	00ff 1ffc 0000 ffe0 fc00 001f e000 00ff     ................
  412b64:	1ffc 0000 ffe0 fc00 001f e000 00ff 1ffc     ................
	...
  412b90:	0000 0fe0 c000 001f e000 000f 1fc0 0000     ................
  412ba0:	0fe0 c000 001f e000 ffff 1fff 0000 ffe0     ................
  412bb0:	ffff 001f e000 ffff 1fff 0000 ffe0 ffff     ................
  412bc0:	001f e000 ffff 1fff 0000 ffe0 ffff 001f     ................
  412bd0:	e000 ffff 1fff 0000 0fe0 c0fc 001f e000     ................
  412be0:	fc0f 1fc0 0000 0fe0 c0fc 001f e000 fc0f     ................
  412bf0:	0000 0000 0fe0 00fc 0000 e000 fc0f 0000     ................
  412c00:	0000 0fe0 0000 0000 e000 01ff 0000 0000     ................
  412c10:	ffe0 0001 0000 e000 01ff 0000 0000 ffe0     ................
  412c20:	0001 0000 e000 01ff 0000 0000 ffe0 0001     ................
  412c30:	0000 e000 01ff 0000 0000 0000 0000 0000     ................
  412c40:	0000 fe00 0003 0000 c000 1fff 0000 0000     ................
  412c50:	fff0 007f 0000 fc00 ffff 0000 0000 fffe     ................
  412c60:	01ff 0000 ff00 ffff 0003 8000 ffff 07ff     ................
  412c70:	0000 ffc0 fe03 000f c000 007f 0ff8 0000     ................
  412c80:	3fe0 f000 001f e000 001f 1fe0 0000 0ff0     .?..............
  412c90:	c000 003f f000 000f 3fc0 0000 07f0 8000     ..?......?......
  412ca0:	003f f000 0007 3f80 0000 07f0 87f0 003f     ?......?......?.
  412cb0:	f000 f007 3f87 0000 07f0 87f0 001f f000     .....?..........
  412cc0:	f00f 1fc7 0000 1ff0 e7f0 000f e000 f03f     ..............?.
  412cd0:	07f7 0000 7fe0 fff0 0003 c000 f07f 00ff     ................
  412ce0:	0000 7fc0 fff0 001f 8000 f07f 1fff 0000     ................
  412cf0:	7f00 fff0 001f 0000 f07f 1fff 0000 7f00     ................
  412d00:	fff0 001f 0000 f07f 1fff 0000 7f00 fff0     ................
  412d10:	001f 0000 0000 0000 0000 0000 0000 0000     ................
	...
  412d3c:	e000 000f 1fc0 0000 0fe0 c000 001f e000     ................
  412d4c:	000f 1fc0 0000 ffe0 ffff 001f e000 ffff     ................
  412d5c:	1fff 0000 ffe0 ffff 001f e000 ffff 1fff     ................
  412d6c:	0000 ffe0 ffff 001f e000 ffff 1fff 0000     ................
  412d7c:	ffe0 ffff 001f e000 fe0f 1fc0 0000 0fe0     ................
  412d8c:	c0fe 001f e000 fe0f 1fc0 0000 0000 00fe     ................
  412d9c:	0000 0000 fe00 0000 0000 0000 00fe 0000     ................
  412dac:	0000 fe00 0000 0000 0000 00fe 0000 0000     ................
  412dbc:	fe00 0000 0000 0000 00fe 0000 0000 fe00     ................
  412dcc:	0000 0000 0fe0 c0fe 001f e000 fe0f 1fc0     ................
  412ddc:	0000 0fe0 c0fe 001f e000 ffff 1fff 0000     ................
  412dec:	ffe0 ffff 001f e000 ffff 1fff 0000 ffe0     ................
  412dfc:	ffff 001f e000 ffff 1fff 0000 ffe0 ffff     ................
  412e0c:	001f e000 ffff 1fff 0000 0fe0 c000 001f     ................
  412e1c:	e000 000f 1fc0 0000 0fe0 c000 001f 0000     ................
	...
  412e54:	e000 000f 1fc0 0000 0fe0 c000 001f e000     ................
  412e64:	000f 1fc0 0000 ffe0 ffff 001f e000 ffff     ................
  412e74:	1fff 0000 ffe0 ffff 001f e000 ffff 1fff     ................
  412e84:	0000 ffe0 ffff 001f e000 ffff 1fff 0000     ................
  412e94:	ffe0 ffff 001f e000 000f 1fc0 0000 0fe0     ................
  412ea4:	c000 001f e000 000f 1fc0 0000 0000 0000     ................
	...
  412ec0:	0000 0200 e000 000f 8000 0003 0fe0 0000     ................
  412ed0:	03e0 e000 000f f800 0003 ffe0 ffff 03ff     ................
  412ee0:	e000 ffff ffff 0003 ffe0 ffff 01ff e000     ................
  412ef0:	ffff ffff 0000 ffe0 ffff 007f e000 ffff     ................
  412f00:	1fff 0000 ffe0 ffff 0007 e000 000f 0000     ................
  412f10:	0000 0fe0 0000 0000 e000 000f 0000 0000     ................
	...
  412f34:	e000 000f 1fc0 0000 0fe0 c000 001f e000     ................
  412f44:	000f 1fc0 0000 ffe0 ffff 001f e000 ffff     ................
  412f54:	1fff 0000 ffe0 ffff 001f e000 ffff 1fff     ................
  412f64:	0000 ffe0 ffff 001f e000 ffff 1fff 0000     ................
  412f74:	ffe0 ffff 001f e000 100f 1fc0 0000 0fe0     ................
  412f84:	c038 001f e000 7c0f 1fc0 0000 0000 00fe     8......|........
  412f94:	0000 0000 ff00 0001 0000 0000 03ff 0000     ................
  412fa4:	0000 ff80 0007 0000 c000 1fff 0000 0000     ................
  412fb4:	ffe0 003f 0000 f000 7fef 0000 e000 c7ff     ..?.............
  412fc4:	1fff 0000 ffe0 ff83 001f e000 01ff 1fff     ................
  412fd4:	0000 ffe0 fe01 001f e000 00ff 1ffc 0000     ................
  412fe4:	7fe0 f800 001f e000 003f 1ff0 0000 1fe0     ........?.......
  412ff4:	e000 001f e000 001f 1fc0 0000 0fe0 c000     ................
  413004:	001f e000 000f 1fc0 0000 0000 0000 0000     ................
	...
  413028:	0000 0fe0 c000 001f e000 000f 1fc0 0000     ................
  413038:	0fe0 c000 001f e000 ffff 1fff 0000 ffe0     ................
  413048:	ffff 001f e000 ffff 1fff 0000 ffe0 ffff     ................
  413058:	001f e000 ffff 1fff 0000 ffe0 ffff 001f     ................
  413068:	e000 ffff 1fff 0000 0fe0 c000 001f e000     ................
  413078:	000f 1fc0 0000 0fe0 c000 001f 0000 0000     ................
  413088:	1fc0 0000 0000 c000 001f 0000 0000 1fc0     ................
  413098:	0000 0000 c000 001f 0000 0000 1ffe 0000     ................
  4130a8:	0000 fe00 001f 0000 0000 1ffe 0000 0000     ................
  4130b8:	fe00 001f 0000 0000 1ffe 0000 0000 fe00     ................
  4130c8:	001f 0000 0000 1ffe 0000 0000 0000 0000     ................
	...
  4130e4:	0000 e000 000f 1fc0 0000 0fe0 c000 001f     ................
  4130f4:	e000 000f 1fc0 0000 ffe0 ffff 001f e000     ................
  413104:	ffff 1fff 0000 ffe0 ffff 001f e000 ffff     ................
  413114:	1fff 0000 ffe0 ffff 001f e000 ffff 1fff     ................
  413124:	0000 ffe0 ffff 001f e000 007f 1fc0 0000     ................
  413134:	ffe0 c003 001f e000 0fff 0000 0000 ffe0     ................
  413144:	007f 0000 8000 ffff 0001 0000 fc00 0fff     ................
  413154:	0000 0000 fff0 003f 0000 8000 ffff 0001     ......?.........
  413164:	0000 fe00 07ff 0000 0000 fff0 001f 0000     ................
  413174:	c000 1fff 0000 0000 fe00 001f 0000 0000     ................
  413184:	1ff8 0000 0000 fc00 001f 0000 0000 1fff     ................
  413194:	0000 0000 ffe0 001f 0000 f800 07ff 0000     ................
  4131a4:	0000 ffff 0000 0000 ffe0 003f 0000 f800     ..........?.....
  4131b4:	07ff 0000 0000 ffff 0001 0000 ffc0 003f     ..............?.
  4131c4:	0000 e000 07ff 0000 0000 ffe0 c001 001f     ................
  4131d4:	e000 003f 1fc0 0000 ffe0 ffff 001f e000     ..?.............
  4131e4:	ffff 1fff 0000 ffe0 ffff 001f e000 ffff     ................
  4131f4:	1fff 0000 ffe0 ffff 001f e000 ffff 1fff     ................
  413204:	0000 ffe0 ffff 001f e000 000f 1fc0 0000     ................
  413214:	0fe0 c000 001f e000 000f 1fc0 0000 0000     ................
	...
  41323c:	0000 0fe0 c000 001f e000 000f 1fc0 0000     ................
  41324c:	0fe0 c000 001f e000 ffff 1fff 0000 ffe0     ................
  41325c:	ffff 001f e000 ffff 1fff 0000 ffe0 ffff     ................
  41326c:	001f e000 ffff 1fff 0000 ffe0 ffff 001f     ................
  41327c:	e000 ffff 1fff 0000 ffe0 c001 001f e000     ................
  41328c:	03ff 1fc0 0000 ff80 c00f 001f 0000 3ffe     ...............?
  41329c:	0000 0000 fc00 007f 0000 0000 fff0 0001     ................
  4132ac:	0000 c000 07ff 0000 0000 ff80 000f 0000     ................
  4132bc:	0000 3ffe 0000 0000 fc00 007f 0000 0fe0     ...?............
  4132cc:	fff0 0001 e000 c00f 07ff 0000 0fe0 ff80     ................
  4132dc:	000f e000 ffff 1fff 0000 ffe0 ffff 001f     ................
  4132ec:	e000 ffff 1fff 0000 ffe0 ffff 001f e000     ................
  4132fc:	ffff 1fff 0000 ffe0 ffff 001f e000 ffff     ................
  41330c:	1fff 0000 0fe0 0000 0000 e000 000f 0000     ................
  41331c:	0000 0fe0 0000 0000 0000 0000 0000 0000     ................
	...
  413334:	fe00 0001 0000 c000 0fff 0000 0000 fff0     ................
  413344:	003f 0000 fc00 ffff 0000 0000 fffe 01ff     ?...............
  413354:	0000 ff00 ffff 0003 8000 ffff 07ff 0000     ................
  413364:	ffc0 ff03 000f c000 007f 0ff8 0000 3fe0     ...............?
  413374:	f000 001f e000 001f 1fe0 0000 0fe0 c000     ................
  413384:	001f f000 000f 3fc0 0000 07f0 8000 003f     .......?......?.
  413394:	f000 0007 3f80 0000 07f0 8000 003f f000     .....?......?...
  4133a4:	0007 3f80 0000 07f0 8000 003f f000 000f     ...?......?.....
  4133b4:	3fc0 0000 0fe0 c000 001f e000 001f 1fe0     .?..............
  4133c4:	0000 3fe0 f000 001f c000 007f 0ff8 0000     ...?............
  4133d4:	ffc0 fe03 000f 8000 ffff 07ff 0000 ff00     ................
  4133e4:	ffff 0003 0000 fffe 01ff 0000 fc00 ffff     ................
  4133f4:	0000 0000 fff0 003f 0000 c000 0fff 0000     ......?.........
  413404:	0000 fe00 0001 0000 0000 0000 0000 0000     ................
	...
  41342c:	0000 e000 000f 1fc0 0000 0fe0 c000 001f     ................
  41343c:	e000 000f 1fc0 0000 ffe0 ffff 001f e000     ................
  41344c:	ffff 1fff 0000 ffe0 ffff 001f e000 ffff     ................
  41345c:	1fff 0000 ffe0 ffff 001f e000 ffff 1fff     ................
  41346c:	0000 ffe0 ffff 001f e000 fc0f 1fc1 0000     ................
  41347c:	0fe0 c1fc 001f e000 fc0f 1fc1 0000 0fe0     ................
  41348c:	01fc 0000 e000 fc0f 0001 0000 0fe0 01fc     ................
  41349c:	0000 e000 fe1f 0001 0000 3fe0 01fe 0000     ...........?....
  4134ac:	c000 ffff 0000 0000 ffc0 00ff 0000 8000     ................
  4134bc:	7fff 0000 0000 ff80 007f 0000 0000 3fff     ...............?
  4134cc:	0000 0000 fc00 000f 0000 0000 03f0 0000     ................
	...
  4134ec:	0000 01ff 0000 0000 ffe0 000f 0000 f000     ................
  4134fc:	3fff 0000 0000 fffc 007f 0000 fe00 ffff     .?..............
  41350c:	0000 0000 ffff 01ff 0000 ff80 ffff 0003     ................
  41351c:	c000 01ff 07ff 0000 7fc0 fc00 000f e000     ................
  41352c:	003f 0ff8 0000 1fe0 f000 000f e000 000f     ?...............
  41353c:	1fe0 0000 0ff0 e000 0f1f f000 0007 ffc0     ................
  41354c:	0007 07f0 c000 07ff f000 0007 ffc0 0007     ................
  41355c:	07f0 c000 0fff f000 0007 ffc0 000f 0ff0     ................
  41356c:	e000 1fff e000 000f dfe0 001f 1fe0 f000     ................
  41357c:	3f8f e000 003f 8ff8 003f 7fc0 fc00 7f0f     .?..?...?.......
  41358c:	c000 01ff 07ff 007f ff80 ffff 7f03 0000     ................
  41359c:	ffff 81ff 007f fe00 ffff 7f80 0000 fffc     ................
  4135ac:	e07f 003f f000 3fff 1fc0 0000 ffe0 c00f     ..?....?........
  4135bc:	001f 0000 01ff 0780 0000 0000 8000 0001     ................
	...
  4135e8:	0fe0 c000 001f e000 000f 1fc0 0000 0fe0     ................
  4135f8:	c000 001f e000 ffff 1fff 0000 ffe0 ffff     ................
  413608:	001f e000 ffff 1fff 0000 ffe0 ffff 001f     ................
  413618:	e000 ffff 1fff 0000 ffe0 ffff 001f e000     ................
  413628:	ffff 1fff 0000 0fe0 c3f8 001f e000 f80f     ................
  413638:	1fc3 0000 0fe0 c3f8 001f e000 f80f 0003     ................
  413648:	0000 0fe0 03f8 0000 e000 f80f 0007 0000     ................
  413658:	0fe0 1ff8 0000 e000 fc1f 03ff 0000 3fe0     ...............?
  413668:	fffe 001f e000 ffff 1fff 0000 ffc0 ffff     ................
  413678:	001f c000 7fff 1fff 0000 ff80 ff3f 001f     ............?...
  413688:	0000 1fff 1ffc 0000 fe00 f00f 001f 0000     ................
  413698:	03f8 1fc0 0000 0000 c000 001f 0000 0000     ................
  4136a8:	1fc0 0000 0000 0000 0000 0000 0000 0000     ................
  4136b8:	0000 0000 fc00 0000 0000 01fc 00fc 0000     ................
  4136c8:	ff00 fc07 0001 8000 0fff 03fc 0000 ffc0     ................
  4136d8:	fc1f 0007 c000 3fff 0ffc 0000 ffe0 fc3f     .......?......?.
  4136e8:	001f e000 7fff 1fe0 0000 8ff0 c07f 001f     ................
  4136f8:	f000 7f0f 3fc0 0000 07f0 80fe 003f f000     .....?......?...
  413708:	fe07 3f80 0000 07f0 80fe 003f f000 fc07     ...?......?.....
  413718:	3f81 0000 07f0 81fc 003f f000 fc0f 3fc1     .?......?......?
  413728:	0000 1fe0 c3fc 001f e000 f8ff 1fff 0000     ................
  413738:	ffc0 fff8 001f c000 f0ff 0fff 0000 ff80     ................
  413748:	fff0 0007 0000 e0ff 03ff 0000 fc00 ffc0     ................
  413758:	0001 0000 00fc 007f 0000 0000 0000 0000     ................
  413768:	e000 007f 0000 0000 7fe0 0000 0000 e000     ................
  413778:	007f 0000 0000 7fe0 0000 0000 e000 007f     ................
  413788:	0000 0000 7fe0 0000 0000 e000 007f 0000     ................
  413798:	0000 0fe0 0000 0000 e000 000f 1fc0 0000     ................
  4137a8:	0fe0 c000 001f e000 000f 1fc0 0000 ffe0     ................
  4137b8:	ffff 001f e000 ffff 1fff 0000 ffe0 ffff     ................
  4137c8:	001f e000 ffff 1fff 0000 ffe0 ffff 001f     ................
  4137d8:	e000 ffff 1fff 0000 ffe0 ffff 001f e000     ................
  4137e8:	000f 1fc0 0000 0fe0 c000 001f e000 000f     ................
  4137f8:	1fc0 0000 0fe0 0000 0000 e000 007f 0000     ................
  413808:	0000 7fe0 0000 0000 e000 007f 0000 0000     ................
  413818:	7fe0 0000 0000 e000 007f 0000 0000 7fe0     ................
  413828:	0000 0000 e000 007f 0000 0000 0000 0000     ................
	...
  413840:	0000 0fe0 0000 0000 e000 000f 0000 0000     ................
  413850:	0fe0 0000 0000 e000 ffff 001f 0000 ffe0     ................
  413860:	7fff 0000 e000 ffff 01ff 0000 ffe0 ffff     ................
  413870:	0003 e000 ffff 07ff 0000 ffe0 ffff 000f     ................
  413880:	e000 ffff 1fff 0000 0fe0 f000 001f e000     ................
  413890:	000f 1fe0 0000 0fe0 c000 003f 0000 0000     ..........?.....
  4138a0:	3f80 0000 0000 8000 003f 0000 0000 3f80     .?......?......?
  4138b0:	0000 0000 8000 003f 0000 0000 3f80 0000     ......?......?..
  4138c0:	0fe0 c000 003f e000 000f 1fc0 0000 0fe0     ....?...........
  4138d0:	f000 001f e000 ffff 1fff 0000 ffe0 ffff     ................
  4138e0:	000f e000 ffff 07ff 0000 ffe0 ffff 0003     ................
  4138f0:	e000 ffff 01ff 0000 ffe0 7fff 0000 e000     ................
  413900:	ffff 001f 0000 0fe0 0000 0000 e000 000f     ................
  413910:	0000 0000 0fe0 0000 0000 0000 0000 0000     ................
  413920:	0000 0fe0 0000 0000 e000 000f 0000 0000     ................
  413930:	0fe0 0000 0000 e000 003f 0000 0000 ffe0     ........?.......
  413940:	0001 0000 e000 0fff 0000 0000 ffe0 007f     ................
  413950:	0000 e000 ffff 0003 0000 ffe0 1fff 0000     ................
  413960:	e000 ffff 00ff 0000 ffe0 ffff 0007 e000     ................
  413970:	ff0f 1fff 0000 0fe0 fff8 001f e000 c00f     ................
  413980:	1fff 0000 0000 fe00 001f 0000 0000 1ff0     ................
  413990:	0000 0000 f000 001f 0000 0000 1ffe 0000     ................
  4139a0:	0fe0 ffc0 001f e000 f80f 1fff 0000 0fe0     ................
  4139b0:	ffff 001f e000 ffff 07ff 0000 ffe0 ffff     ................
  4139c0:	0000 e000 ffff 001f 0000 ffe0 03ff 0000     ................
  4139d0:	e000 7fff 0000 0000 ffe0 000f 0000 e000     ................
  4139e0:	01ff 0000 0000 3fe0 0000 0000 e000 000f     .......?........
  4139f0:	0000 0000 0fe0 0000 0000 e000 000f 0000     ................
	...
  413a08:	e000 000f 0000 0000 0fe0 0000 0000 e000     ................
  413a18:	000f 0000 0000 3fe0 0000 0000 e000 03ff     .......?........
  413a28:	0000 0000 ffe0 003f 0000 e000 ffff 0003     ......?.........
  413a38:	0000 ffe0 3fff 0000 e000 ffff 03ff 0000     .....?..........
  413a48:	ffe0 ffff 001f e000 ffef 1fff 0000 0fe0     ................
  413a58:	fffe 001f e000 e00f 1fff 0000 0fe0 fe00     ................
  413a68:	001f 0000 0000 1ff8 0000 0000 ff80 001f     ................
  413a78:	0000 f800 1fff 0000 8000 ffff 001f 0000     ................
  413a88:	fffc 1fff 0000 ffc0 ffff 000f e000 ffff     ................
  413a98:	00ff 0000 ffe0 0fff 0000 e000 7fff 0000     ................
  413aa8:	0000 ffe0 0007 0000 e000 07ff 0000 0000     ................
  413ab8:	ffe0 007f 0000 e000 ffff 0007 0000 ffe0     ................
  413ac8:	7fff 0000 e000 ffff 0fff 0000 fc00 ffff     ................
  413ad8:	001f 0000 ffc0 1fff 0000 0000 fffc 001f     ................
  413ae8:	0000 c000 1fff 0000 0000 f800 001f e000     ................
  413af8:	000f 1ffc 0000 0fe0 ffe0 001f e000 fe0f     ................
  413b08:	1fff 0000 efe0 ffff 001f e000 ffff 1fff     ................
  413b18:	0000 ffe0 ffff 0007 e000 ffff 007f 0000     ................
  413b28:	ffe0 03ff 0000 e000 3fff 0000 0000 ffe0     .........?......
  413b38:	0003 0000 e000 003f 0000 0000 0fe0 0000     ......?.........
  413b48:	0000 e000 000f 0000 0000 0fe0 0000 0000     ................
	...
  413b60:	07e0 8000 001f e000 000f 1fc0 0000 1fe0     ................
  413b70:	e000 001f e000 003f 1ff0 0000 7fe0 f800     ......?.........
  413b80:	001f e000 00ff 1ffc 0000 ffe0 fe01 001f     ................
  413b90:	e000 03ff 1fff 0000 ffe0 ff87 001f e000     ................
  413ba0:	cfff 1fff 0000 ffe0 ffff 001f e000 fff7     ................
  413bb0:	1fbf 0000 e7e0 9fff 001f e000 ff87 000f     ................
  413bc0:	0000 0000 03ff 0000 0000 ff00 0003 0000     ................
  413bd0:	8000 07ff 0000 e000 ffc7 1f8f 0000 e7e0     ................
  413be0:	9fff 001f e000 fff7 1fbf 0000 ffe0 ffcf     ................
  413bf0:	001f e000 87ff 1fff 0000 ffe0 ff03 001f     ................
  413c00:	e000 01ff 1ffe 0000 ffe0 fc00 001f e000     ................
  413c10:	007f 1ff8 0000 3fe0 f000 001f e000 001f     .......?........
  413c20:	1fe0 0000 0fe0 c000 001f e000 0007 1f80     ................
	...
  413c44:	0000 e000 000f 0000 0000 0fe0 0000 0000     ................
  413c54:	e000 000f 0000 0000 1fe0 0000 0000 e000     ................
  413c64:	003f 0000 0000 7fe0 0000 0000 e000 01ff     ?...............
  413c74:	0000 0000 ffe0 0003 0000 e000 07ff 0000     ................
  413c84:	0000 ffe0 c00f 001f e000 3fff 1fc0 0000     ...........?....
  413c94:	ffe0 c07f 001f e000 ffcf 1fff 0000 8fe0     ................
  413ca4:	ffff 001f 0000 fe00 1fff 0000 0000 fffc     ................
  413cb4:	001f e000 ff0f 1fff 0000 8fe0 ffff 001f     ................
  413cc4:	e000 ffef 1fff 0000 ffe0 c0ff 001f e000     ................
  413cd4:	3fff 1fc0 0000 ffe0 c01f 001f e000 07ff     .?..............
  413ce4:	0000 0000 ffe0 0003 0000 e000 01ff 0000     ................
  413cf4:	0000 7fe0 0000 0000 e000 003f 0000 0000     ..........?.....
  413d04:	1fe0 0000 0000 e000 000f 0000 0000 0fe0     ................
	...
  413d24:	0000 e000 00ff 1fe0 0000 ffe0 f000 001f     ................
  413d34:	e000 00ff 1ff8 0000 ffe0 fc00 001f e000     ................
  413d44:	00ff 1ffe 0000 ffe0 ff80 001f e000 c0ff     ................
  413d54:	1fff 0000 07e0 ffe0 001f e000 f007 1fff     ................
  413d64:	0000 07e0 dff8 001f e000 fc07 1fcf 0000     ................
  413d74:	07e0 87ff 001f e000 ff87 1f83 0000 c7e0     ................
  413d84:	80ff 001f e000 7fe7 1f80 0000 f7e0 803f     ..............?.
  413d94:	001f e000 1fff 1f80 0000 ffe0 fc0f 001f     ................
  413da4:	e000 03ff 1ffc 0000 ffe0 fc01 001f e000     ................
  413db4:	00ff 1ffc 0000 7fe0 fc00 001f e000 003f     ..............?.
  413dc4:	1ffc 0000 1fe0 fc00 001f 0000 0000 0000     ................
	...
  413de8:	0000 f800 ffff ffff 00ff fff8 ffff ffff     ................
  413df8:	f800 ffff ffff 00ff fff8 ffff ffff f800     ................
  413e08:	ffff ffff 00ff fff8 ffff ffff f800 ffff     ................
  413e18:	ffff 00ff 03f8 0000 fe00 f800 0003 0000     ................
  413e28:	00fe 03f8 0000 fe00 0000 0000 0000 0000     ................
	...
  413e40:	0001 0000 0000 0f00 0000 0000 0000 007f     ................
  413e50:	0000 0000 ff00 0003 0000 0000 1fff 0000     ................
  413e60:	0000 ff00 00ff 0000 0000 ffff 0007 0000     ................
  413e70:	f800 3fff 0000 0000 ffc0 01ff 0000 0000     ...?............
  413e80:	fffe 000f 0000 f000 7fff 0000 0000 ff80     ................
  413e90:	03ff 0000 0000 fffc 0007 0000 e000 07ff     ................
  413ea0:	0000 0000 ff00 0007 0000 0000 07f8 0000     ................
	...
  413ec4:	03f8 0000 fe00 f800 0003 0000 00fe 03f8     ................
  413ed4:	0000 fe00 f800 ffff ffff 00ff fff8 ffff     ................
  413ee4:	ffff f800 ffff ffff 00ff fff8 ffff ffff     ................
  413ef4:	f800 ffff ffff 00ff fff8 ffff ffff f800     ................
  413f04:	ffff ffff 00ff 0000 0000 0000 0000 0000     ................
	...
  413f20:	2000 0000 0000 0000 0038 0000 0000 3e00     . ......8......>
  413f30:	0000 0000 8000 003f 0000 0000 3fe0 0000     ......?......?..
  413f40:	0000 f800 003f 0000 0000 0ffc 0000 0000     ....?...........
  413f50:	ff00 0003 0000 c000 00ff 0000 0000 3fe0     ...............?
  413f60:	0000 0000 e000 000f 0000 0000 07e0 0000     ................
  413f70:	0000 e000 000f 0000 0000 3fe0 0000 0000     ...........?....
  413f80:	c000 007f 0000 0000 ff00 0001 0000 0000     ................
  413f90:	07fc 0000 0000 f800 000f 0000 0000 3fe0     ...............?
  413fa0:	0000 0000 8000 003f 0000 0000 3f00 0000     ......?......?..
  413fb0:	0000 0000 003c 0000 0000 3000 0000 0000     ....<......0....
  413fc0:	0000 0020 0000 0000 0000 0000 0000 0000     .. .............
  413fd0:	0000 1f80 0000 0000 8000 001f 0000 0000     ................
  413fe0:	1f80 0000 0000 8000 001f 0000 0000 1f80     ................
  413ff0:	0000 0000 8000 001f 0000 0000 1f80 0000     ................
  414000:	0000 8000 001f 0000 0000 1f80 0000 0000     ................
  414010:	8000 001f 0000 0000 1f80 0000 0000 8000     ................
  414020:	001f 0000 0000 1f80 0000 0000 8000 001f     ................
  414030:	0000 0000 1f80 0000 0000 8000 001f 0000     ................
  414040:	0000 1f80 0000 0000 8000 001f 0000 0000     ................
  414050:	1f80 0000 0000 8000 001f 0000 0000 1f80     ................
  414060:	0000 0000 8000 001f 0000 0000 0000 0000     ................
	...
  414084:	0020 0000 0000 6000 0000 0000 0000 00e0      ......`........
  414094:	0000 0000 e000 0001 0000 0000 03e0 0000     ................
  4140a4:	0000 e000 0007 0000 0000 0fe0 0000 0000     ................
  4140b4:	c000 000f 0000 0000 0f00 0000 0000 0000     ................
  4140c4:	000e 0000 0000 0800 0000 0000 0000 0000     ................
	...
  4140f0:	00f8 0000 0000 fe07 0003 0000 1f00 07ff     ................
  414100:	0000 8000 ff9f 000f 0000 8f80 0fff 0000     ................
  414110:	8000 ffcf 001f 0000 cfc0 1fcf 0000 c000     ................
  414120:	87cf 001f 0000 cfc0 1f87 0000 c000 87cf     ................
  414130:	001f 0000 cfc0 1f87 0000 c000 c7cf 001f     ................
  414140:	0000 dfc0 0fe7 0000 c000 ffff 001f 0000     ................
  414150:	ff80 1fff 0000 8000 ffff 001f 0000 ff00     ................
  414160:	1fff 0000 0000 fffe 001f 0000 f800 1fff     ................
  414170:	0000 0000 c000 001f 0000 0000 1fc0 0000     ................
  414180:	0000 c000 001f 0000 0000 0000 0000 0000     ................
	...
  4141a0:	0000 f000 0007 0000 0000 07f0 0000 0000     ................
  4141b0:	f000 0007 0000 0000 fff0 ffff 001f f000     ................
  4141c0:	ffff 1fff 0000 fff0 ffff 001f f000 ffff     ................
  4141d0:	1fff 0000 fff0 ffff 001f f000 ffff 1fff     ................
  4141e0:	0000 fff0 ffff 001f 0000 3f80 1fe0 0000     ...........?....
  4141f0:	8000 c01f 001f 0000 0fc0 1f80 0000 c000     ................
  414200:	800f 001f 0000 0fc0 1f80 0000 c000 800f     ................
  414210:	001f 0000 1fc0 1fc0 0000 c000 c01f 001f     ................
  414220:	0000 7f80 0ff0 0000 8000 ffff 000f 0000     ................
  414230:	ff00 07ff 0000 0000 fffe 0003 0000 fc00     ................
  414240:	01ff 0000 0000 fff0 0000 0000 c000 001f     ................
	...
  414268:	c000 001f 0000 0000 7ff8 0000 0000 fc00     ................
  414278:	01ff 0000 0000 fffe 0003 0000 ff00 07ff     ................
  414288:	0000 8000 ffff 0007 0000 7f80 0ff0 0000     ................
  414298:	8000 c01f 000f 0000 1fc0 1fc0 0000 c000     ................
  4142a8:	800f 001f 0000 0fc0 1f80 0000 c000 800f     ................
  4142b8:	001f 0000 0fc0 1f80 0000 c000 c01f 001f     ................
  4142c8:	0000 3fc0 1fe0 0000 8000 f03f 000f 0000     ...?......?.....
  4142d8:	3f80 0ff0 0000 0000 f03f 0007 0000 3f00     .?......?......?
  4142e8:	03f0 0000 0000 e03f 0003 0000 3f00 00e0     ......?......?..
  4142f8:	0000 0000 603f 0000 0000 0000 0000 0000     ....?`..........
	...
  414318:	1fc0 0000 0000 f800 00ff 0000 0000 fffc     ................
  414328:	0001 0000 fe00 03ff 0000 0000 ffff 0007     ................
  414338:	0000 ff80 0fff 0000 8000 f07f 000f 0000     ................
  414348:	1fc0 1fc0 0000 c000 c01f 001f 0000 0fc0     ................
  414358:	1f80 0000 c000 800f 001f 0000 0fc0 1f80     ................
  414368:	0000 c7f0 800f 001f f000 1fc7 1fc0 0000     ................
  414378:	87f0 e03f 000f f000 ffff 1fff 0000 fff0     ..?.............
  414388:	ffff 001f f000 ffff 1fff 0000 fff0 ffff     ................
  414398:	001f f000 ffff 1fff 0000 fff0 ffff 001f     ................
  4143a8:	f000 ffff 1fff 0000 0000 c000 001f 0000     ................
  4143b8:	0000 1fc0 0000 0000 c000 001f 0000 0000     ................
	...
  4143dc:	1fc0 0000 0000 f000 007f 0000 0000 fffc     ................
  4143ec:	0001 0000 fe00 03ff 0000 0000 ffff 0007     ................
  4143fc:	0000 ff80 07ff 0000 8000 e7ff 000f 0000     ................
  41440c:	df80 0fc7 0000 c000 c7cf 001f 0000 cfc0     ................
  41441c:	1f87 0000 c000 87cf 001f 0000 cfc0 1f87     ................
  41442c:	0000 c000 87cf 001f 0000 cfc0 1f87 0000     ................
  41443c:	c000 87cf 001f 0000 df80 1f87 0000 8000     ................
  41444c:	c7ff 000f 0000 ff00 0fc7 0000 0000 c7fe     ................
  41445c:	0007 0000 fc00 0707 0000 0000 07f8 0000     ................
  41446c:	0000 c000 0007 0000 0000 0000 0000 0000     ................
	...
  414490:	8000 c03f 001f 0000 3f80 1fc0 0000 8000     ..?......?......
  4144a0:	c03f 001f 0000 fffe 1fff 0000 ff80 ffff     ?...............
  4144b0:	001f c000 ffff 1fff 0000 ffe0 ffff 001f     ................
  4144c0:	e000 ffff 1fff 0000 ffe0 ffff 001f f000     ................
  4144d0:	ffff 1fff 0000 87f0 c03f 001f f000 3f83     ........?......?
  4144e0:	1fc0 0000 83f0 c03f 001f f000 3f83 0000     ......?......?..
  4144f0:	0000 03f0 0000 0000 e000 0003 0000 0000     ................
	...
  414510:	1fc0 0000 0000 f800 00ff 000c 0000 fffc     ................
  414520:	1e01 0000 fe00 03ff 001f 0000 ffff 3f07     ...............?
  414530:	0000 ff80 0fff 003f 8000 f07f 3f0f 0000     ......?......?..
  414540:	1fc0 1fc0 007e c000 c01f 7e1f 0000 0fc0     ....~......~....
  414550:	1f80 007e c000 800f 7e1f 0000 0fc0 1f80     ..~......~......
  414560:	007e c000 800f 7e1f 0000 1f80 0fc0 007f     ~......~........
  414570:	8000 e03f 3f8f 0000 ff80 ffff 003f 8000     ..?..?......?...
  414580:	ffff 3fff 0000 ff80 ffff 001f 8000 ffff     ...?............
  414590:	0fff 0000 ff80 ffff 0007 8000 ffff 03ff     ................
  4145a0:	0000 ff80 ffff 0000 0000 0000 0000 0000     ................
	...
  4145c8:	0000 f000 0007 1fc0 0000 07f0 c000 001f     ................
  4145d8:	f000 0007 1fc0 0000 fff0 ffff 001f f000     ................
  4145e8:	ffff 1fff 0000 fff0 ffff 001f f000 ffff     ................
  4145f8:	1fff 0000 fff0 ffff 001f f000 ffff 1fff     ................
  414608:	0000 fff0 ffff 001f 0000 3f00 1fc0 0000     ...........?....
  414618:	8000 c01f 001f 0000 0f80 1fc0 0000 c000     ................
  414628:	000f 0000 0000 0fc0 0000 0000 c000 003f     ..............?.
  414638:	0000 0000 ffc0 1fff 0000 c000 ffff 001f     ................
  414648:	0000 ffc0 1fff 0000 8000 ffff 001f 0000     ................
  414658:	ff00 1fff 0000 0000 fffe 001f 0000 f800     ................
  414668:	1fff 0000 0000 c000 001f 0000 0000 1fc0     ................
  414678:	0000 0000 c000 001f 0000 0000 0000 0000     ................
	...
  414694:	0000 8000 c03f 001f 0000 3f80 1fc0 0000     ....?......?....
  4146a4:	8000 c03f 001f c000 ff81 1fff 0000 83e0     ..?.............
  4146b4:	ffff 001f f000 ff87 1fff 0000 87f0 ffff     ................
  4146c4:	001f f000 ff87 1fff 0000 87f0 ffff 001f     ................
  4146d4:	e000 ff83 1fff 0000 01c0 c000 001f 0000     ................
  4146e4:	0000 1fc0 0000 0000 c000 001f 0000 0000     ................
	...
  414704:	0000 8000 003f 7c00 0000 3f80 0000 007c     ....?..|...?..|.
  414714:	8000 003f 7e00 e000 ff83 ffff 007f 83e0     ..?..~..........
  414724:	ffff 3fff f000 ff87 ffff 003f 87f0 ffff     ...?......?.....
  414734:	1fff f000 ff87 ffff 001f 83e0 ffff 07ff     ................
  414744:	e000 ff83 ffff 0001 0000 0000 0000 0000     ................
	...
  414768:	07f0 c000 001f f000 0007 1fc0 0000 07f0     ................
  414778:	c000 001f f000 ffff 1fff 0000 fff0 ffff     ................
  414788:	001f f000 ffff 1fff 0000 fff0 ffff 001f     ................
  414798:	f000 ffff 1fff 0000 fff0 ffff 001f f000     ................
  4147a8:	ffff 1fff 0000 0000 c780 001f 0000 8000     ................
  4147b8:	1fc7 0000 0000 c780 001f 0000 8000 000f     ................
  4147c8:	0000 0000 3fe0 0000 0000 ff80 007f 0000     .....?..........
  4147d8:	8000 ffff 0001 0000 ff80 07ff 0000 8000     ................
  4147e8:	ffff 000f 0000 ff80 1ffc 0000 8000 f07f     ................
  4147f8:	001f 0000 3f80 1fc0 0000 8000 803f 001f     .....?......?...
  414808:	0000 3f80 1f80 0000 8000 803f 001f 0000     ...?......?.....
	...
  414838:	0000 07f0 c000 001f f000 0007 1fc0 0000     ................
  414848:	07f0 c000 001f f000 ffff 1fff 0000 fff0     ................
  414858:	ffff 001f f000 ffff 1fff 0000 fff0 ffff     ................
  414868:	001f f000 ffff 1fff 0000 fff0 ffff 001f     ................
  414878:	f000 ffff 1fff 0000 0000 c000 001f 0000     ................
  414888:	0000 1fc0 0000 0000 c000 001f 0000 0000     ................
	...
  4148b0:	0000 3f80 1fc0 0000 8000 c03f 001f 0000     ...?......?.....
  4148c0:	3f80 1fc0 0000 8000 ffff 001f 0000 ff80     .?..............
  4148d0:	1fff 0000 8000 ffff 001f 0000 ff80 1fff     ................
  4148e0:	0000 8000 ffff 001f 0000 ff80 1fff 0000     ................
  4148f0:	8000 ffff 001f 0000 3f00 1fc0 0000 0000     .........?......
  414900:	c01f 001f 0000 0f80 1fc0 0000 8000 000f     ................
  414910:	0000 0000 0fc0 0000 0000 c000 001f 0000     ................
  414920:	0000 3fc0 0000 0000 c000 ffff 001f 0000     ...?............
  414930:	ffc0 1fff 0000 8000 ffff 001f 0000 ff80     ................
  414940:	1fff 0000 0000 ffff 001f 0000 fe00 1fff     ................
  414950:	0000 0000 fffe 001f 0000 3f00 1fc0 0000     ...........?....
  414960:	8000 c01f 001f 0000 0f80 1fc0 0000 c000     ................
  414970:	000f 0000 0000 0fc0 0000 0000 c000 000f     ................
  414980:	0000 0000 3fc0 0000 0000 c000 ffff 001f     .....?..........
  414990:	0000 ffc0 1fff 0000 8000 ffff 001f 0000     ................
  4149a0:	ff80 1fff 0000 0000 ffff 001f 0000 fe00     ................
  4149b0:	1fff 0000 0000 fff8 001f 0000 0000 1fc0     ................
  4149c0:	0000 0000 c000 001f 0000 0000 1fc0 0000     ................
	...
  4149ec:	8000 c03f 001f 0000 3f80 1fc0 0000 8000     ..?......?......
  4149fc:	c03f 001f 0000 ff80 1fff 0000 8000 ffff     ?...............
  414a0c:	001f 0000 ff80 1fff 0000 8000 ffff 001f     ................
  414a1c:	0000 ff80 1fff 0000 8000 ffff 001f 0000     ................
  414a2c:	ff80 1fff 0000 0000 c03f 001f 0000 1f00     ........?.......
  414a3c:	1fc0 0000 8000 c00f 001f 0000 0f80 0000     ................
  414a4c:	0000 c000 000f 0000 0000 0fc0 0000 0000     ................
  414a5c:	c000 003f 0000 0000 ffc0 1fff 0000 c000     ..?.............
  414a6c:	ffff 001f 0000 ff80 1fff 0000 8000 ffff     ................
  414a7c:	001f 0000 ff00 1fff 0000 0000 fffe 001f     ................
  414a8c:	0000 f800 1fff 0000 0000 c000 001f 0000     ................
  414a9c:	0000 1fc0 0000 0000 c000 001f 0000 0000     ................
	...
  414ac4:	0000 c000 001f 0000 0000 7ff0 0000 0000     ................
  414ad4:	fc00 01ff 0000 0000 fffe 0003 0000 ff00     ................
  414ae4:	07ff 0000 0000 ffff 0007 0000 7f80 0ff0     ................
  414af4:	0000 8000 e03f 000f 0000 1fc0 1fc0 0000     ....?...........
  414b04:	c000 800f 001f 0000 0fc0 1f80 0000 c000     ................
  414b14:	800f 001f 0000 0fc0 1f80 0000 c000 800f     ................
  414b24:	001f 0000 1fc0 1fc0 0000 8000 e03f 000f     ............?...
  414b34:	0000 7f80 0ff0 0000 0000 ffff 0007 0000     ................
  414b44:	ff00 07ff 0000 0000 fffe 0003 0000 fc00     ................
  414b54:	01ff 0000 0000 7ff0 0000 0000 c000 001f     ................
	...
  414b7c:	3f80 0000 007f 8000 003f 7f00 0000 3f80     .?......?......?
  414b8c:	0000 007f 8000 ffff 7fff 0000 ff80 ffff     ................
  414b9c:	007f 8000 ffff 7fff 0000 ff80 ffff 007f     ................
  414bac:	8000 ffff 7fff 0000 ff80 ffff 007f 8000     ................
  414bbc:	ffff 7fff 0000 3f80 0fe0 007f 8000 c01f     .......?........
  414bcc:	7f1f 0000 0f80 1f80 007f c000 800f 001f     ................
  414bdc:	0000 0fc0 1f80 0000 c000 800f 001f 0000     ................
  414bec:	0fc0 1f80 0000 c000 c01f 001f 0000 3f80     ...............?
  414bfc:	0fe0 0000 8000 f07f 000f 0000 ff80 0fff     ................
  414c0c:	0000 0000 ffff 0007 0000 fe00 03ff 0000     ................
  414c1c:	0000 fffc 0001 0000 f000 007f 0000 0000     ................
  414c2c:	1fc0 0000 0000 0000 0000 0000 0000 0000     ................
  414c3c:	0000 0000 c000 001f 0000 0000 7ff0 0000     ................
  414c4c:	0000 fc00 01ff 0000 0000 fffe 0003 0000     ................
  414c5c:	ff00 07ff 0000 0000 ffff 0007 0000 7f80     ................
  414c6c:	0ff0 0000 8000 e03f 000f 0000 1fc0 1fc0     ......?.........
  414c7c:	0000 c000 800f 001f 0000 0fc0 1f80 0000     ................
  414c8c:	c000 800f 001f 0000 0fc0 1f80 0000 c000     ................
  414c9c:	800f 7f1f 0000 1fc0 0fc0 007f 8000 e03f     ..............?.
  414cac:	7f0f 0000 ffc0 ffff 007f c000 ffff 7fff     ................
  414cbc:	0000 ffc0 ffff 007f c000 ffff 7fff 0000     ................
  414ccc:	ffc0 ffff 007f c000 ffff 7fff 0000 ffc0     ................
  414cdc:	ffff 007f 0000 0000 7f00 0000 0000 0000     ................
  414cec:	007f 0000 0000 7f00 0000 0000 0000 0000     ................
	...
  414d08:	0000 8000 c03f 001f 0000 3f80 1fc0 0000     ....?......?....
  414d18:	8000 c03f 001f 0000 ff80 1fff 0000 8000     ..?.............
  414d28:	ffff 001f 0000 ff80 1fff 0000 8000 ffff     ................
  414d38:	001f 0000 ff80 1fff 0000 8000 ffff 001f     ................
  414d48:	0000 ff00 1fff 0000 0000 c03f 001f 0000     ..........?.....
  414d58:	1f80 1fc0 0000 8000 c07f 001f 0000 7f80     ................
  414d68:	0000 0000 8000 007f 0000 0000 7f80 0000     ................
  414d78:	0000 8000 007f 0000 0000 7f80 0000 0000     ................
  414d88:	8000 007f 0000 0000 0000 0000 0000 0000     ................
	...
  414da4:	0000 f07c 0007 0000 fe00 07f1 0000 0000     ..|.............
  414db4:	f1ff 0007 0000 ff80 07f3 0000 8000 f3ff     ................
  414dc4:	0007 0000 ff80 0ff7 0000 c000 c7df 000f     ................
  414dd4:	0000 8fc0 1fc7 0000 c000 878f 001f 0000     ................
  414de4:	8fc0 1f8f 0000 c000 8f8f 001f 0000 8fc0     ................
  414df4:	1f8f 0000 c000 8f1f 001f 0000 1f80 1fdf     ................
  414e04:	0000 8000 ff7f 000f 0000 7f00 0fff 0000     ................
  414e14:	0000 fe7f 0007 0000 7f00 07fe 0000 0000     ................
  414e24:	fc7f 0003 0000 7f00 00f8 0000 0000 0000     ................
	...
  414e3c:	0000 8000 001f 0000 0000 1f80 0000 0000     ................
  414e4c:	8000 001f 0000 0000 fffc 01ff 0000 fe00     ................
  414e5c:	ffff 0007 0000 fffe 0fff 0000 ff00 ffff     ................
  414e6c:	000f 0000 ffff 1fff 0000 ff80 ffff 001f     ................
  414e7c:	8000 ffff 1fff 0000 8000 801f 001f 0000     ................
  414e8c:	1f80 1f80 0000 8000 801f 001f 0000 1f80     ................
  414e9c:	0f80 0000 0000 8000 000f 0000 0000 0000     ................
	...
  414ebc:	8000 003f 0000 0000 3f80 0000 0000 8000     ..?......?......
  414ecc:	003f 0000 0000 ff80 00ff 0000 8000 ffff     ?...............
  414edc:	0003 0000 ff80 07ff 0000 8000 ffff 000f     ................
  414eec:	0000 ff80 0fff 0000 8000 ffff 000f 0000     ................
  414efc:	ff80 1fff 0000 0000 e000 001f 0000 0000     ................
  414f0c:	1fc0 0000 0000 8000 001f 0000 0000 1f80     ................
  414f1c:	0000 0000 8000 001f 0000 3f80 1f80 0000     ...........?....
  414f2c:	8000 c03f 000f 0000 3f80 0fc0 0000 8000     ..?......?......
  414f3c:	ffff 001f 0000 ff80 1fff 0000 8000 ffff     ................
  414f4c:	001f 0000 ff80 1fff 0000 8000 ffff 001f     ................
  414f5c:	0000 ff80 1fff 0000 8000 ffff 001f 0000     ................
  414f6c:	0000 1fc0 0000 0000 c000 001f 0000 0000     ................
  414f7c:	1fc0 0000 0000 0000 0000 0000 3f80 0000     .............?..
  414f8c:	0000 8000 003f 0000 0000 3f80 0000 0000     ....?......?....
  414f9c:	8000 007f 0000 0000 ff80 0003 0000 8000     ................
  414fac:	1fff 0000 0000 ff80 007f 0000 8000 ffff     ................
  414fbc:	0003 0000 ff80 1fff 0000 8000 ffff 001f     ................
  414fcc:	0000 3f80 1ffe 0000 8000 f83f 001f 0000     ...?......?.....
  414fdc:	3f80 1fc0 0000 0000 e000 001f 0000 3f80     .?.............?
  414fec:	1ffc 0000 8000 ffbf 001f 0000 ff80 1fff     ................
  414ffc:	0000 8000 ffff 000f 0000 ff80 01ff 0000     ................
  41500c:	8000 3fff 0000 0000 ff80 0007 0000 8000     ...?............
  41501c:	00ff 0000 0000 3f80 0000 0000 8000 003f     .......?......?.
  41502c:	0000 0000 3f80 0000 0000 8000 003f 0000     .....?......?...
  41503c:	0000 3f80 0000 0000 8000 003f 0000 0000     ...?......?.....
  41504c:	3f80 0000 0000 8000 007f 0000 0000 ff80     .?..............
  41505c:	0007 0000 8000 7fff 0000 0000 ff80 07ff     ................
  41506c:	0000 8000 ffff 001f 0000 ff80 1fff 0000     ................
  41507c:	8000 ffff 001f 0000 3f80 1ffc 0000 8000     .........?......
  41508c:	f03f 001f 0000 3f80 1ffe 0000 0000 ffc0     ?......?........
  41509c:	001f 0000 f800 1fff 0000 0000 ffff 0007     ................
  4150ac:	0000 ff80 00ff 0000 8000 1fff 0000 0000     ................
  4150bc:	ff80 0003 0000 8000 007f 0000 0000 ff80     ................
  4150cc:	0003 0000 8000 1fff 0000 0000 ff80 01ff     ................
  4150dc:	0000 0000 ffff 000f 0000 f000 1fff 0000     ................
  4150ec:	0000 ff80 001f 0000 0000 1ffc 0000 8000     ................
  4150fc:	e03f 001f 0000 3f80 1ffc 0000 8000 ffbf     ?......?........
  41510c:	001f 0000 ff80 1fff 0000 8000 ffff 001f     ................
  41511c:	0000 ff80 03ff 0000 8000 3fff 0000 0000     ...........?....
  41512c:	ff80 0007 0000 8000 00ff 0000 0000 3f80     ...............?
  41513c:	0000 0000 8000 003f 0000 0000 3f80 0000     ......?......?..
	...
  415154:	0000 3f80 1fc0 0000 8000 c03f 001f 0000     ...?......?.....
  415164:	3f80 1fc0 0000 8000 c03f 001f 0000 7f80     .?......?.......
  415174:	1fe0 0000 8000 f0ff 001f 0000 ff80 1ff1     ................
  415184:	0000 8000 fbff 001f 0000 ff80 1fff 0000     ................
  415194:	8000 ffff 001f 0000 ff80 1fff 0000 0000     ................
  4151a4:	3fc0 0000 0000 c000 003f 0000 0000 3fc0     .?......?......?
  4151b4:	0000 0000 c000 003f 0000 8000 ffff 001f     ......?.........
  4151c4:	0000 ff80 1fff 0000 8000 ffff 001f 0000     ................
  4151d4:	ff80 1ffb 0000 8000 f1ff 001f 0000 ff80     ................
  4151e4:	1ff0 0000 8000 e07f 001f 0000 3f80 1fc0     .............?..
  4151f4:	0000 8000 c03f 001f 0000 3f80 1fc0 0000     ....?......?....
  415204:	8000 c03f 001f 0000 3f80 0000 0000 8000     ..?......?......
  415214:	003f 0000 0000 3f80 0000 0000 8000 007f     ?......?........
  415224:	0000 0000 ff80 0003 007f 8000 0fff 7f00     ................
  415234:	0000 ff80 003f 007f 8000 ffff 7f01 0000     ....?...........
  415244:	ff80 87ff 007f 8000 ffff 7fff 0000 3f80     ...............?
  415254:	fffe 007f 0000 f800 7fff 0000 0000 ffe0     ................
  415264:	007f 0000 f000 7fff 0000 0000 fffc 007f     ................
  415274:	8000 ff3f 7f3f 0000 ff80 0fff 007f 8000     ..?.?...........
  415284:	ffff 7f03 0000 ff80 007f 0000 8000 1fff     ................
  415294:	0000 0000 ff80 0007 0000 8000 01ff 0000     ................
  4152a4:	0000 7f80 0000 0000 8000 003f 0000 0000     ..........?.....
  4152b4:	3f80 0000 0000 8000 003f 0000 0000 0000     .?......?.......
  4152c4:	0000 0000 8000 00ff 0000 0000 ff80 1e00     ................
  4152d4:	0000 8000 00ff 001f 0000 ff80 1fc0 0000     ................
  4152e4:	8000 e0ff 001f 0000 1f80 1ff8 0000 8000     ................
  4152f4:	fc1f 001f 0000 1f80 1fff 0000 8000 ff9f     ................
  415304:	001f 0000 ff80 1fff 0000 8000 bfff 001f     ................
  415314:	0000 ff80 1f9f 0000 8000 87ff 001f 0000     ................
  415324:	ff80 1f83 0000 8000 80ff 001f 0000 7f80     ................
  415334:	1ff8 0000 8000 f81f 001f 0000 0f80 1ff8     ................
  415344:	0000 8000 f803 001f 0000 0000 1ff8 0000     ................
	...
  415378:	f000 0001 0000 0000 01f0 0000 0000 f000     ................
  415388:	0001 0000 0000 01f0 0000 0000 f800 0003     ................
  415398:	0000 fff0 ffff 01ff fc00 ffff ffff 0007     ................
  4153a8:	fffe ffff 0fff ff00 ffff ffff 001f ffff     ................
  4153b8:	ffff 1fff ff00 bfff ffff 001f ffff ff1f     ................
  4153c8:	1fff ff00 0000 e000 001f 007f 0000 1fc0     ................
  4153d8:	7f00 0000 c000 001f 0000 0000 0000 0000     ................
	...
  415400:	0000 ff00 ffff ffff 0007 ffff ffff 07ff     ................
  415410:	ff00 ffff ffff 0007 ffff ffff 07ff ff00     ................
  415420:	ffff ffff 0007 ffff ffff 07ff ff00 ffff     ................
  415430:	ffff 0007 0000 0000 0000 0000 0000 0000     ................
	...
  41545c:	0000 007f 0000 1fc0 7f00 0000 c000 001f     ................
  41546c:	00ff 0000 1fe0 ff00 1fff ffff 001f ffff     ................
  41547c:	ffbf 1fff ff00 ffff ffff 001f ffff ffff     ................
  41548c:	1fff fe00 ffff ffff 000f fffc ffff 07ff     ................
  41549c:	f800 ffff ffff 0003 0000 03f8 0000 0000     ................
  4154ac:	f000 0001 0000 0000 01f0 0000 0000 f000     ................
  4154bc:	0001 0000 0000 01f0 0000 0000 0000 0000     ................
	...
  4154dc:	0000 0380 0000 0000 e000 0003 0000 0000     ................
  4154ec:	03f0 0000 0000 f800 0003 0000 0000 01f8     ................
  4154fc:	0000 0000 f800 0000 0000 0000 00f8 0000     ................
  41550c:	0000 f800 0000 0000 0000 01f0 0000 0000     ................
  41551c:	f000 0001 0000 0000 03e0 0000 0000 e000     ................
  41552c:	0003 0000 0000 07c0 0000 0000 c000 0007     ................
  41553c:	0000 0000 07c0 0000 0000 c000 0007 0000     ................
  41554c:	0000 07f0 0000 0000 f000 0003 0000 0000     ................
  41555c:	01f0 0000                                   ....

00415560 <ArvoBold_28pt_CharCount>:
  415560:	0d07 1c0c 2117 0718 0d0d 1612 0e09 0f09     .....!..........
  415570:	0f17 1415 1616 1615 1515 090a 1210 160f     ................
  415580:	1b29 1c19 191b 1e17 0f23 1e0c 2a18 1d1f     ).......#....*..
  415590:	1e19 171c 1c1a 2b1c 1c1c 0c17 0c0e 1316     .......+........
  4155a0:	170e 1518 1519 170f 0e19 1a0b 270f 171b     .............'..
  4155b0:	1819 1414 190f 2217 1616 1015 100c 0010     ......."........

004155c0 <ArvoBold_28pt_Table>:
	...
  4155fc:	f800 00ff 003c f800 3fff 003c f800 3fff     ....<....?<....?
  41560c:	007e f800 3fff 007e f800 3fff 007e f800     ~....?~....?~...
  41561c:	3fff 003c f800 00ff 003c 0000 0000 0000     .?<.....<.......
	...
  41563c:	0000 f800 000f 0000 f800 000f 0000 f800     ................
  41564c:	000f 0000 f800 0001 0000 0000 0000 0000     ................
  41565c:	0000 0000 0000 f800 000f 0000 f800 000f     ................
  41566c:	0000 f800 000f 0000 f800 0001 0000 0000     ................
	...
  415684:	0003 0000 f000 0003 0000 f078 0073 0000     ..........x.s...
  415694:	f07e 007f 0000 fe7e 007f 0000 fffe 007f     ~.....~.........
  4156a4:	c000 ffff 007f f800 ffff 007f f800 ffff     ................
  4156b4:	001f f800 ffff 0003 f800 e1ff 0003 f800     ................
  4156c4:	f07f 0003 3800 f07e 0003 0000 f07e 0003     .....8~.....~...
  4156d4:	0000 f07e 0063 0000 f07e 007f 0000 fe7e     ..~.c...~.....~.
  4156e4:	007f 0000 fffe 007f c000 ffff 007f f800     ................
  4156f4:	ffff 007f f800 ffff 001f f800 ffff 0003     ................
  415704:	f800 f3ff 0003 f800 f07f 0003 3800 707e     .............8~p
  415714:	0000 0000 007e 0000 0000 0006 0000 0000     ....~...........
	...
  415734:	0000 e000 0007 0000 e1f0 0007 0000 e3f8     ................
  415744:	0007 0000 e7fc 0007 0000 e7fc 000f 0000     ................
  415754:	effe 000f 0000 8f3e 001f f800 8f3f 03ff     ......>.....?...
  415764:	f800 1e3f 03ff f800 1e3f 03ff f800 1e3f     ..?.....?.....?.
  415774:	03ff f800 1e7f 03ff f800 3dff 03ff 0000     ...........=....
  415784:	fdfe 001f 0000 fdfc 000f 0000 f9f8 000f     ................
  415794:	0000 f1f8 0007 0000 e1f8 0001 0000 0000     ................
	...
  4157cc:	001f 0000 c000 007f 0000 e000 00ff 0040     ..............@.
  4157dc:	e000 00ff 0060 f000 01fb 0078 f000 01f1     ....`.....x.....
  4157ec:	007c f000 01e0 007f f000 81e0 007f f000     |...............
  4157fc:	e1f1 003f f000 f1fb 001f e000 fcff 0007     ..?.............
  41580c:	e000 feff 0003 c000 ff7f 0000 0000 7fdf     ................
  41581c:	0000 0000 dfe0 0007 0000 fff8 001f 0000     ................
  41582c:	fbfc 003f 0000 f9ff 003f 8000 fc7f 007e     ..?.....?.....~.
  41583c:	e000 7c3f 007c f000 3c0f 0078 f800 3c07     ..?||....<x....<
  41584c:	0078 f800 7c01 007c f800 fc00 007e 3800     x....||.....~..8
  41585c:	f800 003f 1800 f800 003f 0000 f000 001f     ..?.....?.......
  41586c:	0000 c000 0007 0000 0000 0000 0000 0000     ................
	...
  415884:	0000 e000 0003 0000 f83e 000f 8000 fcff     ........>.......
  415894:	001f c000 fdff 003f e000 ffff 003f e000     ......?.....?...
  4158a4:	ffff 007f f000 3fff 007f f000 1fc7 007e     .......?......~.
  4158b4:	f000 1f83 007e f000 3fc7 007e f000 7fff     ....~....?~.....
  4158c4:	007e e000 7fff 007e e000 fcff 003e c000     ~.....~.....>...
  4158d4:	f8ff 003f 8000 f07f 001f 0000 fe1f 000f     ..?.............
  4158e4:	0000 fe00 001f 0000 fe00 003f 0000 fe00     ..........?.....
  4158f4:	007f 0000 7e00 00ff 0000 0e00 007e 0000     .....~......~...
  415904:	0000 003c 0000 0000 0000 f800 000f 0000     ..<.............
  415914:	f800 000f 0000 f800 000f 0000 f800 000f     ................
  415924:	0000 7800 0000 0000 0000 0000 0000 0000     ...x............
	...
  415940:	ffc0 0001 0000 fffc 001f 8000 ffff 00ff     ................
  415950:	e000 ffff 03ff f800 ffff 0fff fc00 ffff     ................
  415960:	1fff ff00 003f 7ffe ff80 0007 ffe0 ff00     ....?...........
  415970:	0000 7f80 3f00 0000 7e00 0e00 0000 3800     .....?...~.....8
  415980:	0000 0000 1000 0e00 0000 3800 3f00 0000     ...........8.?..
  415990:	7e00 ff00 0000 7f80 ff80 0003 fff0 ff00     .~..............
  4159a0:	003f 7ffe fc00 ffff 1fff f800 ffff 0fff     ?...............
  4159b0:	e000 ffff 03ff 8000 ffff 00ff 0000 fffc     ................
  4159c0:	001f 0000 ffc0 0001 0000 0000 0000 0000     ................
  4159d0:	0000 0000 8000 0001 0000 e000 0003 0000     ................
  4159e0:	e000 0063 0000 c000 00f3 0000 c000 00ff     ..c.............
  4159f0:	0000 c000 00ff 0000 fc00 00ff 0000 fc00     ................
  415a00:	003f 0000 fc00 003f 0000 fc00 007f 0000     ?.....?.........
  415a10:	c000 00ff 0000 c000 00ff 0000 c000 00f3     ................
  415a20:	0000 e000 0063 0000 e000 0003 0000 8000     ....c...........
  415a30:	0001 0000 0000 0000 0000 0000 0000 0000     ................
  415a40:	0000 7c00 0000 0000 7c00 0000 0000 7c00     ...|.....|.....|
  415a50:	0000 0000 7c00 0000 0000 7c00 0000 0000     .....|.....|....
  415a60:	7c00 0000 0000 7c00 0000 0000 fff8 003f     .|.....|......?.
  415a70:	0000 fff8 003f 0000 fff8 003f 0000 fff8     ....?.....?.....
  415a80:	003f 0000 fff8 003f 0000 fff8 003f 0000     ?.....?.....?...
  415a90:	7c00 0000 0000 7c00 0000 0000 7c00 0000     .|.....|.....|..
  415aa0:	0000 7c00 0000 0000 7c00 0000 0000 7c00     ...|.....|.....|
  415ab0:	0000 0000 7c00 0000 0000 0000 0000 0000     .....|..........
  415ac0:	0000 1800 0000 0000 1f80 0000 0000 1ff0     ................
  415ad0:	0000 0000 1ffc 0000 0000 07fc 0000 0000     ................
  415ae0:	01fc 0000 0000 007c 0000 0000 0038 0000     ......|.....8...
	...
  415afc:	7c00 0000 0000 7c00 0000 0000 7c00 0000     .|.....|.....|..
  415b0c:	0000 7c00 0000 0000 7c00 0000 0000 7c00     ...|.....|.....|
  415b1c:	0000 0000 7c00 0000 0000 7c00 0000 0000     .....|.....|....
  415b2c:	7c00 0000 0000 7c00 0000 0000 7c00 0000     .|.....|.....|..
  415b3c:	0000 7c00 0000 0000 0000 0000 0000 0000     ...|............
  415b4c:	0000 0000 0000 003c 0000 0000 003c 0000     ......<.....<...
  415b5c:	0000 007e 0000 0000 007e 0000 0000 007e     ..~.....~.....~.
  415b6c:	0000 0000 003c 0000 0000 003c 0000 0000     ....<.....<.....
	...
  415b88:	0040 0000 0000 0078 0000 0000 007f 0000     @.....x.........
  415b98:	e000 007f 0000 fc00 007f 0000 ff00 003f     ..............?.
  415ba8:	0000 ffe0 0007 0000 fffc 0001 8000 3fff     ...............?
  415bb8:	0000 f000 07ff 0000 f800 00ff 0000 f800     ................
  415bc8:	001f 0000 f800 0007 0000 f800 0000 0000     ................
	...
  415be0:	7fe0 0000 0000 fffc 0003 0000 ffff 0007     ................
  415bf0:	8000 ffff 000f c000 ffff 001f e000 ffff     ................
  415c00:	003f e000 c01f 003f f000 0007 007f f000     ?.....?.........
  415c10:	0003 007e f000 0003 007e f000 0003 007e     ..~.....~.....~.
  415c20:	f000 0003 007e f000 0003 007e f000 0007     ....~.....~.....
  415c30:	007f e000 c01f 003f e000 ffff 003f c000     ......?.....?...
  415c40:	ffff 001f 8000 ffff 000f 0000 ffff 0007     ................
  415c50:	0000 fffe 0001 0000 3fe0 0000 0000 0000     .........?......
	...
  415c68:	0000 003f 0000 8000 001f 007e 8000 001f     ..?.......~.....
  415c78:	007e c000 000f 007e c000 ffff 007f e000     ~.....~.........
  415c88:	ffff 007f f000 ffff 007f f000 ffff 007f     ................
  415c98:	f000 ffff 007f f000 ffff 007f 0000 0000     ................
  415ca8:	007e 0000 0000 007e 0000 0000 007e 0000     ~.....~.....~...
	...
  415cc8:	0000 000e 007c 8000 000f 007e c000 000f     ....|.....~.....
  415cd8:	007f e000 800f 007f e000 c00f 007f e000     ................
  415ce8:	e00f 007f f000 f007 007f f000 f803 007f     ................
  415cf8:	f000 fc03 007f f000 fe03 007f f000 ff03     ................
  415d08:	007e f000 7f87 007e e000 3fff 007e e000     ~.....~....?~...
  415d18:	1fff 007e e000 0fff 007e c000 07ff 007e     ..~.....~.....~.
  415d28:	8000 03ff 007e 0000 01fe 007e 0000 0000     ....~.....~.....
  415d38:	007e 0000 e01c 0001 0000 e01f 0007 8000     ~...............
  415d48:	e01f 000f c000 e01f 001f e000 e01f 003f     ..............?.
  415d58:	e000 e01f 003f f000 0007 007f f000 0f83     ....?...........
  415d68:	007e f000 0f83 007e f000 0f83 007e f000     ~.....~.....~...
  415d78:	0f83 007e f000 0f83 007e f000 1fc7 007f     ..~.....~.......
  415d88:	e000 ffff 003f e000 ffff 003f c000 ffff     ....?.....?.....
  415d98:	001f 8000 ffff 000f 0000 fcff 0007 0000     ................
  415da8:	f87e 0001 0000 0000 0000 0000 fe00 0000     ~...............
  415db8:	0000 ff00 0000 0000 ffc0 0000 0000 ffe0     ................
  415dc8:	0000 0000 fff0 0000 0000 fffc 0000 0000     ................
  415dd8:	fffe 0000 8000 ffff 0000 c000 fcff 0000     ................
  415de8:	e000 fc7f 007e f000 fc1f 007e f000 fc0f     ....~.....~.....
  415df8:	007e f000 ffe7 007f f000 ffe1 007f f000     ~...............
  415e08:	ffe0 007f 3000 ffe0 007f 1000 ffe0 007f     .....0..........
  415e18:	0000 ffe0 007f 0000 fc00 007e 0000 fc00     ..........~.....
  415e28:	007e 0000 fc00 007e 0000 fc00 0000 0000     ~.....~.........
	...
  415e48:	f000 c3ff 0003 f000 c7ff 000f f000 c7ff     ................
  415e58:	001f f000 c7ff 003f f000 c7ff 003f f000     ......?.....?...
  415e68:	83ff 007f f000 03e3 007f f000 03f3 007e     ..............~.
  415e78:	f000 03f3 007e f000 03f3 007e f000 07f3     ....~.....~.....
  415e88:	007f f000 8ff3 007f f000 fff3 003f f000     ............?...
  415e98:	ffe3 003f f000 ffe3 001f f000 ffc3 000f     ..?.............
  415ea8:	f000 ff03 0007 0000 fc00 0001 0000 0000     ................
	...
  415ec0:	0000 fc00 0001 0000 ff00 0007 0000 ffc0     ................
  415ed0:	000f 0000 ffe0 001f 0000 fff8 003f 0000     ............?...
  415ee0:	fffc 003f 0000 87ff 007f c000 03ff 007f     ..?.............
  415ef0:	e000 03ff 007e f000 03ff 007e f000 03ff     ....~.....~.....
  415f00:	007e f000 07f7 007f f000 8ff1 003f f000     ~...........?...
  415f10:	fff0 003f 3000 ffe0 003f 1000 ffc0 001f     ..?..0..?.......
  415f20:	0000 ff80 000f 0000 ff00 0007 0000 fc00     ................
	...
  415f3c:	0000 f000 001f 0000 f000 001f 0000 f000     ................
  415f4c:	001f 0000 f000 001f 007e f000 001f 007e     ........~.....~.
  415f5c:	f000 001f 007e f000 8003 007f f000 e003     ....~...........
  415f6c:	007f f000 f803 007f f000 fe03 007f f000     ................
  415f7c:	ff83 007f f000 ffe3 007f f000 fffb 007e     ..............~.
  415f8c:	f000 3fff 007e f000 0fff 007e f000 03ff     ...?~.....~.....
  415f9c:	0000 f000 00ff 0000 f000 003f 0000 f000     ..........?.....
  415fac:	000f 0000 f000 0003 0000 0000 0000 0000     ................
	...
  415fc8:	0000 e000 0003 0000 f07e 0007 8000 f9ff     ........~.......
  415fd8:	001f c000 ffff 001f e000 ffff 003f e000     ............?...
  415fe8:	ffff 003f f000 3fff 007f f000 1fc7 007e     ..?....?......~.
  415ff8:	f000 1f83 007e f000 1f83 007e f000 1fc7     ....~.....~.....
  416008:	007e f000 3fff 007f e000 ffff 003f e000     ~....?......?...
  416018:	ffff 003f c000 ffff 001f 8000 f9ff 001f     ..?.............
  416028:	0000 f07e 0007 0000 e000 0003 0000 0000     ..~.............
	...
  416048:	007c 0000 0000 01ff 0000 8000 03ff 0000     |...............
  416058:	c000 07ff 0000 e000 0fff 0060 e000 0fff     ..........`.....
  416068:	0070 f000 1fc7 007c f000 1f83 007f f000     p.....|.........
  416078:	df83 007f f000 ff83 007f f000 ff83 003f     ..............?.
  416088:	f000 ff83 000f f000 ffc7 0007 e000 ffff     ................
  416098:	0001 e000 7fff 0000 c000 1fff 0000 8000     ................
  4160a8:	07ff 0000 0000 03ff 0000 0000 00fc 0000     ................
	...
  4160c0:	01c0 001c 0000 03e0 003e 0000 03f0 007e     ........>.....~.
  4160d0:	0000 03f0 007e 0000 03f0 007e 0000 03e0     ....~.....~.....
  4160e0:	003e 0000 01c0 001c 0000 0000 0000 0000     >...............
	...
  4160f8:	1f80 0000 00e0 1ff0 0000 01f0 1ffc 0000     ................
  416108:	01f8 07fc 0000 01f8 01fc 0000 01f8 007c     ..............|.
  416118:	0000 01f0 0018 0000 00e0 0000 0000 0000     ................
	...
  416130:	0000 ffc0 0001 0000 ffc0 0001 0000 ffc0     ................
  416140:	0003 0000 ffc0 0003 0000 ffc0 0003 0000     ................
  416150:	ffe0 0003 0000 ffe0 0003 0000 ffe0 0007     ................
  416160:	0000 e7e0 0007 0000 e7e0 0007 0000 e7e0     ................
  416170:	0007 0000 e7f0 0007 0000 e7f0 000f 0000     ................
  416180:	c7f0 000f 0000 0000 0000 0000 0000 0000     ................
  416190:	0000 f1f0 0001 0000 f1f0 0001 0000 f1f0     ................
  4161a0:	0001 0000 f1f0 0001 0000 f1f0 0001 0000     ................
  4161b0:	f1f0 0001 0000 f1f0 0001 0000 f1f0 0001     ................
  4161c0:	0000 f1f0 0001 0000 f1f0 0001 0000 f1f0     ................
  4161d0:	0001 0000 f1f0 0001 0000 f1f0 0001 0000     ................
  4161e0:	f1f0 0001 0000 f1f0 0001 0000 f1f0 0001     ................
	...
  4161fc:	0000 c7f0 000f 0000 e7f0 000f 0000 e7f0     ................
  41620c:	0007 0000 e7e0 0007 0000 e7e0 0007 0000     ................
  41621c:	ffe0 0007 0000 ffe0 0007 0000 ffe0 0003     ................
  41622c:	0000 ffe0 0003 0000 ffc0 0003 0000 ffc0     ................
  41623c:	0003 0000 ffc0 0003 0000 ffc0 0001 0000     ................
	...
  41625c:	0000 001e 0000 8000 001f 0000 c000 001f     ................
  41626c:	0000 e000 001f 0000 e000 f01f 0038 f000     ............8...
  41627c:	fc1f 007c f000 fe07 007e f000 fe03 007e     ..|.....~.....~.
  41628c:	f000 ff03 007e f000 ff83 007c f000 0fc7     ....~.....|.....
  41629c:	0038 f000 07ff 0000 e000 03ff 0000 e000     8...............
  4162ac:	03ff 0000 c000 01ff 0000 8000 00ff 0000     ................
  4162bc:	0000 003e 0000 0000 0000 0000 0000 0000     ..>.............
	...
  4162e8:	fe00 0003 0000 ffc0 001f 0000 fff0 007f     ................
  4162f8:	0000 fffc 01ff 0000 fffe 03ff 0000 ffff     ................
  416308:	07ff 8000 03ff 0ffe c000 007f 1ff0 c000     ................
  416318:	001f 1fc0 e000 fc0f 3f81 e000 ff07 3f07     .........?.....?
  416328:	f000 ffc3 7e0f f000 ffc1 7c1f f800 ffe1     .....~.....|....
  416338:	fc3f f800 fff0 f83f f800 07f0 f87e f800     ?.....?.....~...
  416348:	01f0 f87c f800 01f0 f87c f800 03f0 f87e     ..|.....|.....~.
  416358:	f800 fff0 f87f f800 fff0 f83f f800 fff1     ..........?.....
  416368:	7c3f f000 fff1 7c3f f000 fff3 7e3f f000     ?|....?|....?~..
  416378:	fff7 3e7f e000 0007 3c7c e000 001f 187c     ...>....|<....|.
  416388:	c000 003f 007c 8000 00ff 007f 0000 ffff     ..?.|...........
  416398:	003f 0000 fffe 003f 0000 fffc 001f 0000     ?.....?.........
  4163a8:	fff8 000f 0000 ffe0 0007 0000 ff00 0000     ................
	...
  4163d4:	007e 0000 0000 007e 0000 0000 007f 0000     ~.....~.........
  4163e4:	e000 007f 0000 fc00 007f 0000 ff80 007f     ................
  4163f4:	0000 fff0 007f 0000 fffe 007e 8000 3fff     ..........~....?
  416404:	007e f000 3fff 007e f000 3eff 0000 f000     ~....?~....>....
  416414:	3e1f 0000 f000 3e03 0000 f000 3e07 0000     .>.....>.....>..
  416424:	f000 3e3f 0000 f000 3fff 007e f000 3fff     ..?>.....?~....?
  416434:	007e f000 ffff 007e 8000 ffff 007f 0000     ~.....~.........
  416444:	fffc 007f 0000 ffe0 007f 0000 fe00 007f     ................
  416454:	0000 f000 007f 0000 8000 007f 0000 0000     ................
  416464:	007e 0000 0000 007e 0000 0000 0000 0000     ~.....~.........
  416474:	0000 0000 f000 0003 007e f000 0003 007e     ........~.....~.
  416484:	f000 0003 007e f000 ffff 007f f000 ffff     ....~...........
  416494:	007f f000 ffff 007f f000 ffff 007f f000     ................
  4164a4:	ffff 007f f000 ffff 007f f000 1f83 007e     ..............~.
  4164b4:	f000 1f83 007e f000 1f83 007e f000 1f83     ....~.....~.....
  4164c4:	007e f000 1f83 007e f000 1f83 007e f000     ~.....~.....~...
  4164d4:	3fc7 007f e000 ffff 007f e000 ffff 003f     .?............?.
  4164e4:	c000 ffff 003f c000 fdff 001f 8000 fdff     ....?...........
  4164f4:	000f 0000 f07e 0003 0000 0000 0000 0000     ....~...........
  416504:	0000 0000 0000 1fc0 0000 0000 fff8 0000     ................
  416514:	0000 fffc 0001 0000 ffff 0007 8000 ffff     ................
  416524:	000f 8000 ffff 000f c000 f07f 001f e000     ................
  416534:	c01f 003f e000 800f 003f e000 0007 003f     ..?.....?.....?.
  416544:	f000 0007 007f f000 0003 007e f000 0003     ..........~.....
  416554:	007e f000 0003 007e f000 0003 007e f000     ~.....~.....~...
  416564:	0003 007e f000 0003 007f f000 0007 003f     ..~...........?.
  416574:	e000 800f 003f e000 e00f 003f c000 e00f     ....?.....?.....
  416584:	001f c000 e00f 000f c000 e00f 0007 c000     ................
  416594:	e00f 0003 c000 c00f 0001 0000 0000 0000     ................
	...
  4165b0:	f000 0003 007e f000 0003 007e f000 0003     ....~.....~.....
  4165c0:	007e f000 ffff 007f f000 ffff 007f f000     ~...............
  4165d0:	ffff 007f f000 ffff 007f f000 ffff 007f     ................
  4165e0:	f000 ffff 007f f000 0003 007e f000 0003     ..........~.....
  4165f0:	007e f000 0003 007e f000 0003 007e f000     ~.....~.....~...
  416600:	0003 007e f000 0007 007f e000 0007 003f     ..~...........?.
  416610:	e000 800f 003f c000 c01f 001f c000 f07f     ....?...........
  416620:	001f 8000 ffff 000f 0000 ffff 0007 0000     ................
  416630:	ffff 0003 0000 fffc 0001 0000 fff8 0000     ................
  416640:	0000 1fc0 0000 0000 0000 0000 0000 0000     ................
	...
  416658:	f000 0003 007e f000 0003 007e f000 0003     ....~.....~.....
  416668:	007e f000 ffff 007f f000 ffff 007f f000     ~...............
  416678:	ffff 007f f000 ffff 007f f000 ffff 007f     ................
  416688:	f000 ffff 007f f000 1f83 007e f000 1f83     ..........~.....
  416698:	007e f000 1f83 007e f000 1f83 007e f000     ~.....~.....~...
  4166a8:	1f83 007e f000 0003 007e f000 0003 007e     ..~.....~.....~.
  4166b8:	f000 e01f 007f f000 e01f 007f f000 e01f     ................
  4166c8:	007f f000 e01f 007f f000 e01f 007f f000     ................
  4166d8:	e01f 007f 0000 0000 0000 0000 0000 0000     ................
  4166e8:	0000 0000 0000 f000 0003 007e f000 0003     ..........~.....
  4166f8:	007e f000 0003 007e f000 ffff 007f f000     ~.....~.........
  416708:	ffff 007f f000 ffff 007f f000 ffff 007f     ................
  416718:	f000 ffff 007f f000 ffff 007f f000 0f83     ................
  416728:	007e f000 0f83 007e f000 0f83 007e f000     ~.....~.....~...
  416738:	0f83 0000 f000 0f83 0000 f000 0003 0000     ................
  416748:	f000 003f 0000 f000 003f 0000 f000 003f     ..?.....?.....?.
  416758:	0000 f000 003f 0000 f000 003f 0000 f000     ....?.....?.....
  416768:	003f 0000 0000 0000 0000 0000 1fc0 0000     ?...............
  416778:	0000 fff8 0000 0000 fffc 0003 0000 ffff     ................
  416788:	0007 8000 ffff 000f 8000 ffff 001f c000     ................
  416798:	f07f 001f e000 c01f 003f e000 800f 003f     ........?.....?.
  4167a8:	e000 0007 003f f000 0007 007f f000 0003     ....?...........
  4167b8:	007e f000 0003 007e f000 0003 007e f000     ~.....~.....~...
  4167c8:	7e03 007e f000 7e03 007e f000 7e03 007e     .~~....~~....~~.
  4167d8:	f000 7e07 003f e000 7e07 001f e000 fe0f     ...~?....~......
  4167e8:	001f e000 fe0f 0007 c000 fe0f 007f c000     ................
  4167f8:	fe0f 007f c000 fe0f 007f c000 fe0f 007f     ................
  416808:	c000 fe0f 007f 0000 fe00 007f 0000 0000     ................
	...
  41682c:	f000 0003 007e f000 0003 007e f000 0003     ....~.....~.....
  41683c:	007e f000 ffff 007f f000 ffff 007f f000     ~...............
  41684c:	ffff 007f f000 ffff 007f f000 ffff 007f     ................
  41685c:	f000 ffff 007f f000 0fc3 007e f000 0fc3     ..........~.....
  41686c:	007e f000 0fc3 007e 0000 0fc0 0000 0000     ~.....~.........
  41687c:	0fc0 0000 0000 0fc0 0000 0000 0fc0 0000     ................
  41688c:	0000 0fc0 0000 0000 0fc0 0000 0000 0fc0     ................
  41689c:	0000 f000 0fc3 007e f000 0fc3 007e f000     ......~.....~...
  4168ac:	0fc3 007e f000 ffff 007f f000 ffff 007f     ..~.............
  4168bc:	f000 ffff 007f f000 ffff 007f f000 ffff     ................
  4168cc:	007f f000 ffff 007f f000 0003 007e f000     ............~...
  4168dc:	0003 007e f000 0003 007e 0000 0000 0000     ..~.....~.......
	...
  4168fc:	0000 f000 0003 007e f000 0003 007e f000     ......~.....~...
  41690c:	0003 007e f000 ffff 007f f000 ffff 007f     ..~.............
  41691c:	f000 ffff 007f f000 ffff 007f f000 ffff     ................
  41692c:	007f f000 ffff 007f f000 0003 007e f000     ............~...
  41693c:	0003 007e f000 0003 007e 0000 0000 0000     ..~.....~.......
  41694c:	0000 0000 0000 f000 0003 0c00 f000 0003     ................
  41695c:	0f00 f000 0003 0fc0 f000 ffff 0fff f000     ................
  41696c:	ffff 0fff f000 ffff 07ff f000 ffff 01ff     ................
  41697c:	f000 ffff 00ff f000 ffff 003f f000 0003     ..........?.....
  41698c:	0000 f000 0003 0000 0000 0000 0000 0000     ................
  41699c:	0000 0000 f000 0003 007e f000 0003 007e     ........~.....~.
  4169ac:	f000 0003 007e f000 ffff 007f f000 ffff     ....~...........
  4169bc:	007f f000 ffff 007f f000 ffff 007f f000     ................
  4169cc:	ffff 007f f000 ffff 007f f000 0703 007e     ..............~.
  4169dc:	f000 0703 007e f000 0f83 007e 0000 1fc0     ....~.....~.....
  4169ec:	0000 0000 3fe0 0000 0000 7fe0 0000 0000     .....?..........
  4169fc:	fff0 0000 0000 fff8 0001 0000 fcfc 0003     ................
  416a0c:	f000 f8ff 007f f000 f07f 007f f000 e03f     ..............?.
  416a1c:	007f f000 c01f 007f f000 801f 007f f000     ................
  416a2c:	000f 007f f000 0007 007e f000 0003 007e     ........~.....~.
  416a3c:	f000 0003 007e 0000 0000 0000 0000 0000     ....~...........
	...
  416a54:	f000 0003 007e f000 0003 007e f000 0003     ....~.....~.....
  416a64:	007e f000 ffff 007f f000 ffff 007f f000     ~...............
  416a74:	ffff 007f f000 ffff 007f f000 ffff 007f     ................
  416a84:	f000 ffff 007f f000 0003 007e f000 0003     ..........~.....
  416a94:	007e f000 0003 007e 0000 0000 007e 0000     ~.....~.....~...
  416aa4:	0000 007e 0000 0000 007e 0000 e000 007f     ..~.....~.......
  416ab4:	0000 e000 007f 0000 e000 007f 0000 e000     ................
  416ac4:	007f 0000 e000 007f 0000 e000 007f 0000     ................
	...
  416ae4:	f000 0003 007e f000 0003 007e f000 0003     ....~.....~.....
  416af4:	007e f000 ffff 007f f000 ffff 007f f000     ~...............
  416b04:	ffff 007f f000 ffff 007f f000 ffff 007f     ................
  416b14:	f000 ffff 007f f000 000f 007e f000 007f     ..........~.....
  416b24:	007e f000 03ff 0000 f000 1fff 0000 c000     ~...............
  416b34:	ffff 0000 0000 fffe 0007 0000 fff0 003f     ..............?.
  416b44:	0000 ff80 007f 0000 fc00 007f 0000 e000     ................
  416b54:	007f 0000 c000 007f 0000 f800 007f 0000     ................
  416b64:	fe00 007f 0000 ffc0 001f 0000 fff8 0003     ................
  416b74:	0000 7fff 0000 e000 0fff 0000 f000 01ff     ................
  416b84:	0000 f000 003f 007e f000 0007 007e f000     ....?.~.....~...
  416b94:	ffff 007f f000 ffff 007f f000 ffff 007f     ................
  416ba4:	f000 ffff 007f f000 ffff 007f f000 ffff     ................
  416bb4:	007f f000 0003 007e f000 0003 007e f000     ......~.....~...
  416bc4:	0003 007e 0000 0000 0000 0000 0000 0000     ..~.............
  416bd4:	0000 0000 0000 f000 0003 007e f000 0003     ..........~.....
  416be4:	007e f000 0003 007e f000 ffff 007f f000     ~.....~.........
  416bf4:	ffff 007f f000 ffff 007f f000 ffff 007f     ................
  416c04:	f000 ffff 007f f000 ffff 007f f000 003f     ..............?.
  416c14:	007e e000 007f 007e c000 01ff 007e 0000     ~.....~.....~...
  416c24:	03ff 0000 0000 0ffe 0000 0000 1ff8 0000     ................
  416c34:	0000 7ff0 0000 0000 ffc0 0000 0000 ff80     ................
  416c44:	0003 0000 fe00 0007 f000 fc03 001f f000     ................
  416c54:	f003 003f f000 ffff 007f f000 ffff 007f     ..?.............
  416c64:	f000 ffff 007f f000 ffff 007f f000 ffff     ................
  416c74:	007f f000 ffff 007f f000 0003 0000 f000     ................
  416c84:	0003 0000 f000 0003 0000 0000 0000 0000     ................
  416c94:	0000 1fc0 0000 0000 fff8 0000 0000 fffe     ................
  416ca4:	0003 0000 ffff 0007 8000 ffff 000f c000     ................
  416cb4:	ffff 001f c000 f07f 001f e000 c01f 003f     ..............?.
  416cc4:	e000 800f 003f f000 0007 007f f000 0003     ....?...........
  416cd4:	007e f000 0003 007e f000 0003 007e f000     ~.....~.....~...
  416ce4:	0003 007e f000 0003 007e f000 0003 007e     ..~.....~.....~.
  416cf4:	f000 0007 007f e000 800f 003f e000 c01f     ..........?.....
  416d04:	003f c000 f07f 001f c000 ffff 001f 8000     ?...............
  416d14:	ffff 000f 0000 ffff 0007 0000 fffc 0001     ................
  416d24:	0000 fff8 0000 0000 1fc0 0000 0000 0000     ................
	...
  416d48:	f000 0003 007e f000 0003 007e f000 0003     ....~.....~.....
  416d58:	007e f000 ffff 007f f000 ffff 007f f000     ~...............
  416d68:	ffff 007f f000 ffff 007f f000 ffff 007f     ................
  416d78:	f000 ffff 007f f000 1f83 007e f000 1f83     ..........~.....
  416d88:	007e f000 1f83 007e f000 1f83 0000 f000     ~.....~.........
  416d98:	1f83 0000 f000 1f83 0000 f000 1fc7 0000     ................
  416da8:	e000 0fff 0000 e000 0fff 0000 c000 07ff     ................
  416db8:	0000 8000 07ff 0000 0000 01ff 0000 0000     ................
  416dc8:	007e 0000 0000 0000 0000 0000 0000 0000     ~...............
  416dd8:	0000 1fc0 0000 0000 fff8 0000 0000 fffc     ................
  416de8:	0003 0000 ffff 0007 8000 ffff 000f 8000     ................
  416df8:	ffff 001f c000 f07f 001f e000 c01f 003f     ..............?.
  416e08:	e000 800f 003f e000 0007 007f f000 0007     ....?...........
  416e18:	007f f000 0003 1ffe f000 0003 1ffe f000     ................
  416e28:	0003 1ffe f000 0003 1ffe f000 0003 3ffe     ...............?
  416e38:	f000 0007 3f7f e000 0007 7f7f e000 800f     .....?..........
  416e48:	7e3f e000 c01f fc3f c000 f07f fc1f 8000     ?~....?.........
  416e58:	ffff fc1f 8000 ffff fe0f 0000 ffff 7f07     ................
  416e68:	0000 fffc 7f03 0000 fff8 3f00 0000 1fc0     ...........?....
  416e78:	1e00 0000 0000 0600 0000 0000 0000 0000     ................
	...
  416e90:	0000 f000 0003 007e f000 0003 007e f000     ......~.....~...
  416ea0:	0003 007e f000 ffff 007f f000 ffff 007f     ..~.............
  416eb0:	f000 ffff 007f f000 ffff 007f f000 ffff     ................
  416ec0:	007f f000 ffff 007f f000 3f03 007e f000     ...........?~...
  416ed0:	3f03 007e f000 3f03 007e f000 3f03 0000     .?~....?~....?..
  416ee0:	f000 3f03 0000 f000 7f03 0000 f000 ff03     ...?............
  416ef0:	0000 f000 ff87 001f f000 ff87 007f e000     ................
  416f00:	ffff 007f e000 ffff 007f c000 f7ff 007f     ................
  416f10:	c000 e3ff 007f 0000 01ff 007f 0000 007e     ..............~.
  416f20:	007e 0000 0000 007e 0000 0000 0000 0000     ~.....~.........
  416f30:	e000 0003 0000 e03e 0003 8000 e0ff 0007     ......>.........
  416f40:	c000 e1ff 000f c000 e3ff 001f e000 e3ff     ................
  416f50:	003f e000 87ff 003f f000 07e7 003f f000     ?.....?.....?...
  416f60:	07c3 007e f000 07c3 007e f000 0fc3 007e     ..~.....~.....~.
  416f70:	f000 0f83 007e f000 0f83 007e f000 0f83     ....~.....~.....
  416f80:	007e f000 1f87 007e e000 1f07 003f e000     ~.....~.....?...
  416f90:	ff1f 003f e000 ff1f 003f c000 fe1f 001f     ..?.....?.......
  416fa0:	8000 fe1f 000f 0000 fc1f 0007 0000 f01f     ................
  416fb0:	0003 0000 0000 0000 f000 000f 0000 f000     ................
  416fc0:	000f 0000 f000 000f 0000 f000 000f 0000     ................
  416fd0:	f000 000f 0000 f000 000f 0000 f000 0003     ................
  416fe0:	007e f000 0003 007e f000 0003 007e f000     ~.....~.....~...
  416ff0:	ffff 007f f000 ffff 007f f000 ffff 007f     ................
  417000:	f000 ffff 007f f000 ffff 007f f000 ffff     ................
  417010:	007f f000 0003 007e f000 0003 007e f000     ......~.....~...
  417020:	0003 007e f000 0003 0000 f000 000f 0000     ..~.............
  417030:	f000 000f 0000 f000 000f 0000 f000 000f     ................
  417040:	0000 f000 000f 0000 f000 000f 0000 0000     ................
  417050:	0000 0000 f000 0003 0000 f000 0003 0000     ................
  417060:	f000 0003 0000 f000 ffff 0000 f000 ffff     ................
  417070:	0003 f000 ffff 0007 f000 ffff 000f f000     ................
  417080:	ffff 001f f000 ffff 003f f000 8003 003f     ........?.....?.
  417090:	f000 0003 007f f000 0003 007e 0000 0000     ..........~.....
  4170a0:	007e 0000 0000 007e 0000 0000 007e 0000     ~.....~.....~...
  4170b0:	0000 007e f000 0003 007e f000 0003 007f     ..~.....~.......
  4170c0:	f000 8003 003f f000 ffff 003f f000 ffff     ....?.....?.....
  4170d0:	001f f000 ffff 000f f000 ffff 0007 f000     ................
  4170e0:	ffff 0003 f000 ffff 0000 f000 0003 0000     ................
  4170f0:	f000 0003 0000 f000 0003 0000 f000 0003     ................
  417100:	0000 f000 0003 0000 f000 0003 0000 f000     ................
  417110:	000f 0000 f000 007f 0000 f000 03ff 0000     ................
  417120:	f000 1fff 0000 f000 ffff 0000 f000 ffff     ................
  417130:	0007 f000 fffb 003f f000 ffc3 007f f000     ......?.........
  417140:	fe03 007f 0000 f000 007f 0000 8000 007f     ................
  417150:	0000 8000 007f 0000 f000 007f f000 fe03     ................
  417160:	007f f000 ffc3 007f f000 fffb 003f f000     ............?...
  417170:	ffff 0007 f000 ffff 0000 f000 1fff 0000     ................
  417180:	f000 03ff 0000 f000 007f 0000 f000 000f     ................
  417190:	0000 f000 0003 0000 f000 0003 0000 0000     ................
  4171a0:	0000 0000 f000 0003 0000 f000 0003 0000     ................
  4171b0:	f000 0003 0000 f000 000f 0000 f000 007f     ................
  4171c0:	0000 f000 07ff 0000 f000 3fff 0000 f000     ...........?....
  4171d0:	ffff 0003 f000 ffff 001f f000 fffb 007f     ................
  4171e0:	f000 ffc3 007f f000 fc03 007f 0000 e000     ................
  4171f0:	007f 0000 c000 007f 0000 fc00 007f 0000     ................
  417200:	ffc0 007f 0000 fffc 007f c000 ffff 003f     ..............?.
  417210:	f000 ffff 0003 f000 3fff 0000 f000 03ff     .........?......
  417220:	0000 f000 003f 0000 f000 03ff 0000 f000     ....?...........
  417230:	3fff 0000 f000 ffff 0003 e000 ffff 003f     .?............?.
  417240:	0000 fffe 007f 0000 ffe0 007f 0000 fe00     ................
  417250:	007f 0000 e000 007f 0000 c000 007f f000     ................
  417260:	fc03 007f f000 ff83 007f f000 fffb 007f     ................
  417270:	f000 ffff 003f f000 ffff 0003 f000 3fff     ....?..........?
  417280:	0000 f000 07ff 0000 f000 007f 0000 f000     ................
  417290:	000f 0000 f000 0003 0000 f000 0003 0000     ................
	...
  4172ac:	f000 0001 007c f000 0003 007e f000 0007     ....|.....~.....
  4172bc:	007f f000 800f 007f f000 c01f 007f f000     ................
  4172cc:	e03f 007f f000 f07f 007f f000 f8ff 007f     ?...............
  4172dc:	f000 fdff 007f f000 fffd 007d f000 fff9     ..........}.....
  4172ec:	007c f000 7ff1 0000 0000 3fe0 0000 0000     |..........?....
  4172fc:	3fe0 0000 f000 7ff1 007c f000 fff9 007c     .?......|.....|.
  41730c:	f000 fffd 007d f000 fdff 007f f000 f0ff     ....}...........
  41731c:	007f f000 e07f 007f f000 c03f 007f f000     ..........?.....
  41732c:	800f 007f f000 0007 007f f000 0003 007e     ..............~.
  41733c:	f000 0001 007c f000 0001 007c 0000 0000     ....|.....|.....
	...
  417354:	f000 0003 0000 f000 0003 0000 f000 0007     ................
  417364:	0000 f000 000f 0000 f000 001f 0000 f000     ................
  417374:	003f 0000 f000 007f 0000 f000 01ff 007e     ?.............~.
  417384:	f000 03ff 007e f000 07ff 007e f000 fffb     ....~.....~.....
  417394:	007f f000 ffe3 007f 0000 ffc0 007f 0000     ................
  4173a4:	ffc0 007f f000 ffe3 007f f000 fffb 007f     ................
  4173b4:	f000 07ff 007e f000 03ff 007e f000 01ff     ....~.....~.....
  4173c4:	007e f000 00ff 0000 f000 003f 0000 f000     ~.........?.....
  4173d4:	001f 0000 f000 000f 0000 f000 0007 0000     ................
  4173e4:	f000 0003 0000 f000 0003 0000 0000 0000     ................
	...
  4173fc:	f000 001f 007f f000 801f 007f f000 c01f     ................
  41740c:	007f f000 e01f 007f f000 f81f 007f f000     ................
  41741c:	fc1f 007f f000 fe01 007f f000 ff01 007f     ................
  41742c:	f000 ff81 007e f000 3fe1 007c f000 1ff1     ....~....?|.....
  41743c:	007c f000 0ff9 007c f000 07fd 007c f000     |.....|.....|...
  41744c:	03ff 007c f000 00ff 007c f000 e07f 007f     ..|.....|.......
  41745c:	f000 e03f 007f f000 e01f 007f f000 e007     ..?.............
  41746c:	007f f000 e003 007f f000 e001 007f 0000     ................
	...
  417484:	0000 fc00 ffff ffff fc00 ffff ffff fc00     ................
  417494:	ffff ffff fc00 ffff ffff fc00 ffff ffff     ................
  4174a4:	fc00 ffff ffff fc00 0000 fc00 fc00 0000     ................
  4174b4:	fc00 fc00 0000 fc00 0000 0000 0000 0000     ................
  4174c4:	0000 0000 4000 0000 0000 c000 0003 0000     .....@..........
  4174d4:	c000 001f 0000 c000 00ff 0000 c000 07ff     ................
  4174e4:	0000 8000 3fff 0000 0000 fffe 0001 0000     .....?..........
  4174f4:	fff0 000f 0000 ff80 007f 0000 fc00 03ff     ................
  417504:	0000 e000 0fff 0000 0000 0fff 0000 0000     ................
  417514:	0ff8 0000 0000 0fc0 0000 0000 0000 0000     ................
  417524:	0000 0000 fc00 0000 fc00 fc00 0000 fc00     ................
  417534:	fc00 0000 fc00 fc00 ffff ffff fc00 ffff     ................
  417544:	ffff fc00 ffff ffff fc00 ffff ffff fc00     ................
  417554:	ffff ffff fc00 ffff ffff 0000 0000 0000     ................
	...
  41756c:	0200 0000 0000 0380 0000 0000 03e0 0000     ................
  41757c:	0000 03f8 0000 0000 03fe 0000 0000 03ff     ................
  41758c:	0000 c000 00ff 0000 f000 003f 0000 f000     ..........?.....
  41759c:	000f 0000 f000 0003 0000 f000 0001 0000     ................
  4175ac:	f000 0007 0000 f000 001f 0000 f000 00ff     ................
  4175bc:	0000 c000 03ff 0000 0000 03ff 0000 0000     ................
  4175cc:	03fc 0000 0000 03f0 0000 0000 0380 0000     ................
  4175dc:	0000 0200 0000 0000 0000 0000 0000 0000     ................
  4175ec:	3e00 0000 0000 3e00 0000 0000 3e00 0000     .>.....>.....>..
  4175fc:	0000 3e00 0000 0000 3e00 0000 0000 3e00     ...>.....>.....>
  41760c:	0000 0000 3e00 0000 0000 3e00 0000 0000     .....>.....>....
  41761c:	3e00 0000 0000 3e00 0000 0000 3e00 0000     .>.....>.....>..
  41762c:	0000 3e00 0000 0000 3e00 0000 0000 3e00     ...>.....>.....>
  41763c:	0000 0000 3e00 0000 0000 3e00 0000 0000     .....>.....>....
  41764c:	3e00 0000 0000 3e00 0000 0000 3e00 0000     .>.....>.....>..
	...
  41766c:	1000 0000 0000 3000 0000 0000 7000 0000     .......0.....p..
  41767c:	0000 f000 0000 0000 f000 0001 0000 f000     ................
  41768c:	0003 0000 c000 0003 0000 8000 0003 0000     ................
  41769c:	0000 0002 0000 0000 0000 0000 0000 0000     ................
	...
  4176b4:	0000 c1c0 0007 0000 e1c0 001f 0000 f1e0     ................
  4176c4:	003f 0000 f1e0 003f 0000 f9f0 007f 0000     ?.....?.........
  4176d4:	f9f0 007f 0000 79f0 007c 0000 79f0 007c     .......y|....y|.
  4176e4:	0000 79f0 007c 0000 79f0 007c 0000 7bf0     ...y|....y|....{
  4176f4:	003e 0000 fff0 007f 0000 ffe0 007f 0000     >...............
  417704:	ffe0 007f 0000 ffc0 007f 0000 ffc0 007f     ................
  417714:	0000 ff00 007f 0000 0000 007e 0000 0000     ..........~.....
  417724:	007e 0000 0000 007e 0000 0000 0000 0000     ~.....~.........
  417734:	0000 0000 f800 0001 0000 f800 0001 0000     ................
  417744:	f800 0001 0000 f800 ffff 007f f800 ffff     ................
  417754:	007f f800 ffff 007f f800 ffff 007f f800     ................
  417764:	ffff 007f f800 ffff 007f 0000 03e0 007e     ..............~.
  417774:	0000 03f0 007e 0000 01f0 007c 0000 01f0     ....~.....|.....
  417784:	007c 0000 01f0 007c 0000 01f0 007c 0000     |.....|.....|...
  417794:	03f0 007e 0000 07e0 003f 0000 ffe0 003f     ..~.....?.....?.
  4177a4:	0000 ffe0 003f 0000 ffc0 001f 0000 ff80     ....?...........
  4177b4:	000f 0000 ff00 0007 0000 fc00 0001 0000     ................
	...
  4177d0:	fc00 0001 0000 ff00 0007 0000 ff80 000f     ................
  4177e0:	0000 ffc0 001f 0000 ffe0 003f 0000 ffe0     ..........?.....
  4177f0:	003f 0000 07f0 007f 0000 03f0 007e 0000     ?...........~...
  417800:	01f0 007c 0000 01f0 007c 0000 01f0 007c     ..|.....|.....|.
  417810:	0000 01f0 007e 0000 03f0 007f 0000 87e0     ....~...........
  417820:	003f 0000 87e0 003f 0000 87c0 001f 0000     ?.....?.........
  417830:	87c0 001f 0000 07c0 0007 0000 07c0 0007     ................
	...
  41784c:	0000 fc00 0001 0000 ff00 0007 0000 ff80     ................
  41785c:	000f 0000 ffc0 001f 0000 ffe0 003f 0000     ............?...
  41786c:	ffe0 003f 0000 07f0 007f 0000 03f0 007e     ..?...........~.
  41787c:	0000 01f0 007c 0000 01f0 007c f800 01f1     ....|.....|.....
  41788c:	007c f800 01f1 007c f800 03e1 007e f800     |.....|.....~...
  41789c:	ffff 007f f800 ffff 007f f800 ffff 007f     ................
  4178ac:	f800 ffff 007f f800 ffff 007f f800 ffff     ................
  4178bc:	007f 0000 0000 007e 0000 0000 007e 0000     ......~.....~...
  4178cc:	0000 007e 0000 0000 0000 0000 0000 0000     ..~.............
	...
  4178e4:	fc00 0001 0000 ff00 0007 0000 ff80 000f     ................
  4178f4:	0000 ffc0 001f 0000 ffe0 003f 0000 ffe0     ..........?.....
  417904:	003f 0000 7bf0 003f 0000 79f0 007e 0000     ?....{?....y~...
  417914:	79f0 007c 0000 79f0 007c 0000 79f0 007c     .y|....y|....y|.
  417924:	0000 79f0 007c 0000 7bf0 007c 0000 7fe0     ...y|....{|.....
  417934:	007c 0000 7fe0 003e 0000 7fc0 003e 0000     |.....>.....>...
  417944:	7f80 001c 0000 7f00 0000 0000 7c00 0000     .............|..
	...
  417960:	0000 03f0 007e 0000 03f0 007e 0000 03f0     ....~.....~.....
  417970:	007e 8000 ffff 007f e000 ffff 007f f000     ~...............
  417980:	ffff 007f f000 ffff 007f f000 ffff 007f     ................
  417990:	f800 ffff 007f f800 03f1 007e f800 03f0     ..........~.....
  4179a0:	007e f800 03f0 007e f800 0000 0000 f800     ~.....~.........
	...
  4179bc:	fc00 0001 0000 ff00 3007 0000 ff80 3c0f     .........0.....<
  4179cc:	0000 ffc0 7c1f 0000 ffe0 7c3f 0000 ffe0     .....|....?|....
  4179dc:	fc3f 0000 07f0 f87f 0000 03f0 f87e 0000     ?...........~...
  4179ec:	01f0 f87c 0000 01f0 f87c 0000 01f0 f87c     ..|.....|.....|.
  4179fc:	0000 03f0 fc7e 0000 03f0 fe3e 0000 fff0     ....~.....>.....
  417a0c:	7fff 0000 fff0 7fff 0000 fff0 3fff 0000     .............?..
  417a1c:	fff0 1fff 0000 fff0 0fff 0000 fff0 03ff     ................
	...
  417a44:	f800 0001 007e f800 0001 007e f800 0001     ....~.....~.....
  417a54:	007e f800 ffff 007f f800 ffff 007f f800     ~...............
  417a64:	ffff 007f f800 ffff 007f f800 ffff 007f     ................
  417a74:	f800 ffff 007f 0000 03c0 007e 0000 03e0     ..........~.....
  417a84:	007e 0000 01f0 007e 0000 01f0 0000 0000     ~.....~.........
  417a94:	01f0 0000 0000 03f0 0000 0000 fff0 007f     ................
  417aa4:	0000 fff0 007f 0000 ffe0 007f 0000 ffe0     ................
  417ab4:	007f 0000 ffc0 007f 0000 ff00 007f 0000     ................
  417ac4:	0000 007e 0000 0000 007e 0000 0000 007e     ..~.....~.....~.
	...
  417adc:	03f0 007e 0000 03f0 007e 0000 03f0 007e     ..~.....~.....~.
  417aec:	f000 fff0 007f f000 fff0 007f f800 fff1     ................
  417afc:	007f f800 fff1 007f f800 fff1 007f f000     ................
  417b0c:	fff0 007f f000 0000 007e 0000 0000 007e     ........~.....~.
  417b1c:	0000 0000 007e 0000 0000 0000 0000 0000     ....~...........
  417b2c:	0000 0000 03f0 f000 0000 03f0 f000 6000     ...............`
  417b3c:	03f0 f800 f000 fff0 ffff f800 fff1 7fff     ................
  417b4c:	f800 fff1 7fff f800 fff1 3fff f000 fff0     ...........?....
  417b5c:	1fff 6000 fff0 07ff 0000 0000 0000 0000     ...`............
  417b6c:	0000 0000 f800 0001 007e f800 0001 007e     ........~.....~.
  417b7c:	f800 0001 007e f800 ffff 007f f800 ffff     ....~...........
  417b8c:	007f f800 ffff 007f f800 ffff 007f f800     ................
  417b9c:	ffff 007f f800 ffff 007f 0000 3800 007e     .............8~.
  417bac:	0000 3800 007e 0000 3800 007e 0000 7c00     ...8~....8~....|
  417bbc:	0000 0000 fff0 0001 0000 fff0 0007 0000     ................
  417bcc:	fff0 000f 0000 fff0 003f 0000 cff0 007f     ........?.......
  417bdc:	0000 07f0 007f 0000 03f0 007c 0000 03f0     ..........|.....
  417bec:	007c 0000 03f0 007c 0000 03f0 007c 0000     |.....|.....|...
	...
  417c0c:	f800 0001 007e f800 0001 007e f800 0001     ....~.....~.....
  417c1c:	007e f800 ffff 007f f800 ffff 007f f800     ~...............
  417c2c:	ffff 007f f800 ffff 007f f800 ffff 007f     ................
  417c3c:	f800 ffff 007f 0000 0000 007e 0000 0000     ..........~.....
  417c4c:	007e 0000 0000 007e 0000 0000 0000 0000     ~.....~.........
	...
  417c68:	03f0 007e 0000 03f0 007e 0000 03f0 007e     ..~.....~.....~.
  417c78:	0000 fff0 007f 0000 fff0 007f 0000 fff0     ................
  417c88:	007f 0000 fff0 007f 0000 fff0 007f 0000     ................
  417c98:	fff0 007f 0000 03e0 007e 0000 03e0 007e     ........~.....~.
  417ca8:	0000 01f0 007e 0000 01f0 0000 0000 01f0     ....~...........
  417cb8:	0000 0000 01f0 0000 0000 03f0 0000 0000     ................
  417cc8:	fff0 007f 0000 fff0 007f 0000 ffe0 007f     ................
  417cd8:	0000 ffc0 007f 0000 ff80 007f 0000 ffc0     ................
  417ce8:	007f 0000 03e0 007e 0000 01e0 007e 0000     ......~.....~...
  417cf8:	01f0 007e 0000 01f0 0000 0000 01f0 0000     ..~.............
  417d08:	0000 03f0 0000 0000 fff0 007f 0000 fff0     ................
  417d18:	007f 0000 ffe0 007f 0000 ffe0 007f 0000     ................
  417d28:	ffc0 007f 0000 ff00 007f 0000 0000 007e     ..............~.
  417d38:	0000 0000 007e 0000 0000 007e 0000 0000     ....~.....~.....
	...
  417d50:	0000 03f0 007e 0000 03f0 007e 0000 03f0     ....~.....~.....
  417d60:	007e 0000 fff0 007f 0000 fff0 007f 0000     ~...............
  417d70:	fff0 007f 0000 fff0 007f 0000 fff0 007f     ................
  417d80:	0000 fff0 007f 0000 03e0 007e 0000 03e0     ..........~.....
  417d90:	007e 0000 01f0 007e 0000 01f0 0000 0000     ~.....~.........
  417da0:	01f0 0000 0000 01f0 0000 0000 03f0 0000     ................
  417db0:	0000 fff0 007f 0000 fff0 007f 0000 ffe0     ................
  417dc0:	007f 0000 ffe0 007f 0000 ffc0 007f 0000     ................
  417dd0:	ff00 007f 0000 0000 007e 0000 0000 007e     ........~.....~.
  417de0:	0000 0000 007e 0000 0000 0000 0000 0000     ....~...........
  417df0:	0000 0000 fc00 0001 0000 ff00 0007 0000     ................
  417e00:	ff80 000f 0000 ffc0 001f 0000 ffc0 001f     ................
  417e10:	0000 ffe0 003f 0000 07e0 003f 0000 03f0     ....?.....?.....
  417e20:	007e 0000 01f0 007c 0000 01f0 007c 0000     ~.....|.....|...
  417e30:	01f0 007c 0000 01f0 007c 0000 01f0 007c     ..|.....|.....|.
  417e40:	0000 03f0 007e 0000 07e0 003f 0000 ffe0     ....~.....?.....
  417e50:	003f 0000 ffc0 001f 0000 ffc0 001f 0000     ?...............
  417e60:	ff80 000f 0000 ff00 0007 0000 fc00 0001     ................
	...
  417e7c:	0000 03f0 fc00 0000 03f0 fc00 0000 03f0     ................
  417e8c:	fc00 0000 fff0 ffff 0000 fff0 ffff 0000     ................
  417e9c:	fff0 ffff 0000 fff0 ffff 0000 fff0 ffff     ................
  417eac:	0000 fff0 ffff 0000 03f0 fc3e 0000 03f0     ..........>.....
  417ebc:	fc7e 0000 01f0 fc7c 0000 01f0 007c 0000     ~.....|.....|...
  417ecc:	01f0 007c 0000 01f0 007c 0000 03f0 007e     ..|.....|.....~.
  417edc:	0000 07f0 007f 0000 ffe0 003f 0000 ffe0     ..........?.....
  417eec:	003f 0000 ffc0 001f 0000 ff80 000f 0000     ?...............
  417efc:	ff00 0007 0000 fc00 0001 0000 0000 0000     ................
	...
  417f14:	fc00 0001 0000 ff00 0007 0000 ff80 000f     ................
  417f24:	0000 ffc0 001f 0000 ffe0 003f 0000 ffe0     ..........?.....
  417f34:	003f 0000 07f0 007f 0000 03f0 007e 0000     ?...........~...
  417f44:	01f0 007c 0000 01f0 007c 0000 01f0 fc7c     ..|.....|.....|.
  417f54:	0000 01f0 fc7c 0000 03f0 fc3e 0000 ffe0     ....|.....>.....
  417f64:	ffff 0000 fff0 ffff 0000 fff0 ffff 0000     ................
  417f74:	fff0 ffff 0000 fff0 ffff 0000 fff0 ffff     ................
  417f84:	0000 0000 fc00 0000 0000 fc00 0000 0000     ................
  417f94:	fc00 0000 0000 0000 0000 0000 0000 0000     ................
  417fa4:	03f0 007e 0000 03f0 007e 0000 03f0 007e     ..~.....~.....~.
  417fb4:	0000 fff0 007f 0000 fff0 007f 0000 fff0     ................
  417fc4:	007f 0000 fff0 007f 0000 fff0 007f 0000     ................
  417fd4:	ffe0 007f 0000 03e0 007e 0000 01f0 007e     ........~.....~.
  417fe4:	0000 07f0 007e 0000 07f0 0000 0000 07f0     ....~...........
  417ff4:	0000 0000 07f0 0000 0000 07f0 0000 0000     ................
  418004:	07f0 0000 0000 0000 0000 0000 0000 0000     ................
	...
  41801c:	0f80 001f 0000 1fc0 001f 0000 3fe0 001f     .............?..
  41802c:	0000 3fe0 001f 0000 7ff0 003f 0000 7ff0     ...?......?.....
  41803c:	007e 0000 79f0 007c 0000 79f0 007c 0000     ~....y|....y|...
  41804c:	79f0 007c 0000 f1f0 007c 0000 f1f0 007c     .y|.....|.....|.
  41805c:	0000 f3e0 007f 0000 f7e0 003f 0000 e7c0     ..........?.....
  41806c:	003f 0000 e7c0 001f 0000 c7c0 001f 0000     ?...............
  41807c:	87c0 0007 0000 0000 0000 0000 0000 0000     ................
  41808c:	0000 01f0 0000 0000 01f0 0000 0000 01f0     ................
  41809c:	0000 8000 ffff 000f 8000 ffff 001f c000     ................
  4180ac:	ffff 003f c000 ffff 007f c000 ffff 007f     ..?.............
  4180bc:	e000 ffff 007f 0000 01f0 007c 0000 01f0     ..........|.....
  4180cc:	007c 0000 01f0 007c 0000 01f0 003c 0000     |.....|.....<...
	...
  4180ec:	0000 03f0 0000 0000 03f0 0000 0000 03f0     ................
  4180fc:	0000 0000 fff0 0007 0000 fff0 000f 0000     ................
  41810c:	fff0 001f 0000 fff0 003f 0000 fff0 007f     ........?.......
  41811c:	0000 fff0 007f 0000 0000 007e 0000 0000     ..........~.....
  41812c:	007c 0000 03f0 007c 0000 03f0 007c 0000     |.....|.....|...
  41813c:	03f0 007e 0000 fff0 003f 0000 fff0 007f     ..~.....?.......
  41814c:	0000 fff0 007f 0000 fff0 007f 0000 fff0     ................
  41815c:	007f 0000 fff0 007f 0000 0000 007e 0000     ............~...
  41816c:	0000 007e 0000 0000 007e 0000 0000 0000     ..~.....~.......
  41817c:	0000 03f0 0000 0000 03f0 0000 0000 03f0     ................
  41818c:	0000 0000 07f0 0000 0000 3ff0 0000 0000     ...........?....
  41819c:	fff0 0000 0000 fff0 0007 0000 fff0 001f     ................
  4181ac:	0000 fff0 007f 0000 e3f0 007f 0000 83f0     ................
  4181bc:	007f 0000 0000 007c 0000 8000 007f 0000     ......|.........
  4181cc:	f3f0 007f 0000 fff0 007f 0000 fff0 003f     ..............?.
  4181dc:	0000 fff0 0007 0000 fff0 0000 0000 3ff0     ...............?
  4181ec:	0000 0000 07f0 0000 0000 03f0 0000 0000     ................
  4181fc:	03f0 0000 0000 03f0 0000 0000 03f0 0000     ................
  41820c:	0000 03f0 0000 0000 03f0 0000 0000 0ff0     ................
  41821c:	0000 0000 7ff0 0000 0000 fff0 0007 0000     ................
  41822c:	fff0 003f 0000 fff0 007f 0000 fbf0 007f     ..?.............
  41823c:	0000 83f0 007f 0000 c3f0 007f 0000 f800     ................
  41824c:	007f 0000 ff00 007f 0000 ffe0 001f 0000     ................
  41825c:	fff0 0003 0000 7ff0 0000 0000 0ff0 0000     ................
  41826c:	0000 1ff0 0000 0000 fff0 0001 0000 fff0     ................
  41827c:	000f 0000 ff80 007f 0000 fc00 007f 0000     ................
  41828c:	e000 007f 0000 03f0 007f 0000 e3f0 007f     ................
  41829c:	0000 fbf0 007f 0000 fff0 003f 0000 fff0     ..........?.....
  4182ac:	0007 0000 fff0 0001 0000 3ff0 0000 0000     ...........?....
  4182bc:	07f0 0000 0000 03f0 0000 0000 03f0 0000     ................
  4182cc:	0000 03f0 0000 0000 03f0 007e 0000 03f0     ..........~.....
  4182dc:	007e 0000 03f0 007e 0000 03f0 007e 0000     ~.....~.....~...
  4182ec:	07f0 007f 0000 8ff0 007f 0000 dff0 007f     ................
  4182fc:	0000 fff0 007f 0000 fff0 007f 0000 fff0     ................
  41830c:	007f 0000 fc00 0001 0000 fc00 0001 0000     ................
  41831c:	fff0 007f 0000 fff0 007f 0000 fff0 007f     ................
  41832c:	0000 dff0 007f 0000 8ff0 007f 0000 07f0     ................
  41833c:	007f 0000 03f0 007e 0000 03f0 007e 0000     ......~.....~...
  41834c:	03f0 007e 0000 03f0 007e 0000 03f0 0000     ..~.....~.......
  41835c:	0000 03f0 0000 0000 03f0 0000 0000 07f0     ................
  41836c:	0000 0000 3ff0 fc00 0000 fff0 fc00 0000     .....?..........
  41837c:	fff0 fc07 0000 fff0 fe1f 0000 fbf0 ffff     ................
  41838c:	0000 e3f0 ffff 0000 8000 ffff 0000 8000     ................
  41839c:	ffff 0000 e3f0 fdff 0000 fff0 fc7f 0000     ................
  4183ac:	fff0 fc1f 0000 fff0 fc03 0000 fff0 0000     ................
  4183bc:	0000 3ff0 0000 0000 07f0 0000 0000 03f0     ...?............
  4183cc:	0000 0000 03f0 0000 0000 03f0 0000 0000     ................
  4183dc:	0000 0000 0000 0ff0 0000 0000 0ff0 0078     ..............x.
  4183ec:	0000 0ff0 007c 0000 0ff0 007f 0000 8ff0     ....|...........
  4183fc:	007f 0000 c1f0 007f 0000 f1f0 007f 0000     ................
  41840c:	f9f0 007f 0000 fff0 007f 0000 fff0 007c     ..............|.
  41841c:	0000 7ff0 007c 0000 1ff0 007c 0000 0ff0     ....|.....|.....
  41842c:	007c 0000 c7f0 007f 0000 c1f0 007f 0000     |...............
  41843c:	c0f0 007f 0000 c030 007f 0000 c000 007f     ......0.........
	...
  418464:	0000 0e00 0000 0000 0e00 0000 0000 1f00     ................
  418474:	0000 0000 1f00 0000 fc00 ffff 07ff ff00     ................
  418484:	ffff 1fff ff00 ffff 1fff ff80 ffff 3fff     ...............?
  418494:	ff80 fbff 3fff ff80 f1ff 3fff 3f80 0000     .....?.....?.?..
  4184a4:	3f80 1f80 0000 3f00 1f80 0000 3f00 0000     .?.....?.....?..
	...
  4184c4:	ff80 ffff 0fff ff80 ffff 0fff ff80 ffff     ................
  4184d4:	0fff ff80 ffff 0fff ff80 ffff 0fff ff80     ................
  4184e4:	ffff 0fff 0000 0000 0000 0000 0000 0000     ................
	...
  418504:	0000 1f80 0000 3f00 1f80 0000 3f00 3f80     .......?.....?.?
  418514:	0000 3f80 ff80 f1ff 3fff ff80 fbff 3fff     ...?.....?.....?
  418524:	ff80 ffff 3fff ff00 ffff 1fff ff00 ffff     .....?..........
  418534:	1fff fc00 ffff 07ff 0000 1f80 0000 0000     ................
  418544:	1f00 0000 0000 0e00 0000 0000 0e00 0000     ................
	...
  418560:	0000 3800 0000 0000 7e00 0000 0000 7e00     ...8.....~.....~
  418570:	0000 0000 3f00 0000 0000 1f00 0000 0000     .....?..........
  418580:	1f00 0000 0000 3f00 0000 0000 3e00 0000     .......?.....>..
  418590:	0000 3e00 0000 0000 7c00 0000 0000 7c00     ...>.....|.....|
  4185a0:	0000 0000 7c00 0000 0000 7e00 0000 0000     .....|.....~....
  4185b0:	3f00 0000 0000 1f00 0000 0000 0e00 0000     .?..............

004185c0 <ArvoBold_24pt_CharCount>:
  4185c0:	0b06 180a 1d13 0615 0b0b 1310 0c08 0d08     ................
  4185d0:	0d14 1112 1313 1312 1212 0808 100e 130d     ................
  4185e0:	1723 1816 1617 1a14 0c1e 1a0a 2515 191b     #............%..
  4185f0:	1a16 1318 1816 2518 1819 0a14 0a0c 1013     .......%........
  418600:	140c 1214 1316 140d 0d16 170a 220b 1317     ............."..
  418610:	1515 1111 160c 1e14 1313 0e12 0e0a 000e     ................

00418620 <ArvoBold_24pt_Table>:
	...
  418648:	ff80 701f 8000 ffff 00f8 ff80 f8ff 8000     ...p............
  418658:	ffff 00f8 ff80 f8ff 8000 1fff 0070 0000     ............p...
	...
  418678:	0000 7f80 0000 8000 007f 0000 7f80 0000     ................
  418688:	8000 000f 0000 0000 0000 8000 007f 0000     ................
  418698:	7f80 0000 8000 007f 0000 0f80 0000 0000     ................
  4186a8:	0000 0000 0000 0780 0000 80e0 00e7 f000     ................
  4186b8:	ff80 0000 fff0 00ff fc00 ffff 8000 ffff     ................
  4186c8:	00ff ff80 1fff 8000 ffff 0007 ff80 0781     ................
  4186d8:	8000 80f7 0007 f000 0780 0000 80f0 00c7     ................
  4186e8:	f000 ff80 0000 f0f0 00ff f000 ffff 0000     ................
  4186f8:	fffe 00ff ff80 3fff 8000 ffff 0007 ff80     .......?........
  418708:	078f 8000 80ff 0007 f380 0180 0000 00f0     ................
	...
  418728:	0000 c000 000f 8000 0fc7 0000 cfe0 000f     ................
  418738:	e000 1fdf 0000 fff0 003f ff80 ff3f 8007     ........?...?...
  418748:	39ff 07fe ff80 fe79 8007 73ff 07fe ff80     .9....y....s....
  418758:	fff7 0007 f7f0 003f c000 1fe7 0000 e7c0     ......?.........
  418768:	001f c000 0787 0000 0000 0000 0000 0000     ................
	...
  41878c:	0000 00f0 0000 fc00 0003 0000 07fe 0080     ................
  41879c:	fe00 c007 0000 0f0f 00f0 0f00 f80f 0000     ................
  4187ac:	0f0f 00fe 0f00 ff8f 0000 c7fe 007f fe00     ................
  4187bc:	1ff7 0000 fbfc 000f f000 03fe 0000 ff00     ................
  4187cc:	0001 c000 0f7f 0000 dff0 003f f800 7fef     ..........?.....
  4187dc:	0000 e3fe 007f ff00 f0f1 8000 f07f 00f0     ................
  4187ec:	3f80 f0f0 8000 f00f 00f0 0380 7fe0 8000     .?..............
  4187fc:	e001 007f 0000 3fc0 0000 0000 000f 0000     .......?........
	...
  418814:	0000 0780 0000 e000 001f f000 3ff0 0000     .............?..
  418824:	fbfc 007f fe00 7fff 0000 3ffe 00fc ff00     ...........?....
  418834:	f81f 0000 3f1f 00f8 1f00 f87e 0000 ff1f     .....?....~.....
  418844:	00f8 ff00 fbff 0000 effe 007f fe00 7fc7     ................
  418854:	0000 83fc 003f f000 1ff0 0000 f000 003f     ....?.........?.
  418864:	0000 7ff0 0000 f000 00fd 0000 f870 0000     ............p...
  418874:	0000 0070 0000 0000 8000 007f 0000 7f80     ..p.............
  418884:	0000 8000 007f 0000 0780 0000 0000 0000     ................
	...
  4188a0:	0000 07ff 0000 ffe0 007f fc00 ffff 0001     ................
  4188b0:	ffff 07ff ffc0 ffff e01f 01ff 3ffc 1ff0     .............?..
  4188c0:	c000 e07f 0007 3f00 01c0 0000 403c 0000     .......?....<@..
  4188d0:	1000 01e0 0000 e01c 0007 3f00 1ff0 c000     ...........?....
  4188e0:	e07f 01ff 3ffc ffc0 ffff 001f ffff 07ff     .....?..........
  4188f0:	fc00 ffff 0001 fff0 003f 0000 07ff 0000     ........?.......
	...
  418908:	0000 0018 0000 3c00 0000 0000 033c 0000     .......<....<...
  418918:	bc00 0007 0000 0ff8 0000 ff80 0007 8000     ................
  418928:	01ff 0000 ff80 0003 8000 07ff 0000 f800     ................
  418938:	000f 0000 07bc 0000 3c00 0003 0000 0018     .........<......
	...
  418958:	0000 e000 0001 0000 01e0 0000 e000 0001     ................
  418968:	0000 01e0 0000 e000 0001 0000 01e0 0000     ................
  418978:	ff80 007f 8000 7fff 0000 ff80 007f 8000     ................
  418988:	7fff 0000 ff80 007f 0000 01e0 0000 e000     ................
  418998:	0001 0000 01e0 0000 e000 0001 0000 01e0     ................
  4189a8:	0000 e000 0001 0000 0000 0000 0000 1800     ................
  4189b8:	0000 0000 003f 0000 3ff0 0000 f000 001f     ....?....?......
  4189c8:	0000 07e0 0000 e000 0001 0000 0040 0000     ............@...
	...
  4189e0:	0000 01e0 0000 e000 0001 0000 01e0 0000     ................
  4189f0:	e000 0001 0000 01e0 0000 e000 0001 0000     ................
  418a00:	01e0 0000 e000 0001 0000 01e0 0000 e000     ................
  418a10:	0001 0000 0000 0000 0000 0000 0000 7800     ...............x
  418a20:	0000 0000 00fc 0000 fc00 0000 0000 00fc     ................
  418a30:	0000 fc00 0000 0000 0078 0000 0000 0000     ........x.......
  418a40:	0000 0000 0000 8000 0000 0000 00f0 0000     ................
  418a50:	fe00 0000 c000 00ff 0000 fff8 0000 fe00     ................
  418a60:	007f c000 1fff 0000 fff8 0003 ff00 007f     ................
  418a70:	8000 0fff 0000 ff80 0001 8000 007f 0000     ................
  418a80:	0000 0000 0000 ff80 0001 f000 0fff 0000     ................
  418a90:	fff8 001f fc00 3fff 0000 fffe 007f 7e00     .......?.......~
  418aa0:	7e00 0000 003f 00fc 1f00 f800 0000 001f     .~..?...........
  418ab0:	00f8 1f00 f800 0000 001f 00f8 3f00 fc00     .............?..
  418ac0:	0000 007e 007e fe00 7fff 0000 fffc 003f     ..~.~.........?.
  418ad0:	f800 1fff 0000 fff0 000f 8000 01ff 0000     ................
	...
  418ae8:	0000 01f8 0000 f800 f800 0000 007c 00f8     ............|...
  418af8:	fc00 ffff 0000 fffe 00ff ff00 ffff 0000     ................
  418b08:	ffff 00ff ff00 ffff 0000 0000 00f8 0000     ................
  418b18:	f800 0000 0000 0000 0000 0000 0000 0000     ................
	...
  418b30:	00e0 00f0 f800 f800 0000 00fc 00fc fe00     ................
  418b40:	fe00 0000 00fe 00ff 3f00 ff80 0000 c01f     .........?......
  418b50:	00ff 1f00 fff0 0000 f81f 00f3 3f00 f1fc     .............?..
  418b60:	0000 fffe 00f0 fe00 f07f 0000 3ffc 00f0     .............?..
  418b70:	f800 f01f 0000 07f0 00f0 0000 f000 0000     ................
  418b80:	00e0 0007 f800 1f00 0000 00fc 003f fe00     ............?...
  418b90:	7f00 0000 00fe 007f 3f00 fc00 0000 3c1f     .........?.....<
  418ba0:	00f8 1f00 f83c 0000 3c1f 00f8 1f00 f83c     ....<....<....<.
  418bb0:	0000 7e3f 00fc fe00 7fff 0000 fffe 007f     ..?~............
  418bc0:	fc00 3fff 0000 f7f8 001f e000 07c3 0000     ...?............
  418bd0:	0000 0000 0000 01f0 0000 f800 0001 0000     ................
  418be0:	01fe 0000 ff00 0001 c000 01ff 0000 ffe0     ................
  418bf0:	0001 f000 01ef 0000 e7fc 0001 fe00 f9e1     ................
  418c00:	0000 e0ff 00f9 3f00 ffff 0000 ff1f 00ff     .......?........
  418c10:	0700 ffff 0000 ff03 00ff 0100 ffff 0000     ................
  418c20:	e000 00f9 0000 f9e0 0000 e000 0001 0000     ................
	...
  418c3c:	0000 1fff 000e ff00 1f3f 0000 3fff 003f     ........?....??.
  418c4c:	ff00 7f3f 0000 3fff 007e 0f00 fc1f 0000     ..?....?~.......
  418c5c:	1f0f 00f8 0f00 f81f 0000 1f0f 00f8 0f00     ................
  418c6c:	f83f 0000 3f0f 00fc 0f00 7ffe 0000 fe0f     ?....?..........
  418c7c:	007f 0f00 3ffc 0000 f80f 001f 0000 07e0     .....?..........
	...
  418c98:	e000 0007 0000 1ff8 0000 fe00 003f 0000     ............?...
  418ca8:	7fff 0000 ffc0 007f f000 fc3f 0000 1ff8     ..........?.....
  418cb8:	00f8 fe00 f81f 0000 1fff 00f8 7f00 f81f     ................
  418cc8:	0000 3f1f 00fc 0f00 7fff 0000 fe03 007f     ...?............
  418cd8:	0000 3ffc 0000 f800 001f 0000 07e0 0000     ...?............
	...
  418cf0:	0000 007f 0000 7f00 0000 0000 007f 0000     ................
  418d00:	7f00 f800 0000 007f 00f8 0f00 fe00 0000     ................
  418d10:	c00f 00ff 0f00 fff0 0000 fc0f 00ff 8f00     ................
  418d20:	ffff 0000 ffef 00fb ff00 f87f 0000 1fff     ................
  418d30:	0000 ff00 0003 0000 00ff 0000 3f00 0000     .............?..
  418d40:	0000 000f 0000 0000 0000 0000 0000 0000     ................
  418d50:	0000 0000 0000 8000 0007 e000 1fe1 0000     ................
  418d60:	f7f8 003f fc00 7fff 0000 fffe 007f ff00     ..?.............
  418d70:	fe7f 0000 3e3f 00f8 1f00 f83c 0000 3c1f     ....?>....<....<
  418d80:	00f8 3f00 fc7e 0000 ffff 007f fe00 7fff     ...?~...........
  418d90:	0000 fffc 003f f800 1fe7 0000 c1f0 0007     ....?...........
	...
  418db0:	07e0 0000 f800 001f 0000 3ffc 0000 fe00     ...........?....
  418dc0:	807f 0000 7ffe 00c0 3f00 f0fc 0000 f81f     .........?......
  418dd0:	00fc 1f00 fff8 0000 f81f 00ff 1f00 3ff8     ...............?
  418de0:	0000 fc3f 000f fe00 03ff 0000 fffe 0000     ..?.............
  418df0:	fc00 007f 0000 1ff8 0000 e000 0003 0000     ................
  418e00:	0000 0000 0000 781e 0000 3f00 00fc 0000     .......x...?....
  418e10:	fc3f 0000 3f00 00fc 0000 fc3f 0000 1e00     ?....?....?.....
  418e20:	0078 0000 0000 0000 0000 1f00 0000 f007     x...............
  418e30:	001f 0f80 1ff0 8000 f01f 0007 1f80 01f0     ................
  418e40:	8000 600f 0000 0700 0000 0000 0000 0000     ...`............
  418e50:	0000 0000 0000 07fc 0000 fc00 0007 0000     ................
  418e60:	07fe 0000 fe00 0007 0000 0ffe 0000 be00     ................
  418e70:	000f 0000 0fbe 0000 be00 000f 0000 0fbe     ................
  418e80:	0000 bf00 001f 0000 1f3f 0000 1f00 001f     ........?.......
	...
  418e9c:	078f 0000 8f00 0007 0000 078f 0000 8f00     ................
  418eac:	0007 0000 078f 0000 8f00 0007 0000 078f     ................
  418ebc:	0000 8f00 0007 0000 078f 0000 8f00 0007     ................
  418ecc:	0000 078f 0000 8f00 0007 0000 078f 0000     ................
  418edc:	8f00 0007 0000 0000 0000 0000 0000 0000     ................
  418eec:	1f1f 0000 bf00 001f 0000 1fbf 0000 be00     ................
  418efc:	000f 0000 0fbe 0000 be00 000f 0000 0fbe     ................
  418f0c:	0000 fe00 000f 0000 07fe 0000 fe00 0007     ................
  418f1c:	0000 07fc 0000 fc00 0007 0000 0000 0000     ................
  418f2c:	0070 0000 f800 0000 0000 00fc 0000 fe00     p...............
  418f3c:	0000 0000 c0ff 0073 3f00 fbf0 0000 f01f     ......s..?......
  418f4c:	01fb 1f00 fbf8 0001 fc1f 00fb 3f00 703e     .............?>p
  418f5c:	0000 1fff 0000 fe00 001f 0000 0ffe 0000     ................
  418f6c:	fc00 0007 0000 01f0 0000 0000 0000 0000     ................
	...
  418f94:	0000 07f8 0000 ff00 003f c000 ffff 0000     ........?.......
  418fa4:	ffe0 01ff f800 ffff 0007 07fc 0ff8 fc00     ................
  418fb4:	e001 000f 00fe 1fc0 3f00 07f0 003f fc3f     .........?..?.?.
  418fc4:	3f1f 1f00 3ffe 803e ff1f 7e7f 8f80 ffff     .?...?>....~....
  418fd4:	807c 1f8f 7cf8 8f80 f80f 807c ff8f 7cff     |....|....|....|
  418fe4:	0f80 ffff 807c ff9f 7c7f 9f00 7fff 003e     ....|....|....>.
  418ff4:	ff9f 3e7f 3f00 f800 001e 007e 1cf8 fc00     ...>.?....~.....
  419004:	f801 0000 07fc 00fe f800 7fff 0000 fff0     ................
  419014:	007f c000 3fff 0000 ff00 000f 0000 03fc     .....?..........
	...
  419034:	0000 f800 0000 0000 00f8 0000 fe00 0000     ................
  419044:	c000 00ff 0000 fffc 0000 ffc0 00ff f800     ................
  419054:	ffff 0000 ffff 00fb ff00 f8ff 0000 f7ff     ................
  419064:	00f8 7f00 00f0 0000 f00f 0000 ff00 00f0     ................
  419074:	0000 f7ff 00f8 ff00 f8ff 0000 ffff 00fb     ................
  419084:	f000 ffff 0000 ff80 00ff 0000 fff8 0000     ................
  419094:	c000 00ff 0000 fe00 0000 0000 00f8 0000     ................
  4190a4:	f800 0000 0000 0000 0000 0000 0000 000f     ................
  4190b4:	00f0 0f00 f000 0000 ffff 00ff ff00 ffff     ................
  4190c4:	0000 ffff 00ff ff00 ffff 0000 ffff 00ff     ................
  4190d4:	0f00 f03c 0000 3c0f 00f0 0f00 f03c 0000     ..<....<....<...
  4190e4:	3c0f 00f0 0f00 f03c 0000 3c0f 00f0 1f00     .<....<....<....
  4190f4:	f87e 0000 fffe 00ff fe00 7fff 0000 fffc     ~...............
  419104:	003f f800 1fe7 0000 c3e0 0007 0000 0000     ?...............
	...
  41911c:	00ff 0000 ffc0 0003 f000 0fff 0000 fff8     ................
  41912c:	001f fc00 3fff 0000 81fc 003f 7e00 7e00     .....?....?..~.~
  41913c:	0000 003e 007c 3f00 fc00 0000 001f 00f8     ..>.|..?........
  41914c:	1f00 f800 0000 001f 00f8 1f00 f800 0000     ................
  41915c:	001f 00f8 3f00 fc00 0000 003f 007e 7e00     .....?....?.~..~
  41916c:	7f80 0000 807e 003f 7c00 1f80 0000 807c     ....~.?..|....|.
  41917c:	000f 7c00 0780 0000 007c 0000 7c00 0000     ...|....|....|..
  41918c:	0000 0000 0000 0f00 f000 0000 000f 00f0     ................
  41919c:	ff00 ffff 0000 ffff 00ff ff00 ffff 0000     ................
  4191ac:	ffff 00ff ff00 ffff 0000 000f 00f0 0f00     ................
  4191bc:	f000 0000 000f 00f0 0f00 f000 0000 000f     ................
  4191cc:	00f0 1f00 f800 0000 003e 007c 7e00 7e00     ........>.|..~.~
  4191dc:	0000 81fc 003f f800 1fff 0000 fff0 001f     ....?...........
  4191ec:	e000 07ff 0000 ffc0 0003 0000 007f 0000     ................
	...
  419208:	0000 1f00 f800 0000 001f 00f8 ff00 ffff     ................
  419218:	0000 ffff 00ff ff00 ffff 0000 ffff 00ff     ................
  419228:	ff00 ffff 0000 1e1f 00f8 1f00 f81e 0000     ................
  419238:	1e1f 00f8 1f00 f81e 0000 1e1f 00f8 1f00     ................
  419248:	f800 0000 001f 00f8 ff00 ff00 0000 00ff     ................
  419258:	00ff ff00 ff00 0000 00ff 00ff ff00 ff00     ................
	...
  419278:	1f00 f800 0000 001f 00f8 ff00 ffff 0000     ................
  419288:	ffff 00ff ff00 ffff 0000 ffff 00ff ff00     ................
  419298:	ffff 0000 7c1f 00f8 1f00 f87c 0000 7c1f     .....|....|....|
  4192a8:	0000 1f00 007c 0000 7c1f 0000 1f00 0000     ....|....|......
  4192b8:	0000 00ff 0000 ff00 0000 0000 00ff 0000     ................
  4192c8:	ff00 0000 0000 00ff 0000 0000 0000 0000     ................
  4192d8:	fe00 0000 c000 03ff 0000 ffe0 000f f800     ................
  4192e8:	1fff 0000 fff8 003f fc00 3f81 0000 00fe     ......?....?....
  4192f8:	007e 7e00 7c00 0000 003f 00fc 1f00 f800     ~..~.|..?.......
  419308:	0000 001f 00f8 1f00 f800 0000 781f 00f8     .............x..
  419318:	1f00 f878 0000 783f 007c 7e00 7f78 0000     ..x...?x|..~x...
  419328:	f8fe 003f fe00 1ff8 0000 f8fc 00ff f800     ..?.............
  419338:	fff8 0000 f8f8 00ff f800 fff8 0000 f8f8     ................
  419348:	00ff 0000 0000 0000 0000 0000 0000 0000     ................
  419358:	0000 0000 0000 1f00 f800 0000 001f 00f8     ................
  419368:	ff00 ffff 0000 ffff 00ff ff00 ffff 0000     ................
  419378:	ffff 00ff ff00 ffff 0000 1e1f 00f8 1f00     ................
  419388:	f81e 0000 1e00 0000 0000 001e 0000 1e00     ................
  419398:	0000 0000 001e 0000 1e00 0000 0000 001e     ................
  4193a8:	0000 1e00 0000 0000 001e 0000 1e1f 00f8     ................
  4193b8:	1f00 f81e 0000 ffff 00ff ff00 ffff 0000     ................
  4193c8:	ffff 00ff ff00 ffff 0000 ffff 00ff 1f00     ................
  4193d8:	f800 0000 001f 00f8 0000 0000 0000 0000     ................
	...
  4193f4:	1f00 f800 0000 001f 00f8 ff00 ffff 0000     ................
  419404:	ffff 00ff ff00 ffff 0000 ffff 00ff ff00     ................
  419414:	ffff 0000 001f 00f8 1f00 f800 0000 0000     ................
  419424:	0000 0000 0000 0004 001f 0f00 1f00 c000     ................
  419434:	000f ffff 0fff ff00 ffff 0007 ffff 03ff     ................
  419444:	ff00 ffff 0000 ffff 007f 1f00 0000 0000     ................
  419454:	001f 0000 0000 0000 0000 0000 0000 1f00     ................
  419464:	f800 0000 001f 00f8 ff00 ffff 0000 ffff     ................
  419474:	00ff ff00 ffff 0000 ffff 00ff ff00 ffff     ................
  419484:	0000 3c1f 00f8 1f00 f83c 0000 3e00 0000     ...<....<....>..
  419494:	0000 007f 0000 ff00 0000 8000 01ff 0000     ................
  4194a4:	ffc0 0003 e000 07f7 0000 e7ff 00ff ff00     ................
  4194b4:	ffc3 0000 81ff 00ff ff00 ff00 0000 00ff     ................
  4194c4:	00fe 7f00 fc00 0000 003f 00f8 1f00 f800     ........?.......
	...
  4194e4:	1f00 f000 0000 001f 00f0 ff00 ffff 0000     ................
  4194f4:	ffff 00ff ff00 ffff 0000 ffff 00ff ff00     ................
  419504:	ffff 0000 001f 00f0 1f00 f000 0000 0000     ................
  419514:	00f0 0000 f000 0000 0000 00f0 0000 f000     ................
  419524:	0000 8000 00ff 0000 ff80 0000 8000 00ff     ................
  419534:	0000 ff80 0000 8000 00ff 0000 0000 0000     ................
	...
  41954c:	0000 001f 00f8 1f00 f800 0000 ffff 00ff     ................
  41955c:	ff00 ffff 0000 ffff 00ff ff00 ffff 0000     ................
  41956c:	ffff 00ff ff00 f800 0000 03ff 00f8 ff00     ................
  41957c:	001f 0000 7ff8 0000 e000 01ff 0000 ff80     ................
  41958c:	000f 0000 3ffe 0000 f000 00ff 0000 ffc0     .....?..........
  41959c:	0000 0000 00ff 0000 ff80 0000 f000 00ff     ................
  4195ac:	0000 7ffc 0000 ff80 001f f000 03ff 0000     ................
  4195bc:	7ffc 0000 ff00 001f 0000 03ff 00f8 7f00     ................
  4195cc:	f800 0000 ffff 00ff ff00 ffff 0000 ffff     ................
  4195dc:	00ff ff00 ffff 0000 ffff 00ff 1f00 f800     ................
  4195ec:	0000 001f 00f8 0000 0000 0000 0000 0000     ................
	...
  419604:	0000 1f00 f800 0000 001f 00f8 ff00 ffff     ................
  419614:	0000 ffff 00ff ff00 ffff 0000 ffff 00ff     ................
  419624:	ff00 ffff 0000 03fe 00f8 f800 f807 0000     ................
  419634:	1ff0 0000 c000 003f 0000 ff80 0000 0000     ......?.........
  419644:	01fe 0000 fc00 0007 0000 0ff0 0000 e01f     ................
  419654:	003f 1f00 7f80 0000 ffff 00ff ff00 ffff     ?...............
  419664:	0000 ffff 00ff ff00 ffff 0000 ffff 00ff     ................
  419674:	1f00 0000 0000 001f 0000 0000 0000 0000     ................
  419684:	0000 0000 0000 00ff 0000 ffc0 0003 f000     ................
  419694:	0fff 0000 fff8 001f fc00 3fff 0000 81fc     ...........?....
  4196a4:	003f 7e00 7e00 0000 003e 007c 3f00 fc00     ?..~.~..>.|..?..
  4196b4:	0000 001f 00f8 1f00 f800 0000 001f 00f8     ................
  4196c4:	1f00 f800 0000 001f 00f8 3f00 fc00 0000     ...........?....
  4196d4:	003e 007c 7e00 7e00 0000 81fc 003f fc00     >.|..~.~....?...
  4196e4:	3fff 0000 fff8 001f f000 0fff 0000 ffc0     .?..............
  4196f4:	0003 0000 00ff 0000 0000 0000 0000 0000     ................
  419704:	0000 0000 0000 1f00 f800 0000 001f 00f8     ................
  419714:	ff00 ffff 0000 ffff 00ff ff00 ffff 0000     ................
  419724:	ffff 00ff ff00 ffff 0000 781f 00f8 1f00     ...........x....
  419734:	f878 0000 781f 0000 1f00 0078 0000 781f     x....x....x....x
  419744:	0000 3f00 007c 0000 7c3f 0000 fe00 003f     ...?|...?|....?.
  419754:	0000 3ffe 0000 fc00 001f 0000 0ff8 0000     ...?............
  419764:	e000 0003 0000 0000 0000 0000 0000 0000     ................
  419774:	fe00 0000 c000 03ff 0000 ffe0 000f f800     ................
  419784:	1fff 0000 fffc 003f fc00 3f81 0000 007e     ......?....?..~.
  419794:	007e 3e00 7c00 0000 003f 00fc 1f00 f800     ~..>.|..?.......
  4197a4:	000f 001f 0ff8 1f00 f800 000f 001f 1ff8     ................
  4197b4:	1f00 f800 001f 003f 3efc 3e00 7c00 003e     ......?..>.>.|>.
  4197c4:	007e 7c7e fc00 3f81 007c fffc 7c3f f800     ~.~|...?|...?|..
  4197d4:	1fff 007e ffe0 3f0f c000 03ff 003f fe00     ..~....?....?...
  4197e4:	1f00 0000 0000 0006 0000 0000 0000 0000     ................
  4197f4:	0000 0000 0000 1f00 f800 0000 001f 00f8     ................
  419804:	ff00 ffff 0000 ffff 00ff ff00 ffff 0000     ................
  419814:	ffff 00ff ff00 ffff 0000 3c1f 00f8 1f00     ...........<....
  419824:	f83c 0000 3c1f 0000 1f00 003c 0000 7c1f     <....<....<....|
  419834:	0000 1f00 00fc 0000 fc1f 001f 3f00 fffe     .............?..
  419844:	0000 ffff 00ff fe00 ffef 0000 c7fc 00ff     ................
  419854:	fc00 fe07 0000 01f0 00f8 0000 f800 0000     ................
  419864:	0000 0000 0000 0f80 0000 81f0 000f f800     ................
  419874:	1f87 0000 8ffc 003f fe00 7f9f 0000 1ffe     ......?.........
  419884:	007e 3f00 fc1f 0000 3e1f 00f8 1f00 f83e     ~..?.....>....>.
  419894:	0000 3e1f 00f8 1f00 f87c 0000 7c1f 00f8     ...>....|....|..
  4198a4:	3f00 fcfc 0000 f8fe 007f fe00 7ff8 0000     .?..............
  4198b4:	f0fc 003f f800 1ff0 0000 c0f0 0007 0000     ..?.............
  4198c4:	0000 0000 00ff 0000 ff00 0000 0000 00ff     ................
  4198d4:	0000 ff00 0000 0000 00ff 0000 0f00 0000     ................
  4198e4:	0000 000f 00f8 0f00 f800 0000 ffff 00ff     ................
  4198f4:	ff00 ffff 0000 ffff 00ff ff00 ffff 0000     ................
  419904:	ffff 00ff 0f00 f800 0000 000f 00f8 0f00     ................
  419914:	0000 0000 00ff 0000 ff00 0000 0000 00ff     ................
  419924:	0000 ff00 0000 0000 00ff 0000 0000 0000     ................
  419934:	0000 0000 0000 1f00 0000 0000 001f 0000     ................
  419944:	ff00 03ff 0000 ffff 000f ff00 1fff 0000     ................
  419954:	ffff 003f ff00 7fff 0000 001f 007e 1f00     ..?.........~...
  419964:	fc00 0000 0000 00f8 0000 f800 0000 0000     ................
  419974:	00f8 0000 f800 0000 001f 00fc 1f00 7e00     ...............~
  419984:	0000 ffff 007f ff00 3fff 0000 ffff 001f     .........?......
  419994:	ff00 0fff 0000 ffff 0003 1f00 0000 0000     ................
  4199a4:	001f 0000 0000 0000 0000 0000 0000 1f00     ................
  4199b4:	0000 0000 001f 0000 7f00 0000 0000 03ff     ................
  4199c4:	0000 ff00 001f 0000 ffff 0000 ff00 07ff     ................
  4199d4:	0000 ffdf 003f 1f00 fffe 0000 f01f 00ff     ....?...........
  4199e4:	0000 ff80 0000 0000 00fc 0000 ff80 0000     ................
  4199f4:	f01f 00ff 1f00 fffe 0000 ffdf 003f ff00     ............?...
  419a04:	07ff 0000 ffff 0000 ff00 001f 0000 03ff     ................
  419a14:	0000 7f00 0000 0000 001f 0000 1f00 0000     ................
  419a24:	0000 0000 0000 1f00 0000 0000 001f 0000     ................
  419a34:	7f00 0000 0000 03ff 0000 ff00 001f 0000     ................
  419a44:	ffff 0001 ff00 0fff 0000 ffdf 007f 1f00     ................
  419a54:	fffc 0000 e01f 00ff 0000 ff00 0000 8000     ................
  419a64:	00ff 0000 fff8 0000 ff80 00ff f800 7fff     ................
  419a74:	0000 ffff 0007 ff00 007f 0000 07ff 0000     ................
  419a84:	ff00 0007 0000 7fff 0000 ff00 07ff 0000     ................
  419a94:	fffc 007f c000 ffff 0000 fc00 00ff 0000     ................
  419aa4:	ff80 0000 0000 00ff 1f00 ffe0 0000 fe1f     ................
  419ab4:	00ff df00 ffff 0000 ffff 000f ff00 01ff     ................
  419ac4:	0000 3fff 0000 ff00 0003 0000 007f 0000     ...?............
  419ad4:	1f00 0000 0000 001f 0000 1f00 0000 0000     ................
  419ae4:	001f 00f0 3f00 f800 0000 007f 00fc ff00     .....?..........
  419af4:	fe00 0000 01ff 00ff ff00 ff83 0000 c7ff     ................
  419b04:	00ff df00 ffef 0000 ff9f 00f7 0000 f3ff     ................
  419b14:	0000 fe00 0001 0000 00ff 0000 ff80 0001     ................
  419b24:	df00 f3ff 0000 efff 00f7 ff00 ffc7 0000     ................
  419b34:	83ff 00ff ff00 ff01 0000 00ff 00fe 7f00     ................
  419b44:	fc00 0000 003f 00f8 1f00 f000 0000 0000     ....?...........
	...
  419b60:	1f00 0000 0000 001f 0000 3f00 0000 0000     ...........?....
  419b70:	007f 0000 ff00 0000 0000 03ff 0000 ff00     ................
  419b80:	0007 0000 0fff 00f8 df00 f83f 0000 ff9f     ..........?.....
  419b90:	00ff 0000 fffe 0000 fc00 00ff 0000 fffe     ................
  419ba0:	0000 ff9f 00ff df00 f87f 0000 1fff 00f8     ................
  419bb0:	ff00 000f 0000 03ff 0000 ff00 0001 0000     ................
  419bc0:	007f 0000 3f00 0000 0000 001f 0000 1f00     .....?..........
	...
  419bd8:	ff00 fc01 0000 01ff 00fe ff00 ff01 0000     ................
  419be8:	81ff 00ff ff00 ffe1 0000 f01f 00ff 1f00     ................
  419bf8:	fbf8 0000 fe1f 00f9 1f00 f8ff 0000 7f9f     ................
  419c08:	00f8 df00 f81f 0000 0fff 00f8 ff00 f807     ................
  419c18:	0000 03ff 00ff ff00 ff00 0000 007f 00ff     ................
  419c28:	3f00 ff00 0000 000f 00ff 0000 0000 0000     .?..............
  419c38:	0000 0000 fff0 ffff f0ff ffff ffff fff0     ................
  419c48:	ffff f0ff ffff ffff 00f0 0000 f0f0 0000     ................
  419c58:	f000 0000 0000 0000 0000 0000 0000 0000     ................
  419c68:	0000 0004 0000 3c00 0000 0000 01fc 0000     .......<........
  419c78:	fc00 000f 0000 7ffc 0000 f800 07ff 0000     ................
  419c88:	ffc0 003f 0000 fffe 0001 f000 0fff 0000     ..?.............
  419c98:	ff80 001f 0000 1ffc 0000 e000 001f 0000     ................
  419ca8:	0000 0000 0000 f000 0000 f000 00f0 0000     ................
  419cb8:	f0f0 ffff ffff fff0 ffff f0ff ffff ffff     ................
  419cc8:	fff0 ffff f0ff ffff ffff 0000 0000 0000     ................
  419cd8:	0000 0000 0000 0010 0000 1c00 0000 0000     ................
  419ce8:	001f 0000 1fc0 0000 f000 001f 0000 1ffc     ................
  419cf8:	0000 ff00 0007 0000 01ff 0000 7f00 0000     ................
  419d08:	0000 001f 0000 ff00 0000 0000 1fff 0000     ................
  419d18:	ff00 001f 0000 1fff 0000 fe00 001f 0000     ................
  419d28:	1fc0 0000 0000 0018 0000 0000 0000 0000     ................
  419d38:	0000 001e 0000 1e00 0000 0000 001e 0000     ................
  419d48:	1e00 0000 0000 001e 0000 1e00 0000 0000     ................
  419d58:	001e 0000 1e00 0000 0000 001e 0000 1e00     ................
  419d68:	0000 0000 001e 0000 1e00 0000 0000 001e     ................
  419d78:	0000 1e00 0000 0000 001e 0000 1e00 0000     ................
	...
  419d94:	0000 0001 0000 0300 0000 0000 0007 0000     ................
  419da4:	0f00 0000 0000 001f 0000 1e00 0000 0000     ................
  419db4:	001c 0000 1000 0000 0000 0000 0000 0000     ................
  419dc4:	0000 0000 0000 001e 0000 3f0c 0000 9e00     ...........?....
  419dd4:	007f 0000 ffde 0000 df00 00ff 0000 f1df     ................
  419de4:	0000 df00 00f1 0000 f1df 0000 df00 00f1     ................
  419df4:	0000 79df 0000 ff00 00ff 0000 fffe 0000     ...y............
  419e04:	fe00 00ff 0000 fffc 0000 f800 00ff 0000     ................
  419e14:	f800 0000 0000 00f8 0000 0000 0000 0000     ................
  419e24:	0000 0000 0000 8000 000f 0000 0f80 0000     ................
  419e34:	8000 ffff 00ff ff80 ffff 8000 ffff 00ff     ................
  419e44:	ff80 ffff 8000 ffff 00ff 0000 fc3e 0000     ............>...
  419e54:	1f00 00f8 0000 f81f 0000 1f00 00f8 0000     ................
  419e64:	f81f 0000 3f00 00fc 0000 7ffe 0000 fe00     .....?..........
  419e74:	007f 0000 3ffc 0000 f800 001f 0000 07e0     .....?..........
	...
  419e90:	e000 0007 0000 1ff8 0000 fc00 003f 0000     ............?...
  419ea0:	7ffe 0000 fe00 007f 0000 fc3f 0000 1f00     ..........?.....
  419eb0:	00f8 0000 f81f 0000 1f00 00f8 0000 f81f     ................
  419ec0:	0000 1f00 00fc 0000 7c3e 0000 3e00 007c     ........>|...>|.
  419ed0:	0000 3c3e 0000 3e00 001c 0000 003e 0000     ..><...>....>...
	...
  419ee8:	0000 e000 0007 0000 1ff8 0000 fc00 003f     ..............?.
  419ef8:	0000 7ffe 0000 fe00 007f 0000 fc3f 0000     ............?...
  419f08:	3f00 00fc 0000 f81f 0000 1f00 00f8 0000     .?..............
  419f18:	f81f 8000 1f0f 00f8 0f80 fc3e 8000 ffff     ..........>.....
  419f28:	00ff ff80 ffff 8000 ffff 00ff ff80 ffff     ................
  419f38:	8000 ffff 00ff 0000 f800 0000 0000 00f8     ................
	...
  419f58:	e000 0007 0000 1ff8 0000 fc00 003f 0000     ............?...
  419f68:	7ffe 0000 fe00 007f 0000 7ddf 0000 cf00     ...........}....
  419f78:	00f9 0000 f9cf 0000 cf00 00f9 0000 f9cf     ................
  419f88:	0000 cf00 00f9 0000 f9df 0000 fe00 007d     ..............}.
  419f98:	0000 7dfe 0000 fc00 003d 0000 39f8 0000     ...}....=....9..
  419fa8:	e000 0001 0000 0000 0000 0000 0000 0000     ................
  419fb8:	0000 0000 1f00 00f8 0000 f81f 0000 fff8     ................
  419fc8:	00ff fe00 ffff 0000 ffff 00ff ff00 ffff     ................
  419fd8:	8000 ffff 00ff 1f80 f81f 8000 1f0f 00f8     ................
  419fe8:	0f80 001f 8000 000f 0000 0000 0000 0000     ................
  419ff8:	e000 0007 0000 1ff8 0018 fc00 3c3f 0000     ............?<..
  41a008:	7ffe 003c fe00 3c7f 0000 fc3f 007c 3f00     ..<....<..?.|..?
  41a018:	7cfc 0000 f81f 007c 1f00 7cf8 0000 f81f     .|....|....|....
  41a028:	007c 1f00 7cf8 0000 7c3f 007e ff00 3fff     |....|..?|~....?
  41a038:	0000 ffff 003f ff00 1fff 0000 ffff 000f     ....?...........
  41a048:	ff00 03ff 0000 0000 0000 0000 0000 0000     ................
  41a058:	0000 8000 000f 00f8 0f80 f800 8000 ffff     ................
  41a068:	00ff ff80 ffff 8000 ffff 00ff ff80 ffff     ................
  41a078:	8000 ffff 00ff 0000 f83e 0000 1e00 00f8     ........>.......
  41a088:	0000 001f 0000 1f00 0000 0000 001f 0000     ................
  41a098:	3f00 0000 0000 ffff 0000 ff00 00ff 0000     .?..............
  41a0a8:	fffe 0000 fc00 00ff 0000 fff8 0000 0000     ................
  41a0b8:	00f8 0000 f800 0000 0000 0000 0000 0000     ................
	...
  41a0d0:	f81f 0000 1f00 00f8 0f00 ffff 8000 ff1f     ................
  41a0e0:	00ff 1f80 ffff 8000 ff1f 00ff 1f80 ffff     ................
  41a0f0:	0000 000f 00f8 0000 f800 0000 0000 0000     ................
	...
  41a10c:	001f 0070 1f00 7800 0f00 ffff 807f ff1f     ..p....x........
  41a11c:	3fff 1f80 ffff 803f ff1f 1fff 0f00 ffff     .?....?.........
  41a12c:	0007 0000 0000 0000 0000 0000 0000 0000     ................
  41a13c:	0f80 f800 8000 000f 00f8 ff80 ffff 8000     ................
  41a14c:	ffff 00ff ff80 ffff 8000 ffff 00ff ff80     ................
  41a15c:	ffff 0000 e000 00f8 0000 f8e0 0000 f000     ................
  41a16c:	0000 0000 01f8 0000 ff00 0003 0000 0fff     ................
  41a17c:	0000 ff00 003f 0000 7fff 0000 3f00 00ff     ....?........?..
  41a18c:	0000 fe3f 0000 1f00 00f8 0000 f81f 0000     ..?.............
  41a19c:	1f00 00f8 0000 0000 0000 0000 0000 0000     ................
  41a1ac:	0000 8000 000f 00f8 0f80 f800 8000 ffff     ................
  41a1bc:	00ff ff80 ffff 8000 ffff 00ff ff80 ffff     ................
  41a1cc:	8000 ffff 00ff 0000 f800 0000 0000 00f8     ................
	...
  41a1ec:	1f00 00f8 0000 f81f 0000 ff00 00ff 0000     ................
  41a1fc:	ffff 0000 ff00 00ff 0000 ffff 0000 ff00     ................
  41a20c:	00ff 0000 f83e 0000 1f00 00f8 0000 f81f     ....>...........
  41a21c:	0000 1f00 0000 0000 001f 0000 3f00 0000     .............?..
  41a22c:	0000 ffff 0000 fe00 00ff 0000 fffe 0000     ................
  41a23c:	fc00 00ff 0000 fffc 0000 3e00 00f8 0000     ...........>....
  41a24c:	f81e 0000 1f00 0000 0000 001f 0000 3f00     ...............?
  41a25c:	0000 0000 ffff 0000 ff00 00ff 0000 fffe     ................
  41a26c:	0000 fe00 00ff 0000 fff8 0000 0000 00f8     ................
  41a27c:	0000 f800 0000 0000 0000 0000 0000 0000     ................
	...
  41a294:	0000 1f00 00f8 0000 f81f 0000 ff00 00ff     ................
  41a2a4:	0000 ffff 0000 ff00 00ff 0000 ffff 0000     ................
  41a2b4:	ff00 00ff 0000 f83e 0000 1f00 00f8 0000     ......>.........
  41a2c4:	001f 0000 1f00 0000 0000 003f 0000 ff00     ..........?.....
  41a2d4:	00ff 0000 ffff 0000 fe00 00ff 0000 fffe     ................
  41a2e4:	0000 f800 00ff 0000 f800 0000 0000 00f8     ................
	...
  41a304:	e000 0007 0000 1ff8 0000 fc00 003f 0000     ............?...
  41a314:	7ffe 0000 fe00 007f 0000 fc3f 0000 1f00     ..........?.....
  41a324:	00fc 0000 f81f 0000 1f00 00f8 0000 f81f     ................
  41a334:	0000 1f00 00f8 0000 fc3f 0000 fe00 007f     ........?.......
  41a344:	0000 7ffe 0000 fc00 003f 0000 1ff8 0000     ........?.......
  41a354:	e000 0007 0000 0000 0000 0000 0000 0000     ................
  41a364:	0000 0000 1f00 7c00 0000 001f 007c ff00     .......|....|...
  41a374:	7fff 0000 ffff 007f ff00 7fff 0000 ffff     ................
  41a384:	007f ff00 7fff 0000 7c3f 007c 1f00 7cf8     ........?||....|
  41a394:	0000 f81f 0000 1f00 00f8 0000 f81f 0000     ................
  41a3a4:	3f00 00fc 0000 7ffe 0000 fe00 007f 0000     .?..............
  41a3b4:	3ffc 0000 f800 001f 0000 07e0 0000 0000     .?..............
	...
  41a3cc:	e000 0007 0000 1ff8 0000 fc00 003f 0000     ............?...
  41a3dc:	7ffe 0000 fe00 007f 0000 fc3f 0000 3f00     ..........?....?
  41a3ec:	00fc 0000 f81f 0000 1f00 00f8 0000 f81f     ................
  41a3fc:	0000 1f00 7cf8 0000 7c3f 007c ff00 7fff     .....|..?||.....
  41a40c:	0000 ffff 007f ff00 7fff 0000 ffff 007f     ................
  41a41c:	ff00 7fff 0000 0000 007c 0000 7c00 0000     ........|....|..
	...
  41a438:	0000 1f00 00f8 0000 f81f 0000 ff00 00ff     ................
  41a448:	0000 ffff 0000 ff00 00ff 0000 ffff 0000     ................
  41a458:	ff00 00ff 0000 f81e 0000 1f00 00f8 0000     ................
  41a468:	007f 0000 7f00 0000 0000 007f 0000 7f00     ................
  41a478:	0000 0000 007f 0000 0000 0000 0000 0000     ................
  41a488:	0000 3800 003e 0000 3e7c 0000 fe00 003e     ...8>...|>....>.
  41a498:	0000 7efe 0000 ff00 007d 0000 f9df 0000     ...~....}.......
  41a4a8:	9f00 00f9 0000 f99f 0000 9f00 00f9 0000     ................
  41a4b8:	fb9f 0000 be00 00ff 0000 7ffe 0000 7c00     ...............|
  41a4c8:	007f 0000 3f7c 0000 7c00 001e 0000 0000     ....|?...|......
  41a4d8:	0000 0f00 0000 0000 000f 0000 fff0 001f     ................
  41a4e8:	f000 7fff 0000 fff8 007f f800 ffff 0000     ................
  41a4f8:	fffc 00ff 0000 f80f 0000 0f00 00f8 0000     ................
  41a508:	780f 0000 0000 0070 0000 0000 0000 0000     .x....p.........
  41a518:	0000 0000 001f 0000 1f00 0000 0000 0fff     ................
  41a528:	0000 ff00 003f 0000 7fff 0000 ff00 007f     ....?...........
  41a538:	0000 ffff 0000 0000 00fc 0000 f800 0000     ................
  41a548:	0000 00f8 0000 f800 0000 1f00 00f8 0000     ................
  41a558:	7c1f 0000 ff00 00ff 0000 ffff 0000 ff00     .|..............
  41a568:	00ff 0000 ffff 0000 ff00 00ff 0000 f800     ................
  41a578:	0000 0000 00f8 0000 0000 0000 1f00 0000     ................
  41a588:	0000 001f 0000 3f00 0000 0000 01ff 0000     .......?........
  41a598:	ff00 0007 0000 3fff 0000 ff00 00ff 0000     .......?........
  41a5a8:	ffff 0000 1f00 00ff 0000 fc1f 0000 0000     ................
  41a5b8:	00fe 0000 ffdf 0000 ff00 00ff 0000 ffff     ................
  41a5c8:	0000 ff00 001f 0000 03ff 0000 7f00 0000     ................
  41a5d8:	0000 001f 0000 1f00 0000 0000 001f 0000     ................
  41a5e8:	1f00 0000 0000 001f 0000 1f00 0000 0000     ................
  41a5f8:	01ff 0000 ff00 001f 0000 ffff 0000 ff00     ................
  41a608:	00ff 0000 ffff 0000 1f00 00fc 0000 ff9f     ................
  41a618:	0000 e000 00ff 0000 fffc 0000 ff00 001f     ................
  41a628:	0000 01ff 0000 3f00 0000 0000 01ff 0000     .......?........
  41a638:	ff00 000f 0000 7fff 0000 f800 00ff 0000     ................
  41a648:	ffc0 0000 1f00 00fe 0000 ff9f 0000 ff00     ................
  41a658:	00ff 0000 ffff 0000 ff00 00ff 0000 0fff     ................
  41a668:	0000 7f00 0000 0000 001f 0000 1f00 0000     ................
  41a678:	0000 0000 0000 1f00 00f8 0000 f81f 0000     ................
  41a688:	1f00 00f8 0000 fc3f 0000 7f00 00fe 0000     ......?.........
  41a698:	feff 0000 ff00 00ff 0000 ffff 0000 e000     ................
  41a6a8:	0007 0000 07e0 0000 ff00 00ff 0000 ffff     ................
  41a6b8:	0000 ff00 00ff 0000 ffff 0000 7f00 00fe     ................
  41a6c8:	0000 fc3f 0000 1f00 00f8 0000 f81f 0000     ..?.............
  41a6d8:	0000 0000 0000 001f 0000 1f00 0000 0000     ................
  41a6e8:	003f 0000 ff00 7c00 0000 07ff 007c ff00     ?......|....|...
  41a6f8:	7c1f 0000 7fff 007e ff00 7fff 0000 ff00     .|....~.........
  41a708:	007f 0000 7ffc 0000 ff00 007f ff00 7fff     ................
  41a718:	0000 7fff 007c ff00 7c1f 0000 07ff 0000     ....|....|......
  41a728:	ff00 0000 0000 003f 0000 1f00 0000 0000     ......?.........
  41a738:	001f 0000 0000 0000 0000 003f 0000 3f00     ..........?....?
  41a748:	00f0 0000 f83f 0000 3f00 00fe 0000 ff0f     ....?....?......
  41a758:	0000 8f00 00ff 0000 ffef 0000 ff00 00ff     ................
  41a768:	0000 f7ff 0000 ff00 00f1 0000 f0ff 0000     ................
  41a778:	3f00 00fe 0000 fe1f 0000 0f00 00fe 0000     .?..............
  41a788:	fe00 0000 0000 0000 0000 0000 0000 0000     ................
  41a798:	0000 0000 0078 0000 7800 0000 0000 0078     ....x....x....x.
  41a7a8:	0000 7800 0000 ffc0 ffff e00f ffff 1fff     ...x............
  41a7b8:	fff0 ffff f03f ffff 3fff fff0 ffcf f03f     ....?....?....?.
  41a7c8:	0000 3c00 00f0 0000 003c 0000 0000 0000     ...<....<.......
	...
  41a7e4:	f000 ffff 0fff fff0 ffff f00f ffff 0fff     ................
  41a7f4:	fff0 ffff f00f ffff 0fff 0000 0000 0000     ................
	...
  41a810:	0000 00f0 0000 f03c 0000 3c00 fff0 ffcf     ......<....<....
  41a820:	f03f ffff 3fff fff0 ffff e03f ffff 1fff     ?....?....?.....
  41a830:	ffc0 ffff 000f 7c00 0000 0000 0078 0000     .......|....x...
  41a840:	7800 0000 0000 0078 0000 0000 0000 0000     .x....x.........
  41a850:	0000 0000 e000 0000 0000 01f0 0000 f800     ................
  41a860:	0001 0000 0078 0000 7800 0000 0000 0078     ....x....x....x.
  41a870:	0000 f000 0000 0000 00f0 0000 e000 0001     ................
  41a880:	0000 01e0 0000 f000 0001 0000 01f8 0000     ................
  41a890:	f800 0000 0000 0070 0000 0000               ......p.....

0041a89c <ArvoBold_22pt_CharCount>:
  41a89c:	0906 1609 1a12 0613 0a0a 110e 0b08 0b07     ................
  41a8ac:	0c12 0f11 1111 1110 1011 0808 0e0c 110c     ................
  41a8bc:	1520 1614 1415 1712 0b1b 1709 2113 1718      ............!..
  41a8cc:	1714 1216 1614 2116 1616 0912 090b 0f11     .......!........
  41a8dc:	120a 1112 1114 120b 0a14 1509 1f0a 1215     ................
  41a8ec:	1313 1010 140b 1b12 1211 0d10 0d09 000d     ................

0041a8fc <ArvoBold_22pt_Table>:
	...
  41a924:	f800 e1ff 0000 fff8 01f1 f800 f1ff 0001     ................
  41a934:	fff8 01f1 f800 e1ff 0000 0000 0000 0000     ................
	...
  41a94c:	f800 0003 0000 03f8 0000 f800 0001 0000     ................
  41a95c:	0000 0000 f800 0003 0000 03f8 0000 f800     ................
  41a96c:	0001 0000 0000 0000 0000 0000 0000 0000     ................
  41a97c:	001e 0000 de0e 0001 0f00 01fe 0000 ffff     ................
  41a98c:	0001 ffc0 01ff f800 3fff 0000 fff8 001f     .........?......
  41a99c:	f800 1e0f 0000 0f38 001e 0000 1e0f 0000     ......8.........
  41a9ac:	0f00 01de 0000 fe0f 0001 ff00 01ff c000     ................
  41a9bc:	ffff 0001 fff8 007f f800 1fff 0000 0ff8     ................
  41a9cc:	001e 3800 0e0f 0000 0f00 0000 0000 0000     ...8............
	...
  41a9e8:	0000 001e 0000 1e3c 0000 7e00 001e 0000     ......<....~....
  41a9f8:	3e7e 0000 ff00 003e 0000 7cef 0000 cff8     ~>....>....|....
  41aa08:	0ff8 f800 f9cf 000f cff8 0ff9 f800 f98f     ................
  41aa18:	000f 9f00 0079 0000 7fbf 0000 be00 003f     ....y.........?.
  41aa28:	0000 3f3e 0000 3e00 000e 0000 003e 0000     ..>?...>....>...
	...
  41aa4c:	0780 0000 c000 001f 0000 1fe0 0100 f000     ................
  41aa5c:	803e 0001 3cf0 01e0 7000 f838 0001 3cf0     >....<...p8....<
  41aa6c:	01fc f000 ff3e 0000 9fe0 003f c000 0fef     ....>.....?.....
  41aa7c:	0000 f780 0007 0000 3dfc 0000 ff00 00fe     .........=......
  41aa8c:	8000 ff3f 0000 9fe0 01f7 f000 e787 0001     ..?.............
  41aa9c:	81f8 01c3 f800 e780 0001 8038 01f7 1800     ..........8.....
  41aaac:	ff00 0000 0000 007e 0000 3c00 0000 0000     ......~....<....
	...
  41aac4:	0000 001f 8000 7f8f 0000 dfc0 00ff e000     ................
  41aad4:	ffff 0000 fff0 01f1 f000 e0f9 0001 f0f0     ................
  41aae4:	01e1 f000 e3f0 0001 f9f0 01f7 f000 ffff     ................
  41aaf4:	0001 ffe0 00ff c000 ff9f 0000 0f80 007f     ................
  41ab04:	0000 7fc0 0000 c000 00ff 0000 ffc0 0001     ................
  41ab14:	c000 01f1 0000 e000 0000 0000 0000 f800     ................
  41ab24:	0003 0000 03f8 0000 f800 0003 0000 0078     ..............x.
	...
  41ab44:	0000 f800 001f 8000 ffff 0001 fff0 0fff     ................
  41ab54:	fc00 ffff 003f 07fe 7fe0 ff00 0000 00ff     ....?...........
  41ab64:	003e 7c00 0c00 0000 0030 0000 2000 0c00     >..|....0.... ..
  41ab74:	0000 0030 003e 7c00 ff00 0000 00ff 07fe     ..0.>..|........
  41ab84:	7fe0 fc00 ffff 003f fff0 0fff 8000 ffff     ......?.........
  41ab94:	0001 f800 001f 0000 0000 0000 0000 0000     ................
  41aba4:	c000 0000 0000 08e0 0000 e000 001d 0000     ................
  41abb4:	3fe0 0000 fc00 001f 0000 0ffc 0000 fc00     .?..............
  41abc4:	000f 0000 1ffc 0000 e000 003f 0000 1de0     ..........?.....
  41abd4:	0000 e000 0008 0000 00c0 0000 0000 0000     ................
	...
  41abf0:	8000 0007 0000 0780 0000 8000 0007 0000     ................
  41ac00:	0780 0000 8000 0007 0000 fffc 0000 fc00     ................
  41ac10:	00ff 0000 fffc 0000 fc00 00ff 0000 0780     ................
  41ac20:	0000 8000 0007 0000 0780 0000 8000 0007     ................
  41ac30:	0000 0780 0000 0000 0000 0000 0000 0030     ..............0.
  41ac40:	0000 7e00 0000 e000 007f 0000 3fe0 0000     ...~.........?..
  41ac50:	c000 000f 0000 03c0 0000 8000 0000 0000     ................
	...
  41ac68:	8000 0007 0000 0780 0000 8000 0007 0000     ................
  41ac78:	0780 0000 8000 0007 0000 0780 0000 8000     ................
  41ac88:	0007 0000 0780 0000 8000 0007 0000 0000     ................
	...
  41aca0:	e000 0000 0000 01f0 0000 f000 0001 0000     ................
  41acb0:	01f0 0000 e000 0000 0000 0000 0000 0000     ................
  41acc0:	0000 0000 0100 0000 e000 0001 0000 01fc     ................
  41acd0:	0000 ff80 0001 e000 00ff 0000 1ffc 0000     ................
  41ace0:	ff80 0007 f000 00ff 0000 1ff8 0000 f800     ................
  41acf0:	0003 0000 0000 0000 0000 07fc 0000 ff00     ................
  41ad00:	001f c000 7fff 0000 ffe0 00ff e000 f803     ................
  41ad10:	0000 01f0 01f0 f000 e000 0001 00f0 01e0     ................
  41ad20:	f000 e000 0001 00f0 01e0 f000 f001 0001     ................
  41ad30:	03e0 00f8 e000 ffff 0000 ffc0 007f 0000     ................
  41ad40:	1fff 0000 fc00 0007 0000 0000 0000 0000     ................
  41ad50:	0000 8000 000f 0000 0fc0 01e0 c000 e007     ................
  41ad60:	0001 ffe0 01ff f000 ffff 0001 fff0 01ff     ................
  41ad70:	f000 ffff 0001 0000 01e0 0000 e000 0001     ................
	...
  41ad94:	0300 01e0 c000 f003 0001 03e0 01f8 e000     ................
  41ada4:	fc03 0001 01f0 01fe f000 ff00 0001 80f0     ................
  41adb4:	01ef f000 e7c0 0001 e0f0 01e3 f000 e1f1     ................
  41adc4:	0001 ffe0 01e0 e000 e07f 0001 3fc0 01e0     .............?..
  41add4:	0000 e01f 0001 0000 0000 0000 1c07 0000     ................
  41ade4:	07c0 007c e000 fc07 0000 07e0 00fc f000     ..|.............
  41adf4:	f001 0001 f0f0 01e0 f000 e0f0 0001 f0f0     ................
  41ae04:	01e0 f000 e0f0 0001 f9f0 01f1 e000 ffff     ................
  41ae14:	0000 ffe0 007f c000 3fdf 0000 8f00 001f     .........?......
  41ae24:	0000 0000 0000 8000 000f 0000 0fc0 0000     ................
  41ae34:	f000 000f 0000 0ff8 0000 fe00 000f 0000     ................
  41ae44:	0f7f 0000 1fc0 000f e000 0f0f 0000 03f0     ................
  41ae54:	01ef f000 ef01 0001 f070 01ff 3000 fff0     ........p....0..
  41ae64:	0001 f000 01ff 0000 fff0 0001 0000 01ef     ................
  41ae74:	0000 ef00 0001 0000 000f 0000 0000 0000     ................
  41ae84:	0000 0000 f000 383f 0000 3ff0 007c f000     ......?8...?|...
  41ae94:	fc3f 0000 3ff0 00f8 f000 f03c 0001 3cf0     ?....?....<....<
  41aea4:	01e0 f000 e03c 0001 3cf0 01e0 f000 f03c     ....<....<....<.
  41aeb4:	0001 fcf0 00f8 f000 fff8 0000 f8f0 007f     ................
  41aec4:	f000 3fe0 0000 c000 000f 0000 0000 0000     ...?............
  41aed4:	0000 0000 0000 0f80 0000 e000 003f 0000     ............?...
  41aee4:	7ff8 0000 fc00 00ff 0000 f87f 0001 3fc0     ...............?
  41aef4:	01e0 e000 e03f 0001 3ff0 01e0 f000 e03d     ....?....?....=.
  41af04:	0001 fc70 00f8 3000 fff8 0000 f800 007f     ..p....0........
  41af14:	0000 3fe0 0000 c000 000f 0000 0000 0000     ...?............
  41af24:	0000 0000 f000 000f 0000 0ff0 0000 f000     ................
  41af34:	000f 0000 0ff0 01e0 f000 f000 0001 00f0     ................
  41af44:	01fc f000 ff00 0001 e0f0 01ff f000 fff8     ................
  41af54:	0001 fef0 01e3 f000 00ff 0000 3ff0 0000     .............?..
  41af64:	f000 000f 0000 03f0 0000 7000 0000 0000     ...........p....
	...
  41af84:	1e00 0000 8f00 003f c000 7fdf 0000 ffe0     ......?.........
  41af94:	00ff e000 f1ff 0001 f9f0 01e0 f000 e0f0     ................
  41afa4:	0001 f0f0 01e0 f000 e0f0 0001 f9f0 01f1     ................
  41afb4:	e000 ffff 0000 ffe0 007f c000 3fdf 0000     .............?..
  41afc4:	0f00 001f 0000 0000 0000 0000 0000 0000     ................
  41afd4:	0000 0000 3f00 0000 8000 007f 0000 ffc0     .....?..........
  41afe4:	0000 e000 01ff 0001 e1f0 01c3 f000 f3c0     ................
  41aff4:	0001 c0f0 01ff f000 ffc0 0001 c0f0 007f     ................
  41b004:	f000 1fe1 0000 ffe0 0007 c000 01ff 0000     ................
  41b014:	7f80 0000 0000 001f 0000 0000 0000 0000     ................
  41b024:	e038 0000 7c00 01f0 0000 f07c 0001 7c00     8....|....|....|
  41b034:	01f0 0000 e038 0000 0000 0000 0000 0000     ....8...........
  41b044:	0000 0000 1e00 0000 c038 003f 7c00 3fe0     ........8.?..|.?
  41b054:	0000 e07c 001f 7c00 01e0 0000 0038 0000     ..|....|....8...
	...
  41b06c:	0000 e000 0007 0000 07f0 0000 f000 0007     ................
  41b07c:	0000 0ff0 0000 f000 000f 0000 0ff8 0000     ................
  41b08c:	f800 001e 0000 1e78 0000 7800 001e 0000     ......x....x....
  41b09c:	3e7c 0000 3c00 003c 0000 0000 0000 0000     |>...<<.........
  41b0ac:	0000 0000 0f3c 0000 3c00 000f 0000 0f3c     ....<....<....<.
  41b0bc:	0000 3c00 000f 0000 0f3c 0000 3c00 000f     ...<....<....<..
  41b0cc:	0000 0f3c 0000 3c00 000f 0000 0f3c 0000     ..<....<....<...
  41b0dc:	3c00 000f 0000 0f3c 0000 3c00 000f 0000     .<....<....<....
	...
  41b0f4:	0000 3c3c 0000 7c00 003e 0000 1e78 0000     ..<<...|>...x...
  41b104:	7800 001e 0000 1ef8 0000 f800 000f 0000     .x..............
  41b114:	0ff0 0000 f000 000f 0000 07f0 0000 f000     ................
  41b124:	0007 0000 07e0 0000 0000 0000 8000 0003     ................
  41b134:	0000 03c0 0000 e000 0003 0000 03e0 0000     ................
  41b144:	f000 e781 0000 c0f0 01f7 f000 f7c0 0001     ................
  41b154:	e0f0 01f7 f000 e0f0 0000 79f0 0000 e000     ...........y....
  41b164:	003f 0000 3fe0 0000 c000 001f 0000 0f80     ?....?..........
	...
  41b190:	c000 001f 0000 fff8 0000 fe00 03ff 0000     ................
  41b1a0:	ffff 0007 3f80 0fe0 c000 800f 001f 83e0     .....?..........
  41b1b0:	3e0f e000 3fe1 003c f1f0 7c7f f000 fff8     .>...?<....|....
  41b1c0:	0078 fcf8 f8f8 7800 e07c 00f1 3c78 f1e0     x......x|...x<..
  41b1d0:	7800 e03c 00f1 3c78 f1e0 7800 f07c 00f1     .x<...x<...x|...
  41b1e0:	fc78 f8ff f000 fffc 0078 fcf0 79ff f000     x.......x....y..
  41b1f0:	fffd 0039 03e0 31e0 c000 e007 0001 1fc0     ..9....1........
  41b200:	01f0 8000 ffff 0000 fe00 007f 0000 3ffc     ...............?
  41b210:	0000 e000 000f 0000 0000 0000 0000 0000     ................
  41b220:	0000 e000 0001 0000 01e0 0000 f800 0001     ................
  41b230:	0000 01ff 0000 ffe0 0001 fc00 01ff 8000     ................
  41b240:	efff 0001 fff0 01e3 f000 03ff 0000 c7f0     ................
  41b250:	0003 f000 03c0 0000 c7f0 0003 f000 03ff     ................
  41b260:	0000 ffe0 01e3 0000 efff 0001 f800 01ff     ................
  41b270:	0000 ffc0 0001 0000 01fe 0000 f000 0001     ................
  41b280:	0000 01e0 0000 e000 0001 0000 0000 0000     ................
  41b290:	0000 0000 00f0 01e0 f000 e000 0001 fff0     ................
  41b2a0:	01ff f000 ffff 0001 fff0 01ff f000 ffff     ................
  41b2b0:	0001 f0f0 01e0 f000 e0f0 0001 f0f0 01e0     ................
  41b2c0:	f000 e0f0 0001 f0f0 01e0 f000 e0f0 0001     ................
  41b2d0:	f9f0 01f1 e000 ffff 0000 ffe0 00ff c000     ................
  41b2e0:	7fbf 0000 1f00 001f 0000 0000 0000 0000     ................
  41b2f0:	0000 0000 03f8 0000 fe00 000f 8000 1fff     ................
  41b300:	0000 ffc0 003f c000 7e0f 0000 03e0 00f8     ....?....~......
  41b310:	e000 f001 0000 01f0 01f0 f000 e000 0001     ................
  41b320:	00f0 01e0 f000 e000 0001 00f0 01e0 f000     ................
  41b330:	f001 0001 01e0 01f0 e000 f803 0000 07c0     ................
  41b340:	00fc 8000 7c07 0000 0780 003c 8000 1c07     .....|....<.....
  41b350:	0000 0780 0000 0000 0000 0000 0000 0000     ................
  41b360:	f000 e000 0001 00f0 01e0 f000 ffff 0001     ................
  41b370:	fff0 01ff f000 ffff 0001 fff0 01ff f000     ................
  41b380:	e000 0001 00f0 01e0 f000 e000 0001 00f0     ................
  41b390:	01e0 f000 e000 0001 01f0 01f0 e000 f001     ................
  41b3a0:	0000 03e0 00f8 c000 7e0f 0000 ff80 003f     .........~....?.
  41b3b0:	0000 1fff 0000 fe00 000f 0000 03f8 0000     ................
	...
  41b3cc:	0000 f000 e000 0001 00f0 01e0 f000 ffff     ................
  41b3dc:	0001 fff0 01ff f000 ffff 0001 fff0 01ff     ................
  41b3ec:	f000 e0f0 0001 f0f0 01e0 f000 e0f0 0001     ................
  41b3fc:	f0f0 01e0 f000 e0f0 0001 00f0 01e0 f000     ................
  41b40c:	e000 0001 07f0 01fe f000 fe07 0001 07f0     ................
  41b41c:	01fe f000 fe07 0001 0000 0000 0000 0000     ................
  41b42c:	0000 0000 0000 f000 e000 0001 00f0 01e0     ................
  41b43c:	f000 ffff 0001 fff0 01ff f000 ffff 0001     ................
  41b44c:	fff0 01ff f000 e1e0 0001 e0f0 01e1 f000     ................
  41b45c:	01e0 0000 e0f0 0001 f000 01e0 0000 00f0     ................
  41b46c:	0000 f000 0007 0000 07f0 0000 f000 0007     ................
  41b47c:	0000 07f0 0000 0000 0000 0000 f800 0003     ................
  41b48c:	0000 0ffe 0000 ff00 003f 8000 7fff 0000     ........?.......
  41b49c:	0fc0 007e e000 f803 0000 01e0 00f0 f000     ..~.............
  41b4ac:	f001 0001 00f0 01e0 f000 e000 0001 c0f0     ................
  41b4bc:	01e3 f000 e3c0 0001 c1f0 01f3 e000 fbc1     ................
  41b4cc:	0000 c7e0 007f c000 3fc7 0000 c780 01ff     .........?......
  41b4dc:	8000 ffc7 0001 c780 01ff 8000 ffc7 0001     ................
	...
  41b500:	00f0 01e0 f000 e000 0001 fff0 01ff f000     ................
  41b510:	ffff 0001 fff0 01ff f000 ffff 0001 f0f0     ................
  41b520:	01e0 f000 e0f0 0001 f000 0000 0000 00f0     ................
  41b530:	0000 f000 0000 0000 00f0 0000 f000 0000     ................
  41b540:	0000 00f0 0000 f000 0000 f000 e0f0 0001     ................
  41b550:	f0f0 01e0 f000 ffff 0001 fff0 01ff f000     ................
  41b560:	ffff 0001 fff0 01ff f000 e000 0001 00f0     ................
  41b570:	01e0 0000 0000 0000 0000 0000 0000 0000     ................
  41b580:	0000 0000 0000 f000 e000 0001 00f0 01e0     ................
  41b590:	f000 ffff 0001 fff0 01ff f000 ffff 0001     ................
  41b5a0:	fff0 01ff f000 e000 0001 00f0 01e0 0000     ................
	...
  41b5b8:	f000 0000 001c 00f0 1f00 f000 ffff 001f     ................
  41b5c8:	fff0 0fff f000 ffff 0003 fff0 00ff f000     ................
  41b5d8:	0000 0000 00f0 0000 0000 0000 0000 0000     ................
  41b5e8:	0000 f000 e000 0001 00f0 01e0 f000 ffff     ................
  41b5f8:	0001 fff0 01ff f000 ffff 0001 fff0 01ff     ................
  41b608:	f000 e0e0 0001 e0f0 01e0 0000 01f0 0000     ................
  41b618:	f800 0001 0000 03fc 0000 fe00 0007 0000     ................
  41b628:	0f9f 0000 0ff0 001f f000 fe0f 0001 07f0     ................
  41b638:	01fc f000 f803 0001 01f0 01f0 f000 e000     ................
  41b648:	0001 00f0 01e0 0000 e000 0001 0000 0000     ................
  41b658:	0000 0000 0000 00f0 01e0 f000 e000 0001     ................
  41b668:	fff0 01ff f000 ffff 0001 fff0 01ff f000     ................
  41b678:	ffff 0001 00f0 01e0 f000 e000 0001 0000     ................
  41b688:	01e0 0000 e000 0001 0000 01e0 0000 e000     ................
  41b698:	0001 0000 01fe 0000 fe00 0001 0000 01fe     ................
  41b6a8:	0000 fe00 0001 0000 0000 0000 0000 0000     ................
  41b6b8:	0000 0000 f000 e000 0001 00f0 01e0 f000     ................
  41b6c8:	ffff 0001 fff0 01ff f000 ffff 0001 fff0     ................
  41b6d8:	01ff f000 e003 0001 0ff0 01e0 e000 007f     ................
  41b6e8:	0000 ff80 0001 0000 07fe 0000 f000 003f     ..............?.
  41b6f8:	0000 ffc0 0000 0000 01ff 0000 fc00 0001     ................
  41b708:	0000 01fe 0000 ff80 0001 f000 00ff 0000     ................
  41b718:	3ffc 0000 ff80 0003 e000 007f 0000 1ff0     .?..............
  41b728:	0000 f000 e003 0001 fff0 01ff f000 ffff     ................
  41b738:	0001 fff0 01ff f000 ffff 0001 00f0 01e0     ................
  41b748:	f000 e000 0001 0000 0000 0000 0000 0000     ................
  41b758:	0000 0000 f000 e000 0001 00f0 01e0 f000     ................
  41b768:	ffff 0001 fff0 01ff f000 ffff 0001 fff0     ................
  41b778:	01ff e000 e00f 0001 1f80 01e0 0000 007f     ................
  41b788:	0000 fe00 0000 0000 01f8 0000 f000 0007     ................
  41b798:	0000 0fc0 0000 8000 003f f000 7f00 0000     ........?.......
  41b7a8:	00f0 00fc f000 ffff 0001 fff0 01ff f000     ................
  41b7b8:	ffff 0001 fff0 01ff f000 0000 0000 00f0     ................
	...
  41b7d4:	0000 03f8 0000 fe00 000f 0000 1fff 0000     ................
  41b7e4:	ff80 003f c000 7e0f 0000 03e0 00f8 e000     ..?....~........
  41b7f4:	f001 0000 01f0 01f0 f000 e000 0001 00f0     ................
  41b804:	01e0 f000 e000 0001 00f0 01e0 f000 e000     ................
  41b814:	0001 01f0 01f0 e000 f001 0000 03e0 00f8     ................
  41b824:	c000 7e0f 0000 ff80 003f 0000 1fff 0000     ...~....?.......
  41b834:	fe00 000f 0000 03f8 0000 0000 0000 0000     ................
	...
  41b84c:	f000 e000 0001 00f0 01e0 f000 ffff 0001     ................
  41b85c:	fff0 01ff f000 ffff 0001 fff0 01ff f000     ................
  41b86c:	e1e0 0001 e0f0 01e1 f000 01e0 0000 e0f0     ................
  41b87c:	0001 f000 01e0 0000 e0f0 0001 f000 01f1     ................
  41b88c:	0000 ffe0 0000 c000 007f 0000 7fc0 0000     ................
  41b89c:	0000 001f 0000 0000 0000 0000 0000 0000     ................
  41b8ac:	f800 0003 0000 0ffe 0000 ff00 003f 8000     ............?...
  41b8bc:	7fff 0000 0fc0 007e e000 f803 0000 01e0     ......~.........
  41b8cc:	00f0 f000 f001 0001 00f0 1fe0 f000 e000     ................
  41b8dc:	001f 00f0 1fe0 f000 e000 003f 00f0 7fe0     ..........?.....
  41b8ec:	f000 f001 007d 01e0 f8f0 e000 f803 00f0     ....}...........
  41b8fc:	0fc0 f07e 8000 7fff 00f8 ff00 fc3f 0000     ..~.........?...
  41b90c:	0ffe 007c f800 3803 0000 0000 0000 0000     ..|....8........
	...
  41b924:	00f0 01e0 f000 e000 0001 fff0 01ff f000     ................
  41b934:	ffff 0001 fff0 01ff f000 ffff 0001 e0f0     ................
  41b944:	01e1 f000 e1e0 0001 e0f0 0001 f000 01e0     ................
  41b954:	0000 e0f0 0003 f000 07e0 0000 e0f0 003f     ..............?.
  41b964:	f000 fff1 0001 7fe0 01ff e000 fe7f 0001     ................
  41b974:	3fc0 01f8 0000 e00f 0001 0000 01e0 0000     .?..............
  41b984:	0000 0000 0000 001e 0000 1e0f 0000 3fc0     ...............?
  41b994:	003e e000 7e7f 0000 7fe0 00fc f000 f0f9     >....~..........
  41b9a4:	0000 f0f0 01e0 f000 e0f0 0001 f0f0 01e0     ................
  41b9b4:	f000 e1f0 0001 e0f0 01e1 f000 e1e0 0001     ................
  41b9c4:	e1e0 00f3 e000 ffc7 0000 c7c0 007f 8000     ................
  41b9d4:	7f87 0000 0780 001f 0000 0000 0000 03f0     ................
  41b9e4:	0000 f000 0003 0000 03f0 0000 f000 0003     ................
  41b9f4:	0000 00f0 0000 f000 e000 0001 00f0 01e0     ................
  41ba04:	f000 ffff 0001 fff0 01ff f000 ffff 0001     ................
  41ba14:	fff0 01ff f000 e000 0001 00f0 01e0 f000     ................
  41ba24:	0000 0000 00f0 0000 f000 0003 0000 03f0     ................
  41ba34:	0000 f000 0003 0000 03f0 0000 0000 0000     ................
  41ba44:	0000 0000 0000 f000 0000 0000 00f0 0000     ................
  41ba54:	f000 0fff 0000 fff0 003f f000 7fff 0000     ........?.......
  41ba64:	fff0 00ff f000 f800 0000 00f0 01f0 0000     ................
  41ba74:	e000 0001 0000 01e0 0000 e000 0001 0000     ................
  41ba84:	01e0 f000 f000 0001 00f0 00f8 f000 ffff     ................
  41ba94:	0000 fff0 007f f000 3fff 0000 fff0 0007     .........?......
  41baa4:	f000 0000 0000 00f0 0000 0000 0000 0000     ................
  41bab4:	00f0 0000 f000 0000 0000 01f0 0000 f000     ................
  41bac4:	000f 0000 3ff0 0000 f000 00ff 0000 fef0     .....?..........
  41bad4:	0007 f000 1ff8 0000 c000 00ff 0000 ff00     ................
  41bae4:	0001 0000 01fc 0000 f800 0001 0000 01ff     ................
  41baf4:	f000 ffc0 0000 f8f0 003f f000 07fe 0000     ........?.......
  41bb04:	fff0 0001 f000 003f 0000 0ff0 0000 f000     ......?.........
  41bb14:	0001 0000 00f0 0000 f000 0000 0000 00f0     ................
  41bb24:	0000 f000 0000 0000 01f0 0000 f000 000f     ................
  41bb34:	0000 7ff0 0000 f000 03ff 0000 fef0 001f     ................
  41bb44:	f000 7ff0 0000 8000 01ff 0000 fe00 0001     ................
  41bb54:	0000 01fc 0000 ff80 0001 f000 00ff 0000     ................
  41bb64:	1ffe 0000 ffc0 0003 f000 007f 0000 0ff0     ................
  41bb74:	0000 f000 007f 0000 ffe0 0003 0000 1fff     ................
  41bb84:	0000 f800 00ff 0000 ffc0 0001 0000 01fe     ................
  41bb94:	0000 fc00 0001 80f0 01ff f000 fff0 0000     ................
  41bba4:	fef0 001f f000 03ff 0000 7ff0 0000 f000     ................
  41bbb4:	000f 0000 01f0 0000 f000 0000 0000 00f0     ................
  41bbc4:	0000 7000 e000 0001 00f0 01f0 f000 f801     ...p............
  41bbd4:	0001 03f0 01fc f000 fe07 0001 0ff0 01ff     ................
  41bbe4:	f000 ff9f 0001 ff70 01ef 0000 07fe 0000     ......p.........
  41bbf4:	fc00 0003 0000 03fc 0000 fe00 0007 7000     ...............p
  41bc04:	efff 0001 9ff0 01ff f000 ff0f 0001 07f0     ................
  41bc14:	01fe f000 fc03 0001 01f0 01f8 f000 f000     ................
  41bc24:	0001 0070 01e0 0000 0000 0000 0000 0000     ..p.............
  41bc34:	f000 0000 0000 00f0 0000 f000 0001 0000     ................
  41bc44:	03f0 0000 f000 0007 0000 0ff0 0000 f000     ................
  41bc54:	e01f 0001 3ef0 01e0 f000 fffc 0001 f000     .....>..........
  41bc64:	01ff 0000 ffe0 0001 f000 01ff 0000 e0f8     ................
  41bc74:	0001 7cf0 01e0 f000 003e 0000 1ff0 0000     ...|....>.......
  41bc84:	f000 000f 0000 07f0 0000 f000 0003 0000     ................
  41bc94:	01f0 0000 f000 0000 0000 00f0 0000 0000     ................
  41bca4:	0000 0000 07f0 01f0 f000 f807 0001 07f0     ................
  41bcb4:	01fc f000 ff07 0001 80f0 01ff f000 efc0     ................
  41bcc4:	0001 e0f0 01e7 f000 e1f8 0001 fcf0 01e0     ................
  41bcd4:	f000 e07e 0001 3ff0 01e0 f000 e00f 0001     ..~....?........
  41bce4:	07f0 01fe f000 fe03 0001 00f0 01fe 7000     ...............p
  41bcf4:	fe00 0001 0000 0000 0000 0000 0000 ffff     ................
  41bd04:	ffff ff00 ffff 00ff ffff ffff ff00 ffff     ................
  41bd14:	00ff 000f f000 0f00 0000 00f0 0000 0000     ................
  41bd24:	0000 0000 0000 0020 0000 e000 0001 0000     ...... .........
  41bd34:	0fe0 0000 e000 007f 0000 ffc0 0003 0000     ................
  41bd44:	1ffe 0000 f000 00ff 0000 ff80 0007 0000     ................
  41bd54:	1ffc 0000 e000 001f 0000 1f00 0000 0000     ................
  41bd64:	0000 0000 0000 0f00 0000 00f0 000f f000     ................
  41bd74:	ff00 ffff 00ff ffff ffff ff00 ffff 00ff     ................
  41bd84:	ffff ffff 0000 0000 0000 0000 0000 0000     ................
  41bd94:	0040 0000 7000 0000 0000 007c 0000 7f00     @....p....|.....
  41bda4:	0000 c000 007f 0000 1ff0 0000 f000 0007     ................
  41bdb4:	0000 01f0 0000 f000 0001 0000 0ff0 0000     ................
  41bdc4:	f000 003f 0000 7fe0 0000 0000 007f 0000     ..?.............
  41bdd4:	7800 0000 0000 0040 0000 0000 0000 0000     .x....@.........
  41bde4:	0000 003c 0000 3c00 0000 0000 003c 0000     ..<....<....<...
  41bdf4:	3c00 0000 0000 003c 0000 3c00 0000 0000     .<....<....<....
  41be04:	003c 0000 3c00 0000 0000 003c 0000 3c00     <....<....<....<
  41be14:	0000 0000 003c 0000 3c00 0000 0000 003c     ....<....<....<.
  41be24:	0000 3c00 0000 0000 003c 0000 0000 0000     ...<....<.......
  41be34:	0000 0000 0010 0000 3000 0000 0000 0070     .........0....p.
  41be44:	0000 f000 0000 0000 00f0 0000 c000 0000     ................
  41be54:	0000 0080 0000 0000 0000 0000 0000 0000     ................
  41be64:	0000 3c00 0000 3800 00ff 0000 ff38 0000     ...<...8....8...
  41be74:	bc00 01ff 0000 e3bc 0001 bc00 01e3 0000     ................
  41be84:	e3bc 0001 bc00 01e3 0000 f3bc 0001 fc00     ................
  41be94:	01ff 0000 fff8 0001 f800 01ff 0000 ffe0     ................
  41bea4:	0001 0000 01e0 0000 e000 0001 0000 0000     ................
  41beb4:	0000 0000 0000 0078 0000 7800 0000 0000     ......x....x....
  41bec4:	fff8 01ff f800 ffff 0001 fff8 01ff f800     ................
  41bed4:	ffff 0001 7800 01f0 0000 e03c 0001 3c00     .....x....<....<
  41bee4:	01e0 0000 e03c 0001 3c00 01e0 0000 f07c     ....<....<....|.
  41bef4:	0001 f800 00f8 0000 fff8 0000 f000 007f     ................
  41bf04:	0000 3fe0 0000 8000 000f 0000 0000 0000     ...?............
  41bf14:	0000 0000 0000 0f80 0000 e000 003f 0000     ............?...
  41bf24:	7ff0 0000 f800 00ff 0000 f8f8 0000 7c00     ...............|
  41bf34:	01f0 0000 e03c 0001 3c00 01e0 0000 e03c     ....<....<....<.
  41bf44:	0001 3c00 01f0 0000 f07c 0001 7800 00f8     ...<....|....x..
  41bf54:	0000 7878 0000 7800 0070 0000 1078 0000     ..xx...xp...x...
	...
  41bf6c:	0000 8000 000f 0000 3fe0 0000 f000 007f     .........?......
  41bf7c:	0000 fff8 0000 f800 00f8 0000 f07c 0001     ............|...
  41bf8c:	3c00 01e0 0000 e03c 0001 3c00 01e0 7800     .<....<....<...x
  41bf9c:	e03c 0001 7c78 01f0 f800 ffff 0001 fff8     <...x|..........
  41bfac:	01ff f800 ffff 0001 fff8 01ff 0000 e000     ................
  41bfbc:	0001 0000 01e0 0000 0000 0000 0000 0000     ................
  41bfcc:	0000 0000 0000 8000 000f 0000 3fe0 0000     .............?..
  41bfdc:	f000 007f 0000 fff8 0000 7800 00f7 0000     ...........x....
  41bfec:	e73c 0001 3c00 01e7 0000 e73c 0001 3c00     <....<....<....<
  41bffc:	01e7 0000 e73c 0001 7c00 01e7 0000 f7f8     ....<....|......
  41c00c:	0000 f000 00f7 0000 77e0 0000 8000 0007     .........w......
	...
  41c028:	e03c 0001 3c00 01e0 c000 ffff 0001 fff0     <....<..........
  41c038:	01ff f000 ffff 0001 fff8 01ff 7800 e03c     .............x<.
  41c048:	0001 3c78 01e0 7800 003c 0000 0078 0000     ..x<...x<...x...
  41c058:	0000 0000 0000 8000 000f 0000 3fe0 0038     .............?8.
  41c068:	f000 787f 0000 fff8 0078 f800 f8f8 0000     ...x....x.......
  41c078:	f07c 00f1 3c00 f1e0 0000 e03c 00f1 3c00     |....<....<....<
  41c088:	f1e0 0000 e03c 00f1 7c00 78f0 0000 fffc     ....<....|.x....
  41c098:	007f fc00 3fff 0000 fffc 001f fc00 0fff     .....?..........
	...
  41c0b8:	0078 01e0 7800 e000 0001 fff8 01ff f800     x....x..........
  41c0c8:	ffff 0001 fff8 01ff f800 ffff 0001 7800     ...............x
  41c0d8:	01e0 0000 e038 0001 3c00 0000 0000 003c     ....8....<....<.
  41c0e8:	0000 3c00 0000 0000 007c 0000 fc00 01ff     ...<....|.......
  41c0f8:	0000 fff8 0001 f800 01ff 0000 ffe0 0001     ................
  41c108:	0000 01e0 0000 e000 0001 0000 0000 0000     ................
  41c118:	0000 0000 3c00 01e0 0000 e03c 0001 fc70     .....<....<...p.
  41c128:	01ff f800 fffc 0001 fcf8 01ff f800 fffc     ................
  41c138:	0001 0070 01e0 0000 e000 0001 0000 0000     ..p.............
  41c148:	0000 0000 0000 3c00 e000 0000 003c 00f0     .......<....<...
  41c158:	fc70 ffff f800 fffc 007f fcf8 3fff f800     p............?..
  41c168:	fffc 001f 0070 0000 0000 0000 0000 0000     ....p...........
  41c178:	0000 7800 e000 0001 0078 01e0 f800 ffff     ...x....x.......
  41c188:	0001 fff8 01ff f800 ffff 0001 fff8 01ff     ................
  41c198:	0000 e780 0001 8000 01e7 0000 0f80 0000     ................
  41c1a8:	c000 001f 0000 3ffc 0000 fc00 007f 0000     .......?........
  41c1b8:	f9fc 0000 fc00 01f0 0000 e07c 0001 3c00     ..........|....<
  41c1c8:	01e0 0000 e03c 0001 3c00 01e0 0000 0000     ....<....<......
	...
  41c1e4:	0078 01e0 7800 e000 0001 fff8 01ff f800     x....x..........
  41c1f4:	ffff 0001 fff8 01ff f800 ffff 0001 0000     ................
  41c204:	01e0 0000 e000 0001 0000 0000 0000 0000     ................
  41c214:	0000 3c00 01e0 0000 e03c 0001 fc00 01ff     ...<....<.......
  41c224:	0000 fffc 0001 fc00 01ff 0000 fffc 0001     ................
  41c234:	7800 01e0 0000 e03c 0001 3c00 0000 0000     .x....<....<....
  41c244:	003c 0000 3c00 0000 0000 007c 0000 fc00     <....<....|.....
  41c254:	01ff 0000 fff8 0001 f800 01ff 0000 fff0     ................
  41c264:	0001 7000 01e0 0000 e078 0001 3c00 0000     ...p....x....<..
  41c274:	0000 003c 0000 3c00 0000 0000 003c 0000     ..<....<....<...
  41c284:	7c00 0000 0000 fffc 0001 f800 01ff 0000     .|..............
  41c294:	fff8 0001 e000 01ff 0000 e000 0001 0000     ................
  41c2a4:	01e0 0000 0000 0000 0000 0000 0000 e03c     ..............<.
  41c2b4:	0001 3c00 01e0 0000 fffc 0001 fc00 01ff     ...<............
  41c2c4:	0000 fffc 0001 fc00 01ff 0000 e078 0001     ............x...
  41c2d4:	3c00 01e0 0000 003c 0000 3c00 0000 0000     .<....<....<....
  41c2e4:	003c 0000 3c00 0000 0000 007c 0000 fc00     <....<....|.....
  41c2f4:	01ff 0000 fff8 0001 f000 01ff 0000 ffe0     ................
  41c304:	0001 0000 01e0 0000 e000 0001 0000 0000     ................
  41c314:	0000 0000 0000 8000 000f 0000 3fe0 0000     .............?..
  41c324:	f000 007f 0000 fff8 0000 f800 00f8 0000     ................
  41c334:	f07c 0001 3c00 01e0 0000 e03c 0001 3c00     |....<....<....<
  41c344:	01e0 0000 e03c 0001 7c00 01f0 0000 f8f8     ....<....|......
  41c354:	0000 f800 00ff 0000 7ff0 0000 e000 003f     ..............?.
  41c364:	0000 0f80 0000 0000 0000 0000 0000 0000     ................
  41c374:	3c00 f000 0000 003c 00f0 fc00 ffff 0000     .<....<.........
  41c384:	fffc 00ff fc00 ffff 0000 fffc 00ff 7c00     ...............|
  41c394:	f1f0 0000 e03c 00f1 3c00 01e0 0000 e03c     ....<....<....<.
  41c3a4:	0001 3c00 01e0 0000 f07c 0001 f800 00f8     ...<....|.......
  41c3b4:	0000 fff8 0000 f000 007f 0000 3fe0 0000     .............?..
  41c3c4:	8000 000f 0000 0000 0000 0000 0000 0000     ................
  41c3d4:	0f80 0000 e000 003f 0000 7ff0 0000 f800     ......?.........
  41c3e4:	00ff 0000 f8f8 0000 7c00 01f0 0000 e03c     .........|....<.
  41c3f4:	0001 3c00 01e0 0000 e03c 0001 3c00 f1e0     ...<....<....<..
  41c404:	0000 f078 00f0 fc00 ffff 0000 fffc 00ff     ..x.............
  41c414:	fc00 ffff 0000 fffc 00ff 0000 f000 0000     ................
  41c424:	0000 00f0 0000 0000 0000 0000 0000 3c00     ...............<
  41c434:	01e0 0000 e03c 0001 fc00 01ff 0000 fffc     ....<...........
  41c444:	0001 fc00 01ff 0000 fffc 0001 7c00 01e0     .............|..
  41c454:	0000 e038 0001 3c00 0000 0000 003c 0000     ..8....<....<...
  41c464:	fc00 0000 0000 00fc 0000 fc00 0000 0000     ................
  41c474:	00fc 0000 0000 0000 0000 0000 0000 e000     ................
  41c484:	00f8 0000 f9f8 0000 f800 00fb 0000 fbfc     ................
  41c494:	0000 3c00 01f3 0000 e73c 0001 3c00 01e7     ...<....<....<..
  41c4a4:	0000 e73c 0001 3c00 01e7 0000 e77c 0001     ..<....<....|...
  41c4b4:	f800 00fe 0000 fef8 0000 f800 007c 0000     ............|...
  41c4c4:	38f8 0000 0000 0000 0000 003c 0000 3c00     .8........<....<
  41c4d4:	0000 c000 7fff 0000 ffc0 00ff e000 ffff     ................
  41c4e4:	0001 ffe0 01ff 0000 e03c 0001 3c00 01e0     ........<....<..
  41c4f4:	0000 e03c 0000 0000 0000 0000 0000 0000     ..<.............
  41c504:	0000 0000 0000 003c 0000 3c00 0000 0000     ......<....<....
  41c514:	3ffc 0000 fc00 007f 0000 fffc 0000 fc00     .?..............
  41c524:	01ff 0000 f000 0001 0000 01e0 0000 e000     ................
  41c534:	0001 0000 01e0 0000 e03c 0001 3c00 00f0     ........<....<..
  41c544:	0000 fffc 0001 fc00 01ff 0000 fffc 0001     ................
  41c554:	fc00 01ff 0000 e000 0001 0000 01e0 0000     ................
  41c564:	0000 0000 3c00 0000 0000 003c 0000 7c00     .....<....<....|
  41c574:	0000 0000 01fc 0000 fc00 000f 0000 3ffc     ...............?
  41c584:	0000 bc00 00ff 0000 fe3c 0001 0000 01f8     ........<.......
  41c594:	0000 fc00 0001 3c00 01ff 0000 fffc 0000     .......<........
  41c5a4:	fc00 003f 0000 07fc 0000 fc00 0000 0000     ..?.............
  41c5b4:	003c 0000 3c00 0000 0000 003c 0000 3c00     <....<....<....<
  41c5c4:	0000 0000 003c 0000 7c00 0000 0000 07fc     ....<....|......
  41c5d4:	0000 fc00 00ff 0000 fffc 0001 bc00 01ff     ................
  41c5e4:	0000 f83c 0001 0000 01fe 0000 ffc0 0001     ..<.............
  41c5f4:	f800 007f 0000 0ffc 0000 fc00 0001 0000     ................
  41c604:	03fc 0000 fc00 001f 0000 fff8 0000 c000     ................
  41c614:	01ff 0000 fe00 0001 3c00 01f0 0000 ffbc     .........<......
  41c624:	0001 fc00 01ff 0000 fffc 0000 fc00 000f     ................
  41c634:	0000 00fc 0000 3c00 0000 0000 003c 0000     .......<....<...
  41c644:	0000 0000 0000 e03c 0001 3c00 01e0 0000     ......<....<....
  41c654:	e03c 0001 7c00 01f0 0000 f8fc 0001 fc00     <....|..........
  41c664:	01fd 0000 fffc 0001 fc00 01ff 0000 0f80     ................
  41c674:	0000 fc00 01ff 0000 fffc 0001 fc00 01ff     ................
  41c684:	0000 fdfc 0001 fc00 01f8 0000 f07c 0001     ............|...
  41c694:	3c00 01e0 0000 e03c 0001 3c00 0000 0000     .<....<....<....
  41c6a4:	003c 0000 7c00 0000 0000 01fc 00f0 fc00     <....|..........
  41c6b4:	f007 0000 1ffc 00f0 fc00 f87f 0000 ff3c     ..............<.
  41c6c4:	00ff 0000 fff8 0000 f800 00ff 0000 f7fe     ................
  41c6d4:	0000 ffbc 00f1 fc00 f07f 0000 0ffc 0000     ................
  41c6e4:	fc00 0003 0000 007c 0000 3c00 0000 0000     ......|....<....
  41c6f4:	003c 0000 0000 0000 0000 c0fc 0001 fc00     <...............
  41c704:	01e0 0000 f8fc 0001 fc00 01fc 0000 fe3c     ..............<.
  41c714:	0001 bc00 01ff 0000 effc 0001 fc00 01e7     ................
  41c724:	0000 e3fc 0001 fc00 01fc 0000 fc7c 0001     ............|...
  41c734:	1c00 01fc 0000 fc0c 0001 0000 0000 0000     ................
	...
  41c750:	0000 c000 0000 0000 01e0 0000 e000 0001     ................
  41c760:	fc00 ffff 000f fffe 1fff ff00 ffff 003f     ..............?.
  41c770:	3fff 3fff 0f00 0000 003c 000f 3c00 0000     .?.?....<....<..
	...
  41c790:	0000 ff00 ffff 001f ffff 1fff ff00 ffff     ................
  41c7a0:	001f ffff 1fff 0000 0000 0000 0000 0000     ................
	...
  41c7b8:	0000 0f00 0000 003c 000f 3c00 ff00 ff3f     ......<....<..?.
  41c7c8:	003f ffff 3fff fe00 ffff 001f fffc 0fff     ?....?..........
  41c7d8:	0000 01e0 0000 e000 0001 0000 00c0 0000     ................
	...
  41c7f8:	0380 0000 c000 0003 0000 01e0 0000 e000     ................
  41c808:	0001 0000 01e0 0000 c000 0003 0000 03c0     ................
  41c818:	0000 8000 0007 0000 0780 0000 8000 0007     ................
  41c828:	0000 07c0 0000 c000 0003 0000 01c0 0000     ................

0041c838 <ArvoBold_18pt_CharCount>:
  41c838:	0805 1208 150f 0410 0808 0e0c 0906 0905     ................
  41c848:	0a0f 0d0e 0e0e 0e0e 0d0e 0506 0c0a 0e0a     ................
  41c858:	111b 1210 1011 130f 0816 1308 1b10 1314     ................
  41c868:	1310 0f12 1211 1c12 1212 080f 0709 0c0e     ................
  41c878:	0f09 0e0f 0e10 0f09 0910 1107 1909 0f11     ................
  41c888:	1010 0d0d 1108 160f 0f0e 0b0d 0b07 000b     ................

0041c898 <ArvoBold_18pt_Table>:
	...
  41c8b4:	ff00 03cf ff00 03cf ff00 03cf 0000 0000     ................
	...
  41c8d0:	3f00 0000 3f00 0000 1f00 0000 0000 0000     .?...?..........
  41c8e0:	3f00 0000 3f00 0000 1f00 0000 0000 0070     .?...?........p.
  41c8f0:	6000 0370 7000 03f0 f000 03ff fc00 00ff     .`p..p..........
  41c900:	ff00 007f 7f00 0070 7300 0070 7000 0370     ......p..sp..pp.
  41c910:	7000 03f0 7000 03fe f000 01ff fc00 007f     .p...p..........
  41c920:	ff00 0071 7f00 0070 7300 0030 7000 0000     ..q...p..s0..p..
	...
  41c938:	0000 00f0 c000 00f3 e000 00f7 f000 01f7     ................
  41c948:	7000 01e7 7f00 0fce 7f00 0fce ff00 0fce     .p..............
  41c958:	f000 01dd e000 00fd e000 00fd e000 0079     ..............y.
	...
  41c978:	7c00 0000 fe00 0000 ff00 0201 c700 0301     .|..............
  41c988:	c700 03c1 c700 01e1 ff00 00f9 fe00 003c     ..............<.
  41c998:	7c00 001f 8000 00ff e000 01ff f000 03fe     .|..............
  41c9a8:	7c00 038e 1e00 038e 0f00 038e 0300 03fe     .|..............
  41c9b8:	0100 01fc 0000 00f8 0000 0000 0000 0000     ................
  41c9c8:	0000 0078 7800 00fe fe00 01ff fe00 03c7     ..x..x..........
  41c9d8:	cf00 0383 8700 0387 8700 039f cf00 03ff     ................
  41c9e8:	fe00 01ff fe00 01fc f800 00f8 0000 01fe     ................
  41c9f8:	0000 03fe 0000 03ce 0000 0180 3f00 0000     .............?..
  41ca08:	3f00 0000 0f00 0000 0000 0000 0000 0000     .?..............
  41ca18:	8000 01ff f000 0fff fc00 3fff fe00 ff00     ...........?....
  41ca28:	1f00 f800 0e00 7000 0000 0000 0000 0000     .......p........
  41ca38:	0e00 7000 1f00 f800 fe00 7f00 fc00 3fff     ...p...........?
  41ca48:	f000 0fff 8000 01ff 0000 0000 0000 0000     ................
  41ca58:	0e00 0000 ce00 0000 fc00 0000 ff80 0000     ................
  41ca68:	7f80 0000 7f80 0000 fc00 0000 fc00 0000     ................
  41ca78:	ce00 0000 0e00 0000 0000 0000 0000 0000     ................
  41ca88:	0000 000e 0000 000e 0000 000e 0000 000e     ................
  41ca98:	e000 00ff e000 00ff e000 00ff 0000 000e     ................
  41caa8:	0000 000e 0000 000e 0000 000e 0000 0000     ................
  41cab8:	0000 0000 0000 3000 0000 3f00 0000 1f80     .......0...?....
  41cac8:	0000 0780 0000 0000 0000 0000 0000 0000     ................
  41cad8:	0000 001c 0000 001c 0000 001c 0000 001c     ................
  41cae8:	0000 001c 0000 001c 0000 001c 0000 0000     ................
  41caf8:	0000 0000 0000 03c0 0000 03c0 0000 03c0     ................
	...
  41cb10:	0000 0300 0000 03e0 0000 03fc 8000 01ff     ................
  41cb20:	f000 003f fe00 0007 ff00 0000 1f00 0000     ..?.............
  41cb30:	0000 0000 e000 001f f800 007f fe00 01ff     ................
  41cb40:	1e00 01e0 0f00 03c0 0700 0380 0700 0380     ................
  41cb50:	0700 0380 0f00 03c0 1e00 01e0 fe00 01ff     ................
  41cb60:	f800 007f e000 001f 0000 0000 7800 0000     .............x..
  41cb70:	7c00 0380 3e00 0380 fe00 03ff ff00 03ff     .|...>..........
  41cb80:	ff00 03ff 0000 0380 0000 0380 0000 0000     ................
	...
  41cb98:	3800 03c0 3c00 03e0 3e00 03f0 0f00 03f8     .8...<...>......
  41cba8:	0700 03bc 0700 039e 0700 038f 8700 0387     ................
  41cbb8:	cf00 0383 fe00 0381 fc00 0380 7800 0380     .............x..
  41cbc8:	0000 0000 1800 0060 1c00 00e0 1e00 01e0     ......`.........
  41cbd8:	0f00 03c0 0700 0380 8700 0383 8700 0383     ................
  41cbe8:	8700 0383 cf00 01c7 fe00 01ff fc00 00fe     ................
  41cbf8:	7800 007c 0000 0000 0000 000f 8000 000f     .x|.............
  41cc08:	e000 000f f000 000e 7c00 000e 1e00 000e     .........|......
  41cc18:	0f00 038e 0300 038e c100 03ff c000 03ff     ................
  41cc28:	c000 03ff 0000 038e 0000 038e 0000 0000     ................
	...
  41cc40:	ff00 00e1 ff00 01e1 ff00 01e1 c700 03c1     ................
  41cc50:	c700 0381 c700 0381 c700 0381 c700 03c3     ................
  41cc60:	8700 01ff 0700 00ff 0000 007e 0000 0000     ..........~.....
  41cc70:	0000 0000 0000 003c 0000 00ff c000 01ff     ......<.........
  41cc80:	f000 01c3 f800 0381 fe00 0381 cf00 0381     ................
  41cc90:	c700 0381 8100 01c3 8000 01ff 0000 00ff     ................
  41cca0:	0000 003c 0000 0000 3f00 0000 3f00 0000     ..<......?...?..
  41ccb0:	3f00 0380 0700 0380 0700 03e0 0700 03f8     .?..............
  41ccc0:	0700 03ff c700 039f f700 0387 ff00 0000     ................
  41ccd0:	3f00 0000 0f00 0000 0300 0000 0000 0000     .?..............
  41cce0:	0000 0000 7800 007c fc00 00fe fe00 01ff     .....x|.........
  41ccf0:	cf00 01c7 8700 0383 8700 0383 8700 0383     ................
  41cd00:	8700 0383 cf00 01c7 fe00 01ff fc00 00fe     ................
  41cd10:	7800 007c 0000 0000 0000 0000 f000 0001     .x|.............
  41cd20:	fc00 0003 fe00 0007 0e00 030f 0700 03ce     ................
  41cd30:	0700 03ee 0700 03fe 0700 00fe 0e00 003f     ..............?.
  41cd40:	fe00 000f fc00 0003 f800 0000 0000 0000     ................
  41cd50:	c000 03c3 c000 03c3 c000 03c3 0000 0000     ................
  41cd60:	0000 0000 0000 3f00 e000 1f81 e000 0781     .......?........
  41cd70:	e000 0301 0000 0000 0000 001e 0000 001e     ................
  41cd80:	0000 001f 0000 003f 0000 003f 8000 0073     ......?...?...s.
  41cd90:	8000 0073 8000 0073 c000 00e1 0000 0000     ..s...s.........
  41cda0:	0000 0000 c000 0039 c000 0039 c000 0039     ......9...9...9.
  41cdb0:	c000 0039 c000 0039 c000 0039 c000 0039     ..9...9...9...9.
  41cdc0:	c000 0039 c000 0039 c000 0039 0000 0000     ..9...9...9.....
  41cdd0:	c000 00e1 8000 0073 8000 0073 8000 0073     ......s...s...s.
  41cde0:	0000 003f 0000 003f 0000 003f 0000 001e     ..?...?...?.....
  41cdf0:	0000 001e 0000 001e 0000 0000 1c00 0000     ................
  41ce00:	1e00 0000 1e00 0000 0f00 03dc 0700 03df     ................
  41ce10:	0700 03df 8700 0003 c700 0001 fe00 0001     ................
  41ce20:	fe00 0000 7800 0000 0000 0000 0000 0000     .....x..........
	...
  41ce38:	0000 00ff c000 03ff e000 07ff f800 1f81     ................
  41ce48:	7c00 3e00 3c00 3c3c 1e00 78ff 8e00 71ff     .|.>.<<<...x...q
  41ce58:	8f00 f1c3 c700 e381 c700 e381 c700 e381     ................
  41ce68:	c700 e381 c700 e1c3 cf00 f1ff ce00 73ff     ...............s
  41ce78:	de00 73ff 1c00 0380 3c00 0380 f800 03c0     ...s.....<......
	...
  41ce9c:	0000 0380 0000 03c0 0000 03f8 0000 03ff     ................
  41ceac:	e000 03bf f800 038f ff00 000e 1f00 000e     ................
  41cebc:	0700 000e 7f00 000e ff00 038f f800 039f     ................
  41cecc:	8000 03ff 0000 03fc 0000 03e0 0000 0380     ................
	...
  41cee4:	0700 0380 0700 0380 ff00 03ff ff00 03ff     ................
  41cef4:	ff00 03ff 8700 0383 8700 0383 8700 0383     ................
  41cf04:	8700 0383 8700 0383 cf00 03c7 fe00 01ff     ................
  41cf14:	fc00 00ff f800 007c 0000 0000 0000 0000     ......|.........
  41cf24:	c000 000f f000 003f fc00 007f 3e00 00f0     ......?......>..
  41cf34:	1e00 01e0 0f00 01c0 0700 0380 0700 0380     ................
  41cf44:	0700 0380 0700 0380 0f00 03c0 1e00 01e0     ................
  41cf54:	3c00 01f0 3800 00f0 3800 0070 3800 0030     .<...8...8p..80.
  41cf64:	0000 0000 0700 0380 0700 0380 ff00 03ff     ................
  41cf74:	ff00 03ff ff00 03ff 0700 0380 0700 0380     ................
  41cf84:	0700 0380 0700 0380 0f00 03c0 0e00 01c0     ................
  41cf94:	1e00 01e0 7c00 00f8 f800 007f f000 003f     .....|........?.
  41cfa4:	c000 000f 0000 0000 0000 0000 0700 0380     ................
  41cfb4:	0700 0380 ff00 03ff ff00 03ff ff00 03ff     ................
  41cfc4:	8700 0383 8700 0383 8700 0383 8700 0383     ................
  41cfd4:	8700 0383 0700 0380 3f00 03f0 3f00 03f0     .........?...?..
  41cfe4:	3f00 03f0 0000 0000 0000 0000 0700 0380     .?..............
  41cff4:	0700 0380 ff00 03ff ff00 03ff ff00 03ff     ................
  41d004:	8700 0383 8700 0383 8700 0003 8700 0003     ................
  41d014:	8700 0003 0700 0000 1f00 0000 1f00 0000     ................
  41d024:	1f00 0000 0000 0000 c000 000f f000 003f     ..............?.
  41d034:	f800 00ff 7c00 00f0 1e00 01e0 0e00 01c0     .....|..........
  41d044:	0700 0380 0700 0380 0700 0380 0700 0387     ................
  41d054:	0700 0387 0e00 03c7 1e00 01e7 3c00 01f7     .............<..
  41d064:	3800 00ff 3800 03ff 3800 03ff 0000 0000     .8...8...8......
  41d074:	0000 0000 0700 0380 0700 0380 ff00 03ff     ................
  41d084:	ff00 03ff ff00 03ff 8700 0383 8700 0383     ................
  41d094:	8000 0003 8000 0003 8000 0003 8000 0003     ................
  41d0a4:	8000 0003 8000 0003 8700 0383 8700 0383     ................
  41d0b4:	ff00 03ff ff00 03ff ff00 03ff 0700 0380     ................
  41d0c4:	0700 0380 0000 0000 0000 0000 0700 0380     ................
  41d0d4:	0700 0380 ff00 03ff ff00 03ff ff00 03ff     ................
  41d0e4:	0700 0380 0700 0380 0000 0000 0700 0c00     ................
  41d0f4:	0700 0f00 ff00 0fff ff00 07ff ff00 01ff     ................
  41d104:	0700 0000 0700 0000 0000 0000 0700 0380     ................
  41d114:	0700 0380 ff00 03ff ff00 03ff ff00 03ff     ................
  41d124:	0700 0382 0700 0383 8000 0007 c000 000f     ................
  41d134:	e000 001c 7000 0038 3800 0038 3f00 03f0     .....p8..88..?..
  41d144:	1f00 03e0 0f00 03c0 0700 0380 0700 0380     ................
  41d154:	0700 0000 0000 0000 0700 0380 0700 0380     ................
  41d164:	ff00 03ff ff00 03ff ff00 03ff 0700 0380     ................
  41d174:	0700 0380 0000 0380 0000 0380 0000 0380     ................
  41d184:	0000 0380 0000 03f8 0000 03f8 0000 03f8     ................
	...
  41d19c:	0700 0380 0700 0380 ff00 03ff ff00 03ff     ................
  41d1ac:	ff00 03ff 3f00 0380 fc00 0000 f800 0003     .....?..........
  41d1bc:	e000 0007 8000 001f 0000 007e 0000 01f8     ..........~.....
  41d1cc:	0000 03e0 0000 03f8 0000 01fe 8000 003f     ..............?.
  41d1dc:	e000 000f f800 0003 fe00 0000 3f00 0380     .............?..
  41d1ec:	ff00 03ff ff00 03ff ff00 03ff 0700 0380     ................
  41d1fc:	0700 0380 0000 0000 0000 0000 0700 0380     ................
  41d20c:	0700 0380 ff00 03ff ff00 03ff fe00 03ff     ................
  41d21c:	fc00 0380 f000 0381 e000 0007 8000 000f     ................
  41d22c:	0000 003f 0000 007c 0700 01f0 0700 03e0     ..?...|.........
  41d23c:	ff00 03ff ff00 03ff ff00 03ff 0700 0000     ................
  41d24c:	0700 0000 0000 0000 0000 0000 c000 000f     ................
  41d25c:	f000 003f f800 007f 3c00 00f0 1e00 01e0     ..?......<......
  41d26c:	0e00 01c0 0700 0380 0700 0380 0700 0380     ................
  41d27c:	0700 0380 0700 0380 0e00 01c0 1e00 01e0     ................
  41d28c:	3c00 00f0 f800 007f f000 003f c000 000f     .<........?.....
	...
  41d2a4:	0700 0380 0700 0380 ff00 03ff ff00 03ff     ................
  41d2b4:	ff00 03ff 0700 0387 0700 0387 0700 0007     ................
  41d2c4:	0700 0007 0700 0007 8f00 0007 fe00 0003     ................
  41d2d4:	fc00 0001 f800 0000 0000 0000 0000 0000     ................
  41d2e4:	c000 000f f000 003f f800 00ff 3c00 00f0     ......?......<..
  41d2f4:	1e00 01e0 0e00 03c0 0700 0380 0700 3f80     ...............?
  41d304:	0700 3f80 0700 3f80 0700 7b80 0e00 f3c0     ...?...?...{....
  41d314:	1e00 e1e0 3c00 e0f0 f800 f0ff f000 703f     .....<........?p
  41d324:	c000 700f 0000 0000 0000 0000 0700 0380     ...p............
  41d334:	0700 0380 ff00 03ff ff00 03ff ff00 03ff     ................
  41d344:	0700 0387 0700 0387 0700 0007 0700 0007     ................
  41d354:	0700 0007 0700 000f 0700 00ff 8f00 03ff     ................
  41d364:	fe00 03f9 fc00 03e1 7800 0380 0000 0000     .........x......
  41d374:	0000 0000 7800 0078 fc00 00f9 fe00 01f9     .....xx.........
  41d384:	cf00 01c3 c700 0383 8700 0387 8700 0387     ................
  41d394:	8700 0387 0700 0387 0e00 01cf 3e00 01ff     .............>..
  41d3a4:	3c00 00fe 3800 007c 0000 0000 3f00 0000     .<...8|......?..
  41d3b4:	3f00 0000 3f00 0000 0700 0000 0700 0380     .?...?..........
  41d3c4:	0700 0380 ff00 03ff ff00 03ff ff00 03ff     ................
  41d3d4:	0700 0380 0700 0380 0700 0000 0700 0000     ................
  41d3e4:	3f00 0000 3f00 0000 3f00 0000 0000 0000     .?...?...?......
  41d3f4:	0700 0000 0700 0000 ff00 001f ff00 007f     ................
  41d404:	ff00 00ff 0700 01e0 0700 03c0 0000 0380     ................
  41d414:	0000 0380 0000 0380 0000 0380 0700 03c0     ................
  41d424:	0700 01e0 ff00 00ff ff00 007f ff00 001f     ................
  41d434:	0700 0000 0700 0000 0700 0000 0700 0000     ................
  41d444:	0f00 0000 7f00 0000 ff00 0003 f700 000f     ................
  41d454:	8700 007f 0000 01fe 0000 03f0 0000 03f0     ................
  41d464:	0000 03fe 8700 007f f700 000f ff00 0003     ................
  41d474:	7f00 0000 0f00 0000 0700 0000 0700 0000     ................
  41d484:	0700 0000 0700 0000 0f00 0000 7f00 0000     ................
  41d494:	ff00 0003 f700 000f c700 007f 0000 01fe     ................
  41d4a4:	0000 03f8 0000 03e0 0000 03fe e000 01ff     ................
  41d4b4:	fe00 001f ff00 0000 ff00 0000 fc00 0007     ................
  41d4c4:	e000 003f 0000 01ff 0000 03f8 0000 03f0     ..?.............
  41d4d4:	0000 01fe 8700 007f f700 001f ff00 0003     ................
  41d4e4:	7f00 0000 0f00 0000 0700 0000 0700 0000     ................
  41d4f4:	0700 0380 0f00 03c0 1f00 03e0 3f00 03f0     .............?..
  41d504:	7f00 03f8 f700 03bc e000 001f c000 000f     ................
  41d514:	c000 000f e000 001f f700 03bc 7f00 03f8     ................
  41d524:	3f00 03f0 1f00 03e0 0f00 03c0 0700 0380     .?..............
	...
  41d53c:	0700 0000 0700 0000 0f00 0000 1f00 0000     ................
  41d54c:	3f00 0000 7f00 0380 f700 0380 c000 03ff     .?..............
  41d55c:	8000 03ff c000 03ff e000 0380 7700 0380     .............w..
  41d56c:	3f00 0000 1f00 0000 0f00 0000 0700 0000     .?..............
  41d57c:	0700 0000 0000 0000 0000 0000 7f00 03e0     ................
  41d58c:	7f00 03f0 7f00 03f8 0700 03de 0700 038f     ................
  41d59c:	c700 0387 e700 0381 f700 0380 3f00 0380     .............?..
  41d5ac:	1f00 0380 0f00 03f0 0f00 03f0 0700 03f0     ................
	...
  41d5c4:	ffe0 ffff ffe0 ffff ffe0 ffff 00e0 e000     ................
  41d5d4:	00e0 e000 0000 0000 0000 0000 0100 0000     ................
  41d5e4:	0f00 0000 7f00 0000 fe00 0001 f800 000f     ................
  41d5f4:	c000 007f 0000 01fe 0000 03f0 0000 03c0     ................
  41d604:	0000 0000 00e0 e000 00e0 e000 ffe0 ffff     ................
  41d614:	ffe0 ffff ffe0 ffff 0000 0000 0000 0000     ................
  41d624:	0000 0001 c000 0001 f000 0001 fc00 0001     ................
  41d634:	3f00 0000 0f00 0000 0f00 0000 3f00 0000     .?...........?..
  41d644:	fe00 0000 f800 0001 c000 0001 0000 0001     ................
  41d654:	0000 0000 0000 3800 0000 3800 0000 3800     .......8...8...8
  41d664:	0000 3800 0000 3800 0000 3800 0000 3800     ...8...8...8...8
  41d674:	0000 3800 0000 3800 0000 3800 0000 3800     ...8...8...8...8
  41d684:	0000 3800 0000 0000 0000 0000 0100 0000     ...8............
  41d694:	0300 0000 0700 0000 0f00 0000 0e00 0000     ................
  41d6a4:	0800 0000 0000 0000 0000 0000 0000 00e0     ................
  41d6b4:	8000 01f1 8000 03f9 c000 0399 c000 0399     ................
  41d6c4:	c000 0399 c000 0399 c000 039b c000 03ff     ................
  41d6d4:	8000 03ff 0000 03ff 0000 0380 0000 0380     ................
  41d6e4:	0000 0000 0700 0000 0700 0000 ff00 03ff     ................
  41d6f4:	ff00 03ff ff00 03ff c000 03c3 c000 0381     ................
  41d704:	c000 0381 c000 0381 c000 0381 8000 01c3     ................
  41d714:	8000 01ff 0000 00ff 0000 003c 0000 0000     ..........<.....
  41d724:	0000 0000 0000 003e 0000 00ff 8000 01ff     ......>.........
  41d734:	8000 01c3 c000 0381 c000 0381 c000 0381     ................
  41d744:	c000 0381 c000 03c3 8000 01e3 8000 00e3     ................
  41d754:	8000 0063 0000 0000 0000 0000 0000 003c     ..c...........<.
  41d764:	0000 00ff 8000 01ff 8000 03c3 c000 0381     ................
  41d774:	c000 0381 c000 0381 c700 0381 c700 03c3     ................
  41d784:	ff00 03ff ff00 03ff ff00 03ff 0000 0380     ................
  41d794:	0000 0380 0000 0000 0000 0000 0000 003c     ..............<.
  41d7a4:	0000 00ff 8000 01ff 8000 01d9 c000 0399     ................
  41d7b4:	c000 0399 c000 0399 c000 0399 c000 0399     ................
  41d7c4:	8000 039f 0000 019f 0000 001e 0000 0000     ................
  41d7d4:	0000 0000 c000 0381 c000 0381 fc00 03ff     ................
  41d7e4:	fe00 03ff ff00 03ff c700 0381 c700 0381     ................
  41d7f4:	0700 0000 0000 0000 0000 003c 0000 60ff     ..........<....`
  41d804:	8000 71ff 8000 f1c3 c000 e381 c000 e381     ...q............
  41d814:	c000 e381 c000 e381 c000 f3c3 c000 7fff     ................
  41d824:	c000 3fff c000 1fff 0000 0000 0000 0000     ...?............
  41d834:	0000 0000 0700 0380 0700 0380 ff00 03ff     ................
  41d844:	ff00 03ff ff00 03ff 8000 0383 c000 0381     ................
  41d854:	c000 0001 c000 0001 c000 0003 c000 03ff     ................
  41d864:	8000 03ff 0000 03ff 0000 0380 0000 0380     ................
  41d874:	0000 0000 c000 0381 c600 0381 cf00 03ff     ................
  41d884:	cf00 03ff cf00 03ff 0600 0380 0000 0380     ................
  41d894:	0000 0000 c000 e001 c000 e001 c600 ffff     ................
  41d8a4:	cf00 7fff cf00 3fff 0f00 0000 0600 0000     .......?........
  41d8b4:	0000 0000 0700 0380 0700 0380 ff00 03ff     ................
  41d8c4:	ff00 03ff ff00 03ff 0000 039c 0000 039c     ................
  41d8d4:	0000 003c 0000 007f 8000 00ff c000 01e7     ..<.............
  41d8e4:	c000 03c3 c000 03c1 c000 03c1 0000 0000     ................
	...
  41d8fc:	0700 0380 0700 0380 ff00 03ff ff00 03ff     ................
  41d90c:	ff00 03ff 0000 0380 0000 0380 0000 0000     ................
  41d91c:	0000 0000 c000 0381 c000 0381 c000 03ff     ................
  41d92c:	c000 03ff c000 03ff 8000 0383 c000 0381     ................
  41d93c:	c000 0001 c000 0001 c000 0003 c000 03ff     ................
  41d94c:	8000 03ff 0000 03ff 8000 0383 c000 0381     ................
  41d95c:	c000 0001 c000 0001 c000 0003 c000 03ff     ................
  41d96c:	8000 03ff 0000 03ff 0000 0380 0000 0380     ................
  41d97c:	0000 0000 c000 0381 c000 0381 c000 03ff     ................
  41d98c:	c000 03ff c000 03ff 8000 0383 c000 0381     ................
  41d99c:	c000 0001 c000 0001 c000 0001 c000 0003     ................
  41d9ac:	c000 03ff 8000 03ff 0000 03ff 0000 0380     ................
  41d9bc:	0000 0380 0000 0000 0000 003c 0000 00ff     ..........<.....
  41d9cc:	8000 01ff 8000 01c3 c000 03c1 c000 0381     ................
  41d9dc:	c000 0381 c000 0381 c000 0381 8000 01c3     ................
  41d9ec:	8000 01ff 0000 00ff 0000 003c 0000 0000     ..........<.....
	...
  41da04:	c000 e001 c000 e001 c000 ffff c000 ffff     ................
  41da14:	c000 ffff c000 e3c3 c000 e381 c000 0381     ................
  41da24:	c000 0381 c000 0381 8000 01c3 8000 01ff     ................
  41da34:	0000 00ff 0000 003c 0000 0000 0000 0000     ......<.........
  41da44:	0000 003c 0000 00ff 8000 01ff 8000 01c3     ..<.............
  41da54:	c000 03c3 c000 0381 c000 0381 c000 0381     ................
  41da64:	c000 e381 c000 e3c3 c000 ffff c000 ffff     ................
  41da74:	c000 ffff 0000 e000 0000 e000 0000 0000     ................
  41da84:	c000 0381 c000 0381 c000 03ff c000 03ff     ................
  41da94:	c000 03ff 8000 0383 c000 0381 c000 0001     ................
  41daa4:	c000 0003 c000 0003 c000 0003 0000 0000     ................
  41dab4:	0000 0000 0000 01c7 8000 01cf c000 01cf     ................
  41dac4:	c000 03dd c000 0399 c000 0399 c000 0399     ................
  41dad4:	c000 03bb 8000 01fb 8000 01f3 8000 00e3     ................
  41dae4:	0000 0000 c000 0001 c000 0001 f800 01ff     ................
  41daf4:	fc00 03ff fc00 03ff c000 0381 c000 0381     ................
  41db04:	0000 0180 c000 0001 c000 0001 c000 007f     ................
  41db14:	c000 01ff c000 01ff 0000 03c0 0000 0380     ................
  41db24:	0000 0380 0000 0380 c000 0381 c000 01c1     ................
  41db34:	c000 03ff c000 03ff c000 03ff 0000 0380     ................
  41db44:	0000 0380 0000 0000 c000 0001 c000 0001     ................
  41db54:	c000 0003 c000 000f c000 003f c000 00fd     ..........?.....
  41db64:	c000 03f1 0000 03c0 0000 03f0 c000 01fd     ................
  41db74:	c000 007f c000 000f c000 0003 c000 0001     ................
  41db84:	c000 0001 c000 0001 c000 0001 c000 0007     ................
  41db94:	c000 001f c000 00ff c000 03fd c000 03e1     ................
  41dba4:	0000 03f8 8000 01ff c000 003f c000 0007     ..........?.....
  41dbb4:	c000 000f c000 007f 0000 03fe 0000 03f0     ................
  41dbc4:	c000 03e1 c000 03fd c000 00ff c000 001f     ................
  41dbd4:	c000 0003 c000 0001 c000 0001 c000 0381     ................
  41dbe4:	c000 0381 c000 03c1 c000 03e3 c000 03f7     ................
  41dbf4:	c000 03ff 0000 003c 0000 003c c000 03ff     ......<...<.....
  41dc04:	c000 03ff c000 03e7 c000 03c3 c000 0381     ................
  41dc14:	c000 0381 c000 0001 c000 0001 c000 0003     ................
  41dc24:	c000 e00f c000 e03f c000 f0fd 0000 fff0     ......?.........
  41dc34:	0000 ffc0 0000 eff0 c000 e3fd c000 007f     ................
  41dc44:	c000 001f c000 0003 c000 0001 c000 0001     ................
  41dc54:	0000 0000 c000 0387 c000 03c7 c000 03f7     ................
  41dc64:	c000 03f9 c000 03fd c000 039f c000 038f     ................
  41dc74:	c000 03e3 c000 03e1 4000 03e0 0000 0000     .........@......
	...
  41dc8c:	0000 0007 0000 0007 0000 0007 ffc0 1fff     ................
  41dc9c:	ffe0 3fff ffe0 3ffd 00e0 3800 00e0 3800     ...?...?...8...8
	...
  41dcb8:	ffe0 ffff ffe0 ffff ffe0 ffff 0000 0000     ................
	...
  41dcd0:	00e0 3800 00e0 3800 ffe0 3ffd ffe0 3fff     ...8...8...?...?
  41dce0:	ffc0 1fff 0000 0007 0000 0007 0000 0007     ................
	...
  41dcfc:	0000 0007 8000 0007 c000 0001 c000 0001     ................
  41dd0c:	c000 0003 8000 0003 8000 0007 0000 0007     ................
  41dd1c:	0000 0007 c000 0003 c000 0001               ............

0041dd28 <Arvo_28pt_CharCount>:
  41dd28:	0c08 1a0c 1f16 061b 0d0d 180f 0d0a 0f08     ................
  41dd38:	1018 1414 1517 1317 1717 0909 1112 1315     ................
  41dd48:	1c2a 1b18 171b 1e16 0e21 1c0c 2817 1d1d     *.......!....(..
  41dd58:	1d17 161a 1c1a 2e1b 181b 0d16 0d11 1316     ................
  41dd68:	140b 1417 1517 160d 0c18 170b 250c 1619     .............%..
  41dd78:	1617 1211 180e 1e14 1514 0d11 0d08 0016     ................

0041dd88 <Arvo_28pt_Table>:
	...
  41ddd0:	f000 003f 0030 f000 ffff 0078 f000 ffff     ..?.0.....x.....
  41dde0:	0078 f000 003f 0030 0000 0000 0000 0000     x...?.0.........
	...
  41de04:	0000 f800 0001 0000 f800 000f 0000 f800     ................
  41de14:	000f 0000 f800 000f 0000 0000 0000 0000     ................
	...
  41de30:	f800 000f 0000 f800 000f 0000 f800 000f     ................
  41de40:	0000 3800 0000 0000 0000 6000 0000 0000     ...8.......`....
  41de50:	7000 0000 0000 700c 0000 0000 700e 0070     .p.....p.....pp.
  41de60:	0000 f00e 007f 0000 f80e 007f 0000 ffce     ................
  41de70:	001f 0000 fffe 0000 c000 7fff 0000 f000     ................
  41de80:	707f 0000 f000 700f 0000 3000 700e 0000     .p.....p...0.p..
  41de90:	0000 700e 0000 0000 700e 0060 0000 700e     ...p.....p`....p
  41dea0:	007f 0000 f00e 007f 0000 ff8e 001f 0000     ................
  41deb0:	7ffe 0000 c000 77ff 0000 f000 703f 0000     .......w....?p..
  41dec0:	f000 700f 0000 3000 700e 0000 0000 700e     ...p...0.p.....p
  41ded0:	0000 0000 000e 0000 0000 000e 0000 0000     ................
	...
  41def8:	0000 0007 0000 03e0 0007 0000 0ff0 0007     ................
  41df08:	0000 0ff8 000f 0000 1e38 001f 0000 1e1c     ........8.......
  41df18:	003c 0000 1c1c 0038 f000 3c1f 0ff8 f000     <.....8....<....
  41df28:	3c1f 0ff8 f000 381f 0ff8 0000 381c 0038     .<.....8.....88.
  41df38:	0000 783c 0038 0000 70f8 001c 0000 f0f0     ..<x8....p......
  41df48:	001f 0000 e0e0 000f 0000 c0e0 0003 0000     ................
	...
  41df6c:	0000 8000 0007 0000 e000 001f 0000 f000     ................
  41df7c:	003f 0000 7000 0078 0040 3800 0070 0060     ?....px.@..8p.`.
  41df8c:	3800 0070 0078 3800 0070 007c 3800 0070     .8p.x..8p.|..8p.
  41df9c:	001f 7000 8038 000f f000 e03f 0003 e000     ...p8.....?.....
  41dfac:	f01f 0001 8000 fc07 0000 0000 3e00 0000     .............>..
  41dfbc:	0000 1f00 0000 0000 07c0 0000 0000 03e0     ................
  41dfcc:	0000 0000 80f8 0007 0000 e07c 001f 0000     ..........|.....
  41dfdc:	f01f 003f 8000 700f 0078 e000 3803 0070     ..?....px....8p.
  41dfec:	f000 3801 0070 7800 3800 0070 3800 3800     ...8p..x.8p..8.8
  41dffc:	0070 0800 7000 0078 0000 f000 003f 0000     p....px.....?...
  41e00c:	e000 001f 0000 8000 0007 0000 0000 0000     ................
	...
  41e034:	0000 e000 0003 0000 f01e 000f 8000 f87f     ................
  41e044:	001f c000 3cff 003c e000 0de1 0038 e000     .....<<.....8...
  41e054:	0fc0 0078 7000 0780 0070 7000 0700 0070     ..x..p..p..p..p.
  41e064:	7000 0f00 0070 7000 1f80 0070 7000 3d80     .p..p..p..p..p.=
  41e074:	0070 e000 78c0 0078 e000 f0e1 003c c000     p....xx.....<...
  41e084:	e07f 003f 8000 c03f 001f 0000 e01f 001f     ..?...?.........
  41e094:	0000 fc00 000f 0000 fc00 001e 0000 3c00     ...............<
  41e0a4:	003c 0000 0400 0078 0000 0000 0070 0000     <.....x.....p...
  41e0b4:	0000 0060 0000 0000 0040 0000 0000 0000     ..`.....@.......
  41e0c4:	0000 0000 0000 f800 0007 0000 f800 0007     ................
  41e0d4:	0000 f800 0007 0000 f800 0000 0000 0000     ................
	...
  41e0fc:	ff80 0003 0000 fff0 001f 0000 fffe 00ff     ................
  41e10c:	8000 00ff 03fe c000 000f 07e0 f000 0003     ................
  41e11c:	1f80 f800 0000 3e00 3c00 0000 7800 1800     .......>.<...x..
  41e12c:	0000 1000 0000 0000 0000 0000 0000 0000     ................
  41e13c:	1800 0000 3000 3c00 0000 7800 f800 0000     .....0.<...x....
  41e14c:	3e00 f000 0001 1f80 c000 000f 07e0 8000     .>..............
  41e15c:	00ff 03fe 0000 fffe 00ff 0000 fff0 001f     ................
  41e16c:	0000 ff80 0003 0000 0000 0000 0000 0000     ................
	...
  41e188:	0000 8000 0000 0000 c000 0001 0000 8000     ................
  41e198:	0021 0000 8000 0071 0000 8000 007b 0000     !.....q.....{...
  41e1a8:	f800 001f 0000 f800 000f 0000 f800 000f     ................
  41e1b8:	0000 8000 001f 0000 8000 007b 0000 8000     ..........{.....
  41e1c8:	0031 0000 c000 0001 0000 8000 0000 0000     1...............
	...
  41e1f0:	0000 0e00 0000 0000 0e00 0000 0000 0e00     ................
  41e200:	0000 0000 0e00 0000 0000 0e00 0000 0000     ................
  41e210:	0e00 0000 0000 0e00 0000 0000 fffe 000f     ................
  41e220:	0000 fffe 000f 0000 fffe 000f 0000 0e00     ................
  41e230:	0000 0000 0e00 0000 0000 0e00 0000 0000     ................
  41e240:	0e00 0000 0000 0e00 0000 0000 0e00 0000     ................
  41e250:	0000 0e00 0000 0000 0e00 0000 0000 0000     ................
	...
  41e270:	0000 0800 0000 0000 1e00 0000 0000 1f80     ................
  41e280:	0000 0000 0fe0 0000 0000 07f0 0000 0000     ................
  41e290:	01f0 0000 0000 00e0 0000 0000 0020 0000     ............ ...
	...
  41e2b8:	3800 0000 0000 3800 0000 0000 3800 0000     .8.....8.....8..
  41e2c8:	0000 3800 0000 0000 3800 0000 0000 3800     ...8.....8.....8
  41e2d8:	0000 0000 3800 0000 0000 3800 0000 0000     .....8.....8....
  41e2e8:	3800 0000 0000 0000 0000 0000 0000 0000     .8..............
	...
  41e308:	0038 0000 0000 007c 0000 0000 007c 0000     8.....|.....|...
  41e318:	0000 0038 0000 0000 0000 0000 0000 0000     ..8.............
	...
  41e330:	0000 0040 0000 0000 0078 0000 0000 007e     ..@.....x.....~.
  41e340:	0000 c000 003f 0000 f000 000f 0000 fe00     ....?...........
  41e350:	0001 0000 7fc0 0000 0000 0ff0 0000 0000     ................
  41e360:	01fe 0000 8000 007f 0000 f000 000f 0000     ................
  41e370:	f800 0003 0000 7800 0000 0000 1800 0000     .......x........
	...
  41e390:	7fe0 0000 0000 fffc 0003 0000 ffff 000f     ................
  41e3a0:	8000 801f 001f c000 0003 003e e000 0001     ..........>.....
  41e3b0:	0038 e000 0000 0078 7000 0000 0070 7000     8.....x..p..p..p
  41e3c0:	0000 0070 7000 0000 0070 7000 0000 0070     ..p..p..p..p..p.
  41e3d0:	7000 0000 0070 7000 0000 0070 f000 0000     .p..p..p..p.....
  41e3e0:	0038 e000 0001 003c e000 0003 001e c000     8.....<.........
  41e3f0:	c00f 001f 8000 ffff 000f 0000 fffe 0003     ................
  41e400:	0000 7ff0 0000 0000 0000 0000 0000 0000     ................
	...
  41e418:	0000 0007 0000 8000 0003 0000 8000 0003     ................
  41e428:	0000 c000 0001 0070 c000 0001 0070 e000     ......p.....p...
  41e438:	0000 0070 e000 ffff 007f f000 ffff 007f     ..p.............
  41e448:	f000 ffff 007f 0000 0000 0070 0000 0000     ..........p.....
  41e458:	0070 0000 0000 0070 0000 0000 0000 0000     p.....p.........
	...
  41e480:	000e 0078 8000 000f 007c c000 000f 007e     ..x.....|.....~.
  41e490:	e000 0001 007f e000 c000 0077 7000 e000     ..........w..p..
  41e4a0:	0073 7000 f000 0070 7000 7c00 0070 7000     s..p..p..p.|p..p
  41e4b0:	3e00 0070 7000 0f00 0070 e000 0780 0070     .>p..p..p.....p.
  41e4c0:	e000 03e1 0070 c000 01ff 0070 8000 007f     ....p.....p.....
  41e4d0:	0070 0000 003e 0070 0000 0000 0000 0000     p...>.p.........
	...
  41e4f0:	0000 0006 0003 8000 0007 000f c000 0007     ................
  41e500:	001f e000 0003 003e e000 0000 0038 f000     ......>.....8...
  41e510:	0000 0078 7000 0000 0070 7000 0380 0070     ..x..p..p..p..p.
  41e520:	7000 0380 0070 7000 0380 0070 f000 0380     .p..p..p..p.....
  41e530:	0070 e000 07c0 0078 e000 06e1 003c c000     p.....x.....<...
  41e540:	1eff 003e 8000 fc7f 001f 0000 f83e 000f     ..>.........>...
  41e550:	0000 f000 0003 0000 0000 0000 0000 0000     ................
	...
  41e570:	7800 0000 0000 7e00 0000 0000 7f00 0000     .x.....~........
  41e580:	0000 7fc0 0000 0000 73f0 0000 0000 70fc     .........s.....p
  41e590:	0000 0000 703f 0000 8000 701f 0000 e000     ....?p.....p....
  41e5a0:	7007 0000 f000 7001 0070 7000 7000 0070     .p.....pp..p.pp.
  41e5b0:	1000 7000 0070 0000 ff80 007f 0000 ff80     ...pp...........
  41e5c0:	007f 0000 ff80 007f 0000 7000 0070 0000     ...........pp...
  41e5d0:	7000 0070 0000 7000 0070 0000 7000 0000     .pp....pp....p..
	...
  41e5fc:	0006 f000 03ff 000f f000 03ff 001f f000     ................
  41e60c:	03ff 003e 7000 01c0 003c 7000 01c0 0078     ..>..p..<..p..x.
  41e61c:	7000 00e0 0070 7000 00e0 0070 7000 00e0     .p..p..p..p..p..
  41e62c:	0070 7000 00e0 0070 7000 00e0 0070 7000     p..p..p..p..p..p
  41e63c:	01e0 0078 7000 01c0 0038 7000 03c0 003c     ..x..p..8..p..<.
  41e64c:	7000 0f80 001f 7000 ff00 000f 7000 fe00     .p.....p.....p..
  41e65c:	0007 0000 f800 0001 0000 0000 0000 0000     ................
	...
  41e678:	f800 0001 0000 fe00 0007 0000 ff80 000f     ................
  41e688:	0000 07c0 001e 0000 03f0 003c 0000 01fc     ..........<.....
  41e698:	0038 0000 00ff 0078 8000 00ef 0070 e000     8.....x.....p...
  41e6a8:	00e7 0070 f000 00e1 0070 7000 00e0 0070     ..p.....p..p..p.
  41e6b8:	1000 00e0 0070 0000 01e0 0078 0000 01c0     ....p.....x.....
  41e6c8:	0038 0000 03c0 003c 0000 0f80 001f 0000     8.....<.........
  41e6d8:	ff80 000f 0000 fe00 0007 0000 f800 0001     ................
	...
  41e6f8:	0000 f000 0001 0000 f000 0001 0000 f000     ................
  41e708:	0001 0070 7000 0000 0070 7000 0000 0078     ..p..p..p..p..x.
  41e718:	7000 0000 007f 7000 e000 007f 7000 f800     .p.....p.....p..
  41e728:	0077 7000 fe00 0070 7000 3fc0 0070 7000     w..p..p..p.?p..p
  41e738:	07f0 0000 7000 01fc 0000 7000 007f 0000     .....p.....p....
  41e748:	f000 000f 0000 f000 0003 0000 f000 0000     ................
  41e758:	0000 3000 0000 0000 0000 0000 0000 0000     ...0............
	...
  41e778:	0000 f000 0003 0000 f81f 000f 8000 fe7f     ................
  41e788:	001f c000 1eff 001e e000 0fe1 003c e000     ............<...
  41e798:	07c0 0038 7000 0380 0070 7000 0380 0070     ..8..p..p..p..p.
  41e7a8:	7000 0380 0070 7000 0380 0070 7000 0380     .p..p..p..p..p..
  41e7b8:	0070 e000 07c0 0038 e000 0fe1 003c c000     p.....8.....<...
  41e7c8:	1eff 001e 8000 fe7f 001f 0000 f81f 000f     ................
  41e7d8:	0000 f000 0003 0000 0000 0000 0000 0000     ................
	...
  41e7fc:	0000 00fc 0000 0000 01ff 0000 8000 07ff     ................
  41e80c:	0000 c000 0783 0000 e000 0f01 0000 e000     ................
  41e81c:	0e00 0000 f000 1e00 0040 7000 1c00 0070     ........@..p..p.
  41e82c:	7000 1c00 0078 7000 1c00 003e 7000 9c00     .p..x..p..>..p..
  41e83c:	001f 7000 dc00 0007 f000 fc00 0003 e000     ...p............
  41e84c:	fe00 0000 e000 3f01 0000 c000 1f83 0000     .......?........
  41e85c:	8000 07ff 0000 0000 03ff 0000 0000 00fc     ................
	...
  41e888:	00e0 0038 0000 01f0 007c 0000 01f0 007c     ..8.....|.....|.
  41e898:	0000 00e0 0038 0000 0000 0000 0000 0000     ....8...........
	...
  41e8b4:	1800 0000 0000 1f00 0000 00e0 1fe0 0000     ................
  41e8c4:	01f0 0ff8 0000 01f0 03f8 0000 00e0 01f8     ................
  41e8d4:	0000 0000 0078 0000 0000 0018 0000 0000     ....x...........
  41e8e4:	0000 0000 1e00 0000 0000 1f00 0000 0000     ................
  41e8f4:	3f00 0000 0000 3f80 0000 0000 7b80 0000     .?.....?.....{..
  41e904:	0000 73c0 0000 0000 f1c0 0000 0000 e1e0     ...s............
  41e914:	0000 0000 e0e0 0000 0000 c0e0 0001 0000     ................
  41e924:	c070 0001 0000 c070 0003 0000 8038 0003     p.....p.....8...
  41e934:	0000 8038 0007 0000 001c 0007 0000 0000     ..8.............
	...
  41e960:	8e00 0003 0000 8e00 0003 0000 8e00 0003     ................
  41e970:	0000 8e00 0003 0000 8e00 0003 0000 8e00     ................
  41e980:	0003 0000 8e00 0003 0000 8e00 0003 0000     ................
  41e990:	8e00 0003 0000 8e00 0003 0000 8e00 0003     ................
  41e9a0:	0000 8e00 0003 0000 8e00 0003 0000 0000     ................
	...
  41e9cc:	001c 0007 0000 8038 0007 0000 8038 0003     ......8.....8...
  41e9dc:	0000 c070 0003 0000 c070 0001 0000 c0e0     ..p.....p.......
  41e9ec:	0001 0000 e0e0 0000 0000 e1e0 0000 0000     ................
  41e9fc:	f1c0 0000 0000 73c0 0000 0000 7b80 0000     .......s.....{..
  41ea0c:	0000 3f80 0000 0000 3f00 0000 0000 1f00     ...?.....?......
  41ea1c:	0000 0000 1e00 0000 0000 0000 0000 0000     ................
	...
  41ea44:	000e 0000 8000 000f 0000 c000 000f 0000     ................
  41ea54:	e000 0003 0000 e000 0000 0038 f000 f800     ..........8.....
  41ea64:	007c 7000 fc00 007c 7000 fe00 0038 7000     |..p..|..p..8..p
  41ea74:	0f00 0000 7000 0380 0000 7000 01c0 0000     .....p.....p....
  41ea84:	f000 01c0 0000 e000 00e1 0000 c000 007f     ................
  41ea94:	0000 c000 003f 0000 0000 001f 0000 0000     ....?...........
	...
  41eabc:	fc00 0003 0000 ff80 001f 0000 ffe0 007f     ................
  41eacc:	0000 03f8 01fc 0000 007c 03e0 0000 003e     ........|.....>.
  41eadc:	07c0 0000 000f 0f00 8000 0007 1e00 8000     ................
  41eaec:	f803 1c01 c000 fe03 3c07 c000 ff01 380f     .........<.....8
  41eafc:	e000 0f80 701f e000 03c0 703c e000 01c0     .....p....<p....
  41eb0c:	7038 7000 01c0 e078 7000 00e0 e070 7000     8p.p..x..p..p..p
  41eb1c:	00e0 e070 7000 00e0 e070 7000 00e0 e070     ..p..p..p..p..p.
  41eb2c:	7000 00e0 e070 7000 01e0 e078 7000 01c0     .p..p..p..x..p..
  41eb3c:	e038 e000 07c0 f03c e000 ffe0 701f e000     8.....<......p..
  41eb4c:	ffe0 703f c000 ffe1 707f c000 0003 30f0     ..?p.....p.....0
  41eb5c:	8000 0003 00e0 8000 0007 00e0 0000 000f     ................
  41eb6c:	00e0 0000 001e 00f0 0000 007c 0078 0000     ..........|.x...
  41eb7c:	03f8 003e 0000 ffe0 001f 0000 ff80 000f     ..>.............
  41eb8c:	0000 fe00 0001 0000 0000 0000 0000 0000     ................
	...
  41eba8:	0070 0000 0000 0070 0000 0000 0070 0000     p.....p.....p...
  41ebb8:	0000 007c 0000 8000 007f 0000 f000 007f     ..|.............
  41ebc8:	0000 fe00 0077 0000 ffc0 0070 0000 3ff8     ....w.....p....?
  41ebd8:	0070 0000 3bff 0000 e000 387f 0000 f000     p....;.....8....
  41ebe8:	380f 0000 f000 3801 0000 3000 3800 0000     .8.....8...0.8..
  41ebf8:	f000 3801 0000 f000 380f 0000 c000 387f     ...8.....8.....8
  41ec08:	0000 0000 3bfe 0000 0000 3ff0 0000 0000     .....;.....?....
  41ec18:	ff80 0070 0000 fc00 0077 0000 e000 007f     ..p.....w.......
  41ec28:	0000 0000 007f 0000 0000 007c 0000 0000     ..........|.....
  41ec38:	0070 0000 0000 0070 0000 0000 0070 0000     p.....p.....p...
  41ec48:	0000 0070 0000 0000 0000 0000 0000 0000     ..p.............
  41ec58:	7000 0000 0070 7000 0000 0070 7000 0000     .p..p..p..p..p..
  41ec68:	0070 f000 ffff 007f f000 ffff 007f f000     p...............
  41ec78:	ffff 007f 7000 0700 0070 7000 0700 0070     .....p..p..p..p.
  41ec88:	7000 0700 0070 7000 0700 0070 7000 0700     .p..p..p..p..p..
  41ec98:	0070 7000 0700 0070 7000 0700 0070 7000     p..p..p..p..p..p
  41eca8:	0700 0070 7000 0700 0070 f000 0f80 0078     ..p..p..p.....x.
  41ecb8:	e000 0f80 0038 e000 1dc3 003e c000 fdff     ....8.....>.....
  41ecc8:	001f 8000 f8ff 000f 0000 e03e 0003 0000     ..........>.....
	...
  41ece4:	1fe0 0000 0000 fff8 0000 0000 fffe 0001     ................
  41ecf4:	0000 e03f 0007 8000 800f 000f c000 0003     ..?.............
  41ed04:	001e c000 0001 001e e000 0001 003c e000     ............<...
  41ed14:	0000 0038 f000 0000 0038 7000 0000 0070     ..8.....8..p..p.
  41ed24:	7000 0000 0070 7000 0000 0070 7000 0000     .p..p..p..p..p..
  41ed34:	0070 7000 0000 0070 7000 0000 0070 f000     p..p..p..p..p...
  41ed44:	0000 0070 e000 0000 0038 e000 0000 0038     ..p.....8.....8.
  41ed54:	e000 0001 003c c000 0003 001e 8000 8007     ....<...........
  41ed64:	000f 8000 8007 0007 0000 8007 0003 0000     ................
  41ed74:	8006 0001 0000 0000 0000 0000 0000 0000     ................
  41ed84:	0000 0000 0000 7000 0000 0070 7000 0000     .......p..p..p..
  41ed94:	0070 7000 0000 0070 f000 ffff 007f f000     p..p..p.........
  41eda4:	ffff 007f f000 ffff 007f 7000 0000 0070     ...........p..p.
  41edb4:	7000 0000 0070 7000 0000 0070 7000 0000     .p..p..p..p..p..
  41edc4:	0070 7000 0000 0070 7000 0000 0070 7000     p..p..p..p..p..p
  41edd4:	0000 0070 7000 0000 0070 e000 0000 0038     ..p..p..p.....8.
  41ede4:	e000 0000 0038 e000 0001 003c c000 0003     ....8.....<.....
  41edf4:	001e 8000 0007 000f 8000 800f 000f 0000     ................
  41ee04:	e03f 0007 0000 fffc 0001 0000 fff8 0000     ?...............
  41ee14:	0000 1fc0 0000 0000 0000 0000 0000 0000     ................
	...
  41ee2c:	7000 0000 0070 7000 0000 0070 7000 0000     .p..p..p..p..p..
  41ee3c:	0070 f000 ffff 007f f000 ffff 007f f000     p...............
  41ee4c:	ffff 007f 7000 0700 0070 7000 0700 0070     .....p..p..p..p.
  41ee5c:	7000 0700 0070 7000 0700 0070 7000 0700     .p..p..p..p..p..
  41ee6c:	0070 7000 0700 0070 7000 0700 0070 7000     p..p..p..p..p..p
  41ee7c:	0700 0070 7000 0700 0070 7000 0000 0070     ..p..p..p..p..p.
  41ee8c:	7000 0000 0070 f000 8007 007f f000 8007     .p..p...........
  41ee9c:	007f f000 8007 007f 0000 0000 0000 0000     ................
	...
  41eeb4:	0000 7000 0000 0070 7000 0000 0070 7000     ...p..p..p..p..p
  41eec4:	0000 0070 f000 ffff 007f f000 ffff 007f     ..p.............
  41eed4:	f000 ffff 007f 7000 0700 0070 7000 0700     .......p..p..p..
  41eee4:	0070 7000 0700 0070 7000 0700 0000 7000     p..p..p..p.....p
  41eef4:	0700 0000 7000 0700 0000 7000 0700 0000     .....p.....p....
  41ef04:	7000 0700 0000 7000 0700 0000 7000 0700     .p.....p.....p..
  41ef14:	0000 f000 0007 0000 f000 0007 0000 f000     ................
  41ef24:	0007 0000 0000 0000 0000 0000 0000 0000     ................
  41ef34:	0000 1fc0 0000 0000 fff8 0000 0000 fffe     ................
  41ef44:	0003 0000 e03f 0007 8000 800f 000f c000     ....?...........
  41ef54:	0003 001e c000 0001 001c e000 0001 003c     ..............<.
  41ef64:	e000 0000 0038 f000 0000 0078 7000 0000     ....8.....x..p..
  41ef74:	0070 7000 0000 0070 7000 0000 0070 7000     p..p..p..p..p..p
  41ef84:	0000 0070 7000 0000 0070 7000 1c00 0070     ..p..p..p..p..p.
  41ef94:	f000 1c00 0070 e000 1c00 0038 e000 1c00     ....p.....8.....
  41efa4:	0038 e000 1c01 001c c000 1c03 001e 8000     8...............
  41efb4:	9c07 000f 0000 fc07 0003 0000 fc07 007f     ................
  41efc4:	0000 fc07 007f 0000 fc00 007f 0000 0000     ................
	...
  41efec:	0000 7000 0000 0070 7000 0000 0070 7000     ...p..p..p..p..p
  41effc:	0000 0070 f000 ffff 007f f000 ffff 007f     ..p.............
  41f00c:	f000 ffff 007f 7000 0380 0070 7000 0380     .......p..p..p..
  41f01c:	0070 7000 0380 0070 0000 0380 0000 0000     p..p..p.........
  41f02c:	0380 0000 0000 0380 0000 0000 0380 0000     ................
  41f03c:	0000 0380 0000 0000 0380 0000 0000 0380     ................
  41f04c:	0000 0000 0380 0000 0000 0380 0000 0000     ................
  41f05c:	0380 0000 0000 0380 0000 7000 0380 0070     ...........p..p.
  41f06c:	7000 0380 0070 7000 0380 0070 f000 ffff     .p..p..p..p.....
  41f07c:	007f f000 ffff 007f f000 ffff 007f 7000     ...............p
  41f08c:	0000 0070 7000 0000 0070 7000 0000 0070     ..p..p..p..p..p.
	...
  41f0b4:	7000 0000 0070 7000 0000 0070 7000 0000     .p..p..p..p..p..
  41f0c4:	0070 f000 ffff 007f f000 ffff 007f f000     p...............
  41f0d4:	ffff 007f 7000 0000 0070 7000 0000 0070     .....p..p..p..p.
  41f0e4:	7000 0000 0070 0000 0000 0000 0000 0000     .p..p...........
	...
  41f10c:	0400 7000 0000 0600 7000 0000 0780 7000     ...p.....p.....p
  41f11c:	0000 07e0 f000 ffff 01ff f000 ffff 00ff     ................
  41f12c:	f000 ffff 003f 7000 0000 0000 7000 0000     ....?..p.....p..
  41f13c:	0000 7000 0000 0000 0000 0000 0000 0000     ...p............
  41f14c:	0000 0000 7000 0000 0070 7000 0000 0070     .....p..p..p..p.
  41f15c:	7000 0000 0070 f000 ffff 007f f000 ffff     .p..p...........
  41f16c:	007f f000 ffff 007f 7000 0780 0070 7000     .........p..p..p
  41f17c:	0780 0070 7000 0780 0070 0000 07c0 0000     ..p..p..p.......
  41f18c:	0000 07e0 0000 0000 0ef0 0000 0000 1c70     ..............p.
  41f19c:	0000 0000 3878 0000 0000 703c 0000 0000     ....x8....<p....
  41f1ac:	e01e 0000 0000 c00e 0001 0000 8007 0003     ................
  41f1bc:	8000 0007 007f f000 0003 007e f000 0001     ..........~.....
  41f1cc:	007c f000 0000 0078 7000 0000 0070 7000     |.....x..p..p..p
  41f1dc:	0000 0070 7000 0000 0070 0000 0000 0000     ..p..p..p.......
	...
  41f1f8:	7000 0000 0070 7000 0000 0070 7000 0000     .p..p..p..p..p..
  41f208:	0070 f000 ffff 007f f000 ffff 007f f000     p...............
  41f218:	ffff 007f 7000 0000 0070 7000 0000 0070     .....p..p..p..p.
  41f228:	7000 0000 0070 0000 0000 0070 0000 0000     .p..p.....p.....
  41f238:	0070 0000 0000 0070 0000 0000 0070 0000     p.....p.....p...
  41f248:	0000 0070 0000 0000 0070 0000 0000 0070     ..p.....p.....p.
  41f258:	0000 0000 0070 0000 8000 007f 0000 8000     ....p...........
  41f268:	007f 0000 8000 007f 0000 0000 0000 0000     ................
	...
  41f288:	7000 0000 0070 7000 0000 0070 7000 0000     .p..p..p..p..p..
  41f298:	0070 f000 ffff 007f f000 ffff 007f f000     p...............
  41f2a8:	ffff 007f f000 0000 0070 f000 0007 0070     ........p.....p.
  41f2b8:	c000 001f 0070 0000 007f 0000 0000 03fc     ....p...........
  41f2c8:	0000 0000 0fe0 0000 0000 3f80 0000 0000     ...........?....
  41f2d8:	fe00 0001 0000 f000 0007 0000 c000 003f     ..............?.
  41f2e8:	0000 0000 007e 0000 0000 0078 0000 0000     ....~.....x.....
  41f2f8:	007e 0000 8000 003f 0000 f000 000f 0000     ~.....?.........
  41f308:	fc00 0001 0000 7f80 0000 0000 1fe0 0000     ................
  41f318:	0000 03fc 0000 0000 00ff 0000 e000 001f     ................
  41f328:	0070 f000 0007 0070 f000 0000 0070 f000     p.....p.....p...
  41f338:	ffff 007f f000 ffff 007f f000 ffff 007f     ................
  41f348:	7000 0000 0070 7000 0000 0070 7000 0000     .p..p..p..p..p..
  41f358:	0070 0000 0000 0000 0000 0000 0000 0000     p...............
	...
  41f370:	0000 7000 0000 0070 7000 0000 0070 7000     ...p..p..p..p..p
  41f380:	0000 0070 f000 ffff 007f f000 ffff 007f     ..p.............
  41f390:	f000 ffff 007f f000 0001 0070 e000 0007     ..........p.....
  41f3a0:	0070 8000 000f 0070 0000 003f 0000 0000     p.....p...?.....
  41f3b0:	00fc 0000 0000 03f0 0000 0000 0fc0 0000     ................
  41f3c0:	0000 1f80 0000 0000 7e00 0000 0000 f800     .........~......
  41f3d0:	0001 0000 e000 0007 0000 8000 000f 7000     ...............p
  41f3e0:	0000 003f 7000 0000 007c 7000 0000 007e     ..?..p..|..p..~.
  41f3f0:	f000 ffff 007f f000 ffff 007f f000 ffff     ................
  41f400:	007f 7000 0000 0000 7000 0000 0000 7000     ...p.....p.....p
	...
  41f41c:	1fc0 0000 0000 fff8 0000 0000 fffe 0003     ................
  41f42c:	0000 e03f 0007 8000 800f 000f c000 0007     ..?.............
  41f43c:	001e c000 0003 001e e000 0001 003c e000     ............<...
  41f44c:	0000 0038 e000 0000 0038 7000 0000 0070     ..8.....8..p..p.
  41f45c:	7000 0000 0070 7000 0000 0070 7000 0000     .p..p..p..p..p..
  41f46c:	0070 7000 0000 0070 7000 0000 0070 7000     p..p..p..p..p..p
  41f47c:	0000 0070 e000 0000 0038 e000 0000 0038     ..p.....8.....8.
  41f48c:	e000 0001 003c c000 0003 001e c000 0007     ....<...........
  41f49c:	001f 8000 800f 000f 0000 e03f 0007 0000     ..........?.....
  41f4ac:	fffe 0003 0000 fff8 0000 0000 1fc0 0000     ................
	...
  41f4cc:	0000 7000 0000 0070 7000 0000 0070 7000     ...p..p..p..p..p
  41f4dc:	0000 0070 f000 ffff 007f f000 ffff 007f     ..p.............
  41f4ec:	f000 ffff 007f 7000 0700 0070 7000 0700     .......p..p..p..
  41f4fc:	0070 7000 0700 0070 7000 0700 0000 7000     p..p..p..p.....p
  41f50c:	0700 0000 7000 0700 0000 7000 0700 0000     .....p.....p....
  41f51c:	7000 0700 0000 f000 0380 0000 e000 0380     .p..............
  41f52c:	0000 e000 03c1 0000 c000 01ff 0000 8000     ................
  41f53c:	00ff 0000 0000 003e 0000 0000 0000 0000     ......>.........
	...
  41f554:	1fc0 0000 0000 fff8 0000 0000 fffe 0003     ................
  41f564:	0000 e03f 0007 8000 800f 000f c000 0007     ..?.............
  41f574:	001e c000 0003 001e e000 0001 003c e000     ............<...
  41f584:	0000 0038 e000 0000 0078 7000 0000 0070     ..8.....x..p..p.
  41f594:	7000 0000 0070 7000 0000 03f0 7000 0000     .p..p..p.....p..
  41f5a4:	03f0 7000 0000 03f0 7000 0000 03f0 7000     ...p.....p.....p
  41f5b4:	0000 07f0 e000 0000 0778 e000 0000 0f38     ........x.....8.
  41f5c4:	e000 0001 0e3c c000 0003 0e1e c000 0007     ....<...........
  41f5d4:	0e1f 8000 800f 0e0f 0000 e03f 0f07 0000     ..........?.....
  41f5e4:	fffe 0783 0000 fff8 0380 0000 1fc0 0180     ................
	...
  41f604:	0000 7000 0000 0070 7000 0000 0070 7000     ...p..p..p..p..p
  41f614:	0000 0070 f000 ffff 007f f000 ffff 007f     ..p.............
  41f624:	f000 ffff 007f 7000 0700 0070 7000 0700     .......p..p..p..
  41f634:	0070 7000 0700 0070 7000 0700 0000 7000     p..p..p..p.....p
  41f644:	0700 0000 7000 0700 0000 7000 0f00 0000     .....p.....p....
  41f654:	7000 0f00 0000 f000 3f80 0000 e000 ff80     .p.......?......
  41f664:	0003 e000 f9c1 001f c000 f1ff 007f 8000     ................
  41f674:	80ff 007f 0000 003e 007c 0000 0000 0070     ......>.|.....p.
  41f684:	0000 0000 0070 0000 0000 0000 0000 0000     ....p...........
	...
  41f6a4:	803e 0003 8000 80ff 0007 c000 80ff 001f     >...............
  41f6b4:	e000 81e1 001f e000 03c0 003c e000 03c0     ..........<.....
  41f6c4:	0038 7000 0380 0078 7000 0780 0070 7000     8..p..x..p..p..p
  41f6d4:	0780 0070 7000 0700 0070 7000 0700 0070     ..p..p..p..p..p.
  41f6e4:	7000 0f00 0070 7000 0f00 0070 e000 0e00     .p..p..p..p.....
  41f6f4:	0038 e000 1e01 0038 c000 3c07 001c c000     8.....8....<....
  41f704:	fc07 001f 8000 f807 000f 0000 e007 0003     ................
	...
  41f720:	f000 0003 0000 f000 0003 0000 f000 0003     ................
  41f730:	0000 7000 0000 0000 7000 0000 0000 7000     ...p.....p.....p
  41f740:	0000 0000 7000 0000 0000 7000 0000 0070     .....p.....p..p.
  41f750:	7000 0000 0070 7000 0000 0070 f000 ffff     .p..p..p..p.....
  41f760:	007f f000 ffff 007f f000 ffff 007f 7000     ...............p
  41f770:	0000 0070 7000 0000 0070 7000 0000 0070     ..p..p..p..p..p.
  41f780:	7000 0000 0000 7000 0000 0000 7000 0000     .p.....p.....p..
  41f790:	0000 7000 0000 0000 7000 0000 0000 f000     ...p.....p......
  41f7a0:	0003 0000 f000 0003 0000 f000 0003 0000     ................
	...
  41f7c0:	0000 7000 0000 0000 7000 0000 0000 7000     ...p.....p.....p
  41f7d0:	0000 0000 f000 7fff 0000 f000 ffff 0003     ................
  41f7e0:	f000 ffff 000f 7000 8000 001f 7000 0000     .......p.....p..
  41f7f0:	001e 7000 0000 0038 0000 0000 0038 0000     ...p..8.....8...
  41f800:	0000 0070 0000 0000 0070 0000 0000 0070     ..p.....p.....p.
  41f810:	0000 0000 0070 0000 0000 0070 0000 0000     ....p.....p.....
  41f820:	0070 0000 0000 0038 7000 0000 0038 7000     p.....8..p..8..p
  41f830:	0000 001c 7000 0000 000f f000 ffff 0007     .....p..........
  41f840:	f000 ffff 0003 f000 7fff 0000 7000 0000     .............p..
  41f850:	0000 7000 0000 0000 7000 0000 0000 7000     ...p.....p.....p
  41f860:	0000 0000 7000 0000 0000 f000 0000 0000     .....p..........
  41f870:	f000 0007 0000 f000 003f 0000 7000 00ff     ........?....p..
  41f880:	0000 7000 07f8 0000 0000 3fc0 0000 0000     ...p.......?....
  41f890:	ff00 0000 0000 f800 0007 0000 e000 001f     ................
  41f8a0:	0000 0000 007f 0000 0000 0078 0000 0000     ..........x.....
  41f8b0:	0078 0000 0000 007f 0000 c000 001f 0000     x...............
  41f8c0:	f000 0007 0000 fe00 0001 0000 3f80 0000     .............?..
  41f8d0:	7000 0fe0 0000 7000 03fc 0000 7000 007f     .p.....p.....p..
  41f8e0:	0000 f000 001f 0000 f000 0007 0000 f000     ................
  41f8f0:	0000 0000 7000 0000 0000 7000 0000 0000     .....p.....p....
  41f900:	0000 0000 0000 7000 0000 0000 7000 0000     .......p.....p..
  41f910:	0000 f000 0001 0000 f000 000f 0000 f000     ................
  41f920:	007f 0000 7000 03ff 0000 7000 1ff0 0000     .....p.....p....
  41f930:	0000 ff80 0000 0000 fc00 0007 0000 e000     ................
  41f940:	003f 0000 0000 007f 0000 0000 0078 0000     ?...........x...
  41f950:	0000 007c 0000 8000 007f 0000 f000 001f     ..|.............
  41f960:	0000 fe00 0003 0000 7fc0 0000 0000 0ff8     ................
  41f970:	0000 0000 01ff 0000 e000 003f 0000 f000     ..........?.....
  41f980:	0007 0000 f000 0000 0000 f000 0001 0000     ................
  41f990:	f000 000f 0000 c000 007f 0000 0000 03fe     ................
  41f9a0:	0000 0000 0ff0 0000 0000 7fc0 0000 0000     ................
  41f9b0:	fe00 0003 0000 f000 001f 0000 8000 007f     ................
  41f9c0:	0000 0000 007e 0000 0000 0078 0000 0000     ....~.....x.....
  41f9d0:	007f 0000 e000 007f 0000 fc00 000f 7000     ...............p
  41f9e0:	ff80 0000 7000 1ff0 0000 7000 03ff 0000     .....p.....p....
  41f9f0:	f000 007f 0000 f000 000f 0000 f000 0001     ................
  41fa00:	0000 7000 0000 0000 7000 0000 0000 0000     ...p.....p......
	...
  41fa24:	0000 7000 0000 0070 7000 0000 0070 f000     ...p..p..p..p...
  41fa34:	0000 0078 f000 0001 007c f000 0003 007e     ..x.....|.....~.
  41fa44:	7000 8007 0077 7000 c01e 0073 7000 e03c     .p..w..p..s..p<.
  41fa54:	0071 0000 7870 0000 0000 3de0 0000 0000     q...px.....=....
  41fa64:	1fc0 0000 0000 0700 0000 0000 1fc0 0000     ................
  41fa74:	0000 3de0 0000 0000 78f0 0000 7000 e03c     ...=.....x...p<.
  41fa84:	0071 7000 c01e 0073 7000 800f 0077 f000     q..p..s..p..w...
  41fa94:	0003 007e f000 0001 007c f000 0000 0078     ..~.....|.....x.
  41faa4:	7000 0000 0070 7000 0000 0070 0000 0000     .p..p..p..p.....
	...
  41fabc:	7000 0000 0000 7000 0000 0000 7000 0000     .p.....p.....p..
  41facc:	0000 f000 0000 0000 f000 0003 0000 f000     ................
  41fadc:	000f 0000 7000 001f 0070 7000 007c 0070     .....p..p..p|.p.
  41faec:	7000 01f8 0070 0000 ffe0 007f 0000 ff80     .p..p...........
  41fafc:	007f 0000 ff80 007f 0000 07c0 0070 0000     ............p...
  41fb0c:	01f0 0070 7000 00f8 0070 7000 003e 0000     ..p..p..p..p>...
  41fb1c:	7000 001f 0000 f000 0007 0000 f000 0003     .p..............
  41fb2c:	0000 f000 0000 0000 7000 0000 0000 7000     .........p.....p
  41fb3c:	0000 0000 7000 0000 0000 0000 0000 0000     .....p..........
  41fb4c:	f000 000f 007c f000 000f 007e f000 000f     ....|.....~.....
  41fb5c:	007f 7000 8000 0073 7000 e000 0071 7000     ...p..s..p..q..p
  41fb6c:	f000 0070 7000 7800 0070 7000 1c00 0070     ..p..p.xp..p..p.
  41fb7c:	7000 0f00 0070 7000 0780 0070 7000 03c0     .p..p..p..p..p..
  41fb8c:	0070 7000 00e0 0070 7000 0078 0070 7000     p..p..p..px.p..p
  41fb9c:	003c 0070 7000 001e 0070 7000 0007 0070     <.p..p..p..p..p.
  41fbac:	f000 8003 007f f000 8001 007f f000 8000     ................
  41fbbc:	007f 3000 0000 0000 0000 0000 0000 0000     ...0............
	...
  41fbe0:	0000 ff80 ffff 3fff ff80 ffff 3fff ff80     .......?.....?..
  41fbf0:	ffff 3fff 0380 0000 3800 0380 0000 3800     ...?.....8.....8
  41fc00:	0380 0000 3800 0000 0000 0000 0000 0000     .....8..........
	...
  41fc1c:	0000 0c00 0000 0000 3c00 0000 0000 fc00     .........<......
  41fc2c:	0001 0000 f000 0007 0000 8000 001f 0000     ................
  41fc3c:	0000 00fe 0000 0000 03f8 0000 0000 0fe0     ................
  41fc4c:	0000 0000 3f00 0000 0000 fc00 0001 0000     .....?..........
  41fc5c:	f000 0007 0000 8000 001f 0000 0000 007e     ..............~.
  41fc6c:	0000 0000 0078 0000 0000 0060 0000 0000     ....x.....`.....
	...
  41fc88:	3800 0380 0000 3800 0380 0000 3800 0380     .8.....8.....8..
  41fc98:	0000 3800 ff80 ffff 3fff ff80 ffff 3fff     ...8.....?.....?
  41fca8:	ff80 ffff 3fff 0000 0000 0000 0000 0000     .....?..........
	...
  41fce0:	0200 0000 0000 0380 0000 0000 03e0 0000     ................
  41fcf0:	0000 01fc 0000 0000 007f 0000 c000 001f     ................
  41fd00:	0000 f000 0007 0000 f800 0001 0000 7800     ...............x
  41fd10:	0000 0000 f800 0000 0000 f800 0003 0000     ................
  41fd20:	e000 000f 0000 8000 007f 0000 0000 01fe     ................
  41fd30:	0000 0000 03f0 0000 0000 03c0 0000 0000     ................
  41fd40:	0300 0000 0000 0000 0000 0000 0000 0000     ................
  41fd50:	0000 0000 0c00 0000 0000 0c00 0000 0000     ................
  41fd60:	0c00 0000 0000 0c00 0000 0000 0c00 0000     ................
  41fd70:	0000 0c00 0000 0000 0c00 0000 0000 0c00     ................
  41fd80:	0000 0000 0c00 0000 0000 0c00 0000 0000     ................
  41fd90:	0c00 0000 0000 0c00 0000 0000 0c00 0000     ................
  41fda0:	0000 0c00 0000 0000 0c00 0000 0000 0c00     ................
  41fdb0:	0000 0000 0c00 0000 0000 0c00 0000 0000     ................
  41fdc0:	0c00 0000 0000 0000 0000 0000 0000 1000     ................
  41fdd0:	0000 0000 3000 0000 0000 7000 0000 0000     .....0.....p....
  41fde0:	f000 0000 0000 f000 0001 0000 c000 0003     ................
  41fdf0:	0000 8000 0003 0000 0000 0002 0000 0000     ................
	...
  41fe0c:	0000 000f 0000 c040 001f 0000 e0e0 003f     ......@.......?.
  41fe1c:	0000 e0e0 0038 0000 f070 0070 0000 7070     ....8...p.p...pp
  41fe2c:	0070 0000 7070 0070 0000 7070 0070 0000     p...ppp...ppp...
  41fe3c:	7070 0070 0000 7070 0070 0000 70f0 0038     ppp...ppp....p8.
  41fe4c:	0000 71e0 0038 0000 ffe0 007f 0000 ffc0     ...q8...........
  41fe5c:	007f 0000 ff00 007f 0000 0000 0070 0000     ............p...
  41fe6c:	0000 0070 0000 0000 0070 0000 0000 0000     ..p.....p.......
  41fe7c:	0000 0000 0000 3800 0000 0000 3800 0000     .......8.....8..
  41fe8c:	0000 3800 0000 0000 f800 ffff 007f f800     ...8............
  41fe9c:	ffff 007f f800 ffff 007f 0000 00c0 0038     ..............8.
  41feac:	0000 00e0 0078 0000 0060 0070 0000 0070     ....x...`.p...p.
  41febc:	0070 0000 0070 0070 0000 0070 0070 0000     p...p.p...p.p...
  41fecc:	0070 0070 0000 00f0 0078 0000 00f0 0038     p.p.....x.....8.
  41fedc:	0000 01e0 003c 0000 07c0 001f 0000 ffc0     ....<...........
  41feec:	000f 0000 ff00 0007 0000 fc00 0001 0000     ................
	...
  41ff14:	fc00 0001 0000 ff00 0007 0000 ff80 000f     ................
  41ff24:	0000 07c0 001f 0000 01e0 003c 0000 00e0     ..........<.....
  41ff34:	0038 0000 00f0 0078 0000 0070 0070 0000     8.....x...p.p...
  41ff44:	0070 0070 0000 0070 0070 0000 0070 0070     p.p...p.p...p.p.
  41ff54:	0000 0070 0070 0000 00e0 0038 0000 01c0     ..p.p.....8.....
  41ff64:	003c 0000 03c0 001e 0000 03c0 000e 0000     <...............
  41ff74:	03c0 0000 0000 0000 0000 0000 0000 0000     ................
	...
  41ff8c:	fc00 0001 0000 ff00 0007 0000 ff80 000f     ................
  41ff9c:	0000 07c0 001f 0000 01e0 003c 0000 00e0     ..........<.....
  41ffac:	0038 0000 00f0 0078 0000 0070 0070 0000     8.....x...p.p...
  41ffbc:	0070 0070 0000 0070 0070 0000 0070 0070     p.p...p.p...p.p.
  41ffcc:	3800 0070 0070 3800 00e0 0038 3800 00e0     .8p.p..8..8..8..
  41ffdc:	0038 f800 ffff 007f f800 ffff 007f f800     8...............
  41ffec:	ffff 007f 0000 0000 0070 0000 0000 0070     ........p.....p.
  41fffc:	0000 0000 0070 0000 0000 0000 0000 0000     ....p...........
	...
  420014:	0000 fc00 0001 0000 ff00 0007 0000 ffc0     ................
  420024:	001f 0000 3be0 003e 0000 39e0 003c 0000     .....;>....9<...
  420034:	38f0 0078 0000 3870 0070 0000 3870 0070     .8x...p8p...p8p.
  420044:	0000 3870 0070 0000 3870 0070 0000 3870     ..p8p...p8p...p8
  420054:	0070 0000 38f0 0070 0000 39e0 0038 0000     p....8p....98...
  420064:	3fc0 0038 0000 3f80 001c 0000 3e00 001c     .?8....?.....>..
	...
  420094:	0070 0070 0000 0070 0070 0000 0070 0070     p.p...p.p...p.p.
  4200a4:	c000 ffff 007f e000 ffff 007f f000 ffff     ................
  4200b4:	007f 7800 0070 0070 3800 0070 0070 3800     ...xp.p..8p.p..8
  4200c4:	0070 0070 3800 0000 0000 3800 0000 0000     p.p..8.....8....
	...
  4200e0:	0000 fc00 0001 0000 ff00 3807 0000 ff80     ...........8....
  4200f0:	780f 0000 07c0 701f 0000 01e0 703c 0000     .x.....p....<p..
  420100:	00e0 e038 0000 00f0 e078 0000 0070 e070     ..8.....x...p.p.
  420110:	0000 0070 e070 0000 0070 e070 0000 0070     ..p.p...p.p...p.
  420120:	e070 0000 0070 f070 0000 00f0 7038 0000     p...p.p.....8p..
  420130:	00e0 7e18 0000 fff0 3fff 0000 fff0 1fff     ...~.....?......
  420140:	0000 fff0 07ff 0000 0000 0000 0000 0000     ................
	...
  42015c:	0000 3800 0000 0070 3800 0000 0070 3800     ...8..p..8..p..8
  42016c:	0000 0070 f800 ffff 007f f800 ffff 007f     ..p.............
  42017c:	f800 ffff 007f 0000 01c0 0070 0000 00e0     ..........p.....
  42018c:	0070 0000 00e0 0070 0000 0060 0000 0000     p.....p...`.....
  42019c:	0070 0000 0000 0070 0000 0000 0070 0000     p.....p.....p...
  4201ac:	0000 0070 0000 0000 0070 0070 0000 00f0     ..p.....p.p.....
  4201bc:	0070 0000 01e0 0070 0000 ffe0 007f 0000     p.....p.........
  4201cc:	ffc0 007f 0000 ff00 007f 0000 0000 0070     ..............p.
  4201dc:	0000 0000 0070 0000 0000 0070 0000 0000     ....p.....p.....
  4201ec:	0000 0000 0070 0070 0000 0070 0070 7000     ....p.p...p.p..p
  4201fc:	0070 0070 f800 fff0 007f f800 fff0 007f     p.p.............
  42020c:	7000 fff0 007f 0000 0000 0070 0000 0000     .p........p.....
  42021c:	0070 0000 0000 0070 0000 0000 0000 0000     p.....p.........
	...
  420238:	0070 7000 0000 0070 7000 0000 0070 7800     p..p..p..p..p..x
  420248:	6000 fff0 3fff f000 fff0 1fff f000 fff0     .`...?..........
  420258:	07ff 6000 0000 0000 0000 0000 0000 0000     ...`............
	...
  42027c:	0000 3800 0000 0070 3800 0000 0070 3800     ...8..p..8..p..8
  42028c:	0000 0070 f800 ffff 007f f800 ffff 007f     ..p.............
  42029c:	f800 ffff 007f 0000 7000 0070 0000 7000     .........pp....p
  4202ac:	0070 0000 7000 0070 0000 7000 0000 0000     p....pp....p....
  4202bc:	f000 0000 0000 fc00 0001 0000 fe00 0003     ................
  4202cc:	0000 8f70 000f 0000 07f0 001f 0000 03f0     ..p.............
  4202dc:	003c 0000 01f0 0078 0000 00f0 0070 0000     <.....x.....p...
  4202ec:	0070 0070 0000 0070 0070 0000 0000 0000     p.p...p.p.......
  4202fc:	0000 0000 0000 3800 0000 0070 3800 0000     .......8..p..8..
  42030c:	0070 3800 0000 0070 f800 ffff 007f f800     p..8..p.........
  42031c:	ffff 007f f800 ffff 007f 0000 0000 0070     ..............p.
  42032c:	0000 0000 0070 0000 0000 0070 0000 0000     ....p.....p.....
	...
  42034c:	0070 0070 0000 0070 0070 0000 0070 0070     p.p...p.p...p.p.
  42035c:	0000 fff0 007f 0000 fff0 007f 0000 fff0     ................
  42036c:	007f 0000 00c0 0070 0000 00e0 0070 0000     ......p.....p...
  42037c:	0060 0070 0000 0070 0000 0000 0070 0000     `.p...p.....p...
  42038c:	0000 0070 0000 0000 0070 0000 0000 0070     ..p.....p.....p.
  42039c:	0070 0000 00f0 0070 0000 01f0 0070 0000     p.....p.....p...
  4203ac:	ffe0 007f 0000 ffc0 007f 0000 ff80 007f     ................
  4203bc:	0000 00c0 0070 0000 00e0 0070 0000 0060     ....p.....p...`.
  4203cc:	0070 0000 0070 0000 0000 0070 0000 0000     p...p.....p.....
  4203dc:	0070 0000 0000 0070 0000 0000 0070 0070     p.....p.....p.p.
  4203ec:	0000 00f0 0070 0000 01e0 0070 0000 ffe0     ....p.....p.....
  4203fc:	007f 0000 ffc0 007f 0000 ff00 007f 0000     ................
  42040c:	0000 0070 0000 0000 0070 0000 0000 0070     ..p.....p.....p.
	...
  420428:	0000 0070 0070 0000 0070 0070 0000 0070     ..p.p...p.p...p.
  420438:	0070 0000 fff0 007f 0000 fff0 007f 0000     p...............
  420448:	fff0 007f 0000 00c0 0070 0000 00e0 0070     ........p.....p.
  420458:	0000 0060 0070 0000 0060 0000 0000 0070     ..`.p...`.....p.
  420468:	0000 0000 0070 0000 0000 0070 0000 0000     ....p.....p.....
  420478:	0070 0000 0000 0070 0070 0000 00f0 0070     p.....p.p.....p.
  420488:	0000 01e0 0070 0000 ffe0 007f 0000 ffc0     ....p...........
  420498:	007f 0000 ff00 007f 0000 0000 0070 0000     ............p...
  4204a8:	0000 0070 0000 0000 0070 0000 0000 0000     ..p.....p.......
	...
  4204c4:	0000 fc00 0001 0000 ff00 0007 0000 ff80     ................
  4204d4:	000f 0000 07c0 001f 0000 01e0 003c 0000     ............<...
  4204e4:	00e0 0038 0000 0070 0078 0000 0070 0070     ..8...p.x...p.p.
  4204f4:	0000 0070 0070 0000 0070 0070 0000 0070     ..p.p...p.p...p.
  420504:	0070 0000 0070 0078 0000 00e0 0038 0000     p...p.x.....8...
  420514:	01e0 003c 0000 07c0 001f 0000 ff80 000f     ..<.............
  420524:	0000 ff00 0007 0000 fc00 0001 0000 0000     ................
	...
  420544:	0070 e000 0000 0070 e000 0000 0070 e000     p.....p.....p...
  420554:	0000 fff0 ffff 0000 fff0 ffff 0000 fff0     ................
  420564:	ffff 0000 00e0 e038 0000 00e0 e038 0000     ......8.....8...
  420574:	0070 e070 0000 0070 0070 0000 0070 0070     p.p...p.p...p.p.
  420584:	0000 0070 0070 0000 0070 0070 0000 00f0     ..p.p...p.p.....
  420594:	0078 0000 00f0 0038 0000 01e0 003c 0000     x.....8.....<...
  4205a4:	07c0 001f 0000 ffc0 000f 0000 ff00 0007     ................
  4205b4:	0000 fc00 0001 0000 0000 0000 0000 0000     ................
	...
  4205d4:	fc00 0001 0000 ff00 0007 0000 ff80 000f     ................
  4205e4:	0000 07c0 001f 0000 01e0 003c 0000 00e0     ..........<.....
  4205f4:	0038 0000 00f0 0078 0000 0070 0070 0000     8.....x...p.p...
  420604:	0070 0070 0000 0070 0070 0000 0070 0070     p.p...p.p...p.p.
  420614:	0000 0070 e070 0000 00f0 e038 0000 00e0     ..p.p.....8.....
  420624:	e038 0000 fff0 ffff 0000 fff0 ffff 0000     8...............
  420634:	fff0 ffff 0000 0000 e000 0000 0000 e000     ................
  420644:	0000 0000 e000 0000 0000 0000 0000 0070     ..............p.
  420654:	0070 0000 0070 0070 0000 0070 0070 0000     p...p.p...p.p...
  420664:	fff0 007f 0000 fff0 007f 0000 fff0 007f     ................
  420674:	0000 01c0 0070 0000 00e0 0070 0000 0070     ....p.....p...p.
  420684:	0070 0000 0070 0000 0000 0070 0000 0000     p...p.....p.....
  420694:	01f0 0000 0000 01f0 0000 0000 01f0 0000     ................
	...
  4206b8:	0000 000e 0000 0780 000e 0000 1fe0 001e     ................
  4206c8:	0000 1fe0 003e 0000 3cf0 007c 0000 3870     ....>....<|...p8
  4206d8:	0078 0000 3870 0070 0000 7070 0070 0000     x...p8p...ppp...
  4206e8:	7070 0070 0000 7070 0070 0000 e0f0 0070     ppp...ppp.....p.
  4206f8:	0000 e3e0 0038 0000 e3c0 003f 0000 c380     ....8.....?.....
  420708:	001f 0000 8380 000f 0000 0000 0000 0000     ................
	...
  420724:	0070 0000 0000 0070 0000 0000 0070 0000     p.....p.....p...
  420734:	c000 ffff 001f c000 ffff 003f c000 ffff     ..........?.....
  420744:	007f 0000 0070 0070 0000 0070 0070 0000     ....p.p...p.p...
  420754:	0000 0070 0000 0000 0070 0000 0000 0070     ..p.....p.....p.
  420764:	0000 0000 0020 0000 0000 0000 0000 0000     .... ...........
  420774:	0000 0000 0070 0000 0000 0070 0000 0000     ....p.....p.....
  420784:	0070 0000 0000 fff0 0007 0000 fff0 001f     p...............
  420794:	0000 fff0 003f 0000 0000 007c 0000 0000     ....?.....|.....
  4207a4:	0078 0000 0000 0070 0000 0000 0070 0000     x.....p.....p...
  4207b4:	0000 0070 0000 0000 0070 0000 0070 0030     ..p.....p...p.0.
  4207c4:	0000 0070 0038 0000 0070 0038 0000 fff0     ..p.8...p.8.....
  4207d4:	007f 0000 fff0 007f 0000 fff0 007f 0000     ................
  4207e4:	0000 0070 0000 0000 0070 0000 0000 0070     ..p.....p.....p.
	...
  420800:	0000 0070 0000 0000 0070 0000 0000 00f0     ..p.....p.......
  420810:	0000 0000 07f0 0000 0000 3ff0 0000 0000     ...........?....
  420820:	ff70 0000 0000 f800 0007 0000 e000 001f     p...............
  420830:	0000 0000 007f 0000 0000 007c 0000 0000     ..........|.....
  420840:	0078 0000 0000 007f 0000 e000 003f 0000     x...........?...
  420850:	f800 0007 0000 ff70 0001 0000 3ff0 0000     ......p......?..
  420860:	0000 07f0 0000 0000 00f0 0000 0000 0070     ..............p.
  420870:	0000 0000 0070 0000 0000 0070 0000 0000     ....p.....p.....
  420880:	0070 0000 0000 01f0 0000 0000 0ff0 0000     p...............
  420890:	0000 7ff0 0000 0000 ff70 0003 0000 f800     ........p.......
  4208a0:	001f 0000 c000 007f 0000 0000 007c 0000     ............|...
  4208b0:	0000 007e 0000 e000 007f 0000 ff00 001f     ..~.............
  4208c0:	0000 fff0 0000 0000 0ff0 0000 0000 00f0     ................
  4208d0:	0000 0000 0ff0 0000 0000 fff0 0000 0000     ................
  4208e0:	ff00 001f 0000 f000 007f 0000 0000 007e     ..............~.
  4208f0:	0000 0000 007c 0000 c000 007f 0000 f800     ....|...........
  420900:	001f 0000 ff70 0003 0000 7ff0 0000 0000     ....p...........
  420910:	0ff0 0000 0000 01f0 0000 0000 0070 0000     ............p...
  420920:	0000 0070 0000 0000 0000 0000 0000 0070     ..p...........p.
  420930:	0070 0000 0070 0070 0000 00f0 0078 0000     p...p.p.....x...
  420940:	01f0 007c 0000 03f0 007e 0000 07f0 007f     ..|.....~.......
  420950:	0000 8f70 0077 0000 de00 0003 0000 fc00     ..p.w...........
  420960:	0001 0000 f800 0000 0000 fc00 0000 0000     ................
  420970:	fe00 0001 0000 cf70 0003 0000 87f0 0077     ......p.......w.
  420980:	0000 03f0 007e 0000 01f0 007c 0000 00f0     ....~.....|.....
  420990:	0078 0000 0070 0070 0000 0070 0070 0000     x...p.p...p.p...
  4209a0:	0000 0000 0000 0070 0000 0000 0070 0000     ......p.....p...
  4209b0:	0000 00f0 0000 0000 07f0 0000 0000 1ff0     ................
  4209c0:	e000 0000 ff70 e000 0000 fc70 f007 0000     ....p.....p.....
  4209d0:	e000 fe1f 0000 0000 ffff 0000 0000 effc     ................
  4209e0:	0000 0000 e1fe 0000 c000 e07f 0000 f870     ..............p.
  4209f0:	000f 0000 ff70 0001 0000 3ff0 0000 0000     ....p......?....
  420a00:	0ff0 0000 0000 01f0 0000 0000 0070 0000     ............p...
  420a10:	0000 0070 0000 0000 0000 0000 0000 0000     ..p.............
	...
  420a28:	0000 03f0 0070 0000 03f0 0078 0000 03f0     ....p.....x.....
  420a38:	007e 0000 0070 007f 0000 8070 007f 0000     ~...p.....p.....
  420a48:	e070 0073 0000 f070 0071 0000 7c70 0070     p.s...p.q...p|p.
  420a58:	0000 3e70 0070 0000 1f70 0070 0000 07f0     ..p>p...p.p.....
  420a68:	0070 0000 03f0 0070 0000 00f0 007e 0000     p.....p.....~...
  420a78:	0070 007e 0000 0000 007e 0000 0000 0000     p.~.....~.......
	...
  420a94:	0000 0e00 0000 0000 0f00 0000 0000 3f80     ...............?
  420aa4:	0000 fe00 fbff 0fff ff00 f9ff 1fff ff80     ................
  420ab4:	e0ff 3fff 0780 0000 3c00 0380 0000 3800     ...?.....<.....8
  420ac4:	0380 0000 3800 0000 0000 0000 0000 0000     .....8..........
	...
  420ae8:	ff80 ffff 0fff ff80 ffff 0fff ff80 ffff     ................
  420af8:	0fff 0000 0000 0000 0000 0000 0000 0000     ................
  420b08:	0000 0000 0380 0000 3800 0380 0000 3800     .........8.....8
  420b18:	0780 0000 3c00 ff80 e0ff 3fff ff00 f1ff     .....<.....?....
  420b28:	1fff fe00 fbff 0fff 0000 3f80 0000 0000     ...........?....
  420b38:	1f00 0000 0000 0e00 0000 0000 0000 0000     ................
	...
  420b68:	4000 0000 0000 f000 0000 0000 7800 0000     .@...........x..
  420b78:	0000 3800 0000 0000 3800 0000 0000 3800     ...8.....8.....8
  420b88:	0000 0000 7800 0000 0000 7000 0000 0000     .....x.....p....
  420b98:	7000 0000 0000 f000 0000 0000 e000 0000     .p..............
  420ba8:	0000 e000 0000 0000 e000 0000 0000 f000     ................
  420bb8:	0000 0000 7800 0000 0000 1000 0000 0000     .....x..........
	...

00420bd8 <Arvo_24pt_CharCount>:
  420bd8:	0b07 160a 1b13 0517 0b0b 140d 0c09 0d07     ................
  420be8:	0d15 1111 1214 1114 1414 0808 0e10 1112     ................
  420bf8:	1824 1815 1418 1a13 0c1d 180b 2214 1919     $............"..
  420c08:	1914 1317 1816 2817 1517 0b13 0b0f 1013     .......(........
  420c18:	1209 1114 1214 130c 0a15 1409 200a 1315     ............. ..
  420c28:	1314 100f 150c 1a11 1211 0b0e 0b07 0013     ................

00420c38 <Arvo_24pt_Table>:
	...
  420c68:	0000 ff00 6001 0000 ffff 00f1 ff00 f1ff     .....`..........
  420c78:	0000 01ff 0060 0000 0000 0000 0000 0000     ....`...........
	...
  420c94:	0000 8000 003f 0000 7f80 0000 8000 007f     ....?...........
	...
  420cb0:	7f80 0000 8000 007f 0000 7f80 0000 8000     ................
  420cc0:	0003 0000 0000 0000 0000 8000 0003 c000     ................
  420cd0:	0380 0000 80e0 00c3 e000 ff80 0000 f0e0     ................
  420ce0:	00ff e000 3fff 0000 fffc 0003 ff00 038f     .....?..........
  420cf0:	0000 80ff 0003 e700 0380 0000 80e0 00c3     ................
  420d00:	e000 ff80 0000 f0e0 00ff e000 3fff 0000     .............?..
  420d10:	fffc 0003 ff00 038f 0000 80ff 0003 e700     ................
  420d20:	0380 0000 80e0 0001 e000 0000 0000 0000     ................
	...
  420d3c:	0000 0e00 0000 1f00 000e 8000 1e3f 0000     ............?...
  420d4c:	7f80 003e c000 7873 0000 e1c0 0070 fe00     ..>...sx....p...
  420d5c:	f0e1 000f e1fe 0ff0 fe00 f1e1 000f c3c0     ................
  420d6c:	0071 8000 73c7 0000 cf80 003f 0000 1f8f     q....s....?.....
  420d7c:	0000 0e00 000f 0000 0000 0000 0000 0000     ................
	...
  420d94:	0000 7c00 0000 0000 00fe 0000 ff00 8001     ...|............
  420da4:	8000 03c7 00c0 8380 f003 8000 0383 0078     ..............x.
  420db4:	8380 3e03 8000 03c7 000f ff00 07c1 0000     ...>............
  420dc4:	e0fe 0001 7c00 00f8 0000 3c00 0000 0000     .....|.....<....
  420dd4:	001e 0000 0f80 001f c000 3f83 0000 c1f0     ...........?....
  420de4:	007f 7800 f1e0 0000 e03e 00e0 0f00 e0e0     ...x....>.......
  420df4:	8000 e007 00e0 0180 f1e0 8000 c000 007f     ................
  420e04:	0000 3f80 0000 0000 001f 0000 0000 0000     ...?............
	...
  420e24:	0f80 0000 e0f0 001f fc00 3ff3 0000 77fe     ...........?...w
  420e34:	0078 0e00 703f 0000 3e07 00e0 0700 e01c     x...?p...>......
  420e44:	0000 3c07 00e0 0700 e07e 0000 fe0f 00e0     ...<....~.......
  420e54:	1e00 71ef 0000 c7fe 0073 fc00 3f83 0000     ...q....s....?..
  420e64:	01f0 001f 0000 1f80 0000 f000 003f 0000     ............?...
  420e74:	79f0 0000 3000 00f0 0000 e000 0000 0000     .y...0..........
  420e84:	00c0 0000 8000 0000 0000 0000 3f80 0000     .............?..
  420e94:	8000 003f 0000 3f80 0000 8000 0007 0000     ..?....?........
	...
  420eb0:	07ff 0000 ffe0 003f fc00 ffff 0001 00ff     ......?.........
  420ec0:	07f8 1fc0 c000 e01f 0003 3e00 00f0 0000     ...........>....
  420ed0:	6078 0000 3000 0000 0000 0000 0000 0000     x`...0..........
  420ee0:	0060 0000 f030 0000 7800 03e0 0000 c03e     `...0....x....>.
  420ef0:	001f 1fc0 ff00 f800 0007 fffc 01ff e000     ................
  420f00:	3fff 0000 ff00 0007 0000 0000 0000 0000     .?..............
	...
  420f18:	000c 0000 0c00 0000 0000 011c 0000 d800     ................
  420f28:	0003 0000 01f8 0000 7f80 0000 8000 00ff     ................
  420f38:	0000 f800 0001 0000 0398 0000 0c00 0001     ................
  420f48:	0000 000c 0000 0000 0000 0000 0000 0000     ................
  420f58:	0000 0000 0000 3800 0000 0000 0038 0000     .......8....8...
  420f68:	3800 0000 0000 0038 0000 3800 0000 0000     .8....8....8....
  420f78:	0038 0000 3800 0000 f000 1fff 0000 fff0     8....8..........
  420f88:	001f f000 1fff 0000 3800 0000 0000 0038     .........8....8.
  420f98:	0000 3800 0000 0000 0038 0000 3800 0000     ...8....8....8..
  420fa8:	0000 0038 0000 3800 0000 0000 0000 0000     ..8....8........
  420fb8:	0000 0800 0000 0000 001e 0000 0f80 0000     ................
  420fc8:	e000 0007 0000 03e0 0000 c000 0000 0000     ................
  420fd8:	0040 0000 0000 0000 0000 0000 0000 0000     @...............
  420fe8:	0000 c000 0001 0000 01c0 0000 c000 0001     ................
  420ff8:	0000 01c0 0000 c000 0001 0000 01c0 0000     ................
  421008:	c000 0001 0000 01c0 0000 c000 0001 0000     ................
  421018:	01c0 0000 0000 0000 0000 0000 0000 0000     ................
  421028:	0000 0000 7000 0000 0000 00f0 0000 f000     .....p..........
  421038:	0000 0000 00f0 0000 0000 0000 0000 0000     ................
  421048:	0000 8000 0000 0000 00f0 0000 fe00 0000     ................
  421058:	c000 007f 0000 0ff8 0000 fe00 0001 c000     ................
  421068:	003f 0000 0ff8 0000 ff00 0001 8000 003f     ?.............?.
  421078:	0000 0780 0000 8000 0000 0000 0000 0000     ................
  421088:	0000 ff00 0001 e000 0fff 0000 fff8 001f     ................
  421098:	fc00 3e00 0000 001e 0078 0e00 7000 0000     ...>....x....p..
  4210a8:	0007 00e0 0700 e000 0000 0007 00e0 0700     ................
  4210b8:	e000 0000 0007 00e0 0700 e000 0000 000f     ................
  4210c8:	0070 1e00 7800 0000 007c 003f f800 1fff     p....x..|.?.....
  4210d8:	0000 fff0 000f 8000 01ff 0000 0000 0000     ................
	...
  4210f0:	0000 3800 0000 0000 0038 0000 1c00 0000     ...8....8.......
  421100:	0000 001c 00e0 0e00 e000 0000 fffe 00ff     ................
  421110:	ff00 ffff 0000 ffff 00ff 0000 e000 0000     ................
  421120:	0000 00e0 0000 0000 0000 0000 0000 0000     ................
  421130:	0000 0000 0070 00f0 7800 f800 0000 007c     ....p....x....|.
  421140:	00fc 1e00 ee00 0000 000f 00e7 0700 e380     ................
  421150:	0000 c007 00e1 0700 e0e0 0000 7007 00e0     .............p..
  421160:	0f00 e03c 0000 1e1e 00e0 fe00 e00f 0000     ..<.............
  421170:	03fc 00e0 f000 e001 0000 0000 0000 0000     ................
	...
  421188:	2000 0c00 0000 0038 003c 3c00 7c00 0000     . ....8.<..<.|..
  421198:	001e 0078 0e00 f000 0000 0007 00e0 0700     ..x.............
  4211a8:	e01c 0000 1c07 00e0 0700 e01c 0000 3e0f     ...............>
  4211b8:	0070 1e00 787f 0000 f7fc 003f f800 1fe3     p....x....?.....
  4211c8:	0000 c1f0 000f 0000 0000 0000 0000 0000     ................
  4211d8:	0000 0000 0000 c000 0003 0000 03f0 0000     ................
  4211e8:	f800 0003 0000 03be 0000 9f80 0003 c000     ................
  4211f8:	0387 0000 81f0 0003 fc00 0380 0000 803e     ..............>.
  421208:	0003 0f00 e380 0000 8007 00e3 0100 fff8     ................
  421218:	0000 f800 00ff 0000 fff8 0000 8000 00e3     ................
  421228:	0000 e380 0000 8000 0003 0000 0380 0000     ................
	...
  421244:	000c ff00 1c1f 0000 3fff 003c ff00 783f     .........?<...?x
  421254:	0000 1c07 0070 0700 e00e 0000 0e07 00e0     ....p...........
  421264:	0700 e00e 0000 0e07 00e0 0700 e00e 0000     ................
  421274:	1e07 00f0 0700 701c 0000 7c07 007c 0700     .......p...||...
  421284:	3ff8 0000 f007 001f 0000 07c0 0000 0000     .?..............
	...
  42129c:	e000 0007 0000 1ff8 0000 fc00 003f 0000     ............?...
  4212ac:	783f 0000 1fc0 0070 f000 701f 0000 0ff8     ?x....p....p....
  4212bc:	00e0 7e00 e00e 0000 0e1f 00e0 0700 e00e     ...~............
  4212cc:	0000 0e01 00e0 0000 f01e 0000 1c00 0070     ..............p.
  4212dc:	0000 7c3c 0000 f800 003f 0000 1ff0 0000     ..<|....?.......
  4212ec:	e000 0007 0000 0000 0000 0000 0000 0000     ................
  4212fc:	0000 0000 001f 0000 1f00 0000 0000 001f     ................
  42130c:	00e0 0700 e000 0000 0007 00f0 0700 fe00     ................
  42131c:	0000 8007 00ff 0700 eff0 0000 fc07 00e1     ................
  42132c:	0700 007f 0000 0fc7 0000 f700 0003 0000     ................
  42133c:	00ff 0000 3f00 0000 0000 000f 0000 0300     .....?..........
	...
  421358:	0000 8000 000f f000 1fe1 0000 f3fc 003f     ..............?.
  421368:	fe00 787f 0000 3f1e 0070 0f00 e01e 0000     ...x...?p.......
  421378:	1c07 00e0 0700 e01c 0000 1c07 00e0 0700     ................
  421388:	e01c 0000 3e0e 0070 1e00 787f 0000 f7fc     .....>p....x....
  421398:	003f fc00 1fe3 0000 80f0 000f 0000 0000     ?...............
	...
  4213bc:	0000 07e0 0000 f800 001f 0000 3ffc 0000     .............?..
  4213cc:	3e00 007c 0000 700e 0000 0f00 80f0 0000     .>|....p........
  4213dc:	e007 00c0 0700 f0e0 0000 e007 0078 0700     ............x...
  4213ec:	1ee0 0000 e00f 000f 0e00 03f0 0000 fc3e     ..............>.
  4213fc:	0000 fc00 003f 0000 1ff8 0000 e000 0007     ....?...........
	...
  421420:	0000 0600 0060 0000 f00f 0000 0f00 00f0     ....`...........
  421430:	0000 6006 0000 0000 0000 0000 0000 0000     ...`............
  421440:	0000 0800 0000 0000 001e 0700 1fc0 0000     ................
  421450:	f00f 000f 0f00 03f0 0000 e00f 0000 0000     ................
  421460:	0060 0000 0000 0000 f000 0000 0000 00f8     `...............
  421470:	0000 f800 0001 0000 01dc 0000 dc00 0001     ................
  421480:	0000 038e 0000 8f00 0003 0000 0707 0000     ................
  421490:	0380 0007 8000 0e03 0000 01c0 000e c000     ................
  4214a0:	0e01 0000 00e0 001c 0000 0000 0000 0000     ................
	...
  4214bc:	0000 0e70 0000 7000 000e 0000 0e70 0000     ..p....p....p...
  4214cc:	7000 000e 0000 0e70 0000 7000 000e 0000     .p....p....p....
  4214dc:	0e70 0000 7000 000e 0000 0e70 0000 7000     p....p....p....p
  4214ec:	000e 0000 0e70 0000 7000 000e 0000 0000     ....p....p......
	...
  42150c:	e000 1c00 0000 01c0 000e c000 0e01 0000     ................
  42151c:	0380 000e 8000 0703 0000 0700 0007 0000     ................
  42152c:	038f 0000 8e00 0003 0000 01dc 0000 dc00     ................
  42153c:	0001 0000 01f8 0000 f800 0000 0000 00f0     ................
	...
  421560:	0000 0060 0000 7800 0000 0000 007c 0000     ..`....x....|...
  421570:	1e00 0000 0000 800e 0067 0700 f7e0 0000     ........g.......
  421580:	f007 00f7 0700 6078 0000 1c07 0000 0f00     ......x`........
  421590:	001e 0000 0f1e 0000 fe00 0007 0000 03fc     ................
  4215a0:	0000 f000 0001 0000 0000 0000 0000 0000     ................
	...
  4215b8:	07f0 0000 fe00 003f 8000 ffff 0000 0fc0     ......?.........
  4215c8:	01f8 e000 e003 0003 00f0 0780 7800 0000     .............x..
  4215d8:	000f 003c 1e00 1c00 07e0 001c f81e 3c1f     ..<............<
  4215e8:	0e00 3ffc 0038 3e0e 387c 0700 700e 0070     ...?8..>|8...pp.
  4215f8:	0707 70e0 0700 e007 0070 0707 70e0 0700     ...p....p....p..
  421608:	e007 0070 0f07 70f0 0700 781e 0070 ff0e     ..p....p...xp...
  421618:	707f 0e00 7fff 0038 ff1e 38ff 1c00 e000     .p....8....8....
  421628:	0031 003c 01c0 7800 c000 0001 00f0 01c0     1.<....x........
  421638:	e000 e003 0000 0fc0 00f8 8000 7fff 0000     ................
  421648:	fe00 001f 0000 07f0 0000 0000 0000 0000     ................
	...
  421660:	0000 e000 0000 0000 00e0 0000 f000 0000     ................
  421670:	0000 00fe 0000 ffc0 0000 f000 00ef 0000     ................
  421680:	e1fe 0000 ff80 00e0 f000 00ef 0000 e3fe     ................
  421690:	0000 7f00 00e0 0000 e00f 0000 0f00 00e0     ................
  4216a0:	0000 e07f 0000 fe00 00e3 0000 fff0 0000     ................
  4216b0:	8000 e0ff 0000 fc00 00e7 0000 ffe0 0000     ................
  4216c0:	0000 00ff 0000 f800 0000 0000 00e0 0000     ................
  4216d0:	e000 0000 0000 00e0 0000 0000 0000 0000     ................
  4216e0:	0000 0700 e000 0000 0007 00e0 ff00 ffff     ................
  4216f0:	0000 ffff 00ff ff00 ffff 0000 3807 00e0     .............8..
  421700:	0700 e038 0000 3807 00e0 0700 e038 0000     ..8....8....8...
  421710:	3807 00e0 0700 e038 0000 3807 00e0 0700     .8....8....8....
  421720:	e038 0000 7c0e 00f0 1e00 78fe 0000 effc     8....|.....x....
  421730:	003f f800 1fc7 0000 83e0 000f 0000 0000     ?...............
	...
  421748:	00fe 0000 ffc0 0003 f000 0fff 0000 81f8     ................
  421758:	001f 7c00 3e00 0000 003c 0038 1e00 7800     ...|.>..<.8....x
  421768:	0000 000e 0070 0f00 f000 0000 0007 00e0     ....p...........
  421778:	0700 e000 0000 0007 00e0 0700 e000 0000     ................
  421788:	0007 00e0 0f00 f000 0000 000e 0070 1e00     ............p...
  421798:	7800 0000 003c 003c 7c00 3e00 0000 0078     .x..<.<..|.>..x.
  4217a8:	001e 7000 0e00 0000 0070 0002 0000 0000     ...p....p.......
	...
  4217c4:	0007 00e0 0700 e000 0000 ffff 00ff ff00     ................
  4217d4:	ffff 0000 ffff 00ff 0700 e000 0000 0007     ................
  4217e4:	00e0 0700 e000 0000 0007 00e0 0700 e000     ................
  4217f4:	0000 0007 00e0 0700 e000 0000 000f 00f0     ................
  421804:	0e00 7000 0000 001e 0078 3c00 3c00 0000     ...p....x..<.<..
  421814:	0078 001e f800 1f81 0000 ffe0 0007 c000     x...............
  421824:	03ff 0000 7f00 0000 0000 0000 0000 0000     ................
	...
  42183c:	0007 00e0 0700 e000 0000 ffff 00ff ff00     ................
  42184c:	ffff 0000 ffff 00ff 0700 e01c 0000 1c07     ................
  42185c:	00e0 0700 e01c 0000 1c07 00e0 0700 e01c     ................
  42186c:	0000 1c07 00e0 0700 e01c 0000 0007 00e0     ................
  42187c:	0700 e000 0000 007f 00fe 7f00 fe00 0000     ................
  42188c:	007f 00fe 0000 0000 0000 0000 0000 0000     ................
  42189c:	0000 0000 0007 00e0 0700 e000 0000 ffff     ................
  4218ac:	00ff ff00 ffff 0000 ffff 00ff 0700 e01c     ................
  4218bc:	0000 1c07 00e0 0700 001c 0000 1c07 0000     ................
  4218cc:	0700 001c 0000 1c07 0000 0700 001c 0000     ................
  4218dc:	1c07 0000 7f00 001c 0000 007f 0000 7f00     ................
	...
  4218f8:	0000 fe00 0000 c000 07ff 0000 fff0 000f     ................
  421908:	f800 1f01 0000 007c 003c 1c00 7800 0000     ......|.<....x..
  421918:	000e 0070 0e00 f000 0000 0007 00e0 0700     ..p.............
  421928:	e000 0000 0007 00e0 0700 e000 0000 e007     ................
  421938:	00e0 0f00 e0e0 0000 e00e 0070 1e00 70e0     ..........p....p
  421948:	0000 e03c 0038 7c00 1ce0 0000 e078 000f     ..<.8..|....x...
  421958:	7000 ffe0 0000 e070 00ff 0000 ffe0 0000     .p....p.........
	...
  421980:	0700 e000 0000 0007 00e0 ff00 ffff 0000     ................
  421990:	ffff 00ff ff00 ffff 0000 1c07 00e0 0700     ................
  4219a0:	e01c 0000 1c00 0000 0000 001c 0000 1c00     ................
  4219b0:	0000 0000 001c 0000 1c00 0000 0000 001c     ................
  4219c0:	0000 1c00 0000 0000 001c 0000 1c00 0000     ................
  4219d0:	0000 001c 0000 1c00 0000 0700 e01c 0000     ................
  4219e0:	1c07 00e0 ff00 ffff 0000 ffff 00ff ff00     ................
  4219f0:	ffff 0000 0007 00e0 0700 e000 0000 0000     ................
	...
  421a10:	0000 0007 00e0 0700 e000 0000 ffff 00ff     ................
  421a20:	ff00 ffff 0000 ffff 00ff 0700 e000 0000     ................
  421a30:	0007 00e0 0000 0000 0000 0000 0000 0000     ................
	...
  421a50:	0c00 0700 0000 000e 0007 0f80 ff00 ffff     ................
  421a60:	0003 ffff 01ff ff00 7fff 0000 0007 0000     ................
  421a70:	0700 0000 0000 0000 0000 0000 0000 0000     ................
  421a80:	0000 0000 0700 e000 0000 0007 00e0 ff00     ................
  421a90:	ffff 0000 ffff 00ff ff00 ffff 0000 0807     ................
  421aa0:	00e0 0700 e018 0000 3c00 0000 0000 007e     .........<....~.
  421ab0:	0000 f700 0000 8000 01e3 0000 c1c0 0003     ................
  421ac0:	e000 0781 0000 00e0 000f 7000 fe00 0000     ...........p....
  421ad0:	003f 00fc 1f00 f800 0000 000f 00f0 0700     ?...............
  421ae0:	e000 0000 0007 00e0 0700 e000 0000 0000     ................
	...
  421afc:	0700 e000 0000 0007 00e0 ff00 ffff 0000     ................
  421b0c:	ffff 00ff ff00 ffff 0000 0007 00e0 0700     ................
  421b1c:	e000 0000 0000 00e0 0000 e000 0000 0000     ................
  421b2c:	00e0 0000 e000 0000 0000 00e0 0000 e000     ................
  421b3c:	0000 0000 00e0 0000 fe00 0000 0000 00fe     ................
  421b4c:	0000 fe00 0000 0000 0000 0000 0000 0000     ................
  421b5c:	0000 0000 0700 e000 0000 0007 00e0 ff00     ................
  421b6c:	ffff 0000 ffff 00ff ff00 ffff 0000 000f     ................
  421b7c:	00e0 7f00 e000 0000 01fe 0000 f000 000f     ................
  421b8c:	0000 3f80 0000 0000 01fe 0000 f000 0007     ...?............
  421b9c:	0000 3fc0 0000 0000 00fe 0000 f800 0000     ...?............
  421bac:	0000 00f0 0000 fe00 0000 8000 003f 0000     ............?...
  421bbc:	0ff0 0000 fe00 0001 8000 007f 0000 0ff0     ................
  421bcc:	0000 fc00 e001 0000 007f 00e0 0f00 e000     ................
  421bdc:	0000 ffff 00ff ff00 ffff 0000 ffff 00ff     ................
  421bec:	0700 e000 0000 0007 00e0 0000 0000 0000     ................
	...
  421c08:	0000 0700 e000 0000 0007 00e0 ff00 ffff     ................
  421c18:	0000 ffff 00ff ff00 ffff 0000 001f 00e0     ................
  421c28:	7e00 e000 0000 00f8 0000 e000 0003 0000     .~..............
  421c38:	0fc0 0000 0000 001f 0000 7c00 0000 0000     ...........|....
  421c48:	01f8 0000 e000 0003 0000 0f80 0000 0007     ................
  421c58:	003f 0700 7c00 0000 0007 00f0 ff00 ffff     ?....|..........
  421c68:	0000 ffff 00ff ff00 ffff 0000 0007 0000     ................
  421c78:	0700 0000 0000 0000 0000 0000 00ff 0000     ................
  421c88:	ffc0 0003 f000 0fff 0000 81f8 001f 7c00     ...............|
  421c98:	3e00 0000 003c 003c 1e00 7800 0000 000e     .>..<.<....x....
  421ca8:	0070 0f00 f000 0000 0007 00e0 0700 e000     p...............
  421cb8:	0000 0007 00e0 0700 e000 0000 0007 00e0     ................
  421cc8:	0f00 f000 0000 000e 0070 1e00 7800 0000     ........p....x..
  421cd8:	001c 003c 7c00 3e00 0000 81f8 001f f000     ..<..|.>........
  421ce8:	0fff 0000 ffc0 0003 0000 00ff 0000 0000     ................
	...
  421d04:	0700 e000 0000 0007 00e0 ff00 ffff 0000     ................
  421d14:	ffff 00ff ff00 ffff 0000 1c07 00e0 0700     ................
  421d24:	e01c 0000 1c07 0000 0700 001c 0000 1c07     ................
  421d34:	0000 0700 001c 0000 1c07 0000 0f00 000e     ................
  421d44:	0000 0f1e 0000 fe00 0007 0000 03fc 0000     ................
  421d54:	f000 0001 0000 0000 0000 0000 0000 0000     ................
  421d64:	ff00 0000 c000 03ff 0000 fff0 000f f800     ................
  421d74:	1f81 0000 007c 003e 3c00 3800 0000 001e     ....|.>..<.8....
  421d84:	0078 0e00 7000 0000 000f 00f0 0700 e000     x....p..........
  421d94:	0000 0007 0fe0 0700 e000 000f 0007 0fe0     ................
  421da4:	0700 e000 001f 000f 3ef0 0e00 7000 003c     .........>...p<.
  421db4:	001e 7878 3c00 3c00 0070 007c 703e f800     ..xx.<.<p.|.>p..
  421dc4:	1f81 0070 fff0 380f c000 03ff 0038 ff00     ..p....8....8...
	...
  421de4:	0000 0007 00e0 0700 e000 0000 ffff 00ff     ................
  421df4:	ff00 ffff 0000 ffff 00ff 0700 e01c 0000     ................
  421e04:	1c07 00e0 0700 001c 0000 1c07 0000 0700     ................
  421e14:	001c 0000 1c07 0000 0700 003c 0000 7c07     ..........<....|
  421e24:	0000 0f00 07fe 0000 ef1e 003f fe00 ffc7     ..........?.....
  421e34:	0000 03fc 00ff f000 f801 0000 0000 00e0     ................
  421e44:	0000 e000 0000 0000 0000 0000 0000 0000     ................
  421e54:	0000 000e f000 1e01 0000 07fc 003e fc00     ............>...
  421e64:	7e07 0000 0f1e 0078 0e00 f00e 0000 1e07     .~....x.........
  421e74:	00e0 0700 e01c 0000 1c07 00e0 0700 e03c     ..............<.
  421e84:	0000 3807 00e0 0f00 e038 0000 780e 0070     ...8....8....xp.
  421e94:	7e00 78f0 0000 f07c 003f 7800 1fe0 0000     .~.x..|.?..x....
  421ea4:	8070 000f 0000 0000 0000 0000 0000 3f00     p..............?
  421eb4:	0000 0000 003f 0000 3f00 0000 0000 0007     ....?....?......
  421ec4:	0000 0700 0000 0000 0007 0000 0700 0000     ................
  421ed4:	0000 0007 00e0 0700 e000 0000 ffff 00ff     ................
  421ee4:	ff00 ffff 0000 ffff 00ff 0700 e000 0000     ................
  421ef4:	0007 00e0 0700 0000 0000 0007 0000 0700     ................
  421f04:	0000 0000 003f 0000 3f00 0000 0000 003f     ....?....?....?.
	...
  421f24:	0000 0007 0000 0700 0000 0000 ffff 0003     ................
  421f34:	ff00 0fff 0000 ffff 001f 0700 3e00 0000     .............>..
  421f44:	0007 0078 0000 7000 0000 0000 00e0 0000     ..x....p........
  421f54:	e000 0000 0000 00e0 0000 e000 0000 0000     ................
  421f64:	00e0 0000 e000 0000 0000 0070 0700 7800     ..........p....x
  421f74:	0000 0007 003e ff00 1fff 0000 ffff 000f     ....>...........
  421f84:	ff00 01ff 0000 0007 0000 0700 0000 0000     ................
  421f94:	0007 0000 0700 0000 0000 000f 0000 7f00     ................
  421fa4:	0000 0000 03ff 0000 f700 000f 0000 7f87     ................
  421fb4:	0000 0000 01fe 0000 f000 000f 0000 7fc0     ................
  421fc4:	0000 0000 00fe 0000 f000 0000 0000 00f0     ................
  421fd4:	0000 fe00 0000 c000 007f 0000 0ff8 0000     ................
  421fe4:	ff07 0001 e700 003f 0000 07ff 0000 ff00     ......?.........
  421ff4:	0000 0000 001f 0000 0700 0000 0000 0007     ................
  422004:	0000 0700 0000 0000 0007 0000 1f00 0000     ................
  422014:	0000 00ff 0000 ff00 0007 0000 3ff7 0000     .............?..
  422024:	8700 01ff 0000 fc00 000f 0000 7fe0 0000     ................
  422034:	0000 00ff 0000 f800 0000 0000 00f0 0000     ................
  422044:	fe00 0000 c000 00ff 0000 1ffc 0000 ff80     ................
  422054:	0001 f000 003f 0000 07ff 0000 7f00 0000     ....?...........
  422064:	0000 000f 0000 1f00 0000 0000 00ff 0000     ................
  422074:	fc00 0007 0000 3fe0 0000 0000 01ff 0000     .......?........
  422084:	f800 000f 0000 7fc0 0000 0000 00fe 0000     ................
  422094:	f000 0000 0000 00f8 0000 ff00 0000 e000     ................
  4220a4:	007f 0000 0ffc 0000 ff87 0001 f700 003f     ..............?.
  4220b4:	0000 07ff 0000 ff00 0000 0000 001f 0000     ................
  4220c4:	0700 0000 0000 0007 0000 0000 0000 0000     ................
	...
  4220dc:	0000 0007 00e0 0700 e000 0000 000f 00f0     ................
  4220ec:	1f00 f800 0000 007f 00fe ff00 ff00 0000     ................
  4220fc:	83f7 00ef c000 e3e7 0000 ff80 0001 0000     ................
  42210c:	007e 0000 7e00 0000 8000 01ff 0000 e7c7     ~....~..........
  42211c:	0003 f700 ef81 0000 00ff 00ff 7f00 fe00     ................
  42212c:	0000 001f 00f8 0f00 f000 0000 0007 00e0     ................
  42213c:	0700 0000 0000 0000 0000 0700 0000 0000     ................
  42214c:	0007 0000 0f00 0000 0000 003f 0000 ff00     ..........?.....
  42215c:	0000 0000 01f7 0000 e700 e007 0000 0f80     ................
  42216c:	00e0 0000 fffe 0000 fc00 00ff 0000 fffc     ................
  42217c:	0000 3f00 00e0 c700 e00f 0000 03f7 0000     ...?............
  42218c:	ff00 0000 0000 003f 0000 0f00 0000 0000     ......?.........
  42219c:	0007 0000 0700 0000 0000 0000 0000 0000     ................
  4221ac:	0000 0000 007f 00f8 7f00 fc00 0000 007f     ................
  4221bc:	00fe 0700 ef00 0000 8007 00e7 0700 e3e0     ................
  4221cc:	0000 f007 00e1 0700 e078 0000 3c07 00e0     ........x....<..
  4221dc:	0700 e01f 0000 0f87 00e0 c700 e003 0000     ................
  4221ec:	01e7 00e0 f700 e000 0000 007f 00fe 3f00     ...............?
  4221fc:	fe00 0000 000f 00fe 0000 0000 0000 0000     ................
	...
  42221c:	f000 ffff 3fff fff0 ffff f03f ffff 3fff     .....?....?....?
  42222c:	0070 0000 7038 0000 3800 0000 0000 0000     p...8p...8......
	...
  422244:	8000 0001 0000 0f80 0000 0000 003f 0000     ............?...
  422254:	fc00 0000 0000 03e0 0000 8000 001f 0000     ................
  422264:	7e00 0000 0000 01f8 0000 c000 000f 0000     .~..............
  422274:	3f00 0000 0000 00fc 0000 e000 0000 0000     .?..............
  422284:	0080 0000 0000 0000 0000 0000 0000 0000     ................
  422294:	0000 0000 3800 0070 0000 7038 0000 3800     .....8p...8p...8
  4222a4:	fff0 ffff f03f ffff 3fff fff0 ffff 003f     ....?....?....?.
	...
  4222cc:	0000 0010 0000 1c00 0000 0000 001f 0000     ................
  4222dc:	0fc0 0000 f000 0003 0000 00fc 0000 3f00     ...............?
  4222ec:	0000 8000 000f 0000 0380 0000 8000 000f     ................
  4222fc:	0000 3f80 0000 0000 01fe 0000 f000 000f     ...?............
  42230c:	0000 1fc0 0000 0000 001e 0000 1000 0000     ................
	...
  422324:	0c00 0000 0000 000c 0000 0c00 0000 0000     ................
  422334:	000c 0000 0c00 0000 0000 000c 0000 0c00     ................
  422344:	0000 0000 000c 0000 0c00 0000 0000 000c     ................
  422354:	0000 0c00 0000 0000 000c 0000 0c00 0000     ................
  422364:	0000 000c 0000 0c00 0000 0000 000c 0000     ................
	...
  42237c:	0001 0000 0300 0000 0000 0007 0000 1f00     ................
  42238c:	0000 0000 003e 0000 3800 0000 0000 0020     ....>....8.... .
	...
  4223a4:	0000 001e 0000 7f0e 0000 8e00 007f 0000     ................
  4223b4:	f387 0000 c700 00e1 0000 e1c7 0000 c700     ................
  4223c4:	00e1 0000 e1c7 0000 c700 0061 0000 71cf     ..........a....q
  4223d4:	0000 fe00 00ff 0000 fffe 0000 f800 00ff     ................
  4223e4:	0000 e000 0000 0000 00e0 0000 0000 0000     ................
	...
  4223fc:	8000 0003 0000 0380 0000 8000 ffff 00ff     ................
  42240c:	ff80 ffff 8000 ffff 00ff 0000 700e 0000     .............p..
  42241c:	0e00 00e0 0000 e006 0000 0700 00e0 0000     ................
  42242c:	e007 0000 0700 00e0 0000 e007 0000 0f00     ................
  42243c:	00f0 0000 700e 0000 3e00 007c 0000 3ffc     .....p...>|....?
  42244c:	0000 f800 001f 0000 07e0 0000 0000 0000     ................
  42245c:	0000 0000 0000 e000 0007 0000 1ff8 0000     ................
  42246c:	fc00 003f 0000 7c3e 0000 0e00 0070 0000     ..?...>|....p...
  42247c:	e007 0000 0700 00e0 0000 e007 0000 0700     ................
  42248c:	00e0 0000 e007 0000 0e00 0070 0000 781e     ..........p....x
  42249c:	0000 1c00 003c 0000 1c1c 0000 1c00 000c     ....<...........
	...
  4224b8:	07e0 0000 f800 001f 0000 3ffc 0000 3e00     ...........?...>
  4224c8:	007c 0000 700e 0000 0f00 00f0 0000 e007     |....p..........
  4224d8:	0000 0700 00e0 0000 e007 0000 0700 00e0     ................
  4224e8:	0380 e007 8000 0e03 0070 ff80 ffff 8000     ........p.......
  4224f8:	ffff 00ff ff80 ffff 0000 0000 00e0 0000     ................
  422508:	e000 0000 0000 0000 0000 0000 0000 0000     ................
  422518:	0000 0000 07e0 0000 f800 001f 0000 3ffc     ...............?
  422528:	0000 de00 0079 0000 71ce 0000 c700 00e1     ....y....q......
  422538:	0000 e1c7 0000 c700 00e1 0000 e1c7 0000     ................
  422548:	c700 00e1 0000 e1cf 0000 de00 0071 0000     ............q...
  422558:	71fe 0000 fc00 0031 0000 01e0 0000 0000     .q....1.........
	...
  422578:	0000 0700 00e0 0000 e007 0000 fffc 00ff     ................
  422588:	fe00 ffff 0000 ffff 00ff 0780 e007 8000     ................
  422598:	0703 00e0 0380 0000 8000 0003 0000 0380     ................
	...
  4225b0:	0000 07e0 0000 f800 1c1f 0000 3ffc 003c     .............?<.
  4225c0:	3e00 387c 0000 700e 0078 0f00 70f0 0000     .>|8...px....p..
  4225d0:	e007 0070 0700 70e0 0000 e007 0070 0700     ..p....p....p...
  4225e0:	70e0 0000 e007 0070 0700 7860 0000 700e     .p....p...`x...p
  4225f0:	003c ff00 3fff 0000 ffff 001f ff00 07ff     <....?..........
	...
  422614:	0380 e000 8000 0003 00e0 ff80 ffff 8000     ................
  422624:	ffff 00ff ff80 ffff 0000 0c00 00e0 0000     ................
  422634:	e00e 0000 0700 0000 0000 0007 0000 0700     ................
  422644:	0000 0000 e007 0000 0f00 00e0 0000 fffe     ................
  422654:	0000 fe00 00ff 0000 fff8 0000 0000 00e0     ................
  422664:	0000 e000 0000 0000 0000 0000 0000 0000     ................
	...
  42267c:	0000 0700 00e0 0600 e007 0000 ff0f 00ff     ................
  42268c:	0f00 ffff 0000 ff06 00ff 0000 e000 0000     ................
  42269c:	0000 00e0 0000 0000 0000 0000 0000 0000     ................
  4226ac:	0000 0040 0700 e000 0000 0007 00f0 ff06     ..@.............
  4226bc:	7fff 0f00 ffff 003f ff0f 1fff 0600 0000     ......?.........
	...
  4226d8:	0000 00e0 0380 e000 8000 0003 00e0 ff80     ................
  4226e8:	ffff 8000 ffff 00ff ff80 ffff 0000 8000     ................
  4226f8:	00e1 0000 e180 0000 8000 0001 0000 03c0     ................
  422708:	0000 e000 0007 0000 0f70 0000 3f00 001c     ........p....?..
  422718:	0000 381f 0000 0f00 0070 0000 e007 0000     ...8....p.......
  422728:	0700 00e0 0000 e007 0000 0000 0000 0000     ................
	...
  422740:	0380 e000 8000 0003 00e0 ff80 ffff 8000     ................
  422750:	ffff 00ff ff80 ffff 0000 0000 00e0 0000     ................
  422760:	e000 0000 0000 0000 0000 0000 0000 0000     ................
  422770:	0000 0000 e007 0000 0700 00e0 0000 ffff     ................
  422780:	0000 ff00 00ff 0000 ffff 0000 0e00 00e0     ................
  422790:	0000 e00e 0000 0700 0000 0000 0007 0000     ................
  4227a0:	0700 0000 0000 0007 0000 0f00 00e0 0000     ................
  4227b0:	e00f 0000 fe00 00ff 0000 fffe 0000 f800     ................
  4227c0:	00ff 0000 e00e 0000 0600 00e0 0000 0007     ................
  4227d0:	0000 0700 0000 0000 0007 0000 0700 00e0     ................
  4227e0:	0000 e00f 0000 fe00 00ff 0000 fffe 0000     ................
  4227f0:	f800 00ff 0000 e000 0000 0000 00e0 0000     ................
	...
  422814:	e007 0000 0700 00e0 0000 ffff 0000 ff00     ................
  422824:	00ff 0000 ffff 0000 0e00 00e0 0000 e006     ................
  422834:	0000 0700 0000 0000 0007 0000 0700 0000     ................
  422844:	0000 e007 0000 0f00 00e0 0000 fffe 0000     ................
  422854:	fe00 00ff 0000 fff8 0000 0000 00e0 0000     ................
  422864:	e000 0000 0000 0000 0000 0000 0000 0000     ................
  422874:	0000 0000 07e0 0000 f800 001f 0000 3ffc     ...............?
  422884:	0000 3e00 007c 0000 700e 0000 0f00 00f0     ...>|....p......
  422894:	0000 e007 0000 0700 00e0 0000 e007 0000     ................
  4228a4:	0700 00e0 0000 f00f 0000 0e00 0070 0000     ............p...
  4228b4:	7c3e 0000 fc00 003f 0000 1ff8 0000 e000     >|....?.........
  4228c4:	0007 0000 0000 0000 0000 0000 0000 0000     ................
  4228d4:	0000 0700 7000 0000 0007 0070 ff00 7fff     .....p....p.....
  4228e4:	0000 ffff 007f ff00 7fff 0000 700e 0070     .............pp.
  4228f4:	0e00 70e0 0000 e007 0000 0700 00e0 0000     ...p............
  422904:	e007 0000 0700 00e0 0000 e007 0000 0f00     ................
  422914:	00f0 0000 780e 0000 3e00 007c 0000 3ffc     .....x...>|....?
  422924:	0000 f800 001f 0000 07e0 0000 0000 0000     ................
  422934:	0000 0000 0000 e000 0007 0000 1ff8 0000     ................
  422944:	fc00 003f 0000 7c3e 0000 0e00 0070 0000     ..?...>|....p...
  422954:	f00f 0000 0700 00e0 0000 e007 0000 0700     ................
  422964:	00e0 0000 e007 0000 0700 7060 0000 700f     ..........`p...p
  422974:	0070 ff00 7fff 0000 ffff 007f ff00 7fff     p...............
  422984:	0000 0000 0070 0000 7000 0000 0000 0000     ....p....p......
	...
  42299c:	0000 0700 00e0 0000 e007 0000 ff00 00ff     ................
  4229ac:	0000 ffff 0000 ff00 00ff 0000 e00e 0000     ................
  4229bc:	0700 00e0 0000 0007 0000 0f00 0000 0000     ................
  4229cc:	000f 0000 0f00 0000 0000 0000 0000 0000     ................
	...
  4229e4:	0000 001c 0000 1c7c 0000 fe00 003c 0000     ......|.....<...
  4229f4:	7cfe 0000 cf00 00f0 0000 e1c7 0000 c700     .|..............
  422a04:	00e1 0000 e187 0000 8700 00e3 0000 f38f     ................
  422a14:	0000 1e00 007f 0000 7f1c 0000 1c00 003e     ..............>.
	...
  422a34:	0700 0000 0000 0007 0000 fff0 003f f800     ............?...
  422a44:	7fff 0000 fff8 00ff 0000 e007 0000 0700     ................
  422a54:	00e0 0000 e000 0000 0000 00e0 0000 6000     ...............`
	...
  422a70:	0700 0000 0000 0007 0000 ff00 001f 0000     ................
  422a80:	7fff 0000 ff00 007f 0000 f000 0000 0000     ................
  422a90:	00e0 0000 e000 0000 0000 00e0 0000 e000     ................
  422aa0:	0000 0700 0060 0000 7007 0000 ff00 00ff     ....`....p......
  422ab0:	0000 ffff 0000 ff00 00ff 0000 e000 0000     ................
  422ac0:	0000 00e0 0000 0000 0000 0000 0000 0000     ................
	...
  422ad8:	0000 0007 0000 0f00 0000 0000 007f 0000     ................
  422ae8:	ff00 0003 0000 1ff7 0000 8000 00ff 0000     ................
  422af8:	fc00 0000 0000 00e0 0000 fc00 0000 8000     ................
  422b08:	00ff 0000 1ff7 0000 ff00 0003 0000 007f     ................
  422b18:	0000 0f00 0000 0000 0007 0000 0000 0000     ................
  422b28:	0000 0000 0000 0700 0000 0000 001f 0000     ................
  422b38:	ff00 0000 0000 07ff 0000 e700 003f 0000     ............?...
  422b48:	ff00 0000 0000 00f8 0000 fc00 0000 c000     ................
  422b58:	00ff 0000 3ffe 0000 ff00 0003 0000 001f     .....?..........
  422b68:	0000 1f00 0000 0000 01ff 0000 fc00 001f     ................
  422b78:	0000 ffc0 0000 0000 00fc 0000 f800 0000     ................
  422b88:	0000 00ff 0000 3fe7 0000 ff00 0007 0000     .......?........
  422b98:	00ff 0000 1f00 0000 0000 0007 0000 0000     ................
	...
  422bb0:	0700 00e0 0000 f007 0000 0f00 00f8 0000     ................
  422bc0:	fc1f 0000 3f00 00fe 0000 0f70 0000 e000     .....?....p.....
  422bd0:	0007 0000 03c0 0000 e000 0007 0000 0ff0     ................
  422be0:	0000 7f00 00fe 0000 fc3f 0000 1f00 00f8     ........?.......
  422bf0:	0000 f00f 0000 0700 00e0 0000 0000 0000     ................
  422c00:	0000 0000 0000 0007 0000 0f00 0000 0000     ................
  422c10:	007f 0070 ff00 7003 0000 1ff7 0078 8700     ..p....p....x...
  422c20:	7fff 0000 fc00 007f 0000 77f8 0000 fe00     ...........w....
  422c30:	0070 8700 003f 0000 0ff7 0000 ff00 0001     p...?...........
  422c40:	0000 007f 0000 0f00 0000 0000 0007 0000     ................
  422c50:	0700 0000 0000 0000 0000 0000 0000 0000     ................
  422c60:	e01f 0000 1f00 00f0 0000 f81f 0000 0700     ................
  422c70:	00fe 0000 ef07 0000 c700 00e7 0000 e1e7     ................
  422c80:	0000 f700 00e0 0000 e03f 0000 1f00 00f8     ........?.......
  422c90:	0000 f80f 0000 0300 00f8 0000 0000 0000     ................
	...
  422cb0:	0070 0000 f800 0001 ffc0 ffdf e00f dfff     p...............
  422cc0:	1fff fff0 ff87 703f 0000 3800 0070 0000     ......?p...8p...
  422cd0:	0038 0000 0000 0000 0000 0000 0000 0000     8...............
  422ce0:	fff0 ffff f00f ffff 0fff fff0 ffff 000f     ................
	...
  422d00:	0000 7000 0000 3800 0070 0000 f038 87ff     ...p...8p...8...
  422d10:	3fff ffe0 ffdf c01f dfff 0fff 0000 00f8     .?..............
  422d20:	0000 7000 0000 0000 0000 0000 0000 0000     ...p............
	...
  422d3c:	0200 0000 8000 0007 0000 03c0 0000 c000     ................
  422d4c:	0001 0000 01c0 0000 c000 0001 0000 01c0     ................
  422d5c:	0000 c000 0003 0000 0380 0000 8000 0003     ................
  422d6c:	0000 0380 0000 8000 0003 0000 03c0 0000     ................
  422d7c:	e000 0001 0000 0040 0000 0000 0000 0000     ......@.........
  422d8c:	0000 0000                                   ....

00422d90 <Arvo_22pt_CharCount>:
  422d90:	0a06 1409 1811 0515 0a0a 130c 0a08 0c06     ................
  422da0:	0c13 1010 1012 0f12 1212 0707 0d0e 0f10     ................
  422db0:	1621 1513 1215 1812 0b1a 160a 1f12 1717     !...............
  422dc0:	1712 1115 1614 2415 1315 0a11 0a0d 0f11     .......$........
  422dd0:	1008 1012 1112 110b 0913 1209 1d09 1113     ................
  422de0:	1112 0e0e 130b 1710 110f 0a0d 0a06 0011     ................

00422df0 <Arvo_22pt_Table>:
	...
  422e1c:	0000 0ff0 00c0 f000 e7ff 0001 fff0 01e7     ................
  422e2c:	f000 c00f 0000 0000 0000 0000 0000 0000     ................
	...
  422e44:	0000 01f8 0000 f800 0003 0000 03f8 0000     ................
	...
  422e5c:	0000 f800 0003 0000 03f8 0000 f800 0003     ................
	...
  422e74:	0e00 0000 0400 000e 0000 8e07 0001 0700     ................
  422e84:	01fe 0000 fff7 0001 ffc0 007f f000 0fff     ................
  422e94:	0000 0ff0 000e 7000 0e07 0000 0700 018e     .......p........
  422ea4:	0000 fe07 0001 c700 01ff 0000 7fff 0000     ................
  422eb4:	ffc0 000f f000 0e1f 0000 07f0 000e 3000     ...............0
  422ec4:	0e07 0000 0700 0000 0000 0007 0000 0000     ................
	...
  422edc:	0000 0018 0000 183c 0000 7e00 0038 0000     ......<....~8...
  422eec:	78fe 0000 cf00 00f0 0000 e1c7 0000 c7f8     .x..............
  422efc:	1fe1 f800 e187 001f 87f8 1fe1 0000 f38f     ................
  422f0c:	0000 1e00 007f 0000 7f1c 0000 1800 001e     ................
	...
  422f2c:	03c0 0000 f000 000f 0000 0c30 0100 1800     ..........0.....
  422f3c:	8018 0001 1818 01e0 1800 f018 0000 1818     ................
  422f4c:	007c 3000 1e0c 0000 8ff0 000f c000 03c3     |..0............
  422f5c:	0000 e000 0001 0000 00f8 0000 3c00 0000     .............<..
  422f6c:	0000 3c1f 0000 0780 00ff e000 c303 0000     ...<............
  422f7c:	80f0 0181 7800 8180 0001 8018 0181 0800     .....x..........
  422f8c:	8180 0001 0000 00c3 0000 ff00 0000 0000     ................
  422f9c:	003c 0000 0000 0000 0000 0000 0000 1e00     <...............
  422fac:	0000 8780 007f c000 ffcf 0000 dfe0 00f1     ................
  422fbc:	f000 e0fc 0001 7870 01c0 7000 c0f0 0001     ......px...p....
  422fcc:	f070 01c1 7000 c3f8 0001 bcf0 01e7 e000     p....p..........
  422fdc:	ef1f 0000 0fc0 00fe 8000 7c07 0000 8000     ...........|....
  422fec:	007f 0000 f7c0 0000 c000 01e1 0000 c000     ................
  422ffc:	0001 0000 0180 0000 0000 0001 0000 0000     ................
  42300c:	f800 0003 0000 03f8 0000 f800 0003 0000     ................
  42301c:	0078 0000 0000 0000 0000 0000 0000 0000     x...............
  42302c:	0ff8 0000 ff80 00ff e000 ffff 0003 07f8     ................
  42303c:	0ff0 7e00 0000 003f 001f 7c00 0600 0000     ...~..?....|....
  42304c:	0030 0000 0000 0000 0000 0000 0006 3000     0..............0
  42305c:	1f00 0000 007c 007e 3f00 f800 f007 000f     ....|.~..?......
  42306c:	ffe0 03ff 8000 ffff 0000 f800 000f 0000     ................
	...
  423088:	0000 0060 0000 4000 0000 0000 0cc0 0000     ..`....@........
  423098:	c000 0007 0000 03f8 0000 f800 0003 0000     ................
  4230a8:	07c0 0000 c000 000e 0000 0040 0000 6000     ..........@....`
	...
  4230cc:	00c0 0000 c000 0000 0000 00c0 0000 c000     ................
  4230dc:	0000 0000 00c0 0000 c000 0000 0000 3fff     ...............?
  4230ec:	0000 ff00 003f 0000 3fff 0000 c000 0000     ....?....?......
  4230fc:	0000 00c0 0000 c000 0000 0000 00c0 0000     ................
  42310c:	c000 0000 0000 00c0 0000 0000 0000 0000     ................
  42311c:	0000 0000 0000 0800 0000 0000 000e 0000     ................
  42312c:	0780 0000 c000 0003 0000 01c0 0000 8000     ................
	...
  42314c:	0000 0300 0000 0000 0003 0000 0300 0000     ................
  42315c:	0000 0003 0000 0300 0000 0000 0003 0000     ................
  42316c:	0300 0000 0000 0003 0000 0000 0000 0000     ................
  42317c:	0000 0000 c000 0000 0000 01e0 0000 e000     ................
  42318c:	0001 0000 00c0 0000 0000 0000 0000 0000     ................
  42319c:	0000 0000 0001 0000 01e0 0000 fc00 0001     ................
  4231ac:	8000 00ff 0000 1fe0 0000 fc00 0003 8000     ................
  4231bc:	007f 0000 1ff0 0000 f800 0003 0000 0078     ..............x.
  4231cc:	0000 0800 0000 0000 0000 0000 0000 07fc     ................
  4231dc:	0000 ff00 001f c000 7fff 0000 07c0 00f8     ................
  4231ec:	e000 e001 0000 00f0 01e0 7000 c000 0001     ...........p....
  4231fc:	0070 01c0 7000 c000 0001 0070 01c0 7000     p....p....p....p
  42320c:	c000 0001 00f0 01e0 e000 f001 0000 03e0     ................
  42321c:	00fc c000 7fff 0000 ff80 001f 0000 07fc     ................
	...
  423238:	0180 0000 c000 0001 0000 00c0 0000 e000     ................
  423248:	c000 0001 0060 01c0 e000 ffff 0001 fff0     ....`...........
  423258:	01ff f000 ffff 0001 0000 01c0 0000 c000     ................
  423268:	0001 0000 0000 0000 0000 0000 0700 01e0     ................
  423278:	8000 f007 0001 07e0 01f8 e000 fc01 0001     ................
  423288:	00f0 01ce 7000 c700 0001 8070 01c3 7000     .....p....p....p
  423298:	c1c0 0001 e0f0 01c0 e000 c070 0001 3fe0     ..........p....?
  4232a8:	01c0 c000 c01f 0001 0f80 01c0 0000 0000     ................
	...
  4232c4:	0200 0018 8000 7803 0000 03c0 00f8 e000     .......x........
  4232d4:	f001 0000 00f0 01e0 7000 c070 0001 7070     .........pp...pp
  4232e4:	01c0 7000 c070 0001 f070 01e0 e000 f1f8     ...pp...p.......
  4232f4:	0000 dfe0 00ff c000 7f9f 0000 0780 001f     ................
	...
  423314:	0000 0007 0000 0780 0000 e000 0007 0000     ................
  423324:	06f8 0000 7c00 0006 0000 061f 0000 07c0     .....|..........
  423334:	0006 e000 c603 0001 00f0 01c6 3000 ffe0     .............0..
  423344:	0001 e010 01ff 0000 ffe0 0001 0000 01c6     ................
  423354:	0000 c600 0001 0000 0006 0000 0000 0000     ................
	...
  423370:	0018 f000 387f 0000 7ff0 0070 f000 e07f     .....8....p.....
  423380:	0000 7070 01c0 7000 c038 0001 3870 01c0     ..pp...p8...p8..
  423390:	7000 c038 0001 3870 01c0 7000 e078 0001     .p8...p8...px...
  4233a0:	f070 00f0 7000 7fe0 0000 c070 003f 0000     p....p....p.?...
  4233b0:	1f80 0000 0000 0000 0000 0000 0000 0000     ................
  4233c0:	001f 0000 3fc0 0000 f000 007f 0000 f0fc     .....?..........
  4233d0:	0000 7f00 00e0 8000 c03f 0001 3be0 01c0     ........?....;..
  4233e0:	f000 c039 0001 3870 01c0 1000 c038 0001     ..9...p8....8...
  4233f0:	7800 01e0 0000 e078 0000 f000 00f0 0000     .x....x.........
  423400:	7fe0 0000 c000 003f 0000 0f80 0000 0000     ......?.........
	...
  423418:	01f0 0000 f000 c001 0001 01f0 01c0 7000     ...............p
  423428:	e000 0001 0070 01fc 7000 ff00 0001 c070     ....p....p....p.
  423438:	01df 7000 c3f0 0001 fc70 0000 7000 003f     ...p....p....p?.
  423448:	0000 0ff0 0000 f000 0003 0000 00f0 0000     ................
	...
  423468:	0000 001e 8000 7f0f 0000 bfc0 00ff e000     ................
  423478:	e1ff 0000 f0e0 01e1 7000 c0e0 0001 e070     .........p....p.
  423488:	01c0 7000 c0e0 0001 e070 01c0 f000 e1f0     ...p....p.......
  423498:	0001 ffe0 00e1 c000 ffbf 0000 0f80 007f     ................
  4234a8:	0000 1e00 0000 0000 0000 0000 0000 0000     ................
  4234b8:	0000 0000 0000 001f 0000 7f80 0000 c000     ................
  4234c8:	00ff 0000 f1e0 0000 e000 01e0 0000 c070     ..............p.
  4234d8:	0101 7000 c1c0 0001 c070 01e1 7000 f9c0     ...p....p....p..
  4234e8:	0000 c070 003f e000 1fe0 0000 f1e0 0007     ..p.?...........
  4234f8:	c000 01ff 0000 7f80 0000 0000 001f 0000     ................
	...
  423518:	c018 0000 3c00 01e0 0000 e03c 0001 1800     .....<....<.....
  423528:	00c0 0000 0000 0000 0000 0000 0000 0000     ................
  423538:	000c 1800 0f00 0000 c03c 000f 3c00 03e0     ........<....<..
  423548:	0000 e018 0001 0000 00c0 0000 0000 0000     ................
  423558:	c000 0003 0000 03e0 0000 e000 0007 0000     ................
  423568:	0770 0000 7000 000e 0000 0e38 0000 3800     p....p....8....8
  423578:	001c 0000 1c1c 0000 1c00 003c 0000 380e     ..........<....8
  423588:	0000 0e00 0038 0000 7007 0000 0000 0000     ....8....p......
	...
  4235a4:	18c0 0000 c000 0018 0000 18c0 0000 c000     ................
  4235b4:	0018 0000 18c0 0000 c000 0018 0000 18c0     ................
  4235c4:	0000 c000 0018 0000 18c0 0000 c000 0018     ................
  4235d4:	0000 18c0 0000 0000 0000 0000 0000 0000     ................
  4235e4:	0000 0000 0000 7007 0000 0e00 0038 0000     .......p....8...
  4235f4:	380e 0000 1c00 003c 0000 1c1c 0000 3800     .8....<........8
  423604:	001c 0000 0e38 0000 7000 000e 0000 0770     ....8....p....p.
  423614:	0000 e000 0007 0000 03e0 0000 c000 0003     ................
	...
  423638:	0000 0003 0000 0780 0000 e000 0007 0000     ................
  423648:	01e0 00cf f000 ef80 0001 c070 01ef 7000     ..........p....p
  423658:	c1e0 0000 7070 0000 f000 0038 0000 3fe0     ....pp....8....?
  423668:	0000 c000 001f 0000 0780 0000 0000 0000     ................
	...
  423684:	c000 003f 0000 fff0 0000 fc00 03ff 0000     ..?.............
  423694:	e07e 0007 1f00 0f80 8000 0007 001e 03c0     ~...............
  4236a4:	3c00 c000 0001 0038 81e0 780f e000 3fe0     .<....8....x...?
  4236b4:	0070 f0e0 70ff 7000 f078 00e0 3c70 e1e0     p....p.px...p<..
  4236c4:	7000 c01c 00e1 1c70 e1c0 7000 c01c 00e1     .p....p....p....
  4236d4:	3c70 e1e0 7000 f078 00e0 fcf0 60ff e000     p<...px......`..
  4236e4:	fffc 0070 fce0 71ff c000 c001 0001 03c0     ..p....q........
  4236f4:	01c0 8000 c007 0001 0f00 01e0 0000 f03e     ..............>.
  423704:	0000 fc00 007f 0000 3ff8 0000 c000 000f     .........?......
	...
  423720:	c000 0001 0000 01c0 0000 e000 0001 0000     ................
  423730:	01fc 0000 ff00 0001 e000 01df 0000 c3fc     ................
  423740:	0001 ff00 0003 e000 039f 0000 87f0 0003     ................
  423750:	f000 0380 0000 8070 0003 f000 0381 0000     ......p.........
  423760:	8ff0 0003 8000 03ff 0000 fe00 01c3 0000     ................
  423770:	dff0 0001 8000 01ff 0000 fc00 0001 0000     ................
  423780:	01e0 0000 c000 0001 0000 01c0 0000 0000     ................
  423790:	0000 0000 0000 7000 c000 0001 0070 01c0     .......p....p...
  4237a0:	f000 ffff 0001 fff0 01ff f000 ffff 0001     ................
  4237b0:	e070 01c0 7000 c0e0 0001 e070 01c0 7000     p....p....p....p
  4237c0:	c0e0 0001 e070 01c0 7000 c0e0 0001 e0f0     ....p....p......
  4237d0:	01e0 e000 f1f1 0000 bfe0 00ff c000 7f9f     ................
  4237e0:	0000 0f00 001e 0000 0000 0000 0000 0000     ................
  4237f0:	0000 03f8 0000 fe00 000f 8000 3fff 0000     .............?..
  423800:	0fc0 007c c000 7803 0000 01e0 00f0 e000     ..|....x........
  423810:	e000 0000 0070 01c0 7000 c000 0001 0070     ....p....p....p.
  423820:	01c0 7000 c000 0001 0070 01c0 f000 e000     ...p....p.......
  423830:	0001 00e0 00e0 e000 f001 0000 03c0 0078     ..............x.
  423840:	c000 3803 0000 0380 0018 8000 0803 0000     ...8............
	...
  42385c:	0000 7000 c000 0001 0070 01c0 f000 ffff     ...p....p.......
  42386c:	0001 fff0 01ff f000 ffff 0001 0070 01c0     ............p...
  42387c:	7000 c000 0001 0070 01c0 7000 c000 0001     .p....p....p....
  42388c:	0070 01c0 7000 c000 0001 00e0 00e0 e000     p....p..........
  42389c:	f001 0000 03c0 0078 c000 3e0f 0000 ff80     ......x....>....
  4238ac:	001f 0000 0ffe 0000 f800 0003 0000 0000     ................
	...
  4238c8:	0070 01c0 7000 c000 0001 fff0 01ff f000     p....p..........
  4238d8:	ffff 0001 fff0 01ff 7000 c0e0 0001 e070     .........p....p.
  4238e8:	01c0 7000 c0e0 0001 e070 01c0 7000 c0e0     ...p....p....p..
  4238f8:	0001 e070 01c0 7000 c000 0001 03f0 01f8     ..p....p........
  423908:	f000 f803 0001 03f0 01f8 0000 0000 0000     ................
	...
  423920:	0000 0070 01c0 7000 c000 0001 fff0 01ff     ..p....p........
  423930:	f000 ffff 0001 fff0 01ff 7000 c0e0 0001     ...........p....
  423940:	e070 01c0 7000 00e0 0000 e070 0000 7000     p....p....p....p
  423950:	00e0 0000 e070 0000 7000 00e0 0000 03f0     ....p....p......
  423960:	0000 f000 0003 0000 03f0 0000 0000 0000     ................
	...
  423978:	03f8 0000 fe00 000f 0000 3fff 0000 0fc0     ...........?....
  423988:	007c c000 f803 0000 01e0 00f0 e000 e000     |...............
  423998:	0001 0070 01c0 7000 c000 0001 0070 01c0     ..p....p....p...
  4239a8:	7000 c000 0001 8070 01c3 7000 c380 0001     .p....p....p....
  4239b8:	80f0 00e3 e000 e380 0000 81e0 0073 c000     ............s...
  4239c8:	3f83 0000 8380 01ff 8000 ff83 0001 8000     .?..............
  4239d8:	01ff 0000 0000 0000 0000 0000 0000 0000     ................
	...
  4239f4:	0070 01c0 7000 c000 0001 fff0 01ff f000     p....p..........
  423a04:	ffff 0001 fff0 01ff 7000 c070 0001 7070     .........pp...pp
  423a14:	01c0 0000 0070 0000 7000 0000 0000 0070     ....p....p....p.
  423a24:	0000 7000 0000 0000 0070 0000 7000 0000     ...p....p....p..
  423a34:	0000 0070 0000 7000 0000 7000 c070 0001     ..p....p...pp...
  423a44:	7070 01c0 f000 ffff 0001 fff0 01ff f000     pp..............
  423a54:	ffff 0001 0070 01c0 7000 c000 0001 0000     ....p....p......
	...
  423a74:	0000 0070 01c0 7000 c000 0001 fff0 01ff     ..p....p........
  423a84:	f000 ffff 0001 fff0 01ff 7000 c000 0001     ...........p....
  423a94:	0070 01c0 0000 0000 0000 0000 0000 0000     p...............
  423aa4:	0000 0000 0000 0800 7000 0000 000c 0070     .........p....p.
  423ab4:	0f00 f000 ffff 0007 fff0 01ff f000 ffff     ................
  423ac4:	0000 0070 0000 7000 0000 0000 0000 0000     ..p....p........
	...
  423adc:	0000 7000 c000 0001 0070 01c0 f000 ffff     ...p....p.......
  423aec:	0001 fff0 01ff f000 ffff 0001 2070 01c0     ............p ..
  423afc:	7000 c070 0001 f800 0000 0000 03dc 0000     .pp.............
  423b0c:	8e00 0007 0000 0f07 0000 0700 001c 8000     ................
  423b1c:	3803 0000 01c0 01f0 f000 e000 0001 0070     .8............p.
  423b2c:	01c0 3000 8000 0001 0030 0180 3000 8000     ...0....0....0..
  423b3c:	0001 0000 0000 0000 0000 0000 0000 0000     ................
  423b4c:	7000 c000 0001 0070 01c0 f000 ffff 0001     .p....p.........
  423b5c:	fff0 01ff f000 ffff 0001 0070 01c0 7000     ..........p....p
  423b6c:	c000 0001 0000 01c0 0000 c000 0001 0000     ................
  423b7c:	01c0 0000 c000 0001 0000 01c0 0000 fc00     ................
  423b8c:	0001 0000 01fc 0000 fc00 0001 0000 0000     ................
	...
  423ba4:	0000 7000 c000 0001 0070 01c0 f000 ffff     ...p....p.......
  423bb4:	0001 fff0 01ff f000 ffff 0001 00f0 01c0     ................
  423bc4:	f000 c007 0001 3fc0 0000 0000 00fe 0000     .......?........
  423bd4:	f800 0007 0000 3fc0 0000 0000 00fe 0000     .......?........
  423be4:	f800 0001 0000 01c0 0000 f000 0001 0000     ................
  423bf4:	01fe 0000 ffc0 0000 f800 0007 0000 01fe     ................
  423c04:	0000 3fc0 0000 f000 c007 0001 00f0 01c0     ...?............
  423c14:	f000 ffff 0001 fff0 01ff f000 ffff 0001     ................
  423c24:	0070 01c0 7000 c000 0001 0000 0000 0000     p....p..........
	...
  423c40:	0000 0070 01c0 7000 c000 0001 fff0 01ff     ..p....p........
  423c50:	f000 ffff 0001 fff0 01ff f000 c000 0001     ................
  423c60:	03f0 01c0 c000 000f 0000 1f00 0000 0000     ................
  423c70:	007c 0000 f800 0001 0000 07e0 0000 8000     |...............
  423c80:	001f 0000 3e00 0000 0070 00f8 7000 f000     .....>..p....p..
  423c90:	0001 fff0 01ff f000 ffff 0001 fff0 01ff     ................
  423ca0:	7000 0000 0000 0070 0000 0000 0000 0000     .p....p.........
  423cb0:	f800 0003 0000 0ffe 0000 ff00 001f 8000     ................
  423cc0:	3e0f 0000 03c0 0078 e000 f001 0000 00e0     .>....x.........
  423cd0:	00e0 f000 e000 0001 0070 01c0 7000 c000     ........p....p..
  423ce0:	0001 0070 01c0 7000 c000 0001 0070 01c0     ..p....p....p...
  423cf0:	f000 e000 0001 00e0 00e0 e000 f001 0000     ................
  423d00:	03c0 0078 8000 3e0f 0000 ff00 001f 0000     ..x....>........
  423d10:	0ffe 0000 f800 0003 0000 0000 0000 0000     ................
	...
  423d28:	0070 01c0 7000 c000 0001 fff0 01ff f000     p....p..........
  423d38:	ffff 0001 fff0 01ff 7000 c0e0 0001 e070     .........p....p.
  423d48:	01c0 7000 00e0 0000 e070 0000 7000 00e0     ...p....p....p..
  423d58:	0000 e070 0000 e000 0070 0000 7fe0 0000     ..p.....p.......
  423d68:	c000 003f 0000 0f80 0000 0000 0000 0000     ..?.............
  423d78:	0000 0000 0000 03f8 0000 fe00 000f 0000     ................
  423d88:	3fff 0000 0f80 007e c000 7803 0000 01e0     .?....~....x....
  423d98:	00f0 e000 e000 0000 00f0 01e0 7000 c000     .............p..
  423da8:	0001 0070 0fc0 7000 c000 000f 0070 1fc0     ..p....p....p...
  423db8:	7000 c000 001f 00f0 3de0 e000 e000 0078     .p.......=....x.
  423dc8:	01e0 70f0 c000 7803 0070 0f80 707e 0000     ...p...xp...~p..
  423dd8:	3fff 0038 fe00 380f 0000 03f8 0018 0000     .?8....8........
	...
  423df4:	7000 c000 0001 0070 01c0 f000 ffff 0001     .p....p.........
  423e04:	fff0 01ff f000 ffff 0001 6070 01c0 7000     ..........p`...p
  423e14:	c060 0001 6070 0000 7000 0060 0000 6070     `...p`...p`...p`
  423e24:	0000 7000 00e0 0000 e070 0007 e000 7fb0     ...p....p.......
  423e34:	0000 bfe0 01ff c000 fe1f 0001 0f80 01f0     ................
  423e44:	0000 c000 0001 0000 01c0 0000 0000 0000     ................
  423e54:	0000 0000 0000 1c00 0000 0f80 003c c000     ............<...
  423e64:	7c1f 0000 3fe0 00fc e000 f078 0000 70f0     .|...?....x....p
  423e74:	01e0 7000 c070 0001 e070 01c0 7000 c0e0     ...pp...p....p..
  423e84:	0001 e070 01c0 f000 e1c0 0001 c0e0 00e3     ..p.............
  423e94:	e000 ff83 0000 83c0 007f 8000 1e03 0000     ................
  423ea4:	0380 0000 0000 0000 0000 03f0 0000 f000     ................
  423eb4:	0003 0000 03f0 0000 7000 0000 0000 0070     .........p....p.
  423ec4:	0000 7000 0000 0000 0070 01c0 7000 c000     ...p....p....p..
  423ed4:	0001 fff0 01ff f000 ffff 0001 fff0 01ff     ................
  423ee4:	7000 c000 0001 0070 01c0 7000 0000 0000     .p....p....p....
  423ef4:	0070 0000 f000 0003 0000 03f0 0000 f000     p...............
  423f04:	0003 0000 0000 0000 0000 0000 0000 0000     ................
  423f14:	0000 7000 0000 0000 0070 0000 f000 0fff     ...p....p.......
  423f24:	0000 fff0 003f f000 7fff 0000 0070 00f8     ....?.......p...
  423f34:	7000 e000 0000 0000 01e0 0000 c000 0001     .p..............
  423f44:	0000 01c0 0000 c000 0001 0000 01c0 0000     ................
  423f54:	c000 0001 0070 00e0 7000 f800 0000 fff0     ....p....p......
  423f64:	007f f000 3fff 0000 fff0 000f 7000 0000     .....?.......p..
  423f74:	0000 0070 0000 7000 0000 0000 0070 0000     ..p....p....p...
  423f84:	f000 0001 0000 0ff0 0000 f000 007f 0000     ................
  423f94:	fe70 0003 7000 1ff0 0000 8000 01ff 0000     p....p..........
  423fa4:	fc00 0001 0000 01c0 0000 c000 0001 0000     ................
  423fb4:	01f8 0000 fe00 0000 c000 003f 7000 07f0     ..........?..p..
  423fc4:	0000 fe70 0001 f000 003f 0000 0ff0 0000     ..p.....?.......
  423fd4:	f000 0001 0000 0070 0000 7000 0000 0000     ......p....p....
  423fe4:	0070 0000 7000 0000 0000 00f0 0000 f000     p....p..........
  423ff4:	0007 0000 3ff0 0000 7000 01ff 0000 f870     .....?...p....p.
  424004:	000f 0000 7fc0 0000 0000 01fe 0000 f000     ................
  424014:	0001 0000 01c0 0000 f800 0001 8000 01ff     ................
  424024:	0000 3ff8 0000 ff00 0003 f000 007f 0000     ...?............
  424034:	07f0 0000 f000 0000 0000 01f0 0000 f000     ................
  424044:	000f 0000 7fc0 0000 0000 07fe 0000 f000     ................
  424054:	003f 0000 ff80 0001 0000 01f8 0000 c000     ?...............
  424064:	0001 0000 01f0 0000 fe00 0001 c000 007f     ................
  424074:	7000 0ff8 0000 ff70 0001 f000 003f 0000     .p....p.....?...
  424084:	07f0 0000 f000 0000 0000 0070 0000 7000     ..........p....p
	...
  4240a0:	0000 0070 0000 7000 c000 0001 00f0 01e0     ..p....p........
  4240b0:	f000 f001 0001 03f0 01f8 7000 dc07 0001     ...........p....
  4240c0:	0e70 01cf 0000 079c 0000 f800 0003 0000     p...............
  4240d0:	00e0 0000 f800 0003 0000 07bc 0000 1e70     ..............p.
  4240e0:	01cf 7000 dc07 0001 03f0 01f8 f000 f001     ...p............
  4240f0:	0001 00f0 01e0 7000 c000 0001 0070 0000     .......p....p...
  424100:	0000 0000 0000 0070 0000 7000 0000 0000     ......p....p....
  424110:	00f0 0000 f000 0001 0000 07f0 0000 7000     ...............p
  424120:	c00f 0001 3e70 01c0 0000 fff8 0001 f000     ....p>..........
  424130:	01ff 0000 fff0 0001 7800 01c0 7000 c03e     .........x...p>.
  424140:	0001 0f70 0000 f000 0007 0000 01f0 0000     ..p.............
  424150:	f000 0000 0000 0070 0000 7000 0000 0000     ......p....p....
  424160:	0000 0000 f000 e003 0001 03f0 01f0 f000     ................
  424170:	f803 0001 0030 019e 3000 8f00 0001 8030     ....0....0....0.
  424180:	0187 3000 81e0 0001 f030 0180 3000 8078     ...0....0....0x.
  424190:	0001 1e30 0180 3000 800f 0001 07b0 0180     ..0....0........
  4241a0:	f000 f801 0001 00f0 01f8 7000 f800 0001     ...........p....
	...
  4241c4:	ffff 3fff ff00 ffff 003f ffff 3fff 0700     ...?....?....?..
  4241d4:	0000 0038 0007 3800 0000 0000 0000 0000     ..8....8........
	...
  4241ec:	0018 0000 7800 0000 0000 01f0 0000 c000     .....x..........
  4241fc:	000f 0000 3e00 0000 0000 00f8 0000 e000     .....>..........
  42420c:	0003 0000 1f80 0000 0000 007c 0000 f000     ..........|.....
  42421c:	0001 0000 01c0 0000 0000 0000 0000 0000     ................
  42422c:	0000 0000 0038 0007 3800 0700 0000 0038     ....8....8....8.
  42423c:	ffff 3fff ff00 ffff 003f ffff 3fff 0000     ...?....?....?..
	...
  424264:	4000 0000 0000 0070 0000 7c00 0000 0000     .@....p....|....
  424274:	003f 0000 0fc0 0000 f000 0003 0000 00f8     ?...............
  424284:	0000 3800 0000 0000 0078 0000 f800 0003     ...8....x.......
  424294:	0000 1ff0 0000 8000 007f 0000 7c00 0000     .............|..
  4242a4:	0000 0060 0000 0000 0000 0000 0000 0008     ..`.............
  4242b4:	0000 0800 0000 0000 0008 0000 0800 0000     ................
  4242c4:	0000 0008 0000 0800 0000 0000 0008 0000     ................
  4242d4:	0800 0000 0000 0008 0000 0800 0000 0000     ................
  4242e4:	0008 0000 0800 0000 0000 0008 0000 0800     ................
  4242f4:	0000 0000 0008 0000 0000 1000 0000 0000     ................
  424304:	0010 0000 3000 0000 0000 0070 0000 e000     .....0....p.....
  424314:	0000 0000 00c0 0000 8000 0000 0000 0000     ................
  424324:	0000 0000 7800 0000 3800 00fe 0000 fe38     .....x...8....8.
  424334:	0000 3c00 01e7 0000 c31c 0001 1c00 01c3     ...<............
  424344:	0000 c31c 0001 1c00 01c3 0000 e33c 0000     ............<...
  424354:	f800 01ff 0000 fff8 0001 f000 01ff 0000     ................
  424364:	c000 0001 0000 01c0 0000 0000 0000 0000     ................
  424374:	0000 3800 0000 0000 0038 0000 f800 ffff     ...8....8.......
  424384:	0001 fff8 01ff f800 ffff 0001 3800 00e0     .............8..
  424394:	0000 c018 0001 1c00 01c0 0000 c01c 0001     ................
  4243a4:	1c00 01c0 0000 c01c 0001 3c00 01e0 0000     ...........<....
  4243b4:	f078 0000 f000 007f 0000 3fe0 0000 8000     x..........?....
  4243c4:	001f 0000 0000 0000 0000 0000 0000 0f80     ................
  4243d4:	0000 e000 003f 0000 7ff0 0000 7800 00f0     ....?........x..
  4243e4:	0000 e038 0000 1c00 01c0 0000 c01c 0001     ..8.............
  4243f4:	1c00 01c0 0000 c01c 0001 1c00 01c0 0000     ................
  424404:	e038 0000 7000 00f0 0000 7070 0000 7000     8....p....pp...p
  424414:	0010 0000 0000 0000 0000 0000 0000 0fc0     ................
  424424:	0000 e000 003f 0000 7ff0 0000 7800 00f0     ....?........x..
  424434:	0000 e03c 0001 1c00 01c0 0000 c01c 0001     ..<.............
  424444:	1c00 01c0 0000 c01c 0001 1c38 01c0 3800     ..........8....8
  424454:	e038 0000 fff8 01ff f800 ffff 0001 fff8     8...............
  424464:	01ff 0000 c000 0001 0000 01c0 0000 0000     ................
	...
  42447c:	1f80 0000 e000 003f 0000 7ff0 0000 7800     ......?........x
  42448c:	00f3 0000 e33c 0001 1c00 01c3 0000 c31c     ....<...........
  42449c:	0001 1c00 01c3 0000 c31c 0001 1c00 01c3     ................
  4244ac:	0000 c338 0000 f800 00e3 0000 63f0 0000     ..8..........c..
  4244bc:	c000 0003 0000 0000 0000 0000 0000 0000     ................
	...
  4244d4:	0000 c00c 0001 0c00 01c0 c000 ffff 0001     ................
  4244e4:	fff0 01ff f000 ffff 0001 0c78 01c0 3800     ..........x....8
  4244f4:	c00c 0001 0038 0000 3800 0000 0000 0000     ....8....8......
  424504:	0000 0000 0fc0 0020 e000 303f 0000 7ff0     ...... ...?0....
  424514:	0070 7800 70f0 0000 e03c 00e1 1c00 e1c0     p..x.p..<.......
  424524:	0000 c01c 00e1 1c00 e1c0 0000 c01c 00e1     ................
  424534:	1c00 f0c0 0000 e03c 0078 fc00 7fff 0000     ......<.x.......
  424544:	fffc 003f fc00 0fff 0000 0000 0000 0000     ..?.............
	...
  424560:	3800 c000 0001 0038 01c0 f800 ffff 0001     .8....8.........
  424570:	fff8 01ff f800 ffff 0001 3800 01c0 0000     ...........8....
  424580:	c018 0001 1c00 0000 0000 001c 0000 1c00     ................
  424590:	01c0 0000 c03c 0001 fc00 01ff 0000 fff8     ....<...........
  4245a0:	0001 f000 01ff 0000 c000 0001 0000 01c0     ................
	...
  4245bc:	c01c 0001 1c00 01c0 3000 fffc 0001 fc78     .........0....x.
  4245cc:	01ff 7800 fffc 0001 0030 01c0 0000 c000     ...x....0.......
  4245dc:	0001 0000 0000 0000 0000 0000 1c00 c000     ................
  4245ec:	0000 001c 00e0 fc30 7fff 7800 fffc 003f     ......0....x..?.
  4245fc:	fc78 1fff 3000 0000 0000 0000 0000 0000     x....0..........
	...
  424618:	0000 0038 01c0 3800 c000 0001 fff8 01ff     ..8....8........
  424628:	f800 ffff 0001 fff8 01ff 0000 c300 0001     ................
  424638:	0000 01c3 0000 0300 0000 8000 0007 0000     ................
  424648:	1fdc 0000 fc00 003f 0000 f87c 0000 3c00     ......?...|....<
  424658:	01e0 0000 c01c 0001 1c00 01c0 0000 0000     ................
  424668:	0000 0000 0000 3800 c000 0001 0038 01c0     .......8....8...
  424678:	f800 ffff 0001 fff8 01ff f800 ffff 0001     ................
  424688:	0000 01c0 0000 c000 0001 0000 0000 0000     ................
  424698:	0000 0000 1c00 01c0 0000 c01c 0001 fc00     ................
  4246a8:	01ff 0000 fffc 0001 fc00 01ff 0000 c038     ..............8.
  4246b8:	0001 1800 01c0 0000 001c 0000 1c00 0000     ................
  4246c8:	0000 001c 0000 1c00 01c0 0000 c03c 0001     ............<...
  4246d8:	f800 01ff 0000 fff8 0001 f000 01ff 0000     ................
  4246e8:	c038 0001 1800 01c0 0000 001c 0000 1c00     8...............
  4246f8:	0000 0000 001c 0000 1c00 01c0 0000 c03c     ..............<.
  424708:	0001 f800 01ff 0000 fff8 0001 e000 01ff     ................
  424718:	0000 c000 0001 0000 01c0 0000 0000 0000     ................
  424728:	0000 0000 0000 c01c 0001 1c00 01c0 0000     ................
  424738:	fffc 0001 fc00 01ff 0000 fffc 0001 3800     ...............8
  424748:	01c0 0000 c018 0001 1c00 0000 0000 001c     ................
  424758:	0000 1c00 0000 0000 c01c 0001 3c00 01c0     .............<..
  424768:	0000 fff8 0001 f800 01ff 0000 ffe0 0001     ................
  424778:	0000 01c0 0000 c000 0001 0000 0000 0000     ................
  424788:	0000 0000 8000 000f 0000 3fe0 0000 f000     ...........?....
  424798:	007f 0000 f078 0000 3800 00e0 0000 c01c     ....x....8......
  4247a8:	0001 1c00 01c0 0000 c01c 0001 1c00 01c0     ................
  4247b8:	0000 c01c 0001 3800 00e0 0000 f078 0000     .......8....x...
  4247c8:	f000 007f 0000 3fe0 0000 8000 000f 0000     .......?........
	...
  4247e0:	0000 001c 00e0 1c00 e000 0000 fffc 00ff     ................
  4247f0:	fc00 ffff 0000 fffc 00ff 3800 e0e0 0000     ...........8....
  424800:	c01c 00e1 1c00 01c0 0000 c01c 0001 1c00     ................
  424810:	01c0 0000 c01c 0001 3c00 00e0 0000 f078     .........<....x.
  424820:	0000 f800 007f 0000 3ff0 0000 c000 000f     .........?......
	...
  42483c:	0fc0 0000 e000 003f 0000 7ff0 0000 7800     ......?........x
  42484c:	00f0 0000 e038 0001 1c00 01c0 0000 c01c     ....8...........
  42485c:	0001 1c00 01c0 0000 c01c 0001 1c00 e1c0     ................
  42486c:	0000 e03c 00e0 fc00 ffff 0000 fffc 00ff     ..<.............
  42487c:	fc00 ffff 0000 0000 00e0 0000 e000 0000     ................
  42488c:	0000 0000 1c00 01c0 0000 c01c 0001 fc00     ................
  42489c:	01ff 0000 fffc 0001 fc00 01ff 0000 c030     ..............0.
  4248ac:	0001 1800 01c0 0000 001c 0000 3c00 0000     .............<..
  4248bc:	0000 003c 0000 3c00 0000 0000 0000 0000     ..<....<........
	...
  4248d8:	0070 0000 70f0 0000 f800 00f1 0000 e3fc     p....p..........
  4248e8:	0001 9c00 01c3 0000 c71c 0001 1c00 01c7     ................
  4248f8:	0000 ef1c 0001 3800 01fe 0000 fe78 0000     .......8....x...
  424908:	7000 007c 0000 0000 0000 0000 0000 0000     .p|.............
  424918:	0000 0000 0c00 0000 0000 000c 0000 ffe0     ................
  424928:	007f e000 ffff 0000 ffe0 01ff 0000 c00c     ................
  424938:	0001 0c00 01c0 0000 c000 0001 0000 01c0     ................
	...
  424954:	001c 0000 1c00 0000 0000 7ffc 0000 fc00     ................
  424964:	00ff 0000 fffc 0001 0000 01e0 0000 c000     ................
  424974:	0001 0000 01c0 0000 c000 0001 1c00 00c0     ................
  424984:	0000 e01c 0000 fc00 007f 0000 fffc 0001     ................
  424994:	fc00 01ff 0000 c000 0001 0000 01c0 0000     ................
	...
  4249ac:	0000 001c 0000 3c00 0000 0000 01fc 0000     .......<........
  4249bc:	fc00 000f 0000 7fdc 0000 0000 01fe 0000     ................
  4249cc:	f000 0001 0000 0180 0000 f000 0001 0000     ................
  4249dc:	01fe 0000 7fdc 0000 fc00 000f 0000 01fc     ................
  4249ec:	0000 3c00 0000 0000 001c 0000 0000 0000     ...<............
  4249fc:	0000 001c 0000 7c00 0000 0000 03fc 0000     .......|........
  424a0c:	fc00 003f 0000 ff9c 0001 0000 01fc 0000     ..?.............
  424a1c:	c000 0001 0000 01fc 0000 ffc0 0001 f800     ................
  424a2c:	001f 0000 03fc 0000 3c00 0000 0000 07fc     .........<......
  424a3c:	0000 fc00 00ff 0000 ff80 0001 0000 01f0     ................
  424a4c:	0000 f800 0001 9c00 01ff 0000 7ffc 0000     ................
  424a5c:	fc00 0007 0000 007c 0000 1c00 0000 0000     ......|.........
	...
  424a74:	0000 c01c 0001 1c00 01e0 0000 f03c 0001     ............<...
  424a84:	7c00 01f8 0000 dcdc 0001 8000 000f 0000     .|..............
  424a94:	0700 0000 8000 000f 0000 dddc 0001 fc00     ................
  424aa4:	01f8 0000 f07c 0001 3c00 01e0 0000 c01c     ....|....<......
  424ab4:	0001 0000 0000 0000 0000 0000 1c00 0000     ................
  424ac4:	0000 003c 0000 fc00 e001 0000 0ffc 00e0     ..<.............
  424ad4:	dc00 f03f 0000 fe1c 00ff 0000 fff0 0000     ..?.............
  424ae4:	f000 00ef 1c00 e1fe 0000 3fdc 0000 fc00     ...........?....
  424af4:	000f 0000 01fc 0000 3c00 0000 0000 001c     .........<......
  424b04:	0000 1c00 0000 0000 0000 0000 0000 0000     ................
  424b14:	0000 c07c 0001 7c00 01e0 0000 f07c 0001     ..|....|....|...
  424b24:	0c00 01bc 0000 9e0c 0001 8c00 018f 0000     ................
  424b34:	83cc 0001 ec00 0181 0000 807c 0001 3c00     ..........|....<
  424b44:	01f0 0000 f01c 0001 0000 01f0 0000 0000     ................
	...
  424b5c:	01c0 0000 e000 0003 fc00 ffff 000f 7fff     ................
  424b6c:	3fff ff00 fe3f 003f 0007 3800 0700 0000     .?..?.?....8....
  424b7c:	0038 0000 0000 0000 0000 0000 0000 0000     8...............
  424b8c:	ff00 ffff 001f ffff 1fff ff00 ffff 001f     ................
	...
  424ba4:	0000 0007 3800 0700 0000 0038 3fff 3ffe     .....8....8..?.?
  424bb4:	ff00 ff7f 003f fffc 0fff 0000 03e0 0000     ....?...........
  424bc4:	c000 0001 0000 0000 0000 0000 0000 0000     ................
	...
  424bdc:	0000 0c00 0000 0000 000e 0000 0700 0000     ................
  424bec:	0000 0007 0000 0700 0000 0000 0007 0000     ................
  424bfc:	0f00 0000 0000 000e 0000 0e00 0000 0000     ................
  424c0c:	000e 0000 0e00 0000 0000 0007 0000 0300     ................
	...

00424c28 <Arvo_18pt_CharCount>:
  424c28:	0805 1108 140e 0411 0808 0f0a 0907 0a05     ................
  424c38:	0a10 0d0d 0d0f 0d0f 0f0f 0606 0b0c 0c0d     ................
  424c48:	121b 1210 0f12 140f 0916 1208 1a0f 1313     ................
  424c58:	130f 0e11 1211 1e11 1012 080e 080b 0c0e     ................
  424c68:	0d07 0d0f 0e0f 0e09 0810 0f07 1808 0e10     ................
  424c78:	0e0f 0c0b 1009 130d 0e0d 080b 0805 000e     ................

00424c88 <Arvo_18pt_Table>:
	...
  424ca4:	ff00 039f ff00 039f 0000 0000 0000 0000     ................
	...
  424cbc:	3f00 0000 3f00 0000 0000 0000 0000 0000     .?...?..........
  424ccc:	3f00 0000 3f00 0000 0000 0000 0000 0000     .?...?..........
  424cdc:	0000 0018 2000 0018 3000 0318 3000 03f8     ..... ...0...0..
  424cec:	b000 00ff fc00 001f 7f00 0018 3300 0018     .............3..
  424cfc:	3000 0018 3000 0398 3000 03fe f800 007f     .0...0...0......
  424d0c:	ff00 001b 3700 0018 3000 0018 3000 0000     .....7...0...0..
	...
  424d24:	0000 0060 c000 0063 c000 00e7 e000 01ce     ..`...c.........
  424d34:	6000 018c 7e00 1f8c 7e00 1f8c 6000 0198     .`...~...~...`..
  424d44:	c000 0199 c000 00f9 8000 0071 0000 0000     ..........q.....
	...
  424d5c:	3c00 0000 7e00 0200 e700 0300 c300 0380     .<...~..........
  424d6c:	c300 00e0 e700 0070 7e00 003c 3c00 000e     ......p..~<..<..
  424d7c:	0000 0007 c000 0001 e000 00f0 7800 01f8     .............x..
  424d8c:	1c00 039c 0e00 030c 0300 030c 0100 039c     ................
  424d9c:	0000 01f8 0000 00f0 0000 0000 0000 0000     ................
  424dac:	0000 0000 0000 0078 3c00 01fc fe00 018e     ......x..<......
  424dbc:	c700 0307 8300 0303 0300 0303 8300 0307     ................
  424dcc:	c700 038d fe00 0198 7c00 00f0 0000 00fc     .........|......
  424ddc:	0000 01de 0000 0386 0000 0300 0000 0200     ................
  424dec:	1f00 0000 1f00 0000 0000 0000 0000 0000     ................
	...
  424e04:	c000 003f fc00 03ff 3f00 0fc0 0780 1e00     ..?......?......
  424e14:	00e0 7000 0040 2000 0040 2000 00e0 7000     ...p@.. @.. ...p
  424e24:	0780 1e00 3f00 0fc0 fc00 03ff c000 003f     .....?........?.
	...
  424e40:	0c00 0000 4c00 0000 e800 0000 3f00 0000     .....L.......?..
  424e50:	3f00 0000 e800 0000 4c00 0000 0c00 0000     .?.......L......
	...
  424e6c:	0000 0006 0000 0006 0000 0006 0000 0006     ................
  424e7c:	0000 0006 f000 00ff f000 00ff 0000 0006     ................
  424e8c:	0000 0006 0000 0006 0000 0006 0000 0006     ................
  424e9c:	0000 0000 0000 0800 0000 0e00 0000 0700     ................
  424eac:	0000 0300 0000 0100 0000 0000 0000 0000     ................
  424ebc:	0000 0000 0000 000c 0000 000c 0000 000c     ................
  424ecc:	0000 000c 0000 000c 0000 000c 0000 000c     ................
	...
  424ee4:	0000 0380 0000 0380 0000 0000 0000 0000     ................
  424ef4:	0000 0200 0000 03c0 0000 01f0 0000 003e     ..............>.
  424f04:	c000 000f f000 0001 7e00 0000 0f00 0000     .........~......
  424f14:	0300 0000 0000 0000 0000 0000 e000 001f     ................
  424f24:	f800 007f 1c00 01e0 0600 0180 0700 0300     ................
  424f34:	0300 0300 0300 0300 0300 0300 0300 0300     ................
  424f44:	0700 0380 0600 0180 1e00 01e0 fc00 007f     ................
  424f54:	e000 001f 0000 0000 0000 0000 0000 0000     ................
  424f64:	0c00 0000 0e00 0300 0600 0300 ff00 03ff     ................
  424f74:	ff00 03ff 0000 0300 0000 0300 0000 0000     ................
  424f84:	0000 0000 1800 0380 1e00 03c0 0600 03e0     ................
  424f94:	0300 0330 0300 031c 0300 030e 0300 0307     ..0.............
  424fa4:	c600 0301 fe00 0300 7800 0300 0000 0000     .........x......
	...
  424fbc:	1800 00c0 1c00 01c0 0600 0180 0300 0300     ................
  424fcc:	0300 0303 0300 0303 0300 0303 8600 0387     ................
  424fdc:	fe00 0186 7800 00fc 0000 0078 0000 0000     .....x....x.....
  424fec:	0000 0000 0000 001c 0000 001f c000 001b     ................
  424ffc:	e000 0019 7800 0018 1e00 0018 0700 0318     .....x..........
  42500c:	0100 0318 0000 03ff 0000 03ff 0000 0318     ................
  42501c:	0000 0318 0000 0018 0000 0000 0000 0000     ................
  42502c:	0000 0040 ff00 00e3 ff00 01c3 0300 0383     ..@.............
  42503c:	8300 0301 8300 0301 8300 0301 8300 0383     ................
  42504c:	0300 01c7 0300 00fe 0000 007c 0000 0000     ..........|.....
  42505c:	0000 0000 0000 003c 0000 00ff c000 01c3     ......<.........
  42506c:	f000 0181 f800 0300 de00 0300 c700 0300     ................
  42507c:	c100 0300 c000 0300 c000 0181 8000 01c3     ................
  42508c:	0000 00ff 0000 003e 0000 0000 0700 0000     ......>.........
  42509c:	0700 0000 0300 0000 0300 0300 0300 03c0     ................
  4250ac:	0300 03f8 0300 03ff c300 0307 fb00 0001     ................
  4250bc:	3f00 0000 0700 0000 0300 0000 0000 0000     .?..............
	...
  4250d4:	3800 007c 7e00 00fe c600 01c7 8300 0383     .8|..~..........
  4250e4:	8300 0301 8300 0301 8300 0301 c700 0383     ................
  4250f4:	fe00 01c7 3c00 00fe 0000 007c 0000 0000     .....<....|.....
	...
  42510c:	f000 0000 fc00 0003 0e00 0007 0600 0006     ................
  42511c:	0300 020c 0300 030c 0300 01cc 0300 00ec     ................
  42512c:	0300 003c 0600 001e 0e00 0007 fc00 0003     ..<.............
  42513c:	f000 0000 0000 0000 0000 0000 c000 0381     ................
  42514c:	c000 0381 0000 0000 0000 0000 0000 0000     ................
  42515c:	0000 0800 c000 0f01 c000 0781 0000 0180     ................
	...
  425174:	0000 000e 0000 000f 0000 001f 8000 0019     ................
  425184:	8000 0039 c000 0030 c000 0030 6000 0060     ..9...0...0..``.
  425194:	6000 0060 3000 00c0 0000 0000 0000 0000     .``..0..........
  4251a4:	0000 0000 0000 0066 0000 0066 0000 0066     ......f...f...f.
  4251b4:	0000 0066 0000 0066 0000 0066 0000 0066     ..f...f...f...f.
  4251c4:	0000 0066 0000 0066 0000 0000 0000 0000     ..f...f.........
  4251d4:	0000 0000 3000 00c0 6000 0060 6000 0060     .....0...``..``.
  4251e4:	c000 0030 c000 0030 8000 0039 8000 0019     ..0...0...9.....
  4251f4:	0000 001f 0000 000f 0000 000e 0000 0000     ................
  425204:	0000 0000 1800 0000 1e00 0000 0600 0380     ................
  425214:	0300 03bc 0300 003e 0300 0007 8300 0001     ......>.........
  425224:	c700 0001 fe00 0000 7c00 0000 0000 0000     .........|......
	...
  42523c:	0000 00ff c000 03ff e000 0781 7800 1e00     .............x..
  42524c:	1c00 3800 0c00 3000 0600 707e 0600 60ff     ...8...0..~p...`
  42525c:	8700 e1c3 c300 c381 c300 c300 c300 c300     ................
  42526c:	c300 c300 c300 c301 8300 e181 c600 61ff     ...............a
  42527c:	c600 73ff 0c00 0300 1c00 0300 3800 0300     ...s.........8..
  42528c:	f000 01c0 c000 00ff 0000 003f 0000 0000     ..........?.....
  42529c:	0000 0000 0000 0300 0000 0300 0000 03c0     ................
  4252ac:	0000 03f8 0000 037f e000 030f fc00 000c     ................
  4252bc:	1f00 000c 0300 000c 1f00 000c 7c00 000c     .............|..
  4252cc:	f000 000f 8000 000f 0000 037e 0000 03f0     ..........~.....
  4252dc:	0000 03c0 0000 0300 0000 0300 0000 0000     ................
  4252ec:	0300 0300 0300 0300 ff00 03ff ff00 03ff     ................
  4252fc:	0300 0303 0300 0303 0300 0303 0300 0303     ................
  42530c:	0300 0303 0300 0303 0700 0383 8e00 01c7     ................
  42531c:	fc00 00fc 7800 0078 0000 0000 0000 0000     .....xx.........
  42532c:	c000 000f f000 003f 3800 0070 1c00 00c0     ......?..8p.....
  42533c:	0600 0180 0600 0180 0300 0300 0300 0300     ................
  42534c:	0300 0300 0300 0300 0300 0300 0700 0380     ................
  42535c:	0600 0180 1c00 01c0 1c00 00f0 1800 0070     ..............p.
	...
  425374:	0300 0300 0300 0300 ff00 03ff ff00 03ff     ................
  425384:	0300 0300 0300 0300 0300 0300 0300 0300     ................
  425394:	0300 0300 0300 0300 0600 0180 0e00 01c0     ................
  4253a4:	1c00 00e0 3800 0070 f000 003f c000 000f     .....8p...?.....
	...
  4253bc:	0300 0300 0300 0300 ff00 03ff ff00 03ff     ................
  4253cc:	0300 0303 0300 0303 0300 0303 0300 0303     ................
  4253dc:	0300 0303 0300 0303 0300 0300 1f00 03e0     ................
  4253ec:	1f00 03e0 0000 0000 0000 0000 0300 0300     ................
  4253fc:	0300 0300 ff00 03ff ff00 03ff 0300 0303     ................
  42540c:	0300 0303 0300 0003 0300 0003 0300 0003     ................
  42541c:	0300 0003 0300 0003 1f00 0000 1f00 0000     ................
	...
  425434:	c000 000f f000 003f 3800 00f0 0c00 00c0     ......?..8......
  425444:	0600 0180 0600 0380 0300 0300 0300 0300     ................
  425454:	0300 0300 0300 0300 0300 0306 0700 0186     ................
  425464:	0600 0186 1c00 00c6 1c00 0076 1800 03fe     ..........v.....
  425474:	0000 03fe 0000 0000 0000 0000 0000 0000     ................
  425484:	0300 0300 0300 0300 ff00 03ff ff00 03ff     ................
  425494:	8300 0301 8300 0301 8000 0001 8000 0001     ................
  4254a4:	8000 0001 8000 0001 8000 0001 8000 0001     ................
  4254b4:	8000 0001 8000 0001 8300 0301 8300 0301     ................
  4254c4:	ff00 03ff ff00 03ff 0300 0300 0300 0300     ................
	...
  4254dc:	0300 0300 0300 0300 ff00 03ff ff00 03ff     ................
  4254ec:	0300 0300 0300 0300 0000 0000 0000 0000     ................
	...
  425504:	0300 1800 0300 1e00 ff00 0fff ff00 03ff     ................
  425514:	0300 0000 0300 0000 0000 0000 0300 0300     ................
  425524:	0300 0300 ff00 03ff ff00 03ff 0300 0301     ................
  425534:	8300 0301 8000 0003 c000 0006 6000 000c     .............`..
  425544:	3000 0018 3800 0030 1800 0060 0f00 03c0     .0...80...`.....
  425554:	0700 0380 0300 0300 0300 0300 0000 0000     ................
  425564:	0000 0000 0300 0300 0300 0300 ff00 03ff     ................
  425574:	ff00 03ff 0300 0300 0300 0300 0000 0300     ................
  425584:	0000 0300 0000 0300 0000 0300 0000 0300     ................
  425594:	0000 03e0 0000 03e0 0000 0000 0000 0000     ................
  4255a4:	0000 0000 0300 0300 0300 0300 ff00 03ff     ................
  4255b4:	ff00 03ff 0700 0300 3f00 0300 f800 0000     .........?......
  4255c4:	e000 0007 0000 001f 0000 00fc 0000 03e0     ................
  4255d4:	0000 0380 0000 03e0 0000 00f8 0000 001f     ................
  4255e4:	c000 0007 f800 0000 3e00 0300 0700 0300     .........>......
  4255f4:	ff00 03ff ff00 03ff 0300 0300 0300 0300     ................
	...
  42560c:	0300 0300 0300 0300 ff00 03ff ff00 03ff     ................
  42561c:	0f00 0300 3c00 0300 7000 0000 e000 0001     .....<...p......
  42562c:	8000 0007 0000 000e 0000 003c 0000 00f0     ..........<.....
  42563c:	0300 01c0 0300 0380 ff00 03ff ff00 03ff     ................
  42564c:	0300 0000 0300 0000 0000 0000 c000 000f     ................
  42565c:	f000 003f 3c00 0070 0c00 00c0 0600 0180     ..?..<p.........
  42566c:	0600 0180 0300 0300 0300 0300 0300 0300     ................
  42567c:	0300 0300 0300 0300 0600 0180 0600 0180     ................
  42568c:	0c00 00c0 3c00 00f0 f000 003f c000 000f     .....<....?.....
	...
  4256a4:	0300 0300 0300 0300 ff00 03ff ff00 03ff     ................
  4256b4:	0300 0303 0300 0303 0300 0003 0300 0003     ................
  4256c4:	0300 0003 0300 0003 8600 0001 fe00 0000     ................
  4256d4:	7800 0000 0000 0000 0000 0000 c000 000f     .x..............
  4256e4:	f000 003f 3c00 00f0 0c00 00c0 0600 0180     ..?..<..........
  4256f4:	0600 0380 0300 0300 0300 1f00 0300 1f00     ................
  425704:	0300 1f00 0300 3b00 0600 3380 0600 6180     .......;...3...a
  425714:	0c00 60c0 3c00 60f0 f000 303f c000 100f     ...`.<.`..?0....
	...
  42572c:	0300 0300 0300 0300 ff00 03ff ff00 03ff     ................
  42573c:	0300 0303 0300 0303 0300 0003 0300 0003     ................
  42574c:	0300 0007 0300 000f 8600 00fd fe00 03f8     ................
  42575c:	7800 03c0 0000 0300 0000 0300 0000 0000     .x..............
  42576c:	0000 0000 0000 0030 7800 0070 fe00 01f0     ......0..xp.....
  42577c:	c600 0181 8300 0381 8300 0303 0300 0303     ................
  42578c:	0300 0303 0700 0307 1e00 018e 1c00 01fe     ................
  42579c:	1800 0078 0000 0000 0000 0000 0f00 0000     ..x.............
  4257ac:	0f00 0000 0300 0000 0300 0000 0300 0000     ................
  4257bc:	0300 0300 0300 0300 ff00 03ff ff00 03ff     ................
  4257cc:	0300 0300 0300 0300 0300 0000 0300 0000     ................
  4257dc:	0300 0000 0f00 0000 0f00 0000 0000 0000     ................
  4257ec:	0300 0000 0300 0000 ff00 003f ff00 007f     ..........?.....
  4257fc:	0300 01e0 0300 0180 0000 0300 0000 0300     ................
  42580c:	0000 0300 0000 0300 0000 0300 0300 0180     ................
  42581c:	0300 01c0 ff00 007f ff00 001f 0300 0000     ................
  42582c:	0300 0000 0300 0000 0700 0000 3f00 0000     .............?..
  42583c:	fb00 0000 e300 0003 0000 001f 0000 007c     ..............|.
  42584c:	0000 01f0 0000 0380 0000 03c0 0000 03f8     ................
  42585c:	0000 007f e300 000f ff00 0001 3f00 0000     .............?..
  42586c:	0700 0000 0300 0000 0300 0000 0300 0000     ................
  42587c:	0f00 0000 7f00 0000 fb00 0003 8300 001f     ................
  42588c:	0000 00fc 0000 03e0 0000 0300 0000 03e0     ................
  42589c:	0000 00fe c000 001f f800 0003 7f00 0000     ................
  4258ac:	0700 0000 0f00 0000 7e00 0000 f000 0003     .........~......
  4258bc:	8000 001f 0000 00fc 0000 03e0 0000 0300     ................
  4258cc:	0000 03e0 0000 01fc 8300 001f fb00 0003     ................
  4258dc:	7f00 0000 0f00 0000 0300 0000 0300 0000     ................
	...
  4258f4:	0300 0300 0700 0380 0f00 03c0 1f00 03e0     ................
  425904:	7300 0338 e000 001c c000 000f 0000 0003     .s8.............
  425914:	c000 000f e000 001c 7300 0338 1f00 03e0     .........s8.....
  425924:	0f00 03c0 0700 0380 0300 0300 0000 0000     ................
  425934:	0000 0000 0300 0000 0300 0000 0700 0000     ................
  425944:	1f00 0000 7b00 0300 e300 0301 8000 03ff     .....{..........
  425954:	8000 03ff c000 0301 f300 0300 3b00 0000     .............;..
  425964:	1f00 0000 0700 0000 0300 0000 0300 0000     ................
  425974:	0000 0000 1f00 03c0 1f00 03e0 0300 0370     ..............p.
  425984:	0300 031c 0300 030e 0300 0307 8300 0303     ................
  425994:	e300 0300 7300 0300 3b00 0300 0f00 03e0     .....s...;......
  4259a4:	0700 03e0 0000 0000 0000 0000 0000 0000     ................
  4259b4:	0000 0000 ffe0 3fff ffe0 3fff 0060 3000     .......?...?`..0
  4259c4:	0060 3000 0000 0000 0080 0000 0380 0000     `..0............
  4259d4:	0f00 0000 3c00 0000 f000 0001 8000 0007     .....<..........
  4259e4:	0000 001e 0000 0078 0000 03e0 0000 0300     ......x.........
	...
  4259fc:	0000 3000 0060 3000 0060 3000 ffe0 3fff     ...0`..0`..0...?
  425a0c:	ffe0 3fff 0000 0000 0000 0000 0000 0000     ...?............
  425a1c:	0000 0000 0000 0002 8000 0003 e000 0001     ................
  425a2c:	7800 0000 1e00 0000 0700 0000 0700 0000     .x..............
  425a3c:	3f00 0000 f800 0001 e000 0003 0000 0003     .?..............
  425a4c:	0000 0000 0000 1000 0000 1000 0000 1000     ................
  425a5c:	0000 1000 0000 1000 0000 1000 0000 1000     ................
  425a6c:	0000 1000 0000 1000 0000 1000 0000 1000     ................
  425a7c:	0000 1000 0000 0000 0100 0000 0300 0000     ................
  425a8c:	0700 0000 0e00 0000 0800 0000 0000 0000     ................
  425a9c:	0000 0000 0000 00e0 8000 01f1 c000 0338     ..............8.
  425aac:	c000 0318 c000 0318 c000 0318 c000 0199     ................
  425abc:	8000 03ff 0000 03ff 0000 0300 0000 0300     ................
  425acc:	0000 0000 0300 0000 0300 0000 ff00 03ff     ................
  425adc:	ff00 03ff 8000 0381 c000 0300 c000 0300     ................
  425aec:	c000 0300 c000 0300 c000 0300 8000 0181     ................
  425afc:	8000 01c3 0000 00ff 0000 003e 0000 0000     ..........>.....
  425b0c:	0000 0000 0000 007e 0000 00ff 8000 01c3     ......~.........
  425b1c:	c000 0381 c000 0300 c000 0300 c000 0300     ................
  425b2c:	c000 0380 8000 0181 0000 01c3 0000 00c3     ................
	...
  425b44:	0000 007e 0000 00ff 8000 01c3 c000 0381     ..~.............
  425b54:	c000 0300 c000 0300 c000 0300 c300 0300     ................
  425b64:	8300 0181 ff00 03ff ff00 03ff 0000 0300     ................
  425b74:	0000 0300 0000 0000 0000 0000 0000 007e     ..............~.
  425b84:	0000 00ff 8000 01db c000 0399 c000 0318     ................
  425b94:	c000 0318 c000 0318 c000 0318 8000 0319     ................
  425ba4:	8000 019f 0000 011e 0000 0000 0000 0000     ................
  425bb4:	0000 0000 c000 0300 c000 0300 fc00 03ff     ................
  425bc4:	fe00 03ff c700 0300 c300 0300 0300 0000     ................
  425bd4:	0300 0000 0000 0000 0000 007e 0000 60ff     ..........~....`
  425be4:	8000 e1c3 c000 c381 c000 c300 c000 c300     ................
  425bf4:	c000 c300 c000 c300 c000 7181 c000 7fff     ...........q....
  425c04:	c000 1fff 0000 0000 0000 0000 0000 0000     ................
  425c14:	0300 0300 0300 0300 ff00 03ff ff00 03ff     ................
  425c24:	8000 0301 8000 0300 c000 0000 c000 0000     ................
  425c34:	c000 0300 c000 0301 8000 03ff 0000 03ff     ................
  425c44:	0000 0300 0000 0300 0000 0000 0000 0000     ................
  425c54:	c000 0300 c000 0300 c700 03ff c700 03ff     ................
  425c64:	0000 0300 0000 0300 0000 0000 0000 0000     ................
  425c74:	c000 c000 c000 6000 c700 7fff c700 3fff     .......`.......?
	...
  425c90:	0300 0300 0300 0300 ff00 03ff ff00 03ff     ................
  425ca0:	0000 0318 0000 0318 0000 0018 0000 0038     ..............8.
  425cb0:	0000 007e c000 00e7 c000 0183 c000 0301     ..~.............
  425cc0:	c000 0300 c000 0300 0000 0000 0300 0300     ................
  425cd0:	0300 0300 ff00 03ff ff00 03ff 0000 0300     ................
  425ce0:	0000 0300 0000 0000 0000 0000 c000 0300     ................
  425cf0:	c000 0300 c000 03ff c000 03ff 8000 0301     ................
  425d00:	c000 0300 c000 0000 c000 0000 c000 0300     ................
  425d10:	c000 0301 8000 03ff 0000 03ff 8000 0301     ................
  425d20:	8000 0300 c000 0000 c000 0000 c000 0300     ................
  425d30:	c000 0301 8000 03ff 0000 03ff 0000 0300     ................
  425d40:	0000 0300 0000 0000 0000 0000 c000 0300     ................
  425d50:	c000 0300 c000 03ff c000 03ff 8000 0300     ................
  425d60:	c000 0300 c000 0000 c000 0000 c000 0300     ................
  425d70:	c000 0301 8000 03ff 0000 03ff 0000 0300     ................
  425d80:	0000 0300 0000 0000 0000 0000 0000 007e     ..............~.
  425d90:	0000 00ff 8000 01c3 c000 0381 c000 0300     ................
  425da0:	c000 0300 c000 0300 c000 0300 c000 0381     ................
  425db0:	8000 01c3 0000 00ff 0000 007e 0000 0000     ..........~.....
  425dc0:	c000 c000 c000 c000 c000 ffff c000 ffff     ................
  425dd0:	8000 c181 c000 c300 c000 0300 c000 0300     ................
  425de0:	c000 0300 c000 0300 c000 0181 8000 01c3     ................
  425df0:	0000 00ff 0000 003e 0000 0000 0000 0000     ......>.........
  425e00:	0000 007e 0000 00ff 8000 01c3 c000 0381     ..~.............
  425e10:	c000 0300 c000 0300 c000 0300 c000 c300     ................
  425e20:	c000 c181 c000 ffff c000 ffff 0000 c000     ................
  425e30:	0000 c000 0000 0000 c000 0300 c000 0300     ................
  425e40:	c000 03ff c000 03ff 8000 0301 c000 0300     ................
  425e50:	c000 0000 c000 0001 c000 0001 0000 0000     ................
  425e60:	0000 0000 8000 00c7 8000 01cf c000 038c     ................
  425e70:	c000 0308 c000 0318 c000 0318 c000 0318     ................
  425e80:	8000 03b3 8000 01f3 0000 01e3 0000 0000     ................
  425e90:	0000 0000 c000 0000 c000 0000 f800 01ff     ................
  425ea0:	fc00 03ff c000 0300 c000 0300 0000 0300     ................
  425eb0:	0000 0000 c000 0000 c000 0000 c000 00ff     ................
  425ec0:	c000 01ff 0000 0380 0000 0300 0000 0300     ................
  425ed0:	0000 0300 0000 0300 c000 0100 c000 0180     ................
  425ee0:	c000 03ff c000 03ff 0000 0300 0000 0300     ................
  425ef0:	0000 0000 c000 0000 c000 0001 c000 000f     ................
  425f00:	c000 007e 0000 03f0 0000 0380 0000 0380     ..~.............
  425f10:	0000 03f0 c000 007e c000 000f c000 0001     ......~.........
  425f20:	c000 0000 0000 0000 c000 0000 c000 0001     ................
  425f30:	c000 000f c000 007e 0000 03f0 0000 0380     ......~.........
  425f40:	0000 03f0 0000 00ff c000 000f c000 0000     ................
  425f50:	c000 003f 0000 03fe 0000 03c0 0000 03e0     ..?.............
  425f60:	c000 00fe c000 001f c000 0003 c000 0000     ................
	...
  425f78:	c000 0300 c000 0381 c000 03c3 c000 03e7     ................
  425f88:	0000 007e 0000 001c 0000 003e c000 0367     ..~.......>...g.
  425f98:	c000 03c3 c000 0381 c000 0300 0000 0000     ................
  425fa8:	c000 0000 c000 0001 c000 0007 c000 c03e     ..............>.
  425fb8:	0000 e0f8 0000 ffe0 0000 3f80 0000 03f0     ...........?....
  425fc8:	c000 007e c000 000f c000 0003 c000 0000     ..~.............
	...
  425fe4:	c000 0301 c000 0381 c000 03e0 c000 0370     ..............p.
  425ff4:	c000 033c c000 030e c000 0307 c000 03c1     ..<.............
  426004:	c000 03c0 0000 0000 0000 0000 0000 0000     ................
  426014:	0000 0006 0000 000f ffc0 1fff ffe0 3ff9     ...............?
  426024:	0060 3000 0060 3000 0000 0000 0000 0000     `..0`..0........
  426034:	ffe0 ffff ffe0 ffff 0000 0000 0000 0000     ................
  426044:	0060 3000 0060 3000 ffe0 3ff9 ffc0 1fff     `..0`..0...?....
  426054:	0000 000f 0000 0006 0000 0000 0000 0000     ................
  426064:	0000 0000 0000 0018 0000 001c 0000 000c     ................
  426074:	0000 000c 0000 000c 0000 0018 0000 0018     ................
  426084:	0000 0018 0000 001c 0000 000c 0000 0000     ................
  426094:	0000 0000                                   ....

00426098 <Arvo_14pt_CharCount>:
  426098:	0604 0d06 100b 030e 0707 0c08 0705 0804     ................
  4260a8:	080c 0a0a 0b0c 0a0c 0c0c 0505 0909 0a0b     ................
  4260b8:	0e15 0e0d 0c0e 100c 0711 0f06 140c 0f0f     ................
  4260c8:	0f0c 0b0e 0e0d 180e 0d0e 070b 0709 0a0b     ................
  4260d8:	0a05 0a0c 0b0c 0b07 060d 0c06 1306 0b0d     ................
  4260e8:	0b0c 0909 0d07 0f0a 0b0a 0709 0704 000b     ................

004260f8 <Arvo_14pt_Table>:
	...
  426108:	0000 ffe0 e006 06ff 0000 0000 0000 01f0     ................
  426118:	f000 0001 0000 f000 0001 01f0 0000 0000     ................
  426128:	0000 0000 00c0 c300 0006 07f3 ff80 e001     ................
  426138:	00cf c360 0000 06c3 f300 8007 01ff cfe0     ..`.............
  426148:	e000 00c3 0300 0000 0000 c000 0000 00ce     ................
  426158:	df00 e001 0333 33e0 001f 1f33 ee00 0003     ....3..3..3.....
  426168:	01ec 0000 0000 0000 0000 c000 0001 07f0     ................
  426178:	3004 0606 8630 f003 01c7 71c0 0000 0038     .0..0......q..8.
  426188:	0e00 0000 01c7 f1c0 e007 0630 3030 1006     ..........0.00..
  426198:	07f0 c000 0001 0000 0000 0000 01c0 f380     ................
  4261a8:	c003 0737 1ce0 6006 0618 3860 e006 067c     ..7....`..`8..|.
  4261b8:	e7c0 8007 03c3 f000 0003 0630 0000 0004     ..........0.....
  4261c8:	0000 00f0 f000 0000 0000 0000 0000 fe00     ................
  4261d8:	c001 0fff 01e0 781e 7800 0010 0020 0000     .......x.x.. ...
  4261e8:	0000 1000 2000 0078 e078 1e01 ffc0 000f     ..... x.x.......
  4261f8:	01fe 0000 0000 0000 0040 c000 0006 03f0     ........@.......
  426208:	c000 0003 06c0 4000 0000 0000 0000 0000     .......@........
  426218:	1800 0000 0018 1800 0000 0018 ff80 8001     ................
  426228:	01ff 1800 0000 0018 1800 0000 0018 0000     ................
  426238:	0000 1000 0000 001e 0e00 0000 0002 0000     ................
  426248:	6000 0000 0060 6000 0000 0060 6000 0000     .`..`..`..`..`..
  426258:	0060 0000 0000 0000 0000 0006 0600 0000     `...............
  426268:	0000 0400 8000 0007 03e0 7c00 0000 001f     ...........|....
  426278:	03e0 f000 0000 0010 0000 0000 fe00 8000     ................
  426288:	03ff 81c0 6003 0600 0060 6006 0600 0060     .....`..`..`..`.
  426298:	c006 0381 ffc0 0003 00ff 0000 0000 0000     ................
  4262a8:	0080 c000 0000 0040 e006 07ff ffe0 0007     ......@.........
  4262b8:	0600 0000 0000 0000 0180 c007 0781 c0e0     ................
  4262c8:	6007 0660 3060 e006 0618 0fc0 8006 0607     .``.`0..........
  4262d8:	0000 0000 0000 8100 c001 0381 00e0 6007     ...............`
  4262e8:	060c 0c60 e006 071e fbc0 8003 01f3 0000     ..`.............
  4262f8:	0000 0000 7000 0000 0078 6e00 8000 0067     .....p..x..n..g.
  426308:	61c0 6000 0660 f820 0007 07f8 6000 0006     .a.``. ......`..
  426318:	0060 0000 0000 0080 9fe0 e001 031f 0c60     `.............`.
  426328:	6006 060c 0c60 6006 060c 1860 6003 03f8     .`..`..`..`..`..
  426338:	f060 0000 0000 0000 0000 00f0 f800 0003     `...............
  426348:	031e 0f80 c006 060d 0c60 2006 060c 1c00     ........`.. ....
  426358:	0003 03f8 f000 0000 0000 00e0 e000 0000     ................
  426368:	0060 6006 0700 e060 6007 06fc 1f60 e000     `..`..`..`..`...
  426378:	0003 00e0 0000 0000 0000 0000 01e0 f780     ................
  426388:	c003 073f 1ce0 6006 0618 1860 e006 073c     ..?....`..`...<.
  426398:	f7c0 8003 01e3 0000 0000 0000 0000 0000     ................
  4263a8:	000f 1fc0 c000 0038 3060 6004 0630 b060     ......8.`0.`0.`.
  4263b8:	6003 01f0 78c0 c000 001f 0f00 0000 0000     .`...x..........
  4263c8:	0000 0000 0606 0600 0006 0000 0000 0000     ................
  4263d8:	1800 0e00 001e 070e 0000 0000 0000 7000     ...............p
  4263e8:	0000 0078 d800 0000 00cc 8c00 0001 0186     ..x.............
  4263f8:	8600 0001 0303 0000 0000 0000 b000 0001     ................
  426408:	01b0 b000 0001 01b0 b000 0001 01b0 b000     ................
  426418:	0001 0000 0000 0000 0000 0300 0003 0186     ................
  426428:	8600 0001 00cc d800 0000 0078 7000 0000     ..........x..p..
	...
  426440:	0100 c000 0001 e0e0 6006 06f0 1860 e000     .........`..`...
  426450:	000c 07c0 8000 0003 0000 0000 0000 f800     ................
  426460:	0001 07fe 0700 800e 1c03 01c0 c038 31f0     ............8..1
  426470:	f860 6063 671c 0c60 6066 660c 1c60 6067     `.c`.g`.f`.f`.g`
  426480:	63fc fcc0 c037 3601 0380 0006 0707 fe00     .c..7..6........
  426490:	0003 00f8 0000 0000 0000 0000 0006 0700     ................
  4264a0:	e000 0007 06f8 3e00 c000 0037 31e0 2000     .......>..7..1. 
  4264b0:	0030 31e0 c000 003f 7e00 0006 07f0 8000     0..1..?..~......
  4264c0:	0007 0600 0000 0000 0000 0060 e006 07ff     ..........`.....
  4264d0:	ffe0 6007 0618 1860 6006 0618 1860 e006     ...`..`..`..`...
  4264e0:	073c ffc0 8003 01e7 0000 0000 0000 7e00     <..............~
  4264f0:	8000 01ff c3c0 c003 0300 0060 6006 0600     ..........`..`..
  426500:	0060 6006 0600 00e0 c007 0381 81c0 8001     `..`............
  426510:	0081 0000 0000 0000 0000 6000 0600 ffe0     ...........`....
  426520:	e007 07ff 0060 6006 0600 0060 6006 0600     ....`..`..`..`..
  426530:	00c0 c003 03c3 ff80 0001 007e 0000 0000     ..........~.....
  426540:	0000 0060 e006 07ff ffe0 6007 0618 1860     ..`........`..`.
  426550:	6006 0618 1860 6006 0600 81e0 e007 0781     .`..`..`........
	...
  426568:	6000 0600 ffe0 e007 07ff 1860 6006 0018     .`........`..`..
  426578:	1860 6000 0018 01e0 e000 0001 0000 0000     `..`............
  426588:	0000 7e00 0000 01ff c380 c003 0300 00e0     ...~............
  426598:	6007 0600 0060 6006 0630 3060 e006 0330     .`..`..`0.`0..0.
  4265a8:	b1c0 8001 07f1 f180 0007 0000 0000 0000     ................
  4265b8:	0000 0000 6000 0600 ffe0 e007 07ff 1860     .....`........`.
  4265c8:	0006 0018 1800 0000 0018 1800 0000 0018     ................
  4265d8:	1860 e006 07ff ffe0 6007 0600 0000 0000     `........`......
	...
  4265f0:	0060 e006 07ff ffe0 6007 0600 0000 0000     `........`......
  426600:	0000 0000 6010 1c00 ffe0 e00f 07ff 0060     .....`........`.
  426610:	0000 0000 0000 6000 0600 ffe0 e007 07ff     .......`........
  426620:	0860 0006 001c 3600 0000 0063 c300 8000     `......6..c.....
  426630:	0181 00e0 6007 0600 0060 0006 0000 0000     .....`..`.......
  426640:	0000 0000 0060 e006 07ff ffe0 6007 0600     ....`........`..
  426650:	0000 0006 0600 0000 0006 07c0 c000 0007     ................
  426660:	0000 0000 6000 0600 ffe0 e007 07ff 00e0     .....`..........
  426670:	c006 0007 3e00 0000 01f8 c000 0007 0600     .....>..........
  426680:	c000 0007 01f8 3f00 e000 0607 00e0 e006     .......?........
  426690:	07ff ffe0 6007 0600 0000 0000 0000 0000     .....`..........
  4266a0:	0000 0000 0060 e006 07ff ffe0 e007 0600     ....`...........
  4266b0:	03c0 0000 000f 3c00 0000 00f0 c060 6003     .......<....`..`
  4266c0:	0700 ffe0 e007 07ff 0060 0000 0000 7e00     ........`......~
  4266d0:	8000 01ff c3c0 c003 0300 0060 6007 0600     ..........`..`..
  4266e0:	0060 6006 0600 0060 c006 0300 c3c0 8003     `..`..`.........
  4266f0:	01ff 7e00 0000 0000 0000 0000 0000 0060     ...~..........`.
  426700:	e006 07ff ffe0 6007 0618 1860 6000 0018     .......`..`..`..
  426710:	1860 e000 001c 0fc0 8000 0007 0000 0000     `...............
  426720:	007e ff80 c001 03c3 00c0 6003 0700 0060     ~..........`..`.
  426730:	6006 1e00 0060 603e 3600 00c0 c063 63c3     .`..`.>`.6..c..c
  426740:	ff80 0071 307e 0000 0000 0000 0000 6000     ..q.~0.........`
  426750:	0600 ffe0 e007 07ff 1860 6006 0018 1860     ........`..`..`.
  426760:	6000 0038 fce0 c001 07ef 8780 0007 0600     .`8.............
  426770:	0000 0000 0180 8780 c003 038f 0ce0 6007     ...............`
  426780:	0618 1860 6006 0618 30e0 c007 03f1 e180     ..`..`...0......
  426790:	8001 0001 0000 e000 0001 01e0 6000 0000     .............`..
  4267a0:	0060 6000 0600 ffe0 e007 07ff 0060 6006     `..`........`..`
  4267b0:	0000 0060 e000 0001 01e0 0000 0000 0060     ..`...........`.
  4267c0:	e000 00ff ffe0 6001 0380 0000 0006 0600     .......`........
  4267d0:	0000 0006 0600 0000 6006 0380 ffe0 e001     .........`......
  4267e0:	00ff 0060 6000 0000 00e0 e000 0007 1f60     ..`..`........`.
  4267f0:	0000 00f8 e000 0003 0700 0000 0007 03e0     ................
  426800:	f800 6000 001f 07e0 e000 0000 0060 6000     ...`........`..`
  426810:	0000 00e0 e000 0007 3f60 0000 00f8 c000     ........`?......
  426820:	0007 0600 8000 0007 03f8 7f00 e000 0007     ................
  426830:	00e0 e000 0001 1fe0 0000 03fe f000 0007     ................
  426840:	0780 0000 0006 07c0 f800 6001 003f 07e0     ...........`?...
  426850:	e000 0000 0060 0000 0000 0000 6000 0600     ....`........`..
  426860:	00e0 e007 0781 c360 0006 006e 3c00 0000     ......`...n..<..
  426870:	003c 6600 6000 06c3 81e0 e007 0700 0060     <..f.`........`.
  426880:	6006 0000 0060 e000 0000 03e0 6000 060f     .`..`........`..
  426890:	fc00 0007 07fc 0e00 6006 0003 01e0 e000     .........`......
  4268a0:	0000 0060 0000 0000 0000 e000 0701 81e0     ..`.............
  4268b0:	6007 06c0 6060 6006 0630 1860 6006 060c     .`..``.`0.`..`..
  4268c0:	0660 6006 0603 81e0 0007 0000 0000 f800     `..`............
  4268d0:	7fff fff8 187f 6000 0000 0000 0000 0010     .......`........
  4268e0:	7000 0000 01c0 0000 0007 3c00 0000 00e0     .p.........<....
  4268f0:	8000 0003 0600 0000 0000 0000 0000 1860     ..............`.
  426900:	6000 fff8 f87f 7fff 0000 0000 0000 0000     .`..............
  426910:	0000 0008 0e00 8000 0007 01e0 7000 0000     .............p..
  426920:	0070 e000 0001 0780 0000 000e 0800 0000     p...............
  426930:	1000 0000 0010 1000 0000 0010 1000 0000     ................
  426940:	0010 1000 0000 0010 1000 0000 0010 0000     ................
  426950:	0020 6000 0000 00e0 8000 0000 0000 0000      ..`............
  426960:	03c0 ec00 0007 0666 6600 0006 0266 fe00     ......f..f..f...
  426970:	0007 07fc 0000 0006 0000 0000 3000 0000     .............0..
  426980:	fff0 f007 07ff 0c00 0006 0606 0600 0006     ................
  426990:	0606 0c00 0003 03fc f000 0000 0000 0000     ................
  4269a0:	0000 00f0 fc00 0003 070e 0600 0006 0606     ................
  4269b0:	0600 0006 030c 0800 0001 0000 0000 0000     ................
  4269c0:	00f8 fc00 0003 070e 0600 0006 0606 0600     ................
  4269d0:	3006 0606 fff0 f007 07ff 0000 0006 0000     .0..............
  4269e0:	0000 0000 00f0 fc00 0003 076e 6600 0006     ..........n..f..
  4269f0:	0666 6600 0006 066e 7c00 0003 0078 0000     f..f..n..|..x...
  426a00:	0000 0000 0600 e006 07ff fff0 3007 0606     .............0..
  426a10:	0630 3000 0000 0000 0000 20f0 fc00 0033     0..0....... ..3.
  426a20:	670e 0600 0066 6606 0600 0066 7206 fe00     .g..f..f..f..r..
  426a30:	003f 1ffe 0000 0000 0000 0030 f006 07ff     ?.........0.....
  426a40:	fff0 0007 060c 0600 0000 0006 0600 0000     ................
  426a50:	060e fe00 0007 07fc 0000 0006 0000 0000     ................
  426a60:	0000 0606 fe60 6007 07fe 0000 0006 0000     ....`..`........
  426a70:	0000 0040 6006 fe60 607f 3ffe 0000 0000     ..@..``..`.?....
  426a80:	0000 0000 3006 0600 fff0 f007 07ff 4000     .....0.........@
  426a90:	0006 00e0 b000 0001 031e 0e00 0006 0606     ................
  426aa0:	0600 0006 0000 0000 3000 0600 fff0 f007     .........0......
  426ab0:	07ff 0000 0006 0000 0000 0000 0606 fe00     ................
  426ac0:	0007 07fe 0400 0006 0006 0600 0000 0006     ................
  426ad0:	0e00 0006 07fc fc00 0007 0606 0600 0000     ................
  426ae0:	0006 0600 0006 07fe fc00 0007 0600 0000     ................
  426af0:	0000 0000 0600 0006 07fe fe00 0007 060c     ................
  426b00:	0400 0000 0006 0600 0000 0606 fe00 0007     ................
  426b10:	07fc 0000 0006 0000 0000 0000 00f0 fc00     ................
  426b20:	0003 070e 0600 0006 0606 0600 0006 070e     ................
  426b30:	fc00 0003 00f0 0000 0000 0000 0600 0060     ..............`.
  426b40:	7ffe fe00 007f 6606 0600 0006 0606 0600     .......f........
  426b50:	0006 030e fc00 0003 00f8 0000 0000 0000     ................
  426b60:	f800 0001 03fc 0e00 0007 0606 0600 0006     ................
  426b70:	6206 fe00 007f 7ffe 0000 0060 0000 0000     .b........`.....
  426b80:	0000 0606 fe00 0007 07fe 0c00 0006 0006     ................
  426b90:	0e00 0000 000e 0000 0000 0000 1c00 0003     ................
  426ba0:	073e 6600 0006 0666 6600 0006 07ce 8c00     >..f..f..f......
  426bb0:	0003 0000 0000 0000 0006 ff80 c003 07ff     ................
  426bc0:	0600 0006 0606 0000 0006 0000 0600 0000     ................
  426bd0:	03fe fe00 0007 0700 0000 0006 0600 0600     ................
  426be0:	0002 07fe fe00 0007 0600 0000 0000 0000     ................
  426bf0:	0600 0000 000e 7e00 0000 03f6 8000 0007     .......~........
  426c00:	0700 f600 0007 00fe 1e00 0000 0006 0600     ................
  426c10:	0000 001e fe00 0001 07e6 0000 0006 07f0     ................
  426c20:	fe00 0001 0006 fe00 0001 07f0 0000 0007     ................
  426c30:	07e0 fe00 0001 001e 0600 0000 0606 0600     ................
  426c40:	0006 070e 9600 0007 00e0 f000 0000 07b6     ................
  426c50:	1e00 0007 060e 0600 0006 0006 0e00 0000     ................
  426c60:	607e f600 0073 7f80 8000 006f 01f6 7e00     ~`..s.....o....~
  426c70:	0000 000e 0600 0000 0000 0000 0000 060e     ................
  426c80:	0e00 0007 07c6 e600 0006 0676 1e00 0007     ..........v.....
  426c90:	070e 0000 0000 0000 0000 0000 0070 fff0     ............p...
  426ca0:	f83f 7fcf 0018 0060 0000 0000 f800 7fff     ?.....`.........
  426cb0:	fff8 007f 0000 0000 1800 6000 cff8 f07f     ...........`....
  426cc0:	3fff 3000 0000 0000 0000 0000 0000 c000     .?.0............
  426cd0:	0000 0060 6000 0000 0060 e000 0000 00c0     ..`..`..`.......
  426ce0:	c000 0000 00c0 6000 0000 0000               .......`....

00426cec <Arvo_10pt_CharCount>:
  426cec:	0403 0904 0b08 0209 0505 0805 0504 0503     ................
  426cfc:	0508 0707 0708 0708 0808 0303 0606 0707     ................
  426d0c:	0a0f 0a09 080a 0b08 050c 0a04 0e08 0a0a     ................
  426d1c:	0a08 0809 0a09 1009 090a 0508 0506 0708     ................
  426d2c:	0704 0708 0708 0805 0409 0804 0d04 0809     ................
  426d3c:	0808 0606 0905 0a07 0707 0506 0503 0008     ................

00426d4c <Arvo_10pt_Table>:
	...
  426d54:	1bf0 0000 0000 0038 0000 0038 0000 0200     ......8...8.....
  426d64:	0e20 07e0 0270 0220 0e20 07e0 0270 0020      ...p. . ...p. .
  426d74:	0000 0980 1b40 7270 1240 16c0 0c80 0000     ....@.pr@.......
  426d84:	0030 1048 0848 0630 0100 0080 0c60 1210     0.H.H.0.....`...
  426d94:	1208 0c00 0000 0000 0c00 12e0 1110 1390     ................
  426da4:	0ee0 0c00 1b00 1000 0038 0000 0000 0fc0     ........8.......
  426db4:	7038 c00c 0000 c00c 3038 0fc0 0000 0000     8p......80......
  426dc4:	0010 0050 0038 0050 0010 0000 0100 0100     ..P.8.P.........
  426dd4:	0100 0fe0 0100 0100 0100 2000 1000 0000     ........... ....
  426de4:	0000 0000 0200 0200 0200 0000 0000 1800     ................
  426df4:	0000 1000 0e00 0180 0070 0008 0000 07c0     ........p.......
  426e04:	1830 1010 1010 1830 07c0 0000 0000 1020     0.....0....... .
  426e14:	1ff0 1000 0000 0000 1860 1410 1210 1110     ........`.......
  426e24:	10e0 0000 0000 0820 1010 1110 1110 0ee0     ...... .........
  426e34:	0000 0000 0300 02c0 0220 1210 1f80 1200     ........ .......
  426e44:	0000 0000 09f0 1090 1090 1990 0f10 0000     ................
  426e54:	0000 0f00 1980 10e0 1090 1980 0f00 0000     ................
  426e64:	0030 1010 1810 1710 00d0 0030 0000 0000     0.........0.....
  426e74:	0ee0 1b10 1110 1110 1bb0 0ee0 0000 0000     ................
  426e84:	01e0 0330 1210 0a10 0730 01e0 0000 0000     ..0.....0.......
  426e94:	18c0 0000 2000 18c0 0000 0100 0280 0240     ..... ........@.
  426ea4:	0440 0820 0000 0000 0500 0500 0500 0500     @. .............
  426eb4:	0000 0000 0820 0440 0240 0280 0100 0000     .... .@.@.......
  426ec4:	0000 0060 1b10 0090 0090 0060 0000 0000     ..`.......`.....
  426ed4:	0f00 30c0 6060 4720 8890 9050 9050 9050     ...0`` G..P.P.P.
  426ee4:	d8d0 1fe0 1020 10c0 0f80 0000 1000 1800     .... ...........
  426ef4:	1700 02e0 0210 0230 13c0 1c00 1000 0000     ......0.........
  426f04:	0000 1010 1ff0 1110 1110 1110 1110 0ee0     ................
  426f14:	0000 0000 03c0 0c60 0830 1010 1010 1010     ......`.0.......
  426f24:	1810 0c20 0420 0000 1010 1ff0 1010 1010     .. . ...........
  426f34:	1010 1830 0c60 07c0 0000 0000 1010 1ff0     ..0.`...........
  426f44:	1110 1110 1010 1c30 0000 0000 1010 1ff0     ......0.........
  426f54:	1110 0110 0110 0030 0000 0000 03c0 0c60     ......0.......`.
  426f64:	1830 1010 1010 1210 1230 0a20 1e20 0000     0.......0. . ...
  426f74:	0000 1010 1ff0 1110 0100 0100 0100 0100     ................
  426f84:	1110 1ff0 1010 0000 0000 1010 1ff0 1010     ................
  426f94:	0000 0000 4010 3ff0 0010 0000 1010 1ff0     .....@.?........
  426fa4:	1110 0100 0280 0440 1820 1010 1010 0000     ......@. .......
  426fb4:	1010 1ff0 1010 1000 1000 1c00 0000 0000     ................
  426fc4:	1010 1ff0 1030 00c0 0700 1800 1800 0700     ....0...........
  426fd4:	00c0 1030 1ff0 1010 0000 0000 1010 1ff0     ..0.............
  426fe4:	1030 0040 0180 0600 0810 1ff0 0010 07c0     0.@.............
  426ff4:	0c60 1830 1010 1010 1010 1830 0c60 07c0     `.0.......0.`...
  427004:	0000 0000 1010 1ff0 1110 0110 0110 0110     ................
  427014:	00e0 07c0 0c60 1830 1010 3010 3010 5830     ....`.0....0.00X
  427024:	4c60 27c0 0000 0000 1010 1ff0 1110 0110     `L.'............
  427034:	0110 0710 1ce0 1000 0400 0ce0 1190 1110     ................
  427044:	1110 1330 0e20 0000 0000 0030 0010 0010     ..0. .....0.....
  427054:	1010 1ff0 1010 0010 0010 0000 0010 07f0     ................
  427064:	0810 1000 1000 1000 0810 07f0 0010 0010     ................
  427074:	0030 00d0 0700 1800 1c00 0390 0070 0010     0...........p...
  427084:	0010 0030 01d0 0e00 1000 0e00 01c0 0030     ..0...........0.
  427094:	0030 01c0 0e00 1800 0e00 0190 0070 0010     0...........p...
  4270a4:	0000 1010 1830 1450 0280 0100 0280 1450     ....0.P.......P.
  4270b4:	1830 1010 0000 0010 0030 10d0 1f80 10d0     0.......0.......
  4270c4:	0030 0010 0000 0000 1870 1410 1210 1110     0.......p.......
  4270d4:	1090 1050 1c30 0000 0000 7ffc 4004 0000     ..P.0........@..
  4270e4:	0008 0038 00c0 0300 1c00 0000 0000 4004     ..8............@
  4270f4:	7ffc 0000 0000 0000 0080 0060 0010 0008     ..........`.....
  427104:	0070 0080 0000 4000 4000 4000 4000 4000     p......@.@.@.@.@
  427114:	4000 4000 0000 0010 0030 0020 0c40 1240     .@.@....0. .@.@.
  427124:	1240 1240 1f80 1000 0000 0008 1ff8 1040     @.@...........@.
  427134:	1040 1040 0880 0700 0000 0700 0880 1040     @.@...........@.
  427144:	1040 1040 0880 0000 0780 18c0 1040 1040     @.@.........@.@.
  427154:	1048 1ff8 1000 0000 0000 0f80 1240 1240     H...........@.@.
  427164:	1240 1380 0000 0000 1040 1ff8 1048 0008     @.......@...H...
  427174:	0000 0780 98c0 9040 9040 d040 7fc0 0000     ......@.@.@.....
  427184:	0000 1008 1ff8 1040 0040 0040 1040 1f80     ......@.@.@.@...
  427194:	1000 0000 1040 1fd8 1000 4040 7fcc 0000     ....@.....@@....
  4271a4:	0000 0000 1008 1ff8 1200 0700 0880 1040     ..............@.
  4271b4:	1040 0000 1008 1ff8 1000 0000 1040 1fc0     @...........@...
  4271c4:	1040 0040 1040 1f80 1080 0040 1040 1f80     @.@.@.....@.@...
  4271d4:	1000 0000 0000 1040 1fc0 1080 0040 1040     ......@.....@.@.
  4271e4:	1f80 1000 0000 0000 0f80 1040 1040 1040     ..........@.@.@.
  4271f4:	1040 0f80 0000 8040 ffc0 9040 1040 1040     @.....@...@.@.@.
  427204:	08c0 0780 0000 0000 0780 18c0 1040 1040     ............@.@.
  427214:	9040 ffc0 8000 1040 1fc0 1080 0040 00c0     @.....@.....@...
  427224:	0000 0980 1240 1240 1240 0c80 0000 0040     ....@.@.@.....@.
  427234:	1ff0 1040 1000 0000 0040 0fc0 1000 1000     ..@.....@.......
  427244:	1000 1040 1fc0 1000 0000 0040 01c0 0e40     ..@.......@...@.
  427254:	1000 0e40 01c0 0040 01c0 0e40 1800 0700     ..@...@...@.....
  427264:	00c0 0f80 1800 0e40 01c0 0040 1040 18c0     ......@...@.@...
  427274:	1540 0200 1540 18c0 1040 0040 81c0 ce40     @...@...@.@...@.
  427284:	b800 0740 00c0 0040 18c0 1440 1240 1140     ..@...@...@.@.@.
  427294:	10c0 1800 0000 0100 7efc 4004 0000 0000     .........~.@....
  4272a4:	fffc 0000 0000 4004 7efc 0100 0000 0000     .......@.~......
  4272b4:	0600 0200 0200 0400 0400 0600 0000 0000     ................

004272c4 <Arvo_8pt_CharCount>:
  4272c4:	0402 0803 0906 0208 0404 0704 0403 0502     ................
  4272d4:	0507 0606 0607 0607 0707 0303 0505 0606     ................
  4272e4:	080c 0807 0708 0907 040a 0804 0c07 0909     ................
  4272f4:	0907 0608 0808 0e08 0708 0407 0405 0607     ................
  427304:	0603 0607 0607 0604 0407 0703 0b04 0707     ................
  427314:	0607 0505 0704 0906 0606 0405 0402 0007     ................

00427324 <Arvo_8pt_Table>:
  427324:	0000 0000 0000 17e0 0000 0000 0060 0000     ............`...
  427334:	0060 0400 1c80 0780 04e0 1c80 0780 04e0     `...............
  427344:	0080 0000 0b00 1280 74e0 1480 0d00 00c0     .........t......
  427354:	1120 0920 04c0 0f00 1280 1240 0c20 0000      . .......@. ...
  427364:	0000 0ec0 1120 1120 1320 1cc0 0a00 1000     .... . . .......
  427374:	0060 0000 0000 0fc0 3030 4008 4008 3030     `.......00.@.@00
  427384:	0fc0 0000 0120 00c0 00c0 0120 0000 0200     .... ..... .....
  427394:	0200 0f80 0200 0200 0000 2000 1000 0000     ........... ....
  4273a4:	0000 0200 0200 0000 0000 1000 1000 0e00     ................
  4273b4:	01c0 0020 0000 0f80 1860 1020 1020 1860     .. .....`. . .`.
  4273c4:	0fc0 0000 0040 1020 1fe0 1000 0000 0000     ....@. .........
  4273d4:	1840 1420 1220 11c0 0000 0000 0840 1120     @. . .......@. .
  4273e4:	1120 0ec0 0000 0000 0600 05c0 1420 1e00      ........... ...
  4273f4:	1400 0000 0000 19e0 1120 1120 0e20 0000     ........ . . ...
  427404:	0000 0f00 1180 1140 1120 0e00 0000 0060     ......@. .....`.
  427414:	1020 1c20 13a0 0060 0000 0000 0ec0 1120      . ...`....... .
  427424:	1120 1120 0ec0 0000 0000 01c0 1220 0a20      . ......... . .
  427434:	0620 01c0 0000 0000 1000 0000 2000 1080      ............ ..
  427444:	0000 0200 0500 0500 0500 0880 0a00 0a00     ................
  427454:	0a00 0a00 0a00 0000 0880 0500 0500 0200     ................
  427464:	0000 0000 0040 1620 0120 00c0 0000 0000     ....@. . .......
  427474:	1f00 2080 4040 8f20 90a0 90a0 9fa0 5040     ... @@ .......@P
  427484:	10c0 0f00 0000 1000 1c00 1380 0260 0260     ............`.`.
  427494:	1380 1c00 1000 0000 1020 1fe0 1220 1220     ........ ... . .
  4274a4:	0dc0 0000 0000 0780 0840 1020 1020 1020     ........@. . . .
  4274b4:	0840 0000 0000 1020 1fe0 1020 1020 0840     @..... ... . .@.
  4274c4:	0780 0000 0000 1020 1fe0 1120 1020 1860     ...... ... . .`.
  4274d4:	0000 0000 1020 1fe0 1120 0120 0060 0000     .... ... . .`...
  4274e4:	0000 0780 0840 1020 1020 1220 0a40 1e40     ....@. . . .@.@.
  4274f4:	0000 0000 1020 1fe0 1120 0100 0100 1120     .... ... ..... .
  427504:	1fe0 1020 0000 0000 1020 1fe0 1020 0000     .. ..... ... ...
  427514:	2020 1fe0 0020 0000 1020 1fe0 1120 0280       .. ... ... ...
  427524:	0440 1820 1020 0000 1020 1fe0 1020 1000     @. . ... ... ...
  427534:	1800 0000 0000 1020 1fe0 1060 0380 1c00     ...... ...`.....
  427544:	1c00 0300 10e0 1fe0 1020 0000 0000 1020     ........ ..... .
  427554:	1fe0 1060 0380 0c00 1820 1fe0 0020 0780     ..`..... ... ...
  427564:	0840 1020 1020 1020 1020 0840 0780 0000     @. . . . .@.....
  427574:	0000 1020 1fe0 1120 0120 0120 00c0 0780     .. ... . . .....
  427584:	0840 1020 1020 3020 5020 4840 4780 0000     @. . . 0 P@H.G..
  427594:	0000 1020 1fe0 1120 0120 0720 1cc0 1000     .. ... . . .....
  4275a4:	0000 19c0 1120 1120 1220 0e40 0000 0060     .... . . .@...`.
  4275b4:	0020 1020 1fe0 1020 0020 0060 0020 0fe0      . ... . .`. ...
  4275c4:	1820 1000 1000 1820 0fe0 0020 0020 00e0      ..... ... . ...
  4275d4:	0320 1c00 1c00 0320 00e0 0020 0020 00e0      ..... ... . ...
  4275e4:	0720 1800 1c00 0780 0060 00e0 0700 1c00      .......`.......
  4275f4:	1800 0720 00e0 0020 0000 1020 1860 14a0     .. ... ... .`...
  427604:	0300 14a0 1860 1020 0020 0060 10a0 1f00     ....`. . .`.....
  427614:	10a0 0060 0020 0000 1860 1420 1220 1120     ..`. ...`. . . .
  427624:	10a0 1860 0000 7ff8 4008 0000 0000 00e0     ..`......@......
  427634:	0300 0c00 1000 0000 4008 7ff8 0000 0000     .........@......
  427644:	0100 00c0 0020 00c0 0100 0000 4000 4000     .... ........@.@
  427654:	4000 4000 4000 4000 0000 0020 0040 0000     .@.@.@.@.. .@...
  427664:	1c80 1480 1480 1f00 1000 0020 1fe0 1080     .......... .....
  427674:	1080 1880 0f00 0000 0000 0f00 1080 1080     ................
  427684:	1080 0900 0000 0f00 1980 1080 10a0 1fe0     ................
  427694:	1000 0f00 1280 1280 1280 1300 0000 1080     ................
  4276a4:	1fe0 10a0 0020 0000 4f00 9080 9080 7f80     .... ....O......
  4276b4:	0000 1020 1fe0 1080 0080 1080 1f00 1000     .. .............
  4276c4:	1080 1fa0 1000 0000 4080 7fa0 0000 1020     .........@.... .
  4276d4:	1fe0 1400 0c00 1200 1180 1080 1020 1fe0     ............ ...
  4276e4:	1000 0000 1080 1f80 1080 0080 1080 1f00     ................
  4276f4:	1080 0080 1080 1f00 1000 1080 1f80 1100     ................
  427704:	0080 0080 1f00 1000 0f00 1080 1080 1080     ................
  427714:	0f00 0000 0000 8080 ff80 9080 1080 1880     ................
  427724:	0f00 0000 0000 0f00 1080 9080 ff80 8000     ................
  427734:	1080 1f80 1100 0080 0180 0000 1380 1680     ................
  427744:	1c80 0000 0080 1fe0 1080 1000 0080 1f80     ................
  427754:	1000 1080 1f80 1000 0000 0080 0380 1c00     ................
  427764:	1c00 0380 0080 0080 0780 1880 0e00 0180     ................
  427774:	0e00 1800 0780 0080 1080 1980 0600 1980     ................
  427784:	1080 0000 0080 8380 fc00 9c00 0380 0080     ................
  427794:	1980 1480 1280 1980 0000 0000 0600 7df8     ...............}
  4277a4:	4008 0000 fff8 4008 7df8 0200 0000 0000     .@.....@.}......
  4277b4:	0600 0200 0600 0400 0600 0000               ............

004277c0 <Anton_16pt_CharCount>:
  4277c0:	0505 0b09 160a 040b 0606 0709 0705 0905     ................
  4277d0:	070a 0a0a 0a0a 0a0a 0b0a 0505 0707 0a07     ................
  4277e0:	0a12 0a0a 090a 0a08 050a 0a0a 1008 0a0a     ................
  4277f0:	0a0a 0a0a 0a08 0f0a 090a 0709 0709 080a     ................
  427800:	0a07 0a0b 0a0a 0b06 050b 0a06 1005 0a0a     ................
  427810:	0a0a 0a07 0a06 0f0a 0a0a 0708 0705 000a     ................

00427820 <Anton_16pt_Table>:
	...
  427838:	ffc0 01cf ffc0 01cf ffc0 01cf 0000 0000     ................
  427848:	0040 0000 1fc0 0000 1fc0 0000 07c0 0000     @...............
  427858:	0000 0000 03c0 0000 1fc0 0000 1fc0 0000     ................
  427868:	0040 0000 0000 010e 6000 01fe e000 01ff     @........`......
  427878:	ff00 00ff ff00 000f 7f00 018e 6000 01fe     .............`..
  427888:	f000 01ff ff00 003f ff00 000e 6700 000e     ......?......g..
  427898:	0000 0018 7c00 0078 fe00 00f8 ff00 00f9     .....|x.........
  4278a8:	e780 03e3 c780 03e7 9f00 00ff 1e00 00ff     ................
  4278b8:	1c00 007e 0000 0000 fc00 0000 ff80 0007     ..~.............
  4278c8:	ffc0 0007 03c0 000f 01c0 000e ffc0 000f     ................
  4278d8:	ffc0 0007 ff80 01c3 0000 01f8 0000 01ff     ................
  4278e8:	f000 00ff fe00 000f ffc0 0001 1fc0 0000     ................
  4278f8:	c3c0 007f e040 00ff f000 01ff 7000 01c0     ....@........p..
  427908:	7000 01c0 f000 01ff e000 00ff 8000 003f     .p............?.
  427918:	0000 0038 0000 00ff fe00 01ff ff00 01ff     ..8.............
  427928:	ff00 01c7 e700 00ff ff00 01ff 7e00 01ff     .............~..
  427938:	9c00 01ef 8000 0183 0000 0000 0040 0000     ............@...
  427948:	1fc0 0000 1fc0 0000 07c0 0000 f000 0007     ................
  427958:	ff00 007f ff80 00ff ffc0 01ff 03c0 01e0     ................
  427968:	01c0 01c0 01c0 01c0 03c0 01e0 ffc0 01ff     ................
  427978:	ff80 00ff ff00 007f f800 000f 2800 0000     .............(..
  427988:	ee00 0000 6c00 0000 3800 0000 ff00 0001     .....l...8......
  427998:	ff00 0001 7c00 0000 ee00 0000 6c00 0000     .....|.......l..
  4279a8:	0000 000e 0000 000e 0000 000e 8000 003f     ..............?.
  4279b8:	8000 003f 0000 000e 0000 000e 0000 0000     ..?.............
  4279c8:	0000 05c0 0000 07c0 0000 07c0 0000 0000     ................
  4279d8:	0000 0000 0000 000e 0000 000e 0000 000e     ................
  4279e8:	0000 000e 0000 000e 0000 0000 0000 0000     ................
  4279f8:	0000 01c0 0000 01c0 0000 01c0 0000 0000     ................
  427a08:	0000 0100 0000 01f0 8000 01ff f800 01ff     ................
  427a18:	ffc0 007f ffc0 0003 3fc0 0000 01c0 0000     .........?......
  427a28:	0000 0000 fc00 001f ff00 007f ff80 00ff     ................
  427a38:	ffc0 01ff 01c0 01c0 01c0 01c0 ffc0 01ff     ................
  427a48:	ffc0 01ff ff80 00ff fe00 003f 0700 0000     ..........?.....
  427a58:	0700 0000 ff80 01ff ffc0 01ff ffc0 01ff     ................
  427a68:	ffc0 01ff 0000 0000 0000 0000 1f00 01f0     ................
  427a78:	1f80 01f8 1fc0 01fe 03c0 01ff c1c0 01df     ................
  427a88:	ffc0 01cf ffc0 01c3 ff80 01c1 7f00 01c0     ................
  427a98:	0c00 001c 0f80 00fc 0f80 00fc 0fc0 01fc     ................
  427aa8:	e1c0 01c0 e1c0 01c0 ffc0 01ff ffc0 00ff     ................
  427ab8:	bf80 00ff 1e00 003f 0000 003c c000 003f     ......?...<...?.
  427ac8:	fc00 003f ffc0 003f 3fc0 0038 03c0 0038     ..?...?..?8...8.
  427ad8:	ffc0 01ff ffc0 01ff ffc0 01ff 0000 0038     ..............8.
  427ae8:	0000 001c ffc0 00fc ffc0 00fc ffc0 01fc     ................
  427af8:	31c0 01c0 39c0 01c0 f9c0 01ff f9c0 01ff     .1...9..........
  427b08:	f1c0 00ff e000 003f 0000 0000 ff00 007f     ......?.........
  427b18:	ff80 00ff ffc0 01ff c1c0 01e1 e1c0 01c0     ................
  427b28:	e7c0 01ff e7c0 01ff e780 00ff 8700 003f     ..............?.
  427b38:	0000 0000 01c0 0000 01c0 01f8 01c0 01ff     ................
  427b48:	e1c0 01ff fdc0 01ff ffc0 0007 7fc0 0000     ................
  427b58:	1fc0 0000 03c0 0000 0c00 000e bf80 007f     ................
  427b68:	ff80 00ff ffc0 01ff e1c0 01e0 e1c0 01e0     ................
  427b78:	ffc0 01ff ffc0 01ff bf80 00ff 1f00 003f     ..............?.
  427b88:	0000 0000 ff00 00f1 ff80 01f3 ffc0 01f3     ................
  427b98:	c3c0 01c3 81c0 01c3 ffc0 01ff ffc0 01ff     ................
  427ba8:	ff80 00ff ff00 003f 0000 0000 0000 0000     ......?.........
  427bb8:	3800 0038 3800 0038 3800 0038 0000 0000     .88..88..88.....
  427bc8:	0000 0000 7000 0138 7000 01f8 7000 01f8     .....p8..p...p..
  427bd8:	0000 0038 8000 0007 c000 000f c000 001f     ..8.............
  427be8:	e000 001d f000 003c 7800 0078 0000 0000     ......<..xx.....
  427bf8:	0000 0000 e000 000e e000 000e e000 000e     ................
  427c08:	e000 000e e000 000e 0000 0000 0000 0000     ................
  427c18:	f800 0078 e000 003c e000 001f c000 000f     ..x...<.........
  427c28:	c000 000f 0000 0000 1c00 0000 1f80 01cf     ................
  427c38:	1f80 01cf 1fc0 01cf 01c0 01cf 81c0 0003     ................
  427c48:	ffc0 0003 ffc0 0003 ff80 0001 7f00 0000     ................
  427c58:	0000 0000 f000 003f fc00 00ff ff00 01ff     ......?.........
  427c68:	0f80 03e0 8780 038f f3c0 07bf f1c0 077f     ................
  427c78:	f1c0 0778 31c0 0730 f1c0 071f f1c0 073f     ..x..10.......?.
  427c88:	f3c0 047f 0380 0070 0f00 0070 fe00 003f     ......p...p...?.
  427c98:	fc00 001f c000 0003 0000 0180 f000 01ff     ................
  427ca8:	ffc0 01ff ffc0 01ff ffc0 0038 3fc0 0038     ..........8..?8.
  427cb8:	ffc0 01ff ffc0 01ff fc00 01ff 0000 01e0     ................
  427cc8:	0000 0000 ffc0 01ff ffc0 01ff ffc0 01ff     ................
  427cd8:	e1c0 01c0 e1c0 01c0 ffc0 01ff ffc0 01ff     ................
  427ce8:	bf80 00ff 0000 001e 0000 0000 ff00 007f     ................
  427cf8:	ff80 00ff ffc0 01ff 01c0 01c0 01c0 01c0     ................
  427d08:	1fc0 01fe 1f80 01fe 1f80 00fe 1c00 001e     ................
  427d18:	0000 0000 ffc0 01ff ffc0 01ff ffc0 01ff     ................
  427d28:	01c0 01c0 01c0 01c0 ffc0 01ff ffc0 01ff     ................
  427d38:	ff80 00ff fe00 003f 0000 0000 ffc0 01ff     ......?.........
  427d48:	ffc0 01ff ffc0 01ff c3c0 01e1 c3c0 01e1     ................
  427d58:	c3c0 01e1 c3c0 01e1 0000 0000 0000 0000     ................
  427d68:	ffc0 01ff ffc0 01ff ffc0 01ff e3c0 0001     ................
  427d78:	e3c0 0001 e3c0 0001 e3c0 0001 0000 0000     ................
  427d88:	ff00 007f ff80 00ff ffc0 01ff 01c0 01c0     ................
  427d98:	c1c0 01c1 cfc0 01ff cfc0 00ff cf80 01ff     ................
  427da8:	cc00 01ff 0000 0000 ffc0 01ff ffc0 01ff     ................
  427db8:	ffc0 01ff e000 0000 e000 0000 ffc0 01ff     ................
  427dc8:	ffc0 01ff ffc0 01ff ffc0 01ff 0000 0000     ................
  427dd8:	ffc0 01ff ffc0 01ff ffc0 01ff 0000 0000     ................
  427de8:	0000 003f 0000 00ff 0000 00ff 0000 01ff     ..?.............
  427df8:	0000 01c0 0000 01c0 ffc0 01ff ffc0 00ff     ................
  427e08:	ffc0 007f 0000 0000 0000 0000 ffc0 01ff     ................
  427e18:	ffc0 01ff ffc0 01ff e000 0000 fe00 001f     ................
  427e28:	ffc0 01ff ffc0 01ff 07c0 01fc 0040 01c0     ............@...
  427e38:	0000 0000 ffc0 01ff ffc0 01ff ffc0 01ff     ................
  427e48:	0000 01c0 0000 01c0 0000 01c0 0000 01c0     ................
  427e58:	0000 0000 ffc0 01ff ffc0 01ff ffc0 01ff     ................
  427e68:	3fc0 0000 ffc0 000f ff00 01ff 8000 01ff     .?..............
  427e78:	f000 01ff ffc0 01ff ffc0 0003 0fc0 0000     ................
  427e88:	ffc0 01ff ffc0 01ff ffc0 01ff 0000 0000     ................
  427e98:	0000 0000 ffc0 01ff ffc0 01ff ffc0 01ff     ................
  427ea8:	ffc0 0000 f800 003f ffc0 01ff ffc0 01ff     ......?.........
  427eb8:	ffc0 01ff ffc0 01ff 0000 0000 ff00 007f     ................
  427ec8:	ff80 00ff ffc0 01ff 01c0 01c0 01c0 01c0     ................
  427ed8:	ffc0 01ff ff80 00ff ff80 00ff fc00 001f     ................
  427ee8:	0000 0000 ffc0 01ff ffc0 01ff ffc0 01ff     ................
  427ef8:	c1c0 0001 c1c0 0001 ffc0 0001 ffc0 0001     ................
  427f08:	ff80 0000 1c00 0000 0000 0000 ff80 007f     ................
  427f18:	ff80 00ff ffc0 01ff 01c0 01c0 01c0 01c0     ................
  427f28:	ffc0 01ff ff80 03ff ff80 07ff 0000 0300     ................
  427f38:	0000 0000 ffc0 01ff ffc0 01ff ffc0 01ff     ................
  427f48:	e1c0 0000 e1c0 0000 ffc0 01ff ffc0 01ff     ................
  427f58:	bf80 01ff 1e00 0000 0c00 001c 3f80 00fc     .............?..
  427f68:	7fc0 01fc ffc0 01fd f9c0 01c3 f7c0 01c7     ................
  427f78:	e7c0 01ff c780 00ff 0700 007f 0000 0000     ................
  427f88:	03c0 0000 03c0 0000 ffc0 01ff ffc0 01ff     ................
  427f98:	ffc0 01ff ffc0 01ff 03c0 0000 03c0 0000     ................
  427fa8:	0000 0000 ffc0 007f ffc0 00ff ffc0 01ff     ................
  427fb8:	0000 01c0 0000 01c0 ffc0 01ff ffc0 00ff     ................
  427fc8:	ffc0 007f 0000 0000 00c0 0000 ffc0 0001     ................
  427fd8:	ffc0 01ff ffc0 01ff c000 01ff e000 01ff     ................
  427fe8:	ffc0 01ff ffc0 00ff ffc0 0000 0040 0000     ............@...
  427ff8:	00c0 0000 ffc0 0003 ffc0 01ff ffc0 01ff     ................
  428008:	c000 01ff fc00 01ff ffc0 01ff ffc0 0000     ................
  428018:	ffc0 01ff fc00 01ff c000 01ff ffc0 01ff     ................
  428028:	ffc0 01ff ffc0 0001 00c0 0000 0000 0100     ................
  428038:	07c0 01f8 ffc0 01ff ffc0 01ff ff00 003f     ..............?.
  428048:	fc00 000f ffc0 01ff ffc0 01ff 0fc0 01fc     ................
  428058:	0040 0180 00c0 0000 0fc0 0000 ffc0 0001     @...............
  428068:	ffc0 01ff f800 01ff ff80 01ff ffc0 0003     ................
  428078:	3fc0 0000 01c0 0000 0000 01c0 01c0 01fc     .?..............
  428088:	81c0 01ff f1c0 01ff ffc0 01df ffc0 01c3     ................
  428098:	3fc0 01c0 07c0 01c0 0000 0000 0000 0000     .?..............
  4280a8:	ffc0 01ff ffc0 01ff ffc0 01ff 01c0 01c0     ................
  4280b8:	01c0 01c0 0000 0000 0040 0000 0fc0 0000     ........@.......
  4280c8:	ffc0 0000 ffc0 001f ff00 01ff e000 01ff     ................
  4280d8:	0000 01fe 0000 01c0 0000 0000 01c0 01c0     ................
  4280e8:	01c0 01c0 ffc0 01ff ffc0 01ff ffc0 01ff     ................
  4280f8:	ffc0 01ff 0000 0000 0000 0008 0000 000f     ................
  428108:	f000 000f fc00 000f fc00 0001 fc00 0001     ................
  428118:	fc00 000f f000 000f 0000 000f 0000 0008     ................
  428128:	0000 1c00 0000 1c00 0000 1c00 0000 1c00     ................
  428138:	0000 1c00 0000 1c00 0000 1c00 0000 0000     ................
  428148:	0000 0000 00f0 0000 00e0 0000 00e0 0000     ................
  428158:	00c0 0000 01c0 0000 0000 0000 0000 0038     ..............8.
  428168:	3c00 00fe 3e00 01ff 3e00 01ff 8e00 01c1     .<...>...>......
  428178:	8e00 00c1 fe00 01ff fe00 01ff fc00 01ff     ................
	...
  428190:	ffc0 01ff ffc0 01ff ffc0 01ff ffc0 01ff     ................
  4281a0:	0e00 01c0 fe00 01ff fe00 01ff fe00 00ff     ................
  4281b0:	f800 007f 0000 0000 0000 0000 f800 007f     ................
  4281c0:	fc00 00ff fe00 01ff 0e00 01c0 0e00 01c0     ................
  4281d0:	7e00 01fc 7e00 01fc 7c00 00fc 7800 003c     .~...~...|...x<.
  4281e0:	0000 0000 fc00 00ff fe00 01ff fe00 01ff     ................
  4281f0:	0e00 01c0 0e00 00c0 ffc0 01ff ffc0 01ff     ................
  428200:	ffc0 01ff ffc0 01ff 0000 0000 fc00 007f     ................
  428210:	fc00 00ff fe00 01ff 8e00 01c1 8e00 01c1     ................
  428220:	fe00 01f9 fe00 01f9 fc00 00f9 f000 0019     ................
  428230:	1c00 0000 ff80 01ff ffc0 01ff ffc0 01ff     ................
  428240:	ffc0 01ff 0000 0000 0000 0000 fc00 023f     ..............?.
  428250:	fe00 077f fe00 077f 0e00 0778 0c00 0730     ..........x...0.
  428260:	fe00 07ff fe00 07ff fe00 03ff fe00 01ff     ................
	...
  428278:	ffc0 01ff ffc0 01ff ffc0 01ff ffc0 01ff     ................
  428288:	0e00 0000 fe00 01ff fe00 01ff fe00 01ff     ................
  428298:	f800 01ff 0000 0000 0000 0000 fee0 01ff     ................
  4282a8:	fee0 01ff fee0 01ff 0000 0000 0000 0700     ................
  4282b8:	fee0 07ff fee0 07ff fee0 03ff fee0 01ff     ................
	...
  4282d0:	ffc0 01ff ffc0 01ff ffc0 01ff c000 0003     ................
  4282e0:	f800 001f fe00 00ff fe00 01ff 1e00 01f8     ................
  4282f0:	0200 01c0 0000 0000 ffc0 01ff ffc0 01ff     ................
  428300:	ffc0 01ff 0000 0000 0000 0000 fe00 01ff     ................
  428310:	fe00 01ff fe00 01ff 1c00 0000 0e00 0000     ................
  428320:	fe00 01ff fe00 01ff fe00 01ff fc00 01ff     ................
  428330:	0e00 0000 fe00 01ff fe00 01ff fe00 01ff     ................
  428340:	fc00 01ff 0000 0000 0000 0000 fe00 01ff     ................
  428350:	fe00 01ff fe00 01ff 1800 0000 0e00 0000     ................
  428360:	fe00 01ff fe00 01ff fe00 01ff f800 01ff     ................
  428370:	0000 0000 f800 007f fc00 00ff fe00 01ff     ................
  428380:	0e00 01c0 0e00 01c0 fe00 01ff fe00 01ff     ................
  428390:	fc00 00ff f000 003f 0000 0000 fe00 0fff     ......?.........
  4283a0:	fe00 0fff fe00 0fff 1c00 00e0 0e00 01c0     ................
  4283b0:	fe00 01ff fe00 01ff fe00 00ff f800 007f     ................
  4283c0:	0000 0000 fc00 00ff fe00 01ff fe00 01ff     ................
  4283d0:	0e00 01c0 0c00 00c0 fe00 0fff fe00 0fff     ................
  4283e0:	fe00 0fff fe00 0fff 0000 0000 fe00 01ff     ................
  4283f0:	fe00 01ff fe00 01ff 0c00 0000 0e00 0000     ................
  428400:	0e00 0000 3000 0038 fc00 00f8 fc00 01f9     .....08.........
  428410:	fe00 01fb ce00 01c3 8e00 01cf be00 01ff     ................
  428420:	3c00 00ff 3c00 00fe 0000 0038 1c00 0000     .<...<....8.....
  428430:	ffc0 00ff ffc0 01ff ffc0 01ff ffc0 01ff     ................
  428440:	1c00 01c0 0000 0000 fe00 00ff fe00 01ff     ................
  428450:	fe00 01ff 0000 01c0 0000 00c0 fe00 01ff     ................
  428460:	fe00 01ff fe00 01ff fe00 01ff 0600 0000     ................
  428470:	fe00 0001 fe00 00ff fe00 01ff 8000 01ff     ................
  428480:	f000 01ff fe00 01ff fe00 003f 7e00 0000     ..........?..~..
  428490:	0000 0000 0200 0000 fe00 0003 fe00 01ff     ................
  4284a0:	fe00 01ff 0000 01ff fe00 01ff fe00 00ff     ................
  4284b0:	fe00 0001 fe00 01ff 8000 01ff f800 01ff     ................
  4284c0:	fe00 01ff fe00 003f 3e00 0000 0000 0000     ......?..>......
  4284d0:	0200 0100 0e00 01e0 7e00 01fc fe00 007f     .........~......
  4284e0:	fc00 001f e000 00ff fc00 01ff 7e00 01f8     .............~..
  4284f0:	0e00 01c0 0200 0100 0600 0600 fe00 0601     ................
  428500:	fe00 06ff fe00 07ff 0000 07fc e000 07ff     ................
  428510:	fe00 03ff fe00 000f 3e00 0000 0000 0000     .........>......
  428520:	0e00 01c0 0e00 01f8 0e00 01ff ce00 01ff     ................
  428530:	fe00 01ff fe00 01c7 fe00 01c0 1e00 01c0     ................
  428540:	0000 0003 8000 0003 ff80 03ff ffc0 07fe     ................
  428550:	ffc0 07fe 01c0 0700 01c0 0700 0000 0000     ................
  428560:	ffe0 03ff ffe0 03ff ffe0 03ff 0000 0000     ................
  428570:	01c0 0700 01c0 0700 ffc0 07fe ffc0 07fe     ................
  428580:	ff80 03ff c000 0007 8000 0003 c000 0000     ................
  428590:	e000 0000 f000 0000 7000 0000 7000 0000     .........p...p..
  4285a0:	f000 0000 e000 0000 e000 0000 f000 0000     ................
  4285b0:	7000 0000 414b 424e 4e41 0000 7553 7070     .p..KANBAN..Supp
  4285c0:	696c 7265 0000 0000 694d 7263 636f 6968     lier....Microchi
  4285d0:	0070 0000 7453 726f 6761 2065 7241 6165     p...Storage Area
  4285e0:	0000 0000 6543 746e 6172 206c 0033 0000     ....Central 3...
  4285f0:	6f4c 6163 6974 6e6f 0000 0000 3441 312d     Location....A4-1
  428600:	2d31 4147 0000 0000 6f43 746e 6961 656e     1-GA....Containe
  428610:	0072 0000 3930 3930 5243 0044 6150 6b63     r...0909CRD.Pack
  428620:	6761 0065 3533 3030 5254 3038 0030 0000     age.3500TR800...
  428630:	6150 6b63 6761 7365 432f 6e6f 6174 6e69     Packages/Contain
  428640:	7265 0000 3035 0000 7449 6d65 2f73 6150     er..50..Items/Pa
  428650:	6b63 6761 0065 0000 3533 3030 0000 0000     ckage...3500....
  428660:	6148 646e 696c 676e 4320 646f 0065 0000     Handling Code...
  428670:	5341 0000 504d 004e 5441 4153 474d 3535     AS..MPN.ATSAMG55
  428680:	314a 4239 4d2d 5455 0000 0000 7453 636f     J19B-MUT....Stoc
  428690:	206b 654c 6576 736c 0000 0000 614c 7473     k Levels....Last
  4286a0:	7520 6470 7461 6465 203a 3830 343a 2035      updated: 08:45 
  4286b0:	3731 312f 2f30 3032 3831 0000 6f43 746e     17/10/2018..Cont
  4286c0:	6961 656e 7372 2020 6150 6b63 6761 7365     ainers  Packages
  4286d0:	2020 7449 6d65 0073 2020 2020 2020 2037       Items.      7 
  4286e0:	2020 2020 2020 2020 2020 2032 2020 2020               2     
  4286f0:	2020 3234 0000 0000 6f54 6174 206c 6950       42....Total Pi
  428700:	6365 7365 0000 0000 2c31 3332 2c32 3430     eces....1,232,04
  428710:	0032 0000 6552 6f2d 6472 7265 6120 2074     2...Re-order at 
  428720:	6928 6574 736d 3a29 0000 0000 3533 302c     (items):....35,0
  428730:	3030 0000 7543 7272 6e65 2074 654c 6461     00..Current Lead
  428740:	5420 6d69 3a65 0000 2038 6577 6b65 0073      Time:..8 weeks.
  428750:	654c 7463 7275 2065 6148 6c6c 3120 0000     Lecture Hall 1..
  428760:	7554 2065 7438 2068 614d 2079 3032 3831     Tue 8th May 2018
  428770:	0020 0000 3a39 3735 6120 206d 0000 0000      ...9:57 am ....
  428780:	7543 7272 6e65 6c74 2079 7641 6961 616c     Currently Availa
  428790:	6c62 0065 654e 7478 7320 7365 6973 6e6f     ble.Next session
  4287a0:	2d20 5320 6174 7472 6e69 2067 6e69 3320      - Starting in 3
  4287b0:	6d20 6e69 0073 0000 3031 303a 2030 6d61      mins...10:00 am
  4287c0:	0000 0000 202d 3031 353a 2035 6d61 0000     ....- 10:55 am..
  4287d0:	6e49 7274 646f 6375 6974 6e6f 7420 206f     Introduction to 
  4287e0:	504d 7355 0000 0000 6f4a 6e68 5420 7961     MPUs....John Tay
  4287f0:	6f6c 0072 6c50 6165 6573 6e20 746f 3a65     lor.Please note:
  428800:	4620 7269 2065 6c41 7261 736d 7720 6c69      Fire Alarms wil
  428810:	206c 6562 7420 7365 6574 2064 6f74 6164     l be tested toda
  428820:	2079 7461 3220 6d70 0000 0000 5845 0050     y at 2pm....EXP.
  428830:	7246 6d6f 003a 0000 2045 6e49 206b 6f48     From:...E Ink Ho
  428840:	646c 6e69 7367 4920 636e 002e 6f4e 202e     ldings Inc..No. 
  428850:	3931 2c39 4820 6177 6179 5220 616f 2064     199, Hwaya Road 
  428860:	0032 0000 754b 6965 6873 6e61 0000 0000     2...Kueishan....
  428870:	6154 796f 6175 206e 3333 3833 0033 0000     Taoyuan 33383...
  428880:	6154 7769 6e61 0000 724f 6769 6e69 003a     Taiwan..Origin:.
  428890:	4154 0049 6f43 746e 6361 3a74 3220 3030     TAI.Contact: 200
  4288a0:	3235 3030 3631 0033 5845 5250 5345 0053     5200163.EXPRESS.
  4288b0:	6f54 003a 4e49 4c45 4554 204b 544c 2e44     To:.INELTEK LTD.
  4288c0:	0000 0000 4232 5320 7461 7275 206e 6f48     ....2B Saturn Ho
  4288d0:	7375 2c65 4320 6c61 656c 6176 5020 7261     use, Calleva Par
  4288e0:	006b 0000 6c41 6564 6d72 7361 6f74 206e     k...Aldermaston 
  4288f0:	4752 2037 4838 0041 4e55 5449 4445 4b20     RG7 8HA.UNITED K
  428900:	4e49 4447 4d4f 2820 4b55 0029 6950 6365     INGDOM (UK).Piec
  428910:	3a65 0000 2f31 0031 6350 2f65 6853 7470     e:..1/1.Pce/Shpt
  428920:	5720 6965 6867 3a74 0000 0000 2e31 2032      Weight:....1.2 
  428930:	676b 0000 6552 3a66 3420 3438 0000 0000     kg..Ref: 484....
  428940:	4a28 2029 444a 3130 3420 3036 2030 3030     (J) JD01 4600 00
  428950:	3432 3320 3733 2033 3735 3331 0000 0000     24 3373 5713....

00428960 <__sf_fake_stderr>:
	...

00428980 <__sf_fake_stdin>:
	...

004289a0 <__sf_fake_stdout>:
	...

004289c0 <_init>:
  4289c0:	b5f8      	push	{r3, r4, r5, r6, r7, lr}
  4289c2:	bf00      	nop
  4289c4:	bcf8      	pop	{r3, r4, r5, r6, r7}
  4289c6:	bc08      	pop	{r3}
  4289c8:	469e      	mov	lr, r3
  4289ca:	4770      	bx	lr

004289cc <__init_array_start>:
  4289cc:	0040012d 	.word	0x0040012d

004289d0 <_fini>:
  4289d0:	b5f8      	push	{r3, r4, r5, r6, r7, lr}
  4289d2:	bf00      	nop
  4289d4:	bcf8      	pop	{r3, r4, r5, r6, r7}
  4289d6:	bc08      	pop	{r3}
  4289d8:	469e      	mov	lr, r3
  4289da:	4770      	bx	lr

004289dc <__fini_array_start>:
  4289dc:	00400109 	.word	0x00400109
