
samg55_ed037tc1__4_1_6.elf:     file format elf32-littlearm

Sections:
Idx Name          Size      VMA       LMA       File off  Algn
  0 .text         00029e60  00400000  00400000  00010000  2**2
                  CONTENTS, ALLOC, LOAD, READONLY, CODE
  1 .relocate     00000468  20000000  00429e60  00040000  2**2
                  CONTENTS, ALLOC, LOAD, DATA
  2 .bss          000000e4  20000468  0042a2c8  00040468  2**2
                  ALLOC
  3 .heap         00000204  2000054c  0042a3ac  00040468  2**0
                  ALLOC
  4 .stack        00000400  20000750  0042a5b0  00040468  2**0
                  ALLOC
  5 .ARM.attributes 0000002e  00000000  00000000  00040468  2**0
                  CONTENTS, READONLY
  6 .comment      00000059  00000000  00000000  00040496  2**0
                  CONTENTS, READONLY
  7 .debug_info   00013bb7  00000000  00000000  000404ef  2**0
                  CONTENTS, READONLY, DEBUGGING
  8 .debug_abbrev 00001694  00000000  00000000  000540a6  2**0
                  CONTENTS, READONLY, DEBUGGING
  9 .debug_loc    0000b3fc  00000000  00000000  0005573a  2**0
                  CONTENTS, READONLY, DEBUGGING
 10 .debug_aranges 000005b8  00000000  00000000  00060b36  2**0
                  CONTENTS, READONLY, DEBUGGING
 11 .debug_ranges 00000680  00000000  00000000  000610ee  2**0
                  CONTENTS, READONLY, DEBUGGING
 12 .debug_macro  0000497d  00000000  00000000  0006176e  2**0
                  CONTENTS, READONLY, DEBUGGING
 13 .debug_line   0000910c  00000000  00000000  000660eb  2**0
                  CONTENTS, READONLY, DEBUGGING
 14 .debug_str    000a0fb2  00000000  00000000  0006f1f7  2**0
                  CONTENTS, READONLY, DEBUGGING
 15 .debug_frame  00001468  00000000  00000000  001101ac  2**2
                  CONTENTS, READONLY, DEBUGGING

Disassembly of section .text:

00400000 <exception_table>:
  400000:	50 0b 00 20 79 01 40 00 75 01 40 00 75 01 40 00     P.. y.@.u.@.u.@.
  400010:	75 01 40 00 75 01 40 00 75 01 40 00 00 00 00 00     u.@.u.@.u.@.....
	...
  40002c:	75 01 40 00 75 01 40 00 00 00 00 00 75 01 40 00     u.@.u.@.....u.@.
  40003c:	75 01 40 00 75 01 40 00 75 01 40 00 75 01 40 00     u.@.u.@.u.@.u.@.
  40004c:	75 01 40 00 75 01 40 00 75 01 40 00 75 01 40 00     u.@.u.@.u.@.u.@.
  40005c:	75 01 40 00 75 01 40 00 75 01 40 00 00 00 00 00     u.@.u.@.u.@.....
  40006c:	75 01 40 00 75 01 40 00 75 01 40 00 75 01 40 00     u.@.u.@.u.@.u.@.
  40007c:	75 01 40 00 75 01 40 00 75 01 40 00 75 01 40 00     u.@.u.@.u.@.u.@.
  40008c:	75 01 40 00 75 01 40 00 75 01 40 00 75 01 40 00     u.@.u.@.u.@.u.@.
  40009c:	75 01 40 00 75 01 40 00 75 01 40 00 75 01 40 00     u.@.u.@.u.@.u.@.
  4000ac:	75 01 40 00 75 01 40 00 75 01 40 00 00 00 00 00     u.@.u.@.u.@.....
	...
  4000fc:	75 01 40 00 75 01 40 00 75 01 40 00                 u.@.u.@.u.@.

00400108 <__do_global_dtors_aux>:
  400108:	b510      	push	{r4, lr}
  40010a:	4c05      	ldr	r4, [pc, #20]	; (400120 <__do_global_dtors_aux+0x18>)
  40010c:	7823      	ldrb	r3, [r4, #0]
  40010e:	b933      	cbnz	r3, 40011e <__do_global_dtors_aux+0x16>
  400110:	4b04      	ldr	r3, [pc, #16]	; (400124 <__do_global_dtors_aux+0x1c>)
  400112:	b113      	cbz	r3, 40011a <__do_global_dtors_aux+0x12>
  400114:	4804      	ldr	r0, [pc, #16]	; (400128 <__do_global_dtors_aux+0x20>)
  400116:	f3af 8000 	nop.w
  40011a:	2301      	movs	r3, #1
  40011c:	7023      	strb	r3, [r4, #0]
  40011e:	bd10      	pop	{r4, pc}
  400120:	20000468 	.word	0x20000468
  400124:	00000000 	.word	0x00000000
  400128:	00429e60 	.word	0x00429e60

0040012c <frame_dummy>:
  40012c:	4b0c      	ldr	r3, [pc, #48]	; (400160 <frame_dummy+0x34>)
  40012e:	b143      	cbz	r3, 400142 <frame_dummy+0x16>
  400130:	480c      	ldr	r0, [pc, #48]	; (400164 <frame_dummy+0x38>)
  400132:	490d      	ldr	r1, [pc, #52]	; (400168 <frame_dummy+0x3c>)
  400134:	b510      	push	{r4, lr}
  400136:	f3af 8000 	nop.w
  40013a:	480c      	ldr	r0, [pc, #48]	; (40016c <frame_dummy+0x40>)
  40013c:	6803      	ldr	r3, [r0, #0]
  40013e:	b923      	cbnz	r3, 40014a <frame_dummy+0x1e>
  400140:	bd10      	pop	{r4, pc}
  400142:	480a      	ldr	r0, [pc, #40]	; (40016c <frame_dummy+0x40>)
  400144:	6803      	ldr	r3, [r0, #0]
  400146:	b933      	cbnz	r3, 400156 <frame_dummy+0x2a>
  400148:	4770      	bx	lr
  40014a:	4b09      	ldr	r3, [pc, #36]	; (400170 <frame_dummy+0x44>)
  40014c:	2b00      	cmp	r3, #0
  40014e:	d0f7      	beq.n	400140 <frame_dummy+0x14>
  400150:	e8bd 4010 	ldmia.w	sp!, {r4, lr}
  400154:	4718      	bx	r3
  400156:	4b06      	ldr	r3, [pc, #24]	; (400170 <frame_dummy+0x44>)
  400158:	2b00      	cmp	r3, #0
  40015a:	d0f5      	beq.n	400148 <frame_dummy+0x1c>
  40015c:	4718      	bx	r3
  40015e:	bf00      	nop
  400160:	00000000 	.word	0x00000000
  400164:	00429e60 	.word	0x00429e60
  400168:	2000046c 	.word	0x2000046c
  40016c:	00429e60 	.word	0x00429e60
  400170:	00000000 	.word	0x00000000

00400174 <Dummy_Handler>:

/**
 * \brief Default interrupt handler for unused IRQs.
 */
void Dummy_Handler(void)
{
  400174:	e7fe      	b.n	400174 <Dummy_Handler>
	...

00400178 <Reset_Handler>:
{
  400178:	b508      	push	{r3, lr}
        if (pSrc != pDest) {
  40017a:	4b17      	ldr	r3, [pc, #92]	; (4001d8 <Reset_Handler+0x60>)
  40017c:	4a17      	ldr	r2, [pc, #92]	; (4001dc <Reset_Handler+0x64>)
  40017e:	429a      	cmp	r2, r3
  400180:	d010      	beq.n	4001a4 <Reset_Handler+0x2c>
                for (; pDest < &_erelocate;) {
  400182:	4b17      	ldr	r3, [pc, #92]	; (4001e0 <Reset_Handler+0x68>)
  400184:	4a14      	ldr	r2, [pc, #80]	; (4001d8 <Reset_Handler+0x60>)
  400186:	429a      	cmp	r2, r3
  400188:	d20c      	bcs.n	4001a4 <Reset_Handler+0x2c>
  40018a:	3b01      	subs	r3, #1
  40018c:	1a9b      	subs	r3, r3, r2
  40018e:	f023 0303 	bic.w	r3, r3, #3
  400192:	3304      	adds	r3, #4
  400194:	4413      	add	r3, r2
  400196:	4911      	ldr	r1, [pc, #68]	; (4001dc <Reset_Handler+0x64>)
                        *pDest++ = *pSrc++;
  400198:	f851 0b04 	ldr.w	r0, [r1], #4
  40019c:	f842 0b04 	str.w	r0, [r2], #4
                for (; pDest < &_erelocate;) {
  4001a0:	429a      	cmp	r2, r3
  4001a2:	d1f9      	bne.n	400198 <Reset_Handler+0x20>
        for (pDest = &_szero; pDest < &_ezero;) {
  4001a4:	4b0f      	ldr	r3, [pc, #60]	; (4001e4 <Reset_Handler+0x6c>)
  4001a6:	4a10      	ldr	r2, [pc, #64]	; (4001e8 <Reset_Handler+0x70>)
  4001a8:	429a      	cmp	r2, r3
  4001aa:	d20a      	bcs.n	4001c2 <Reset_Handler+0x4a>
  4001ac:	3b01      	subs	r3, #1
  4001ae:	1a9b      	subs	r3, r3, r2
  4001b0:	f023 0303 	bic.w	r3, r3, #3
  4001b4:	3304      	adds	r3, #4
  4001b6:	4413      	add	r3, r2
                *pDest++ = 0;
  4001b8:	2100      	movs	r1, #0
  4001ba:	f842 1b04 	str.w	r1, [r2], #4
        for (pDest = &_szero; pDest < &_ezero;) {
  4001be:	4293      	cmp	r3, r2
  4001c0:	d1fb      	bne.n	4001ba <Reset_Handler+0x42>
        SCB->VTOR = ((uint32_t) pSrc & SCB_VTOR_TBLOFF_Msk);
  4001c2:	4a0a      	ldr	r2, [pc, #40]	; (4001ec <Reset_Handler+0x74>)
  4001c4:	4b0a      	ldr	r3, [pc, #40]	; (4001f0 <Reset_Handler+0x78>)
  4001c6:	f023 037f 	bic.w	r3, r3, #127	; 0x7f
  4001ca:	6093      	str	r3, [r2, #8]
        __libc_init_array();
  4001cc:	4b09      	ldr	r3, [pc, #36]	; (4001f4 <Reset_Handler+0x7c>)
  4001ce:	4798      	blx	r3
        main();
  4001d0:	4b09      	ldr	r3, [pc, #36]	; (4001f8 <Reset_Handler+0x80>)
  4001d2:	4798      	blx	r3
  4001d4:	e7fe      	b.n	4001d4 <Reset_Handler+0x5c>
  4001d6:	bf00      	nop
  4001d8:	20000000 	.word	0x20000000
  4001dc:	00429e60 	.word	0x00429e60
  4001e0:	20000468 	.word	0x20000468
  4001e4:	2000054c 	.word	0x2000054c
  4001e8:	20000468 	.word	0x20000468
  4001ec:	e000ed00 	.word	0xe000ed00
  4001f0:	00400000 	.word	0x00400000
  4001f4:	00402f35 	.word	0x00402f35
  4001f8:	00402ec9 	.word	0x00402ec9

004001fc <delay_driver_init>:
#include <hpl_pmc.h>
#include <peripheral_clk_config.h>
#include <utils.h>

void delay_driver_init(void)
{
  4001fc:	b508      	push	{r3, lr}
	delay_init(SysTick);
  4001fe:	4802      	ldr	r0, [pc, #8]	; (400208 <delay_driver_init+0xc>)
  400200:	4b02      	ldr	r3, [pc, #8]	; (40020c <delay_driver_init+0x10>)
  400202:	4798      	blx	r3
  400204:	bd08      	pop	{r3, pc}
  400206:	bf00      	nop
  400208:	e000e010 	.word	0xe000e010
  40020c:	004002f9 	.word	0x004002f9

00400210 <system_init>:
}

void system_init(void)
{
  400210:	b508      	push	{r3, lr}
 * Currently the following initialization functions are supported:
 *  - System clock initialization
 */
static inline void init_mcu(void)
{
	_init_chip();
  400212:	4b2d      	ldr	r3, [pc, #180]	; (4002c8 <system_init+0xb8>)
  400214:	4798      	blx	r3
}

static inline hri_pmc_pcsr0_reg_t hri_pmc_get_PCSR0_reg(const void *const hw, hri_pmc_pcsr0_reg_t mask)
{
	uint32_t tmp;
	tmp = ((Pmc *)hw)->PMC_PCSR0;
  400216:	4b2d      	ldr	r3, [pc, #180]	; (4002cc <system_init+0xbc>)
  400218:	699b      	ldr	r3, [r3, #24]
 *
 */
static inline void _pmc_enable_periph_clock(uint32_t periph_id)
{
	if (periph_id < 32) {
		if (!hri_pmc_get_PCSR0_reg(PMC, (1 << periph_id))) {
  40021a:	f413 6f00 	tst.w	r3, #2048	; 0x800
  40021e:	d103      	bne.n	400228 <system_init+0x18>
	((Pmc *)hw)->PMC_PCER0 = mask;
  400220:	f44f 6200 	mov.w	r2, #2048	; 0x800
  400224:	4b29      	ldr	r3, [pc, #164]	; (4002cc <system_init+0xbc>)
  400226:	611a      	str	r2, [r3, #16]
}

static inline void hri_wdt_set_MR_WDDIS_bit(const void *const hw)
{
	WDT_CRITICAL_SECTION_ENTER();
	((Wdt *)hw)->WDT_MR |= WDT_MR_WDDIS;
  400228:	4a29      	ldr	r2, [pc, #164]	; (4002d0 <system_init+0xc0>)
  40022a:	6853      	ldr	r3, [r2, #4]
  40022c:	f443 4300 	orr.w	r3, r3, #32768	; 0x8000
  400230:	6053      	str	r3, [r2, #4]
	((Pio *)hw)->PIO_ODR = ~data;
}

static inline void hri_pio_clear_OSR_reg(const void *const hw, hri_pio_osr_reg_t mask)
{
	((Pio *)hw)->PIO_ODR = mask;
  400232:	4b28      	ldr	r3, [pc, #160]	; (4002d4 <system_init+0xc4>)
  400234:	2201      	movs	r2, #1
  400236:	615a      	str	r2, [r3, #20]
	((Pio *)hw)->PIO_PPDDR = ~data;
}

static inline void hri_pio_clear_PPDSR_reg(const void *const hw, hri_pio_ppdsr_reg_t mask)
{
	((Pio *)hw)->PIO_PPDDR = mask;
  400238:	f8c3 2090 	str.w	r2, [r3, #144]	; 0x90
	((Pio *)hw)->PIO_PUER = mask;
  40023c:	665a      	str	r2, [r3, #100]	; 0x64
	((Pio *)hw)->PIO_PER = mask;
  40023e:	601a      	str	r2, [r3, #0]
	((Pio *)hw)->PIO_ODR = mask;
  400240:	f44f 7200 	mov.w	r2, #512	; 0x200
  400244:	615a      	str	r2, [r3, #20]
	((Pio *)hw)->PIO_PPDDR = mask;
  400246:	f8c3 2090 	str.w	r2, [r3, #144]	; 0x90
	((Pio *)hw)->PIO_PUER = mask;
  40024a:	665a      	str	r2, [r3, #100]	; 0x64
	((Pio *)hw)->PIO_PER = mask;
  40024c:	601a      	str	r2, [r3, #0]
	((Pio *)hw)->PIO_SODR = mask;
  40024e:	f44f 6280 	mov.w	r2, #1024	; 0x400
  400252:	631a      	str	r2, [r3, #48]	; 0x30
	((Pio *)hw)->PIO_OER = mask;
  400254:	611a      	str	r2, [r3, #16]
	((Pio *)hw)->PIO_PER = mask;
  400256:	601a      	str	r2, [r3, #0]
	((Pio *)hw)->PIO_CODR = mask;
  400258:	f44f 6200 	mov.w	r2, #2048	; 0x800
  40025c:	635a      	str	r2, [r3, #52]	; 0x34
	((Pio *)hw)->PIO_OER = mask;
  40025e:	611a      	str	r2, [r3, #16]
	((Pio *)hw)->PIO_PER = mask;
  400260:	601a      	str	r2, [r3, #0]
	((Pio *)hw)->PIO_CODR = mask;
  400262:	f44f 5280 	mov.w	r2, #4096	; 0x1000
  400266:	635a      	str	r2, [r3, #52]	; 0x34
	((Pio *)hw)->PIO_OER = mask;
  400268:	611a      	str	r2, [r3, #16]
	((Pio *)hw)->PIO_PER = mask;
  40026a:	601a      	str	r2, [r3, #0]
	((Pio *)hw)->PIO_CODR = mask;
  40026c:	f44f 5200 	mov.w	r2, #8192	; 0x2000
  400270:	635a      	str	r2, [r3, #52]	; 0x34
	((Pio *)hw)->PIO_OER = mask;
  400272:	611a      	str	r2, [r3, #16]
	((Pio *)hw)->PIO_PER = mask;
  400274:	601a      	str	r2, [r3, #0]
	((Pio *)hw)->PIO_CODR = mask;
  400276:	f44f 4280 	mov.w	r2, #16384	; 0x4000
  40027a:	635a      	str	r2, [r3, #52]	; 0x34
	((Pio *)hw)->PIO_OER = mask;
  40027c:	611a      	str	r2, [r3, #16]
	((Pio *)hw)->PIO_PER = mask;
  40027e:	601a      	str	r2, [r3, #0]
	((Pio *)hw)->PIO_CODR = mask;
  400280:	f44f 3200 	mov.w	r2, #131072	; 0x20000
  400284:	635a      	str	r2, [r3, #52]	; 0x34
	((Pio *)hw)->PIO_OER = mask;
  400286:	611a      	str	r2, [r3, #16]
	((Pio *)hw)->PIO_PER = mask;
  400288:	601a      	str	r2, [r3, #0]
	((Pio *)hw)->PIO_CODR = mask;
  40028a:	f44f 0200 	mov.w	r2, #8388608	; 0x800000
  40028e:	635a      	str	r2, [r3, #52]	; 0x34
	((Pio *)hw)->PIO_OER = mask;
  400290:	611a      	str	r2, [r3, #16]
	((Pio *)hw)->PIO_PER = mask;
  400292:	601a      	str	r2, [r3, #0]
	((Pio *)hw)->PIO_ODR = mask;
  400294:	f04f 7280 	mov.w	r2, #16777216	; 0x1000000
  400298:	615a      	str	r2, [r3, #20]
	((Pio *)hw)->PIO_PPDDR = mask;
  40029a:	f8c3 2090 	str.w	r2, [r3, #144]	; 0x90
	((Pio *)hw)->PIO_PUER = mask;
  40029e:	665a      	str	r2, [r3, #100]	; 0x64
	((Pio *)hw)->PIO_PER = mask;
  4002a0:	601a      	str	r2, [r3, #0]
	((Pio *)hw)->PIO_CODR = mask;
  4002a2:	f04f 7200 	mov.w	r2, #33554432	; 0x2000000
  4002a6:	635a      	str	r2, [r3, #52]	; 0x34
	((Pio *)hw)->PIO_OER = mask;
  4002a8:	611a      	str	r2, [r3, #16]
	((Pio *)hw)->PIO_PER = mask;
  4002aa:	601a      	str	r2, [r3, #0]
	((Pio *)hw)->PIO_CODR = mask;
  4002ac:	f04f 6280 	mov.w	r2, #67108864	; 0x4000000
  4002b0:	635a      	str	r2, [r3, #52]	; 0x34
	((Pio *)hw)->PIO_OER = mask;
  4002b2:	611a      	str	r2, [r3, #16]
	((Pio *)hw)->PIO_PER = mask;
  4002b4:	601a      	str	r2, [r3, #0]
	((Pio *)hw)->PIO_SODR = mask;
  4002b6:	f04f 5200 	mov.w	r2, #536870912	; 0x20000000
  4002ba:	631a      	str	r2, [r3, #48]	; 0x30
	((Pio *)hw)->PIO_OER = mask;
  4002bc:	611a      	str	r2, [r3, #16]
	((Pio *)hw)->PIO_PER = mask;
  4002be:	601a      	str	r2, [r3, #0]
	// Set pin direction to output
	gpio_set_pin_direction(EINK_X_LED_1_PIN, GPIO_DIRECTION_OUT);

	gpio_set_pin_function(EINK_X_LED_1_PIN, GPIO_PIN_FUNCTION_OFF);

	delay_driver_init();
  4002c0:	4b05      	ldr	r3, [pc, #20]	; (4002d8 <system_init+0xc8>)
  4002c2:	4798      	blx	r3
  4002c4:	bd08      	pop	{r3, pc}
  4002c6:	bf00      	nop
  4002c8:	0040035d 	.word	0x0040035d
  4002cc:	400e0400 	.word	0x400e0400
  4002d0:	400e1450 	.word	0x400e1450
  4002d4:	400e0e00 	.word	0x400e0e00
  4002d8:	004001fd 	.word	0x004001fd

004002dc <atomic_enter_critical>:
 */
__attribute__((always_inline)) __STATIC_INLINE uint32_t __get_PRIMASK(void)
{
  uint32_t result;

  __ASM volatile ("MRS %0, primask" : "=r" (result) );
  4002dc:	f3ef 8310 	mrs	r3, PRIMASK
/**
 * \brief Disable interrupts, enter critical section
 */
void atomic_enter_critical(hal_atomic_t volatile *atomic)
{
	*atomic = __get_PRIMASK();
  4002e0:	6003      	str	r3, [r0, #0]
  __ASM volatile ("cpsid i" : : : "memory");
  4002e2:	b672      	cpsid	i
  \details Ensures the apparent order of the explicit memory operations before
           and after the instruction, without ensuring their completion.
 */
__attribute__((always_inline)) __STATIC_INLINE void __DMB(void)
{
  __ASM volatile ("dmb 0xF":::"memory");
  4002e4:	f3bf 8f5f 	dmb	sy
  4002e8:	4770      	bx	lr

004002ea <atomic_leave_critical>:
  4002ea:	f3bf 8f5f 	dmb	sy
 * \brief Exit atomic section
 */
void atomic_leave_critical(hal_atomic_t volatile *atomic)
{
	__DMB();
	__set_PRIMASK(*atomic);
  4002ee:	6803      	ldr	r3, [r0, #0]
  __ASM volatile ("MSR primask, %0" : : "r" (priMask) : "memory");
  4002f0:	f383 8810 	msr	PRIMASK, r3
  4002f4:	4770      	bx	lr
	...

004002f8 <delay_init>:

/**
 * \brief Initialize Delay driver
 */
void delay_init(void *const hw)
{
  4002f8:	b508      	push	{r3, lr}
	_delay_init(hardware = hw);
  4002fa:	4b02      	ldr	r3, [pc, #8]	; (400304 <delay_init+0xc>)
  4002fc:	6018      	str	r0, [r3, #0]
  4002fe:	4b02      	ldr	r3, [pc, #8]	; (400308 <delay_init+0x10>)
  400300:	4798      	blx	r3
  400302:	bd08      	pop	{r3, pc}
  400304:	20000484 	.word	0x20000484
  400308:	00400421 	.word	0x00400421

0040030c <delay_ms>:

/**
 * \brief Perform delay in ms
 */
void delay_ms(const uint16_t ms)
{
  40030c:	b510      	push	{r4, lr}
	_delay_cycles(hardware, _get_cycles_for_ms(ms));
  40030e:	4b04      	ldr	r3, [pc, #16]	; (400320 <delay_ms+0x14>)
  400310:	681c      	ldr	r4, [r3, #0]
  400312:	4b04      	ldr	r3, [pc, #16]	; (400324 <delay_ms+0x18>)
  400314:	4798      	blx	r3
  400316:	4601      	mov	r1, r0
  400318:	4620      	mov	r0, r4
  40031a:	4b03      	ldr	r3, [pc, #12]	; (400328 <delay_ms+0x1c>)
  40031c:	4798      	blx	r3
  40031e:	bd10      	pop	{r4, pc}
  400320:	20000484 	.word	0x20000484
  400324:	00400351 	.word	0x00400351
  400328:	00400435 	.word	0x00400435

0040032c <_sbrk>:

/**
 * \brief Replacement of C library of _sbrk
 */
extern caddr_t _sbrk(int incr)
{
  40032c:	4603      	mov	r3, r0
	static unsigned char *heap = NULL;
	unsigned char *       prev_heap;

	if (heap == NULL) {
  40032e:	4a06      	ldr	r2, [pc, #24]	; (400348 <_sbrk+0x1c>)
  400330:	6812      	ldr	r2, [r2, #0]
  400332:	b122      	cbz	r2, 40033e <_sbrk+0x12>
		heap = (unsigned char *)&_end;
	}
	prev_heap = heap;
  400334:	4a04      	ldr	r2, [pc, #16]	; (400348 <_sbrk+0x1c>)
  400336:	6810      	ldr	r0, [r2, #0]

	heap += incr;
  400338:	4403      	add	r3, r0
  40033a:	6013      	str	r3, [r2, #0]

	return (caddr_t)prev_heap;
}
  40033c:	4770      	bx	lr
		heap = (unsigned char *)&_end;
  40033e:	4903      	ldr	r1, [pc, #12]	; (40034c <_sbrk+0x20>)
  400340:	4a01      	ldr	r2, [pc, #4]	; (400348 <_sbrk+0x1c>)
  400342:	6011      	str	r1, [r2, #0]
  400344:	e7f6      	b.n	400334 <_sbrk+0x8>
  400346:	bf00      	nop
  400348:	20000488 	.word	0x20000488
  40034c:	20000b50 	.word	0x20000b50

00400350 <_get_cycles_for_ms>:
 * \brief Retrieve the amount of cycles to delay for the given amount of ms
 */
uint32_t _get_cycles_for_ms(const uint16_t ms)
{
	return _get_cycles_for_ms_internal(ms, CONF_CPU_FREQUENCY, CPU_FREQ_POWER);
}
  400350:	f645 53c0 	movw	r3, #24000	; 0x5dc0
  400354:	fb03 f000 	mul.w	r0, r3, r0
  400358:	4770      	bx	lr
	...

0040035c <_init_chip>:

/**
 * \brief Initialize the hardware abstraction layer
 */
void _init_chip(void)
{
  40035c:	b500      	push	{lr}
  40035e:	b083      	sub	sp, #12
/**
 * \brief Enable FPU
 */
static inline void _fpu_enable(void)
{
	CRITICAL_SECTION_ENTER()
  400360:	a801      	add	r0, sp, #4
  400362:	4b0d      	ldr	r3, [pc, #52]	; (400398 <_init_chip+0x3c>)
  400364:	4798      	blx	r3
	/** Set bits 20-23 to enable CP10 and CP11 coprocessors */
	SCB->CPACR |= (0xFu << 20);
  400366:	4a0d      	ldr	r2, [pc, #52]	; (40039c <_init_chip+0x40>)
  400368:	f8d2 3088 	ldr.w	r3, [r2, #136]	; 0x88
  40036c:	f443 0370 	orr.w	r3, r3, #15728640	; 0xf00000
  400370:	f8c2 3088 	str.w	r3, [r2, #136]	; 0x88
  __ASM volatile ("dsb 0xF":::"memory");
  400374:	f3bf 8f4f 	dsb	sy
  __ASM volatile ("isb 0xF":::"memory");
  400378:	f3bf 8f6f 	isb	sy
	__DSB();
	__ISB();
	CRITICAL_SECTION_LEAVE()
  40037c:	a801      	add	r0, sp, #4
  40037e:	4b08      	ldr	r3, [pc, #32]	; (4003a0 <_init_chip+0x44>)
  400380:	4798      	blx	r3

static inline void hri_efc_write_EEFC_FMR_FWS_bf(const void *const hw, hri_efc_eefc_fmr_reg_t data)
{
	uint32_t tmp;
	EFC_CRITICAL_SECTION_ENTER();
	tmp = ((Efc *)hw)->EEFC_FMR;
  400382:	4a08      	ldr	r2, [pc, #32]	; (4003a4 <_init_chip+0x48>)
  400384:	6813      	ldr	r3, [r2, #0]
	tmp &= ~EEFC_FMR_FWS_Msk;
  400386:	f423 6370 	bic.w	r3, r3, #3840	; 0xf00
	tmp |= EEFC_FMR_FWS(data);
	((Efc *)hw)->EEFC_FMR = tmp;
  40038a:	6013      	str	r3, [r2, #0]
#if CONF_MEM2MEM_ENABLE
	_pmc_enable_periph_clock(ID_MEM2MEM);
	_dma_init();

#endif
	_pmc_init();
  40038c:	4b06      	ldr	r3, [pc, #24]	; (4003a8 <_init_chip+0x4c>)
  40038e:	4798      	blx	r3
}
  400390:	b003      	add	sp, #12
  400392:	f85d fb04 	ldr.w	pc, [sp], #4
  400396:	bf00      	nop
  400398:	004002dd 	.word	0x004002dd
  40039c:	e000ed00 	.word	0xe000ed00
  4003a0:	004002eb 	.word	0x004002eb
  4003a4:	400e0a00 	.word	0x400e0a00
  4003a8:	004003ad 	.word	0x004003ad

004003ac <_pmc_init>:
}

static inline void hri_pmc_set_CKGR_MOR_reg(const void *const hw, hri_pmc_ckgr_mor_reg_t mask)
{
	PMC_CRITICAL_SECTION_ENTER();
	((Pmc *)hw)->CKGR_MOR |= mask;
  4003ac:	4a1b      	ldr	r2, [pc, #108]	; (40041c <_pmc_init+0x70>)
  4003ae:	6a13      	ldr	r3, [r2, #32]
  4003b0:	f443 135c 	orr.w	r3, r3, #3604480	; 0x370000
  4003b4:	f043 0308 	orr.w	r3, r3, #8
  4003b8:	6213      	str	r3, [r2, #32]
	return (((Pmc *)hw)->PMC_SR & PMC_SR_MOSCSELS) > 0;
}

static inline bool hri_pmc_get_SR_MOSCRCS_bit(const void *const hw)
{
	return (((Pmc *)hw)->PMC_SR & PMC_SR_MOSCRCS) > 0;
  4003ba:	6e93      	ldr	r3, [r2, #104]	; 0x68
#if (CONF_PMC_MAINCK_ENABLE == 1)
	uint32_t data = 0;
#if (CONF_PMC_OSC24M_ENABLE && (CONF_PMC_MAINCK_SRC == 0))
	/* Enable Fast RC oscillator but DO NOT switch to RC now */
	hri_pmc_set_CKGR_MOR_reg(PMC, (CKGR_MOR_KEY_PASSWD | CKGR_MOR_MOSCRCEN));
	while (!hri_pmc_get_SR_MOSCRCS_bit(PMC)) {
  4003bc:	f413 3f00 	tst.w	r3, #131072	; 0x20000
  4003c0:	d0fb      	beq.n	4003ba <_pmc_init+0xe>
	return ((Pmc *)hw)->CKGR_MOR;
  4003c2:	4a16      	ldr	r2, [pc, #88]	; (40041c <_pmc_init+0x70>)
  4003c4:	6a13      	ldr	r3, [r2, #32]
		/* Wait until the Fast RC to stabilize */
	}
	/* Change Fast RC oscillator frequency */
	data = hri_pmc_read_CKGR_MOR_reg(PMC) & ~CKGR_MOR_MOSCRCF_Msk;
  4003c6:	f023 0370 	bic.w	r3, r3, #112	; 0x70
	data |= CKGR_MOR_KEY_PASSWD | CKGR_MOR_MOSCRCF(CONF_PMC_OSC24M_SELECTOR);
  4003ca:	f443 135c 	orr.w	r3, r3, #3604480	; 0x370000
  4003ce:	f043 0320 	orr.w	r3, r3, #32
	((Pmc *)hw)->CKGR_MOR = data;
  4003d2:	6213      	str	r3, [r2, #32]
	return (((Pmc *)hw)->PMC_SR & PMC_SR_MOSCRCS) > 0;
  4003d4:	6e93      	ldr	r3, [r2, #104]	; 0x68
	hri_pmc_write_CKGR_MOR_reg(PMC, data);
	while (!hri_pmc_get_SR_MOSCRCS_bit(PMC)) {
  4003d6:	f413 3f00 	tst.w	r3, #131072	; 0x20000
  4003da:	d0fb      	beq.n	4003d4 <_pmc_init+0x28>
	return ((Pmc *)hw)->CKGR_MOR;
  4003dc:	4a0f      	ldr	r2, [pc, #60]	; (40041c <_pmc_init+0x70>)
  4003de:	6a13      	ldr	r3, [r2, #32]
		/* Wait until the Fast RC to stabilize */
	}
	/* Switch to Fast RC */
	data = hri_pmc_read_CKGR_MOR_reg(PMC) & ~CKGR_MOR_MOSCSEL;
  4003e0:	f023 7380 	bic.w	r3, r3, #16777216	; 0x1000000
	data |= CKGR_MOR_KEY_PASSWD;
  4003e4:	f443 135c 	orr.w	r3, r3, #3604480	; 0x370000
	((Pmc *)hw)->CKGR_MOR = data;
  4003e8:	6213      	str	r3, [r2, #32]
	tmp = ((Pmc *)hw)->PMC_MCKR;
  4003ea:	6b13      	ldr	r3, [r2, #48]	; 0x30
	tmp &= ~PMC_MCKR_CSS_Msk;
  4003ec:	f023 0303 	bic.w	r3, r3, #3
	tmp |= PMC_MCKR_CSS(data);
  4003f0:	f043 0301 	orr.w	r3, r3, #1
	((Pmc *)hw)->PMC_MCKR = tmp;
  4003f4:	6313      	str	r3, [r2, #48]	; 0x30
	return (((Pmc *)hw)->PMC_SR & PMC_SR_MCKRDY) > 0;
  4003f6:	6e93      	ldr	r3, [r2, #104]	; 0x68
	}
#endif

#if ((CONF_PMC_MCK_SRC == PMC_MCKR_CSS_SLOW_CLK_Val) || (CONF_PMC_MCK_SRC == PMC_MCKR_CSS_MAIN_CLK_Val))
	hri_pmc_write_MCKR_CSS_bf(PMC, CONF_PMC_MCK_SRC);
	while (!hri_pmc_get_SR_MCKRDY_bit(PMC)) {
  4003f8:	f013 0f08 	tst.w	r3, #8
  4003fc:	d0fb      	beq.n	4003f6 <_pmc_init+0x4a>
	tmp = ((Pmc *)hw)->PMC_MCKR;
  4003fe:	4a07      	ldr	r2, [pc, #28]	; (40041c <_pmc_init+0x70>)
  400400:	6b13      	ldr	r3, [r2, #48]	; 0x30
	tmp &= ~PMC_MCKR_PRES_Msk;
  400402:	f023 0370 	bic.w	r3, r3, #112	; 0x70
	((Pmc *)hw)->PMC_MCKR = tmp;
  400406:	6313      	str	r3, [r2, #48]	; 0x30
	return (((Pmc *)hw)->PMC_SR & PMC_SR_MCKRDY) > 0;
  400408:	6e93      	ldr	r3, [r2, #104]	; 0x68
		/* Wait until master clock is ready */
	}
	hri_pmc_write_MCKR_PRES_bf(PMC, CONF_PMC_MCK_PRESC);
	while (!hri_pmc_get_SR_MCKRDY_bit(PMC)) {
  40040a:	f013 0f08 	tst.w	r3, #8
  40040e:	d0fb      	beq.n	400408 <_pmc_init+0x5c>
	((Pmc *)hw)->PMC_USB = data;
  400410:	4b02      	ldr	r3, [pc, #8]	; (40041c <_pmc_init+0x70>)
  400412:	2200      	movs	r2, #0
  400414:	639a      	str	r2, [r3, #56]	; 0x38
	((Pmc *)hw)->PMC_SCER = PMC_SCSR_UDP;
  400416:	2280      	movs	r2, #128	; 0x80
  400418:	601a      	str	r2, [r3, #0]
  40041a:	4770      	bx	lr
  40041c:	400e0400 	.word	0x400e0400

00400420 <_delay_init>:
 * \brief Initialize system time module
 */
void _system_time_init(void *const hw)
{
	(void)hw;
	SysTick->LOAD = (0xFFFFFF << SysTick_LOAD_RELOAD_Pos);
  400420:	4b03      	ldr	r3, [pc, #12]	; (400430 <_delay_init+0x10>)
  400422:	f06f 427f 	mvn.w	r2, #4278190080	; 0xff000000
  400426:	605a      	str	r2, [r3, #4]
	SysTick->CTRL = (1 << SysTick_CTRL_ENABLE_Pos) | (CONF_SYSTICK_TICKINT << SysTick_CTRL_TICKINT_Pos)
  400428:	2205      	movs	r2, #5
  40042a:	601a      	str	r2, [r3, #0]
  40042c:	4770      	bx	lr
  40042e:	bf00      	nop
  400430:	e000e010 	.word	0xe000e010

00400434 <_delay_cycles>:
 * \brief Delay loop to delay n number of cycles
 */
void _delay_cycles(void *const hw, uint32_t cycles)
{
	(void)hw;
	uint8_t  n   = cycles >> 24;
  400434:	0e0b      	lsrs	r3, r1, #24
	uint32_t buf = cycles;

	while (n--) {
  400436:	b303      	cbz	r3, 40047a <_delay_cycles+0x46>
{
  400438:	b430      	push	{r4, r5}
  40043a:	1e5d      	subs	r5, r3, #1
  40043c:	b2ed      	uxtb	r5, r5
	while (n--) {
  40043e:	4628      	mov	r0, r5
		SysTick->LOAD = 0xFFFFFF;
  400440:	4a12      	ldr	r2, [pc, #72]	; (40048c <_delay_cycles+0x58>)
  400442:	f06f 447f 	mvn.w	r4, #4278190080	; 0xff000000
  400446:	6054      	str	r4, [r2, #4]
		SysTick->VAL  = 0xFFFFFF;
  400448:	6094      	str	r4, [r2, #8]
		while (!(SysTick->CTRL & SysTick_CTRL_COUNTFLAG_Msk))
  40044a:	6813      	ldr	r3, [r2, #0]
  40044c:	f413 3f80 	tst.w	r3, #65536	; 0x10000
  400450:	d0fb      	beq.n	40044a <_delay_cycles+0x16>
	while (n--) {
  400452:	3801      	subs	r0, #1
  400454:	b2c0      	uxtb	r0, r0
  400456:	28ff      	cmp	r0, #255	; 0xff
  400458:	d1f5      	bne.n	400446 <_delay_cycles+0x12>
  40045a:	eba5 6505 	sub.w	r5, r5, r5, lsl #24
  40045e:	f101 417f 	add.w	r1, r1, #4278190080	; 0xff000000
  400462:	3101      	adds	r1, #1
  400464:	4429      	add	r1, r5
			;
		buf -= 0xFFFFFF;
	}

	SysTick->LOAD = buf;
  400466:	4b09      	ldr	r3, [pc, #36]	; (40048c <_delay_cycles+0x58>)
  400468:	6059      	str	r1, [r3, #4]
	SysTick->VAL  = buf;
  40046a:	6099      	str	r1, [r3, #8]
	while (!(SysTick->CTRL & SysTick_CTRL_COUNTFLAG_Msk))
  40046c:	461a      	mov	r2, r3
  40046e:	6813      	ldr	r3, [r2, #0]
  400470:	f413 3f80 	tst.w	r3, #65536	; 0x10000
  400474:	d0fb      	beq.n	40046e <_delay_cycles+0x3a>
		;
}
  400476:	bc30      	pop	{r4, r5}
  400478:	4770      	bx	lr
	SysTick->LOAD = buf;
  40047a:	4b04      	ldr	r3, [pc, #16]	; (40048c <_delay_cycles+0x58>)
  40047c:	6059      	str	r1, [r3, #4]
	SysTick->VAL  = buf;
  40047e:	6099      	str	r1, [r3, #8]
	while (!(SysTick->CTRL & SysTick_CTRL_COUNTFLAG_Msk))
  400480:	461a      	mov	r2, r3
  400482:	6813      	ldr	r3, [r2, #0]
  400484:	f413 3f80 	tst.w	r3, #65536	; 0x10000
  400488:	d0fb      	beq.n	400482 <_delay_cycles+0x4e>
  40048a:	4770      	bx	lr
  40048c:	e000e010 	.word	0xe000e010

00400490 <eink_ite_wait_for_hrdy>:
 * to use. 
 */
/**
 * \brief Wait For Host Ready function.
 */
static void eink_ite_wait_for_hrdy(void) {
  400490:	b508      	push	{r3, lr}
    ptr_eink_ite_config->wait_for_hrdy();
  400492:	4b02      	ldr	r3, [pc, #8]	; (40049c <eink_ite_wait_for_hrdy+0xc>)
  400494:	681b      	ldr	r3, [r3, #0]
  400496:	681b      	ldr	r3, [r3, #0]
  400498:	4798      	blx	r3
  40049a:	bd08      	pop	{r3, pc}
  40049c:	200004ac 	.word	0x200004ac

004004a0 <gfx_eink_set_pixel>:
}

/**
 * \brief Set Pixel function.
 */
static void gfx_eink_set_pixel(eink_coordinate x_set, eink_coordinate y_set, enum eink_pixel_colour pixel_colour) {
  4004a0:	b508      	push	{r3, lr}
    ptr_eink_gfx_config->set_pixel(x_set, y_set, pixel_colour);
  4004a2:	4b02      	ldr	r3, [pc, #8]	; (4004ac <gfx_eink_set_pixel+0xc>)
  4004a4:	681b      	ldr	r3, [r3, #0]
  4004a6:	6adb      	ldr	r3, [r3, #44]	; 0x2c
  4004a8:	4798      	blx	r3
  4004aa:	bd08      	pop	{r3, pc}
  4004ac:	20000544 	.word	0x20000544

004004b0 <gfx_eink_set_pixel_raw>:
}

/**
 * \brief Set Pixel with raw value function.
 */
static void gfx_eink_set_pixel_raw(eink_coordinate x_set, eink_coordinate y_set, uint8_t pixel_value) {
  4004b0:	b508      	push	{r3, lr}
    ptr_eink_gfx_config->set_pixel_raw(x_set, y_set, pixel_value);
  4004b2:	4b02      	ldr	r3, [pc, #8]	; (4004bc <gfx_eink_set_pixel_raw+0xc>)
  4004b4:	681b      	ldr	r3, [r3, #0]
  4004b6:	6b1b      	ldr	r3, [r3, #48]	; 0x30
  4004b8:	4798      	blx	r3
  4004ba:	bd08      	pop	{r3, pc}
  4004bc:	20000544 	.word	0x20000544

004004c0 <eink_et011tt2_graphics_load_mono_image>:
 * \param y_place Y location to place with bitmap.
 * \param foreground_colour Color of the foreground - where bit is equal to 1 in the array.
 * \param eink_pixel_colour Color of the background - where bit is equal to 0 in the array.
 */
void eink_et011tt2_graphics_load_mono_image(uint8_t *img_array, uint16_t array_size, eink_coordinate image_width_px, eink_coordinate image_height_bytes, eink_coordinate x_place, eink_coordinate y_place, enum eink_pixel_colour foreground_colour, enum eink_pixel_colour background_colour)
{
  4004c0:	e92d 4ff0 	stmdb	sp!, {r4, r5, r6, r7, r8, r9, sl, fp, lr}
  4004c4:	b089      	sub	sp, #36	; 0x24
  4004c6:	f8bd 1048 	ldrh.w	r1, [sp, #72]	; 0x48
  4004ca:	9106      	str	r1, [sp, #24]
  4004cc:	f8bd 104c 	ldrh.w	r1, [sp, #76]	; 0x4c
  4004d0:	9107      	str	r1, [sp, #28]
  4004d2:	f89d 8050 	ldrb.w	r8, [sp, #80]	; 0x50
  4004d6:	f89d 9054 	ldrb.w	r9, [sp, #84]	; 0x54
    uint16_t buffer_index, i, j;
    uint16_t k, l, m, bit_value;
    
    if(foreground_colour != background_colour) {
  4004da:	45c8      	cmp	r8, r9
  4004dc:	d043      	beq.n	400566 <eink_et011tt2_graphics_load_mono_image+0xa6>
        /* Scan pixels by column */
        for (i = 0; i < image_width_px; i++) {
  4004de:	2a00      	cmp	r2, #0
  4004e0:	d041      	beq.n	400566 <eink_et011tt2_graphics_load_mono_image+0xa6>
  4004e2:	9305      	str	r3, [sp, #20]
  4004e4:	9204      	str	r2, [sp, #16]
  4004e6:	9002      	str	r0, [sp, #8]
  4004e8:	2300      	movs	r3, #0
  4004ea:	9303      	str	r3, [sp, #12]
                    
                    bit_value = ((img_array[(i*image_height_bytes)+j] >> k) & 0x1);
                    if(bit_value) {
                        if(foreground_colour != PIXEL_NONE) gfx_eink_set_pixel((x_place+i), (y_place+(m*8)+k), foreground_colour);
                    } else {
                        if(background_colour != PIXEL_NONE) gfx_eink_set_pixel((x_place+i), (y_place+(m*8)+k), background_colour);
  4004ec:	f8df a07c 	ldr.w	sl, [pc, #124]	; 40056c <eink_et011tt2_graphics_load_mono_image+0xac>
  4004f0:	e02a      	b.n	400548 <eink_et011tt2_graphics_load_mono_image+0x88>
  4004f2:	f1b9 0f08 	cmp.w	r9, #8
  4004f6:	d004      	beq.n	400502 <eink_et011tt2_graphics_load_mono_image+0x42>
  4004f8:	1931      	adds	r1, r6, r4
  4004fa:	464a      	mov	r2, r9
  4004fc:	b289      	uxth	r1, r1
  4004fe:	9801      	ldr	r0, [sp, #4]
  400500:	47d0      	blx	sl
  400502:	3401      	adds	r4, #1
                for (k = 0; k < 8; k++) {
  400504:	2c08      	cmp	r4, #8
  400506:	d00d      	beq.n	400524 <eink_et011tt2_graphics_load_mono_image+0x64>
                    bit_value = ((img_array[(i*image_height_bytes)+j] >> k) & 0x1);
  400508:	782b      	ldrb	r3, [r5, #0]
  40050a:	4123      	asrs	r3, r4
                    if(bit_value) {
  40050c:	f013 0f01 	tst.w	r3, #1
  400510:	d0ef      	beq.n	4004f2 <eink_et011tt2_graphics_load_mono_image+0x32>
                        if(foreground_colour != PIXEL_NONE) gfx_eink_set_pixel((x_place+i), (y_place+(m*8)+k), foreground_colour);
  400512:	f1b8 0f08 	cmp.w	r8, #8
  400516:	d0f4      	beq.n	400502 <eink_et011tt2_graphics_load_mono_image+0x42>
  400518:	1931      	adds	r1, r6, r4
  40051a:	4642      	mov	r2, r8
  40051c:	b289      	uxth	r1, r1
  40051e:	9801      	ldr	r0, [sp, #4]
  400520:	47d0      	blx	sl
  400522:	e7ee      	b.n	400502 <eink_et011tt2_graphics_load_mono_image+0x42>
            for (j = (image_height_bytes-1); j > 0; j--) {
  400524:	3f01      	subs	r7, #1
  400526:	b2bf      	uxth	r7, r7
  400528:	3608      	adds	r6, #8
  40052a:	b2b6      	uxth	r6, r6
  40052c:	b12f      	cbz	r7, 40053a <eink_et011tt2_graphics_load_mono_image+0x7a>
                    bit_value = ((img_array[(i*image_height_bytes)+j] >> k) & 0x1);
  40052e:	eb07 050b 	add.w	r5, r7, fp
  400532:	9b02      	ldr	r3, [sp, #8]
  400534:	441d      	add	r5, r3
  400536:	2400      	movs	r4, #0
  400538:	e7e6      	b.n	400508 <eink_et011tt2_graphics_load_mono_image+0x48>
        for (i = 0; i < image_width_px; i++) {
  40053a:	9b03      	ldr	r3, [sp, #12]
  40053c:	3301      	adds	r3, #1
  40053e:	b29b      	uxth	r3, r3
  400540:	9303      	str	r3, [sp, #12]
  400542:	9a04      	ldr	r2, [sp, #16]
  400544:	429a      	cmp	r2, r3
  400546:	d90e      	bls.n	400566 <eink_et011tt2_graphics_load_mono_image+0xa6>
            for (j = (image_height_bytes-1); j > 0; j--) {
  400548:	9a05      	ldr	r2, [sp, #20]
  40054a:	4613      	mov	r3, r2
  40054c:	1e57      	subs	r7, r2, #1
  40054e:	b2bf      	uxth	r7, r7
  400550:	2f00      	cmp	r7, #0
  400552:	d0f2      	beq.n	40053a <eink_et011tt2_graphics_load_mono_image+0x7a>
                    bit_value = ((img_array[(i*image_height_bytes)+j] >> k) & 0x1);
  400554:	9903      	ldr	r1, [sp, #12]
  400556:	fb03 fb01 	mul.w	fp, r3, r1
  40055a:	9e07      	ldr	r6, [sp, #28]
                        if(background_colour != PIXEL_NONE) gfx_eink_set_pixel((x_place+i), (y_place+(m*8)+k), background_colour);
  40055c:	9b06      	ldr	r3, [sp, #24]
  40055e:	440b      	add	r3, r1
  400560:	b29b      	uxth	r3, r3
  400562:	9301      	str	r3, [sp, #4]
  400564:	e7e3      	b.n	40052e <eink_et011tt2_graphics_load_mono_image+0x6e>
                m++;
            }
        }
    }
    return;
}
  400566:	b009      	add	sp, #36	; 0x24
  400568:	e8bd 8ff0 	ldmia.w	sp!, {r4, r5, r6, r7, r8, r9, sl, fp, pc}
  40056c:	004004a1 	.word	0x004004a1

00400570 <eink_ed013tc1_graphics_load_mono_image>:
 * \param y_place Y location to place with bitmap.
 * \param foreground_colour Color of the foreground - where bit is equal to 1 in the array.
 * \param eink_pixel_colour Color of the background - where bit is equal to 0 in the array.
 */
void eink_ed013tc1_graphics_load_mono_image(uint8_t *img_array, uint16_t array_size, eink_coordinate image_width_px, eink_coordinate image_height_bytes, eink_coordinate x_place, eink_coordinate y_place, enum eink_pixel_colour foreground_colour, enum eink_pixel_colour background_colour)
{
  400570:	e92d 4ff0 	stmdb	sp!, {r4, r5, r6, r7, r8, r9, sl, fp, lr}
  400574:	b089      	sub	sp, #36	; 0x24
  400576:	f8bd 1048 	ldrh.w	r1, [sp, #72]	; 0x48
  40057a:	9106      	str	r1, [sp, #24]
  40057c:	f8bd 104c 	ldrh.w	r1, [sp, #76]	; 0x4c
  400580:	9107      	str	r1, [sp, #28]
  400582:	f89d 8050 	ldrb.w	r8, [sp, #80]	; 0x50
  400586:	f89d 9054 	ldrb.w	r9, [sp, #84]	; 0x54
    uint16_t buffer_index, i, j;
    uint16_t k, l, m, bit_value;
    
    if(foreground_colour != background_colour) {
  40058a:	45c8      	cmp	r8, r9
  40058c:	d043      	beq.n	400616 <eink_ed013tc1_graphics_load_mono_image+0xa6>
        /* Scan pixels by column */
        for (i = 0; i < image_width_px; i++) {
  40058e:	2a00      	cmp	r2, #0
  400590:	d041      	beq.n	400616 <eink_ed013tc1_graphics_load_mono_image+0xa6>
  400592:	9305      	str	r3, [sp, #20]
  400594:	9204      	str	r2, [sp, #16]
  400596:	9002      	str	r0, [sp, #8]
  400598:	2300      	movs	r3, #0
  40059a:	9303      	str	r3, [sp, #12]
                    
                    bit_value = ((img_array[(i*image_height_bytes)+j] >> k) & 0x1);
                    if(bit_value) {
                        if(foreground_colour != PIXEL_NONE) gfx_eink_set_pixel((x_place+i), (y_place+(m*8)+k), foreground_colour);
                    } else {
                        if(background_colour != PIXEL_NONE) gfx_eink_set_pixel((x_place+i), (y_place+(m*8)+k), background_colour);
  40059c:	f8df a07c 	ldr.w	sl, [pc, #124]	; 40061c <eink_ed013tc1_graphics_load_mono_image+0xac>
  4005a0:	e02a      	b.n	4005f8 <eink_ed013tc1_graphics_load_mono_image+0x88>
  4005a2:	f1b9 0f08 	cmp.w	r9, #8
  4005a6:	d004      	beq.n	4005b2 <eink_ed013tc1_graphics_load_mono_image+0x42>
  4005a8:	1931      	adds	r1, r6, r4
  4005aa:	464a      	mov	r2, r9
  4005ac:	b289      	uxth	r1, r1
  4005ae:	9801      	ldr	r0, [sp, #4]
  4005b0:	47d0      	blx	sl
  4005b2:	3401      	adds	r4, #1
                for (k = 0; k < 8; k++) {
  4005b4:	2c08      	cmp	r4, #8
  4005b6:	d00d      	beq.n	4005d4 <eink_ed013tc1_graphics_load_mono_image+0x64>
                    bit_value = ((img_array[(i*image_height_bytes)+j] >> k) & 0x1);
  4005b8:	782b      	ldrb	r3, [r5, #0]
  4005ba:	4123      	asrs	r3, r4
                    if(bit_value) {
  4005bc:	f013 0f01 	tst.w	r3, #1
  4005c0:	d0ef      	beq.n	4005a2 <eink_ed013tc1_graphics_load_mono_image+0x32>
                        if(foreground_colour != PIXEL_NONE) gfx_eink_set_pixel((x_place+i), (y_place+(m*8)+k), foreground_colour);
  4005c2:	f1b8 0f08 	cmp.w	r8, #8
  4005c6:	d0f4      	beq.n	4005b2 <eink_ed013tc1_graphics_load_mono_image+0x42>
  4005c8:	1931      	adds	r1, r6, r4
  4005ca:	4642      	mov	r2, r8
  4005cc:	b289      	uxth	r1, r1
  4005ce:	9801      	ldr	r0, [sp, #4]
  4005d0:	47d0      	blx	sl
  4005d2:	e7ee      	b.n	4005b2 <eink_ed013tc1_graphics_load_mono_image+0x42>
            for (j = (image_height_bytes-1); j > 0; j--) {
  4005d4:	3f01      	subs	r7, #1
  4005d6:	b2bf      	uxth	r7, r7
  4005d8:	3608      	adds	r6, #8
  4005da:	b2b6      	uxth	r6, r6
  4005dc:	b12f      	cbz	r7, 4005ea <eink_ed013tc1_graphics_load_mono_image+0x7a>
                    bit_value = ((img_array[(i*image_height_bytes)+j] >> k) & 0x1);
  4005de:	eb07 050b 	add.w	r5, r7, fp
  4005e2:	9b02      	ldr	r3, [sp, #8]
  4005e4:	441d      	add	r5, r3
  4005e6:	2400      	movs	r4, #0
  4005e8:	e7e6      	b.n	4005b8 <eink_ed013tc1_graphics_load_mono_image+0x48>
        for (i = 0; i < image_width_px; i++) {
  4005ea:	9b03      	ldr	r3, [sp, #12]
  4005ec:	3301      	adds	r3, #1
  4005ee:	b29b      	uxth	r3, r3
  4005f0:	9303      	str	r3, [sp, #12]
  4005f2:	9a04      	ldr	r2, [sp, #16]
  4005f4:	429a      	cmp	r2, r3
  4005f6:	d90e      	bls.n	400616 <eink_ed013tc1_graphics_load_mono_image+0xa6>
            for (j = (image_height_bytes-1); j > 0; j--) {
  4005f8:	9a05      	ldr	r2, [sp, #20]
  4005fa:	4613      	mov	r3, r2
  4005fc:	1e57      	subs	r7, r2, #1
  4005fe:	b2bf      	uxth	r7, r7
  400600:	2f00      	cmp	r7, #0
  400602:	d0f2      	beq.n	4005ea <eink_ed013tc1_graphics_load_mono_image+0x7a>
                    bit_value = ((img_array[(i*image_height_bytes)+j] >> k) & 0x1);
  400604:	9903      	ldr	r1, [sp, #12]
  400606:	fb03 fb01 	mul.w	fp, r3, r1
  40060a:	9e07      	ldr	r6, [sp, #28]
                        if(background_colour != PIXEL_NONE) gfx_eink_set_pixel((x_place+i), (y_place+(m*8)+k), background_colour);
  40060c:	9b06      	ldr	r3, [sp, #24]
  40060e:	440b      	add	r3, r1
  400610:	b29b      	uxth	r3, r3
  400612:	9301      	str	r3, [sp, #4]
  400614:	e7e3      	b.n	4005de <eink_ed013tc1_graphics_load_mono_image+0x6e>
                m++;
            }
        }
    }
    return;
  400616:	b009      	add	sp, #36	; 0x24
  400618:	e8bd 8ff0 	ldmia.w	sp!, {r4, r5, r6, r7, r8, r9, sl, fp, pc}
  40061c:	004004a1 	.word	0x004004a1

00400620 <eink_ed029tc1_graphics_load_mono_image>:
 * \param y_place Y location to place with bitmap.
 * \param foreground_colour Color of the foreground - where bit is equal to 1 in the array.
 * \param eink_pixel_colour Color of the background - where bit is equal to 0 in the array.
 */
void eink_ed029tc1_graphics_load_mono_image(uint8_t *img_array, uint16_t array_size, eink_coordinate image_width_px, eink_coordinate image_height_bytes, eink_coordinate x_place, eink_coordinate y_place, enum eink_pixel_colour foreground_colour, enum eink_pixel_colour background_colour)
{
  400620:	e92d 4ff0 	stmdb	sp!, {r4, r5, r6, r7, r8, r9, sl, fp, lr}
  400624:	b087      	sub	sp, #28
  400626:	f8bd 9040 	ldrh.w	r9, [sp, #64]	; 0x40
  40062a:	f8bd 1044 	ldrh.w	r1, [sp, #68]	; 0x44
  40062e:	9105      	str	r1, [sp, #20]
  400630:	f89d 7048 	ldrb.w	r7, [sp, #72]	; 0x48
  400634:	f89d 804c 	ldrb.w	r8, [sp, #76]	; 0x4c
    uint16_t buffer_index, i, j;
    uint16_t k, l, m, bit_value;
    
    if(foreground_colour != background_colour) {
  400638:	4547      	cmp	r7, r8
  40063a:	d045      	beq.n	4006c8 <eink_ed029tc1_graphics_load_mono_image+0xa8>
        /* Scan pixels by column */
        for (i = 0; i < image_width_px; i++) {
  40063c:	2a00      	cmp	r2, #0
  40063e:	d043      	beq.n	4006c8 <eink_ed029tc1_graphics_load_mono_image+0xa8>
  400640:	4619      	mov	r1, r3
  400642:	9304      	str	r3, [sp, #16]
  400644:	4613      	mov	r3, r2
  400646:	9102      	str	r1, [sp, #8]
  400648:	1842      	adds	r2, r0, r1
  40064a:	9201      	str	r2, [sp, #4]
  40064c:	444b      	add	r3, r9
  40064e:	b29b      	uxth	r3, r3
  400650:	9303      	str	r3, [sp, #12]
                    
                    bit_value = ((img_array[(i*image_height_bytes)+j-1] >> k) & 0x1);
                    if(bit_value) {
                        if(foreground_colour != PIXEL_NONE) gfx_eink_set_pixel((x_place+i), (y_place+(m*8)+k), foreground_colour);
                    } else {
                        if(background_colour != PIXEL_NONE) gfx_eink_set_pixel((x_place+i), (y_place+(m*8)+k), background_colour);
  400652:	f8df a07c 	ldr.w	sl, [pc, #124]	; 4006d0 <eink_ed029tc1_graphics_load_mono_image+0xb0>
  400656:	e02a      	b.n	4006ae <eink_ed029tc1_graphics_load_mono_image+0x8e>
  400658:	f1b8 0f08 	cmp.w	r8, #8
  40065c:	d004      	beq.n	400668 <eink_ed029tc1_graphics_load_mono_image+0x48>
  40065e:	1931      	adds	r1, r6, r4
  400660:	4642      	mov	r2, r8
  400662:	b289      	uxth	r1, r1
  400664:	4648      	mov	r0, r9
  400666:	47d0      	blx	sl
  400668:	3401      	adds	r4, #1
                for (k = 0; k < 8; k++) {
  40066a:	2c08      	cmp	r4, #8
  40066c:	d00d      	beq.n	40068a <eink_ed029tc1_graphics_load_mono_image+0x6a>
                    bit_value = ((img_array[(i*image_height_bytes)+j-1] >> k) & 0x1);
  40066e:	f815 3c01 	ldrb.w	r3, [r5, #-1]
  400672:	4123      	asrs	r3, r4
                    if(bit_value) {
  400674:	f013 0f01 	tst.w	r3, #1
  400678:	d0ee      	beq.n	400658 <eink_ed029tc1_graphics_load_mono_image+0x38>
                        if(foreground_colour != PIXEL_NONE) gfx_eink_set_pixel((x_place+i), (y_place+(m*8)+k), foreground_colour);
  40067a:	2f08      	cmp	r7, #8
  40067c:	d0f4      	beq.n	400668 <eink_ed029tc1_graphics_load_mono_image+0x48>
  40067e:	1931      	adds	r1, r6, r4
  400680:	463a      	mov	r2, r7
  400682:	b289      	uxth	r1, r1
  400684:	4648      	mov	r0, r9
  400686:	47d0      	blx	sl
  400688:	e7ee      	b.n	400668 <eink_ed029tc1_graphics_load_mono_image+0x48>
  40068a:	3608      	adds	r6, #8
  40068c:	b2b6      	uxth	r6, r6
  40068e:	3d01      	subs	r5, #1
            for (j = image_height_bytes; j > 0; j--) {
  400690:	455d      	cmp	r5, fp
  400692:	d001      	beq.n	400698 <eink_ed029tc1_graphics_load_mono_image+0x78>
{
  400694:	2400      	movs	r4, #0
  400696:	e7ea      	b.n	40066e <eink_ed029tc1_graphics_load_mono_image+0x4e>
  400698:	f109 0901 	add.w	r9, r9, #1
  40069c:	fa1f f989 	uxth.w	r9, r9
  4006a0:	9b01      	ldr	r3, [sp, #4]
  4006a2:	9a02      	ldr	r2, [sp, #8]
  4006a4:	4413      	add	r3, r2
  4006a6:	9301      	str	r3, [sp, #4]
        for (i = 0; i < image_width_px; i++) {
  4006a8:	9b03      	ldr	r3, [sp, #12]
  4006aa:	4599      	cmp	r9, r3
  4006ac:	d00c      	beq.n	4006c8 <eink_ed029tc1_graphics_load_mono_image+0xa8>
            for (j = image_height_bytes; j > 0; j--) {
  4006ae:	9b04      	ldr	r3, [sp, #16]
  4006b0:	2b00      	cmp	r3, #0
  4006b2:	d0f1      	beq.n	400698 <eink_ed029tc1_graphics_load_mono_image+0x78>
  4006b4:	f1c3 0b00 	rsb	fp, r3, #0
  4006b8:	ea6f 4b0b 	mvn.w	fp, fp, lsl #16
  4006bc:	ea6f 4b1b 	mvn.w	fp, fp, lsr #16
  4006c0:	9d01      	ldr	r5, [sp, #4]
  4006c2:	44ab      	add	fp, r5
  4006c4:	9e05      	ldr	r6, [sp, #20]
  4006c6:	e7e5      	b.n	400694 <eink_ed029tc1_graphics_load_mono_image+0x74>
                m++;
            }
        }
    }
    return;
  4006c8:	b007      	add	sp, #28
  4006ca:	e8bd 8ff0 	ldmia.w	sp!, {r4, r5, r6, r7, r8, r9, sl, fp, pc}
  4006ce:	bf00      	nop
  4006d0:	004004a1 	.word	0x004004a1

004006d4 <eink_el026tr1_graphics_load_mono_image>:
 * \param y_place Y location to place with bitmap.
 * \param foreground_colour Color of the foreground - where bit is equal to 1 in the array.
 * \param eink_pixel_colour Color of the background - where bit is equal to 0 in the array.
 */
void eink_el026tr1_graphics_load_mono_image(uint8_t *img_array, uint16_t array_size, eink_coordinate image_width_px, eink_coordinate image_height_bytes, eink_coordinate x_place, eink_coordinate y_place, enum eink_pixel_colour foreground_colour, enum eink_pixel_colour background_colour)
{
  4006d4:	b510      	push	{r4, lr}
  4006d6:	b084      	sub	sp, #16
    /** Calls the equivalent function but for the ED029TC1 - avoid code repetition */
    eink_ed029tc1_graphics_load_mono_image(img_array, array_size, image_width_px, image_height_bytes, x_place, y_place, foreground_colour, background_colour);
  4006d8:	f89d 4024 	ldrb.w	r4, [sp, #36]	; 0x24
  4006dc:	9403      	str	r4, [sp, #12]
  4006de:	f89d 4020 	ldrb.w	r4, [sp, #32]
  4006e2:	9402      	str	r4, [sp, #8]
  4006e4:	f8bd 401c 	ldrh.w	r4, [sp, #28]
  4006e8:	9401      	str	r4, [sp, #4]
  4006ea:	f8bd 4018 	ldrh.w	r4, [sp, #24]
  4006ee:	9400      	str	r4, [sp, #0]
  4006f0:	4c01      	ldr	r4, [pc, #4]	; (4006f8 <eink_el026tr1_graphics_load_mono_image+0x24>)
  4006f2:	47a0      	blx	r4
  4006f4:	b004      	add	sp, #16
  4006f6:	bd10      	pop	{r4, pc}
  4006f8:	00400621 	.word	0x00400621

004006fc <eink_hink_e0154a05_graphics_load_mono_image>:
 * \param y_place Y location to place with bitmap.
 * \param foreground_colour Color of the foreground - where bit is equal to 1 in the array.
 * \param eink_pixel_colour Color of the background - where bit is equal to 0 in the array.
 */
void eink_hink_e0154a05_graphics_load_mono_image(uint8_t *img_array, uint16_t array_size, eink_coordinate image_width_px, eink_coordinate image_height_bytes, eink_coordinate x_place, eink_coordinate y_place, enum eink_pixel_colour foreground_colour, enum eink_pixel_colour background_colour)
{
  4006fc:	e92d 4ff0 	stmdb	sp!, {r4, r5, r6, r7, r8, r9, sl, fp, lr}
  400700:	b087      	sub	sp, #28
  400702:	f8bd 9040 	ldrh.w	r9, [sp, #64]	; 0x40
  400706:	f8bd 1044 	ldrh.w	r1, [sp, #68]	; 0x44
  40070a:	9105      	str	r1, [sp, #20]
  40070c:	f89d 7048 	ldrb.w	r7, [sp, #72]	; 0x48
  400710:	f89d 804c 	ldrb.w	r8, [sp, #76]	; 0x4c
    uint16_t buffer_index, i, j;
    uint16_t k, l, m, bit_value;
    
    if(foreground_colour != background_colour) {
  400714:	4547      	cmp	r7, r8
  400716:	d045      	beq.n	4007a4 <eink_hink_e0154a05_graphics_load_mono_image+0xa8>
        /* Scan pixels by column */
        for (i = 0; i < image_width_px; i++) {
  400718:	2a00      	cmp	r2, #0
  40071a:	d043      	beq.n	4007a4 <eink_hink_e0154a05_graphics_load_mono_image+0xa8>
  40071c:	4619      	mov	r1, r3
  40071e:	9304      	str	r3, [sp, #16]
  400720:	4613      	mov	r3, r2
  400722:	9102      	str	r1, [sp, #8]
  400724:	1842      	adds	r2, r0, r1
  400726:	9201      	str	r2, [sp, #4]
  400728:	444b      	add	r3, r9
  40072a:	b29b      	uxth	r3, r3
  40072c:	9303      	str	r3, [sp, #12]
                    
                    bit_value = ((img_array[(i*image_height_bytes)+j-1] >> k) & 0x1);
                    if(bit_value) {
                        if(foreground_colour != PIXEL_NONE) gfx_eink_set_pixel((x_place+i), (y_place+(m*8)+k), foreground_colour);
                        } else {
                        if(background_colour != PIXEL_NONE) gfx_eink_set_pixel((x_place+i), (y_place+(m*8)+k), background_colour);
  40072e:	f8df a07c 	ldr.w	sl, [pc, #124]	; 4007ac <eink_hink_e0154a05_graphics_load_mono_image+0xb0>
  400732:	e02a      	b.n	40078a <eink_hink_e0154a05_graphics_load_mono_image+0x8e>
  400734:	f1b8 0f08 	cmp.w	r8, #8
  400738:	d004      	beq.n	400744 <eink_hink_e0154a05_graphics_load_mono_image+0x48>
  40073a:	1931      	adds	r1, r6, r4
  40073c:	4642      	mov	r2, r8
  40073e:	b289      	uxth	r1, r1
  400740:	4648      	mov	r0, r9
  400742:	47d0      	blx	sl
  400744:	3401      	adds	r4, #1
                for (k = 0; k < 8; k++) {
  400746:	2c08      	cmp	r4, #8
  400748:	d00d      	beq.n	400766 <eink_hink_e0154a05_graphics_load_mono_image+0x6a>
                    bit_value = ((img_array[(i*image_height_bytes)+j-1] >> k) & 0x1);
  40074a:	f815 3c01 	ldrb.w	r3, [r5, #-1]
  40074e:	4123      	asrs	r3, r4
                    if(bit_value) {
  400750:	f013 0f01 	tst.w	r3, #1
  400754:	d0ee      	beq.n	400734 <eink_hink_e0154a05_graphics_load_mono_image+0x38>
                        if(foreground_colour != PIXEL_NONE) gfx_eink_set_pixel((x_place+i), (y_place+(m*8)+k), foreground_colour);
  400756:	2f08      	cmp	r7, #8
  400758:	d0f4      	beq.n	400744 <eink_hink_e0154a05_graphics_load_mono_image+0x48>
  40075a:	1931      	adds	r1, r6, r4
  40075c:	463a      	mov	r2, r7
  40075e:	b289      	uxth	r1, r1
  400760:	4648      	mov	r0, r9
  400762:	47d0      	blx	sl
  400764:	e7ee      	b.n	400744 <eink_hink_e0154a05_graphics_load_mono_image+0x48>
  400766:	3608      	adds	r6, #8
  400768:	b2b6      	uxth	r6, r6
  40076a:	3d01      	subs	r5, #1
            for (j = (image_height_bytes); j > 0; j--) {
  40076c:	455d      	cmp	r5, fp
  40076e:	d001      	beq.n	400774 <eink_hink_e0154a05_graphics_load_mono_image+0x78>
{
  400770:	2400      	movs	r4, #0
  400772:	e7ea      	b.n	40074a <eink_hink_e0154a05_graphics_load_mono_image+0x4e>
  400774:	f109 0901 	add.w	r9, r9, #1
  400778:	fa1f f989 	uxth.w	r9, r9
  40077c:	9b01      	ldr	r3, [sp, #4]
  40077e:	9a02      	ldr	r2, [sp, #8]
  400780:	4413      	add	r3, r2
  400782:	9301      	str	r3, [sp, #4]
        for (i = 0; i < image_width_px; i++) {
  400784:	9b03      	ldr	r3, [sp, #12]
  400786:	4599      	cmp	r9, r3
  400788:	d00c      	beq.n	4007a4 <eink_hink_e0154a05_graphics_load_mono_image+0xa8>
            for (j = (image_height_bytes); j > 0; j--) {
  40078a:	9b04      	ldr	r3, [sp, #16]
  40078c:	2b00      	cmp	r3, #0
  40078e:	d0f1      	beq.n	400774 <eink_hink_e0154a05_graphics_load_mono_image+0x78>
  400790:	f1c3 0b00 	rsb	fp, r3, #0
  400794:	ea6f 4b0b 	mvn.w	fp, fp, lsl #16
  400798:	ea6f 4b1b 	mvn.w	fp, fp, lsr #16
  40079c:	9d01      	ldr	r5, [sp, #4]
  40079e:	44ab      	add	fp, r5
  4007a0:	9e05      	ldr	r6, [sp, #20]
  4007a2:	e7e5      	b.n	400770 <eink_hink_e0154a05_graphics_load_mono_image+0x74>
                m++;
            }
        }
    }
    return;
  4007a4:	b007      	add	sp, #28
  4007a6:	e8bd 8ff0 	ldmia.w	sp!, {r4, r5, r6, r7, r8, r9, sl, fp, pc}
  4007aa:	bf00      	nop
  4007ac:	004004a1 	.word	0x004004a1

004007b0 <eink_ac040tc1_graphics_load_mono_image>:
 * \param y_place Y location to place with bitmap.
 * \param foreground_colour Color of the foreground - where bit is equal to 1 in the array.
 * \param eink_pixel_colour Color of the background - where bit is equal to 0 in the array.
 */
void eink_ac040tc1_graphics_load_mono_image(uint8_t *img_array, uint16_t array_size, eink_coordinate image_width_px, eink_coordinate image_height_bytes, eink_coordinate x_place, eink_coordinate y_place, enum eink_pixel_colour foreground_colour, enum eink_pixel_colour background_colour)
{
  4007b0:	e92d 4ff0 	stmdb	sp!, {r4, r5, r6, r7, r8, r9, sl, fp, lr}
  4007b4:	b087      	sub	sp, #28
  4007b6:	f8bd 1040 	ldrh.w	r1, [sp, #64]	; 0x40
  4007ba:	9105      	str	r1, [sp, #20]
  4007bc:	f89d 7048 	ldrb.w	r7, [sp, #72]	; 0x48
  4007c0:	f89d 804c 	ldrb.w	r8, [sp, #76]	; 0x4c
    uint32_t buffer_index, i, j;
    uint16_t k, l, m, bit_value;
    
    if(foreground_colour != background_colour) {
  4007c4:	4547      	cmp	r7, r8
  4007c6:	d049      	beq.n	40085c <eink_ac040tc1_graphics_load_mono_image+0xac>
        /* Scan pixels by column */
        for (i = 0; i < image_width_px; i++) {
  4007c8:	9203      	str	r2, [sp, #12]
  4007ca:	2a00      	cmp	r2, #0
  4007cc:	d046      	beq.n	40085c <eink_ac040tc1_graphics_load_mono_image+0xac>
  4007ce:	9302      	str	r3, [sp, #8]
  4007d0:	9001      	str	r0, [sp, #4]
  4007d2:	f503 53ff 	add.w	r3, r3, #8160	; 0x1fe0
  4007d6:	331f      	adds	r3, #31
  4007d8:	f8bd 2044 	ldrh.w	r2, [sp, #68]	; 0x44
  4007dc:	eb02 03c3 	add.w	r3, r2, r3, lsl #3
  4007e0:	b29b      	uxth	r3, r3
  4007e2:	9304      	str	r3, [sp, #16]
  4007e4:	2300      	movs	r3, #0
  4007e6:	9300      	str	r3, [sp, #0]
                    
                    bit_value = ((img_array[(i*image_height_bytes)+j] >> k) & 0x1);
                    if(bit_value) {
                        if(foreground_colour != PIXEL_NONE) gfx_eink_set_pixel((x_place+i), (y_place+(m*8)+k), foreground_colour);
                    } else {
                        if(background_colour != PIXEL_NONE) gfx_eink_set_pixel((x_place+i), (y_place+(m*8)+k), background_colour);
  4007e8:	f8df a078 	ldr.w	sl, [pc, #120]	; 400864 <eink_ac040tc1_graphics_load_mono_image+0xb4>
  4007ec:	e028      	b.n	400840 <eink_ac040tc1_graphics_load_mono_image+0x90>
  4007ee:	f1b8 0f08 	cmp.w	r8, #8
  4007f2:	d004      	beq.n	4007fe <eink_ac040tc1_graphics_load_mono_image+0x4e>
  4007f4:	1931      	adds	r1, r6, r4
  4007f6:	4642      	mov	r2, r8
  4007f8:	b289      	uxth	r1, r1
  4007fa:	4648      	mov	r0, r9
  4007fc:	47d0      	blx	sl
  4007fe:	3401      	adds	r4, #1
                for (k = 0; k < 8; k++) {
  400800:	2c08      	cmp	r4, #8
  400802:	d00c      	beq.n	40081e <eink_ac040tc1_graphics_load_mono_image+0x6e>
                    bit_value = ((img_array[(i*image_height_bytes)+j] >> k) & 0x1);
  400804:	782b      	ldrb	r3, [r5, #0]
  400806:	4123      	asrs	r3, r4
                    if(bit_value) {
  400808:	f013 0f01 	tst.w	r3, #1
  40080c:	d0ef      	beq.n	4007ee <eink_ac040tc1_graphics_load_mono_image+0x3e>
                        if(foreground_colour != PIXEL_NONE) gfx_eink_set_pixel((x_place+i), (y_place+(m*8)+k), foreground_colour);
  40080e:	2f08      	cmp	r7, #8
  400810:	d0f5      	beq.n	4007fe <eink_ac040tc1_graphics_load_mono_image+0x4e>
  400812:	1931      	adds	r1, r6, r4
  400814:	463a      	mov	r2, r7
  400816:	b289      	uxth	r1, r1
  400818:	4648      	mov	r0, r9
  40081a:	47d0      	blx	sl
  40081c:	e7ef      	b.n	4007fe <eink_ac040tc1_graphics_load_mono_image+0x4e>
  40081e:	3e08      	subs	r6, #8
  400820:	b2b6      	uxth	r6, r6
  400822:	3501      	adds	r5, #1
            for (j = 0; j < image_height_bytes; j++) {
  400824:	455d      	cmp	r5, fp
  400826:	d001      	beq.n	40082c <eink_ac040tc1_graphics_load_mono_image+0x7c>
        for (i = 0; i < image_width_px; i++) {
  400828:	2400      	movs	r4, #0
  40082a:	e7eb      	b.n	400804 <eink_ac040tc1_graphics_load_mono_image+0x54>
  40082c:	9b00      	ldr	r3, [sp, #0]
  40082e:	3301      	adds	r3, #1
  400830:	9300      	str	r3, [sp, #0]
  400832:	9a01      	ldr	r2, [sp, #4]
  400834:	9902      	ldr	r1, [sp, #8]
  400836:	440a      	add	r2, r1
  400838:	9201      	str	r2, [sp, #4]
  40083a:	9a03      	ldr	r2, [sp, #12]
  40083c:	4293      	cmp	r3, r2
  40083e:	d00d      	beq.n	40085c <eink_ac040tc1_graphics_load_mono_image+0xac>
            for (j = 0; j < image_height_bytes; j++) {
  400840:	9b02      	ldr	r3, [sp, #8]
  400842:	2b00      	cmp	r3, #0
  400844:	d0f2      	beq.n	40082c <eink_ac040tc1_graphics_load_mono_image+0x7c>
  400846:	9d01      	ldr	r5, [sp, #4]
  400848:	eb05 0b03 	add.w	fp, r5, r3
  40084c:	9e04      	ldr	r6, [sp, #16]
                        if(background_colour != PIXEL_NONE) gfx_eink_set_pixel((x_place+i), (y_place+(m*8)+k), background_colour);
  40084e:	9b05      	ldr	r3, [sp, #20]
  400850:	9a00      	ldr	r2, [sp, #0]
  400852:	eb03 0902 	add.w	r9, r3, r2
  400856:	fa1f f989 	uxth.w	r9, r9
  40085a:	e7e5      	b.n	400828 <eink_ac040tc1_graphics_load_mono_image+0x78>
                }
                m--;        
            }
        }
    }
  40085c:	b007      	add	sp, #28
  40085e:	e8bd 8ff0 	ldmia.w	sp!, {r4, r5, r6, r7, r8, r9, sl, fp, pc}
  400862:	bf00      	nop
  400864:	004004a1 	.word	0x004004a1

00400868 <eink_ac057tc1_graphics_load_mono_image>:
 * \param y_place Y location to place with bitmap.
 * \param foreground_colour Color of the foreground - where bit is equal to 1 in the array.
 * \param eink_pixel_colour Color of the background - where bit is equal to 0 in the array.
 */
void eink_ac057tc1_graphics_load_mono_image(uint8_t *img_array, uint16_t array_size, eink_coordinate image_width_px, eink_coordinate image_height_bytes, eink_coordinate x_place, eink_coordinate y_place, enum eink_pixel_colour foreground_colour, enum eink_pixel_colour background_colour)
{
  400868:	e92d 4ff0 	stmdb	sp!, {r4, r5, r6, r7, r8, r9, sl, fp, lr}
  40086c:	b087      	sub	sp, #28
  40086e:	f8bd 1040 	ldrh.w	r1, [sp, #64]	; 0x40
  400872:	9105      	str	r1, [sp, #20]
  400874:	f89d 7048 	ldrb.w	r7, [sp, #72]	; 0x48
  400878:	f89d 804c 	ldrb.w	r8, [sp, #76]	; 0x4c
    uint32_t buffer_index, i, j;
    uint16_t k, l, m, bit_value;
    
    if(foreground_colour != background_colour) {
  40087c:	4547      	cmp	r7, r8
  40087e:	d049      	beq.n	400914 <eink_ac057tc1_graphics_load_mono_image+0xac>
        /* Scan pixels by column */
        for (i = 0; i < image_width_px; i++) {
  400880:	9203      	str	r2, [sp, #12]
  400882:	2a00      	cmp	r2, #0
  400884:	d046      	beq.n	400914 <eink_ac057tc1_graphics_load_mono_image+0xac>
  400886:	9302      	str	r3, [sp, #8]
  400888:	9001      	str	r0, [sp, #4]
  40088a:	f503 53ff 	add.w	r3, r3, #8160	; 0x1fe0
  40088e:	331f      	adds	r3, #31
  400890:	f8bd 2044 	ldrh.w	r2, [sp, #68]	; 0x44
  400894:	eb02 03c3 	add.w	r3, r2, r3, lsl #3
  400898:	b29b      	uxth	r3, r3
  40089a:	9304      	str	r3, [sp, #16]
  40089c:	2300      	movs	r3, #0
  40089e:	9300      	str	r3, [sp, #0]
                    
                    bit_value = ((img_array[(i*image_height_bytes)+j] >> k) & 0x1);
                    if(bit_value) {
                        if(foreground_colour != PIXEL_NONE) gfx_eink_set_pixel((x_place+i), (y_place+(m*8)+k), foreground_colour);
                    } else {
                        if(background_colour != PIXEL_NONE) gfx_eink_set_pixel((x_place+i), (y_place+(m*8)+k), background_colour);
  4008a0:	f8df a078 	ldr.w	sl, [pc, #120]	; 40091c <eink_ac057tc1_graphics_load_mono_image+0xb4>
  4008a4:	e028      	b.n	4008f8 <eink_ac057tc1_graphics_load_mono_image+0x90>
  4008a6:	f1b8 0f08 	cmp.w	r8, #8
  4008aa:	d004      	beq.n	4008b6 <eink_ac057tc1_graphics_load_mono_image+0x4e>
  4008ac:	1931      	adds	r1, r6, r4
  4008ae:	4642      	mov	r2, r8
  4008b0:	b289      	uxth	r1, r1
  4008b2:	4648      	mov	r0, r9
  4008b4:	47d0      	blx	sl
  4008b6:	3401      	adds	r4, #1
                for (k = 0; k < 8; k++) {
  4008b8:	2c08      	cmp	r4, #8
  4008ba:	d00c      	beq.n	4008d6 <eink_ac057tc1_graphics_load_mono_image+0x6e>
                    bit_value = ((img_array[(i*image_height_bytes)+j] >> k) & 0x1);
  4008bc:	782b      	ldrb	r3, [r5, #0]
  4008be:	4123      	asrs	r3, r4
                    if(bit_value) {
  4008c0:	f013 0f01 	tst.w	r3, #1
  4008c4:	d0ef      	beq.n	4008a6 <eink_ac057tc1_graphics_load_mono_image+0x3e>
                        if(foreground_colour != PIXEL_NONE) gfx_eink_set_pixel((x_place+i), (y_place+(m*8)+k), foreground_colour);
  4008c6:	2f08      	cmp	r7, #8
  4008c8:	d0f5      	beq.n	4008b6 <eink_ac057tc1_graphics_load_mono_image+0x4e>
  4008ca:	1931      	adds	r1, r6, r4
  4008cc:	463a      	mov	r2, r7
  4008ce:	b289      	uxth	r1, r1
  4008d0:	4648      	mov	r0, r9
  4008d2:	47d0      	blx	sl
  4008d4:	e7ef      	b.n	4008b6 <eink_ac057tc1_graphics_load_mono_image+0x4e>
  4008d6:	3e08      	subs	r6, #8
  4008d8:	b2b6      	uxth	r6, r6
  4008da:	3501      	adds	r5, #1
            for (j = 0; j < image_height_bytes; j++) {
  4008dc:	455d      	cmp	r5, fp
  4008de:	d001      	beq.n	4008e4 <eink_ac057tc1_graphics_load_mono_image+0x7c>
        for (i = 0; i < image_width_px; i++) {
  4008e0:	2400      	movs	r4, #0
  4008e2:	e7eb      	b.n	4008bc <eink_ac057tc1_graphics_load_mono_image+0x54>
  4008e4:	9b00      	ldr	r3, [sp, #0]
  4008e6:	3301      	adds	r3, #1
  4008e8:	9300      	str	r3, [sp, #0]
  4008ea:	9a01      	ldr	r2, [sp, #4]
  4008ec:	9902      	ldr	r1, [sp, #8]
  4008ee:	440a      	add	r2, r1
  4008f0:	9201      	str	r2, [sp, #4]
  4008f2:	9a03      	ldr	r2, [sp, #12]
  4008f4:	4293      	cmp	r3, r2
  4008f6:	d00d      	beq.n	400914 <eink_ac057tc1_graphics_load_mono_image+0xac>
            for (j = 0; j < image_height_bytes; j++) {
  4008f8:	9b02      	ldr	r3, [sp, #8]
  4008fa:	2b00      	cmp	r3, #0
  4008fc:	d0f2      	beq.n	4008e4 <eink_ac057tc1_graphics_load_mono_image+0x7c>
  4008fe:	9d01      	ldr	r5, [sp, #4]
  400900:	eb05 0b03 	add.w	fp, r5, r3
  400904:	9e04      	ldr	r6, [sp, #16]
                        if(background_colour != PIXEL_NONE) gfx_eink_set_pixel((x_place+i), (y_place+(m*8)+k), background_colour);
  400906:	9b05      	ldr	r3, [sp, #20]
  400908:	9a00      	ldr	r2, [sp, #0]
  40090a:	eb03 0902 	add.w	r9, r3, r2
  40090e:	fa1f f989 	uxth.w	r9, r9
  400912:	e7e5      	b.n	4008e0 <eink_ac057tc1_graphics_load_mono_image+0x78>
                }
                m--;        
            }
        }
    }
  400914:	b007      	add	sp, #28
  400916:	e8bd 8ff0 	ldmia.w	sp!, {r4, r5, r6, r7, r8, r9, sl, fp, pc}
  40091a:	bf00      	nop
  40091c:	004004a1 	.word	0x004004a1

00400920 <eink_ed057tc2_graphics_load_mono_image>:
 * \param y_place Y location to place with bitmap.
 * \param foreground_colour Color of the foreground - where bit is equal to 1 in the array.
 * \param eink_pixel_colour Color of the background - where bit is equal to 0 in the array.
 */
void eink_ed057tc2_graphics_load_mono_image(uint8_t *img_array, uint16_t array_size, eink_coordinate image_width_px, eink_coordinate image_height_bytes, eink_coordinate x_place, eink_coordinate y_place, enum eink_pixel_colour foreground_colour, enum eink_pixel_colour background_colour)
{
  400920:	e92d 4ff0 	stmdb	sp!, {r4, r5, r6, r7, r8, r9, sl, fp, lr}
  400924:	b087      	sub	sp, #28
  400926:	f8bd 1040 	ldrh.w	r1, [sp, #64]	; 0x40
  40092a:	9105      	str	r1, [sp, #20]
  40092c:	f89d 7048 	ldrb.w	r7, [sp, #72]	; 0x48
  400930:	f89d 804c 	ldrb.w	r8, [sp, #76]	; 0x4c
    uint32_t buffer_index, i, j;
    uint16_t k, l, m, bit_value;
    
    if(foreground_colour != background_colour) {
  400934:	4547      	cmp	r7, r8
  400936:	d049      	beq.n	4009cc <eink_ed057tc2_graphics_load_mono_image+0xac>
        /* Scan pixels by column */
        for (i = 0; i < image_width_px; i++) {
  400938:	9203      	str	r2, [sp, #12]
  40093a:	2a00      	cmp	r2, #0
  40093c:	d046      	beq.n	4009cc <eink_ed057tc2_graphics_load_mono_image+0xac>
  40093e:	9302      	str	r3, [sp, #8]
  400940:	9001      	str	r0, [sp, #4]
  400942:	f503 53ff 	add.w	r3, r3, #8160	; 0x1fe0
  400946:	331f      	adds	r3, #31
  400948:	f8bd 2044 	ldrh.w	r2, [sp, #68]	; 0x44
  40094c:	eb02 03c3 	add.w	r3, r2, r3, lsl #3
  400950:	b29b      	uxth	r3, r3
  400952:	9304      	str	r3, [sp, #16]
  400954:	2300      	movs	r3, #0
  400956:	9300      	str	r3, [sp, #0]
                    
                    bit_value = ((img_array[(i*image_height_bytes)+j] >> k) & 0x1);
                    if(bit_value) {
                        if(foreground_colour != PIXEL_NONE) gfx_eink_set_pixel((x_place+i), (y_place+(m*8)+k), foreground_colour);
                    } else {
                        if(background_colour != PIXEL_NONE) gfx_eink_set_pixel((x_place+i), (y_place+(m*8)+k), background_colour);
  400958:	f8df a078 	ldr.w	sl, [pc, #120]	; 4009d4 <eink_ed057tc2_graphics_load_mono_image+0xb4>
  40095c:	e028      	b.n	4009b0 <eink_ed057tc2_graphics_load_mono_image+0x90>
  40095e:	f1b8 0f08 	cmp.w	r8, #8
  400962:	d004      	beq.n	40096e <eink_ed057tc2_graphics_load_mono_image+0x4e>
  400964:	1931      	adds	r1, r6, r4
  400966:	4642      	mov	r2, r8
  400968:	b289      	uxth	r1, r1
  40096a:	4648      	mov	r0, r9
  40096c:	47d0      	blx	sl
  40096e:	3401      	adds	r4, #1
                for (k = 0; k < 8; k++) {
  400970:	2c08      	cmp	r4, #8
  400972:	d00c      	beq.n	40098e <eink_ed057tc2_graphics_load_mono_image+0x6e>
                    bit_value = ((img_array[(i*image_height_bytes)+j] >> k) & 0x1);
  400974:	782b      	ldrb	r3, [r5, #0]
  400976:	4123      	asrs	r3, r4
                    if(bit_value) {
  400978:	f013 0f01 	tst.w	r3, #1
  40097c:	d0ef      	beq.n	40095e <eink_ed057tc2_graphics_load_mono_image+0x3e>
                        if(foreground_colour != PIXEL_NONE) gfx_eink_set_pixel((x_place+i), (y_place+(m*8)+k), foreground_colour);
  40097e:	2f08      	cmp	r7, #8
  400980:	d0f5      	beq.n	40096e <eink_ed057tc2_graphics_load_mono_image+0x4e>
  400982:	1931      	adds	r1, r6, r4
  400984:	463a      	mov	r2, r7
  400986:	b289      	uxth	r1, r1
  400988:	4648      	mov	r0, r9
  40098a:	47d0      	blx	sl
  40098c:	e7ef      	b.n	40096e <eink_ed057tc2_graphics_load_mono_image+0x4e>
  40098e:	3e08      	subs	r6, #8
  400990:	b2b6      	uxth	r6, r6
  400992:	3501      	adds	r5, #1
            for (j = 0; j < image_height_bytes; j++) {
  400994:	455d      	cmp	r5, fp
  400996:	d001      	beq.n	40099c <eink_ed057tc2_graphics_load_mono_image+0x7c>
        for (i = 0; i < image_width_px; i++) {
  400998:	2400      	movs	r4, #0
  40099a:	e7eb      	b.n	400974 <eink_ed057tc2_graphics_load_mono_image+0x54>
  40099c:	9b00      	ldr	r3, [sp, #0]
  40099e:	3301      	adds	r3, #1
  4009a0:	9300      	str	r3, [sp, #0]
  4009a2:	9a01      	ldr	r2, [sp, #4]
  4009a4:	9902      	ldr	r1, [sp, #8]
  4009a6:	440a      	add	r2, r1
  4009a8:	9201      	str	r2, [sp, #4]
  4009aa:	9a03      	ldr	r2, [sp, #12]
  4009ac:	4293      	cmp	r3, r2
  4009ae:	d00d      	beq.n	4009cc <eink_ed057tc2_graphics_load_mono_image+0xac>
            for (j = 0; j < image_height_bytes; j++) {
  4009b0:	9b02      	ldr	r3, [sp, #8]
  4009b2:	2b00      	cmp	r3, #0
  4009b4:	d0f2      	beq.n	40099c <eink_ed057tc2_graphics_load_mono_image+0x7c>
  4009b6:	9d01      	ldr	r5, [sp, #4]
  4009b8:	eb05 0b03 	add.w	fp, r5, r3
  4009bc:	9e04      	ldr	r6, [sp, #16]
                        if(background_colour != PIXEL_NONE) gfx_eink_set_pixel((x_place+i), (y_place+(m*8)+k), background_colour);
  4009be:	9b05      	ldr	r3, [sp, #20]
  4009c0:	9a00      	ldr	r2, [sp, #0]
  4009c2:	eb03 0902 	add.w	r9, r3, r2
  4009c6:	fa1f f989 	uxth.w	r9, r9
  4009ca:	e7e5      	b.n	400998 <eink_ed057tc2_graphics_load_mono_image+0x78>
                }
                m--;        
            }
        }
    }
  4009cc:	b007      	add	sp, #28
  4009ce:	e8bd 8ff0 	ldmia.w	sp!, {r4, r5, r6, r7, r8, r9, sl, fp, pc}
  4009d2:	bf00      	nop
  4009d4:	004004a1 	.word	0x004004a1

004009d8 <eink_ed028tc1_graphics_load_mono_image>:
 * \param y_place Y location to place with bitmap.
 * \param foreground_colour Color of the foreground - where bit is equal to 1 in the array.
 * \param eink_pixel_colour Color of the background - where bit is equal to 0 in the array.
 */
void eink_ed028tc1_graphics_load_mono_image(uint8_t *img_array, uint16_t array_size, eink_coordinate image_width_px, eink_coordinate image_height_bytes, eink_coordinate x_place, eink_coordinate y_place, enum eink_pixel_colour foreground_colour, enum eink_pixel_colour background_colour)
{
  4009d8:	e92d 4ff0 	stmdb	sp!, {r4, r5, r6, r7, r8, r9, sl, fp, lr}
  4009dc:	b089      	sub	sp, #36	; 0x24
  4009de:	f8bd 1048 	ldrh.w	r1, [sp, #72]	; 0x48
  4009e2:	9106      	str	r1, [sp, #24]
  4009e4:	f8bd 104c 	ldrh.w	r1, [sp, #76]	; 0x4c
  4009e8:	9107      	str	r1, [sp, #28]
  4009ea:	f89d 8050 	ldrb.w	r8, [sp, #80]	; 0x50
  4009ee:	f89d 9054 	ldrb.w	r9, [sp, #84]	; 0x54
    uint16_t buffer_index, i, j;
    uint16_t k, l, m, bit_value;
    
    if(foreground_colour != background_colour) {
  4009f2:	45c8      	cmp	r8, r9
  4009f4:	d043      	beq.n	400a7e <eink_ed028tc1_graphics_load_mono_image+0xa6>
        /* Scan pixels by column */
        for (i = 0; i < image_width_px; i++) {
  4009f6:	2a00      	cmp	r2, #0
  4009f8:	d041      	beq.n	400a7e <eink_ed028tc1_graphics_load_mono_image+0xa6>
  4009fa:	9305      	str	r3, [sp, #20]
  4009fc:	9204      	str	r2, [sp, #16]
  4009fe:	9002      	str	r0, [sp, #8]
  400a00:	2300      	movs	r3, #0
  400a02:	9303      	str	r3, [sp, #12]
                    
                    bit_value = ((img_array[(i*image_height_bytes)+j] >> k) & 0x1);
                    if(bit_value) {
                        if(foreground_colour != PIXEL_NONE) gfx_eink_set_pixel((x_place+i), (y_place+(m*8)+k), foreground_colour);
                    } else {
                        if(background_colour != PIXEL_NONE) gfx_eink_set_pixel((x_place+i), (y_place+(m*8)+k), background_colour);
  400a04:	f8df a07c 	ldr.w	sl, [pc, #124]	; 400a84 <eink_ed028tc1_graphics_load_mono_image+0xac>
  400a08:	e02a      	b.n	400a60 <eink_ed028tc1_graphics_load_mono_image+0x88>
  400a0a:	f1b9 0f08 	cmp.w	r9, #8
  400a0e:	d004      	beq.n	400a1a <eink_ed028tc1_graphics_load_mono_image+0x42>
  400a10:	1931      	adds	r1, r6, r4
  400a12:	464a      	mov	r2, r9
  400a14:	b289      	uxth	r1, r1
  400a16:	9801      	ldr	r0, [sp, #4]
  400a18:	47d0      	blx	sl
  400a1a:	3401      	adds	r4, #1
                for (k = 0; k < 8; k++) {
  400a1c:	2c08      	cmp	r4, #8
  400a1e:	d00d      	beq.n	400a3c <eink_ed028tc1_graphics_load_mono_image+0x64>
                    bit_value = ((img_array[(i*image_height_bytes)+j] >> k) & 0x1);
  400a20:	782b      	ldrb	r3, [r5, #0]
  400a22:	4123      	asrs	r3, r4
                    if(bit_value) {
  400a24:	f013 0f01 	tst.w	r3, #1
  400a28:	d0ef      	beq.n	400a0a <eink_ed028tc1_graphics_load_mono_image+0x32>
                        if(foreground_colour != PIXEL_NONE) gfx_eink_set_pixel((x_place+i), (y_place+(m*8)+k), foreground_colour);
  400a2a:	f1b8 0f08 	cmp.w	r8, #8
  400a2e:	d0f4      	beq.n	400a1a <eink_ed028tc1_graphics_load_mono_image+0x42>
  400a30:	1931      	adds	r1, r6, r4
  400a32:	4642      	mov	r2, r8
  400a34:	b289      	uxth	r1, r1
  400a36:	9801      	ldr	r0, [sp, #4]
  400a38:	47d0      	blx	sl
  400a3a:	e7ee      	b.n	400a1a <eink_ed028tc1_graphics_load_mono_image+0x42>
            for (j = (image_height_bytes-1); j > 0; j--) {
  400a3c:	3f01      	subs	r7, #1
  400a3e:	b2bf      	uxth	r7, r7
  400a40:	3608      	adds	r6, #8
  400a42:	b2b6      	uxth	r6, r6
  400a44:	b12f      	cbz	r7, 400a52 <eink_ed028tc1_graphics_load_mono_image+0x7a>
                    bit_value = ((img_array[(i*image_height_bytes)+j] >> k) & 0x1);
  400a46:	eb07 050b 	add.w	r5, r7, fp
  400a4a:	9b02      	ldr	r3, [sp, #8]
  400a4c:	441d      	add	r5, r3
  400a4e:	2400      	movs	r4, #0
  400a50:	e7e6      	b.n	400a20 <eink_ed028tc1_graphics_load_mono_image+0x48>
        for (i = 0; i < image_width_px; i++) {
  400a52:	9b03      	ldr	r3, [sp, #12]
  400a54:	3301      	adds	r3, #1
  400a56:	b29b      	uxth	r3, r3
  400a58:	9303      	str	r3, [sp, #12]
  400a5a:	9a04      	ldr	r2, [sp, #16]
  400a5c:	429a      	cmp	r2, r3
  400a5e:	d90e      	bls.n	400a7e <eink_ed028tc1_graphics_load_mono_image+0xa6>
            for (j = (image_height_bytes-1); j > 0; j--) {
  400a60:	9a05      	ldr	r2, [sp, #20]
  400a62:	4613      	mov	r3, r2
  400a64:	1e57      	subs	r7, r2, #1
  400a66:	b2bf      	uxth	r7, r7
  400a68:	2f00      	cmp	r7, #0
  400a6a:	d0f2      	beq.n	400a52 <eink_ed028tc1_graphics_load_mono_image+0x7a>
                    bit_value = ((img_array[(i*image_height_bytes)+j] >> k) & 0x1);
  400a6c:	9903      	ldr	r1, [sp, #12]
  400a6e:	fb03 fb01 	mul.w	fp, r3, r1
  400a72:	9e07      	ldr	r6, [sp, #28]
                        if(background_colour != PIXEL_NONE) gfx_eink_set_pixel((x_place+i), (y_place+(m*8)+k), background_colour);
  400a74:	9b06      	ldr	r3, [sp, #24]
  400a76:	440b      	add	r3, r1
  400a78:	b29b      	uxth	r3, r3
  400a7a:	9301      	str	r3, [sp, #4]
  400a7c:	e7e3      	b.n	400a46 <eink_ed028tc1_graphics_load_mono_image+0x6e>
                m++;
            }
        }
    }
    return;
}
  400a7e:	b009      	add	sp, #36	; 0x24
  400a80:	e8bd 8ff0 	ldmia.w	sp!, {r4, r5, r6, r7, r8, r9, sl, fp, pc}
  400a84:	004004a1 	.word	0x004004a1

00400a88 <eink_ed037tc1_graphics_load_mono_image>:
 * \param y_place Y location to place with bitmap.
 * \param foreground_colour Color of the foreground - where bit is equal to 1 in the array.
 * \param eink_pixel_colour Color of the background - where bit is equal to 0 in the array.
 */
void eink_ed037tc1_graphics_load_mono_image(uint8_t *img_array, uint16_t array_size, eink_coordinate image_width_px, eink_coordinate image_height_bytes, eink_coordinate x_place, eink_coordinate y_place, enum eink_pixel_colour foreground_colour, enum eink_pixel_colour background_colour)
{
  400a88:	e92d 4ff0 	stmdb	sp!, {r4, r5, r6, r7, r8, r9, sl, fp, lr}
  400a8c:	b087      	sub	sp, #28
  400a8e:	f8bd 9040 	ldrh.w	r9, [sp, #64]	; 0x40
  400a92:	f8bd 1044 	ldrh.w	r1, [sp, #68]	; 0x44
  400a96:	9105      	str	r1, [sp, #20]
  400a98:	f89d 7048 	ldrb.w	r7, [sp, #72]	; 0x48
  400a9c:	f89d 804c 	ldrb.w	r8, [sp, #76]	; 0x4c
    uint16_t buffer_index, i, j;
    uint16_t k, l, m, bit_value;
    
    if(foreground_colour != background_colour) {
  400aa0:	4547      	cmp	r7, r8
  400aa2:	d045      	beq.n	400b30 <eink_ed037tc1_graphics_load_mono_image+0xa8>
        /* Scan pixels by column */
        for (i = 0; i < image_width_px; i++) {
  400aa4:	2a00      	cmp	r2, #0
  400aa6:	d043      	beq.n	400b30 <eink_ed037tc1_graphics_load_mono_image+0xa8>
  400aa8:	4619      	mov	r1, r3
  400aaa:	9304      	str	r3, [sp, #16]
  400aac:	4613      	mov	r3, r2
  400aae:	9102      	str	r1, [sp, #8]
  400ab0:	1842      	adds	r2, r0, r1
  400ab2:	9201      	str	r2, [sp, #4]
  400ab4:	444b      	add	r3, r9
  400ab6:	b29b      	uxth	r3, r3
  400ab8:	9303      	str	r3, [sp, #12]
                    
                    bit_value = ((img_array[(i*image_height_bytes)+j-1] >> k) & 0x1);
                    if(bit_value) {
                        if(foreground_colour != PIXEL_NONE) gfx_eink_set_pixel((x_place+i), (y_place+(m*8)+k), foreground_colour);
                    } else {
                        if(background_colour != PIXEL_NONE) gfx_eink_set_pixel((x_place+i), (y_place+(m*8)+k), background_colour);
  400aba:	f8df a07c 	ldr.w	sl, [pc, #124]	; 400b38 <eink_ed037tc1_graphics_load_mono_image+0xb0>
  400abe:	e02a      	b.n	400b16 <eink_ed037tc1_graphics_load_mono_image+0x8e>
  400ac0:	f1b8 0f08 	cmp.w	r8, #8
  400ac4:	d004      	beq.n	400ad0 <eink_ed037tc1_graphics_load_mono_image+0x48>
  400ac6:	1931      	adds	r1, r6, r4
  400ac8:	4642      	mov	r2, r8
  400aca:	b289      	uxth	r1, r1
  400acc:	4648      	mov	r0, r9
  400ace:	47d0      	blx	sl
  400ad0:	3401      	adds	r4, #1
                for (k = 0; k < 8; k++) {
  400ad2:	2c08      	cmp	r4, #8
  400ad4:	d00d      	beq.n	400af2 <eink_ed037tc1_graphics_load_mono_image+0x6a>
                    bit_value = ((img_array[(i*image_height_bytes)+j-1] >> k) & 0x1);
  400ad6:	f815 3c01 	ldrb.w	r3, [r5, #-1]
  400ada:	4123      	asrs	r3, r4
                    if(bit_value) {
  400adc:	f013 0f01 	tst.w	r3, #1
  400ae0:	d0ee      	beq.n	400ac0 <eink_ed037tc1_graphics_load_mono_image+0x38>
                        if(foreground_colour != PIXEL_NONE) gfx_eink_set_pixel((x_place+i), (y_place+(m*8)+k), foreground_colour);
  400ae2:	2f08      	cmp	r7, #8
  400ae4:	d0f4      	beq.n	400ad0 <eink_ed037tc1_graphics_load_mono_image+0x48>
  400ae6:	1931      	adds	r1, r6, r4
  400ae8:	463a      	mov	r2, r7
  400aea:	b289      	uxth	r1, r1
  400aec:	4648      	mov	r0, r9
  400aee:	47d0      	blx	sl
  400af0:	e7ee      	b.n	400ad0 <eink_ed037tc1_graphics_load_mono_image+0x48>
  400af2:	3608      	adds	r6, #8
  400af4:	b2b6      	uxth	r6, r6
  400af6:	3d01      	subs	r5, #1
            for (j = image_height_bytes; j > 0; j--) {
  400af8:	455d      	cmp	r5, fp
  400afa:	d001      	beq.n	400b00 <eink_ed037tc1_graphics_load_mono_image+0x78>
{
  400afc:	2400      	movs	r4, #0
  400afe:	e7ea      	b.n	400ad6 <eink_ed037tc1_graphics_load_mono_image+0x4e>
  400b00:	f109 0901 	add.w	r9, r9, #1
  400b04:	fa1f f989 	uxth.w	r9, r9
  400b08:	9b01      	ldr	r3, [sp, #4]
  400b0a:	9a02      	ldr	r2, [sp, #8]
  400b0c:	4413      	add	r3, r2
  400b0e:	9301      	str	r3, [sp, #4]
        for (i = 0; i < image_width_px; i++) {
  400b10:	9b03      	ldr	r3, [sp, #12]
  400b12:	4599      	cmp	r9, r3
  400b14:	d00c      	beq.n	400b30 <eink_ed037tc1_graphics_load_mono_image+0xa8>
            for (j = image_height_bytes; j > 0; j--) {
  400b16:	9b04      	ldr	r3, [sp, #16]
  400b18:	2b00      	cmp	r3, #0
  400b1a:	d0f1      	beq.n	400b00 <eink_ed037tc1_graphics_load_mono_image+0x78>
  400b1c:	f1c3 0b00 	rsb	fp, r3, #0
  400b20:	ea6f 4b0b 	mvn.w	fp, fp, lsl #16
  400b24:	ea6f 4b1b 	mvn.w	fp, fp, lsr #16
  400b28:	9d01      	ldr	r5, [sp, #4]
  400b2a:	44ab      	add	fp, r5
  400b2c:	9e05      	ldr	r6, [sp, #20]
  400b2e:	e7e5      	b.n	400afc <eink_ed037tc1_graphics_load_mono_image+0x74>
                m++;
            }
        }
    }
    return;
}
  400b30:	b007      	add	sp, #28
  400b32:	e8bd 8ff0 	ldmia.w	sp!, {r4, r5, r6, r7, r8, r9, sl, fp, pc}
  400b36:	bf00      	nop
  400b38:	004004a1 	.word	0x004004a1

00400b3c <it8951_wait_for_hrdy>:
 *
 * This functions will read the IT8951's busy status by reading the HRDY pin and will
 * hold the MCU until it returns HIGH again.
 */
static inline void it8951_wait_for_hrdy(void)
{
  400b3c:	4770      	bx	lr
	...

00400b40 <eink_interface_init>:
 *
 * \note Initializes the display controller hardware interface, regardless
 * of driver IC, interface or display. Takes definitions from conf_eink.h.
 */
static void eink_interface_init(uint8_t f_init)
{
  400b40:	b4f0      	push	{r4, r5, r6, r7}
	((Pio *)hw)->PIO_OER = mask;
  400b42:	4b14      	ldr	r3, [pc, #80]	; (400b94 <eink_interface_init+0x54>)
  400b44:	f04f 6780 	mov.w	r7, #67108864	; 0x4000000
  400b48:	611f      	str	r7, [r3, #16]
  400b4a:	f44f 3600 	mov.w	r6, #131072	; 0x20000
  400b4e:	611e      	str	r6, [r3, #16]
  400b50:	f44f 6500 	mov.w	r5, #2048	; 0x800
  400b54:	611d      	str	r5, [r3, #16]
  400b56:	f44f 5400 	mov.w	r4, #8192	; 0x2000
  400b5a:	611c      	str	r4, [r3, #16]
  400b5c:	f44f 5080 	mov.w	r0, #4096	; 0x1000
  400b60:	6118      	str	r0, [r3, #16]
  400b62:	f44f 4180 	mov.w	r1, #16384	; 0x4000
  400b66:	6119      	str	r1, [r3, #16]
	((Pio *)hw)->PIO_CODR = mask;
  400b68:	635f      	str	r7, [r3, #52]	; 0x34
	((Pio *)hw)->PIO_SODR = mask;
  400b6a:	631e      	str	r6, [r3, #48]	; 0x30
  400b6c:	631d      	str	r5, [r3, #48]	; 0x30
  400b6e:	631c      	str	r4, [r3, #48]	; 0x30
	((Pio *)hw)->PIO_CODR = mask;
  400b70:	6358      	str	r0, [r3, #52]	; 0x34
  400b72:	6359      	str	r1, [r3, #52]	; 0x34
	((Pio *)hw)->PIO_ODR = mask;
  400b74:	f04f 7200 	mov.w	r2, #33554432	; 0x2000000
  400b78:	615a      	str	r2, [r3, #20]
	((Pio *)hw)->PIO_PPDDR = mask;
  400b7a:	f8c3 2090 	str.w	r2, [r3, #144]	; 0x90
	((Pio *)hw)->PIO_PUER = mask;
  400b7e:	665a      	str	r2, [r3, #100]	; 0x64
	((Pio *)hw)->PIO_PER = mask;
  400b80:	601f      	str	r7, [r3, #0]
  400b82:	601e      	str	r6, [r3, #0]
  400b84:	601d      	str	r5, [r3, #0]
  400b86:	601c      	str	r4, [r3, #0]
  400b88:	6018      	str	r0, [r3, #0]
  400b8a:	6019      	str	r1, [r3, #0]
  400b8c:	601a      	str	r2, [r3, #0]
#endif
    
#ifdef EINK_BUSY
    gpio_set_pin_function(EINK_BUSY, GPIO_PIN_FUNCTION_OFF);
#endif
}
  400b8e:	bcf0      	pop	{r4, r5, r6, r7}
  400b90:	4770      	bx	lr
  400b92:	bf00      	nop
  400b94:	400e0e00 	.word	0x400e0e00

00400b98 <eink_ed037tc1_set_pixel_raw>:
    if ( (x_set >= 0) && (x_set < ssd1677_global_instance.display_width) && (y_set >= 0) && (y_set < ssd1677_global_instance.display_height) ) {
  400b98:	4b39      	ldr	r3, [pc, #228]	; (400c80 <eink_ed037tc1_set_pixel_raw+0xe8>)
  400b9a:	889b      	ldrh	r3, [r3, #4]
  400b9c:	b29b      	uxth	r3, r3
  400b9e:	4283      	cmp	r3, r0
  400ba0:	d939      	bls.n	400c16 <eink_ed037tc1_set_pixel_raw+0x7e>
  400ba2:	4b37      	ldr	r3, [pc, #220]	; (400c80 <eink_ed037tc1_set_pixel_raw+0xe8>)
  400ba4:	88db      	ldrh	r3, [r3, #6]
  400ba6:	b29b      	uxth	r3, r3
  400ba8:	428b      	cmp	r3, r1
  400baa:	d934      	bls.n	400c16 <eink_ed037tc1_set_pixel_raw+0x7e>
{    
  400bac:	b430      	push	{r4, r5}
        if (ssd1677_global_instance.panel_settings.display_rotation == ROTATE_90) {
  400bae:	4b34      	ldr	r3, [pc, #208]	; (400c80 <eink_ed037tc1_set_pixel_raw+0xe8>)
  400bb0:	781b      	ldrb	r3, [r3, #0]
  400bb2:	b2db      	uxtb	r3, r3
  400bb4:	2b01      	cmp	r3, #1
  400bb6:	d02f      	beq.n	400c18 <eink_ed037tc1_set_pixel_raw+0x80>
        } else if (ssd1677_global_instance.panel_settings.display_rotation == ROTATE_180) {
  400bb8:	4b31      	ldr	r3, [pc, #196]	; (400c80 <eink_ed037tc1_set_pixel_raw+0xe8>)
  400bba:	781b      	ldrb	r3, [r3, #0]
  400bbc:	b2db      	uxtb	r3, r3
  400bbe:	2b02      	cmp	r3, #2
  400bc0:	d035      	beq.n	400c2e <eink_ed037tc1_set_pixel_raw+0x96>
        } else if (ssd1677_global_instance.panel_settings.display_rotation == ROTATE_270) {
  400bc2:	4b2f      	ldr	r3, [pc, #188]	; (400c80 <eink_ed037tc1_set_pixel_raw+0xe8>)
  400bc4:	781b      	ldrb	r3, [r3, #0]
  400bc6:	b2db      	uxtb	r3, r3
  400bc8:	2b03      	cmp	r3, #3
  400bca:	d03e      	beq.n	400c4a <eink_ed037tc1_set_pixel_raw+0xb2>
            byte_set = x1_set + ((GFX_ED037TC1_MAX_WIDTH/8) * y_set);
  400bcc:	eb01 0181 	add.w	r1, r1, r1, lsl #2
  400bd0:	ebc1 01c1 	rsb	r1, r1, r1, lsl #3
  400bd4:	eb01 03e0 	add.w	r3, r1, r0, asr #3
            bit_set = 7 - (x_set % 8);
  400bd8:	43c0      	mvns	r0, r0
  400bda:	f000 0007 	and.w	r0, r0, #7
		eink_set_bit(&ptr_eink_gfx_config->display_buffer_1_ptr[byte_set], bit_set, (pixel_set & 0x1));
  400bde:	4929      	ldr	r1, [pc, #164]	; (400c84 <eink_ed037tc1_set_pixel_raw+0xec>)
  400be0:	6809      	ldr	r1, [r1, #0]
  400be2:	6909      	ldr	r1, [r1, #16]
 * \param bit_value Bit value.
 */
void eink_set_bit(uint8_t *byte, uint8_t bit_number, bool bit_value)
{
    /* Update the byte to either set or clear the selected bit */   
    if (bit_value == 1) {
  400be4:	f012 0f01 	tst.w	r2, #1
  400be8:	d13b      	bne.n	400c62 <eink_ed037tc1_set_pixel_raw+0xca>
        *byte |= 1 << bit_number;
    } else {
        *byte &= ~(1 << bit_number);
  400bea:	b2c5      	uxtb	r5, r0
  400bec:	2401      	movs	r4, #1
  400bee:	fa04 f505 	lsl.w	r5, r4, r5
  400bf2:	5ccc      	ldrb	r4, [r1, r3]
  400bf4:	ea24 0405 	bic.w	r4, r4, r5
  400bf8:	54cc      	strb	r4, [r1, r3]
		eink_set_bit(&ptr_eink_gfx_config->display_buffer_2_ptr[byte_set], bit_set, ((pixel_set >> 1) & 0x1));
  400bfa:	4922      	ldr	r1, [pc, #136]	; (400c84 <eink_ed037tc1_set_pixel_raw+0xec>)
  400bfc:	6809      	ldr	r1, [r1, #0]
  400bfe:	694c      	ldr	r4, [r1, #20]
    if (bit_value == 1) {
  400c00:	f012 0f02 	tst.w	r2, #2
  400c04:	d134      	bne.n	400c70 <eink_ed037tc1_set_pixel_raw+0xd8>
        *byte &= ~(1 << bit_number);
  400c06:	b2c0      	uxtb	r0, r0
  400c08:	2101      	movs	r1, #1
  400c0a:	4081      	lsls	r1, r0
  400c0c:	5ce0      	ldrb	r0, [r4, r3]
  400c0e:	ea20 0001 	bic.w	r0, r0, r1
  400c12:	54e0      	strb	r0, [r4, r3]
}
  400c14:	bc30      	pop	{r4, r5}
  400c16:	4770      	bx	lr
            y1_set = ((GFX_ED037TC1_MAX_WIDTH / 8) - 1) - ((y_set - (y_set % 8)) / 8);
  400c18:	10cb      	asrs	r3, r1, #3
  400c1a:	f1c3 0322 	rsb	r3, r3, #34	; 0x22
            byte_set = y1_set + ((GFX_ED037TC1_MAX_WIDTH/8) * (x_set));
  400c1e:	eb00 0080 	add.w	r0, r0, r0, lsl #2
  400c22:	ebc0 00c0 	rsb	r0, r0, r0, lsl #3
  400c26:	4403      	add	r3, r0
            bit_set = y_set % 8;
  400c28:	f001 0007 	and.w	r0, r1, #7
  400c2c:	e7d7      	b.n	400bde <eink_ed037tc1_set_pixel_raw+0x46>
            x1_set = (GFX_ED037TC1_MAX_WIDTH - 1) - ((x_set - (x_set % 8)) / 8);
  400c2e:	f240 1417 	movw	r4, #279	; 0x117
  400c32:	eba4 04e0 	sub.w	r4, r4, r0, asr #3
            byte_set = ( ((GFX_ED037TC1_MAX_HEIGHT - 1) * (GFX_ED037TC1_MAX_WIDTH/8)) - (y_set * (GFX_ED037TC1_MAX_WIDTH/8)) + x1_set );
  400c36:	f06f 0322 	mvn.w	r3, #34	; 0x22
  400c3a:	fb03 4101 	mla	r1, r3, r1, r4
  400c3e:	f501 4382 	add.w	r3, r1, #16640	; 0x4100
  400c42:	337d      	adds	r3, #125	; 0x7d
            bit_set = x_set % 8;
  400c44:	f000 0007 	and.w	r0, r0, #7
  400c48:	e7c9      	b.n	400bde <eink_ed037tc1_set_pixel_raw+0x46>
            byte_set = ( ((GFX_ED037TC1_MAX_HEIGHT - 1) * (GFX_ED037TC1_MAX_WIDTH/8)) - (x_set * (GFX_ED037TC1_MAX_WIDTH/8)) + y1_set );
  400c4a:	f244 137d 	movw	r3, #16765	; 0x417d
  400c4e:	eb03 03e1 	add.w	r3, r3, r1, asr #3
  400c52:	f06f 0422 	mvn.w	r4, #34	; 0x22
  400c56:	fb04 3300 	mla	r3, r4, r0, r3
            bit_set = 7 - (y_set % 8);
  400c5a:	43c8      	mvns	r0, r1
  400c5c:	f000 0007 	and.w	r0, r0, #7
  400c60:	e7bd      	b.n	400bde <eink_ed037tc1_set_pixel_raw+0x46>
        *byte |= 1 << bit_number;
  400c62:	b2c5      	uxtb	r5, r0
  400c64:	2401      	movs	r4, #1
  400c66:	40ac      	lsls	r4, r5
  400c68:	5ccd      	ldrb	r5, [r1, r3]
  400c6a:	432c      	orrs	r4, r5
  400c6c:	54cc      	strb	r4, [r1, r3]
  400c6e:	e7c4      	b.n	400bfa <eink_ed037tc1_set_pixel_raw+0x62>
  400c70:	b2c0      	uxtb	r0, r0
  400c72:	2201      	movs	r2, #1
  400c74:	fa02 f000 	lsl.w	r0, r2, r0
  400c78:	5ce2      	ldrb	r2, [r4, r3]
  400c7a:	4310      	orrs	r0, r2
  400c7c:	54e0      	strb	r0, [r4, r3]
  400c7e:	e7c9      	b.n	400c14 <eink_ed037tc1_set_pixel_raw+0x7c>
  400c80:	20000524 	.word	0x20000524
  400c84:	20000544 	.word	0x20000544

00400c88 <eink_ed037tc1_set_pixel>:
{
  400c88:	b508      	push	{r3, lr}
    switch(pixel_colour) {
  400c8a:	b11a      	cbz	r2, 400c94 <eink_ed037tc1_set_pixel+0xc>
            eink_ed037tc1_set_pixel_raw(x_set, y_set, 0xF);
  400c8c:	220f      	movs	r2, #15
  400c8e:	4b03      	ldr	r3, [pc, #12]	; (400c9c <eink_ed037tc1_set_pixel+0x14>)
  400c90:	4798      	blx	r3
  400c92:	bd08      	pop	{r3, pc}
            eink_ed037tc1_set_pixel_raw(x_set, y_set, 0x0);
  400c94:	4b01      	ldr	r3, [pc, #4]	; (400c9c <eink_ed037tc1_set_pixel+0x14>)
  400c96:	4798      	blx	r3
            break;
  400c98:	bd08      	pop	{r3, pc}
  400c9a:	bf00      	nop
  400c9c:	00400b99 	.word	0x00400b99

00400ca0 <eink_ed037tc1_graphics_load_2bgrey_image>:
 *                           as a multiple of 8.
 * \param x_place X location to place with bitmap.
 * \param y_place Y location to place with bitmap.
 */
void eink_ed037tc1_graphics_load_2bgrey_image(uint8_t *img_array, uint16_t array_size, eink_coordinate image_width_px, eink_coordinate image_height_bytes, eink_coordinate x_place, eink_coordinate y_place)
{
  400ca0:	e92d 4ff0 	stmdb	sp!, {r4, r5, r6, r7, r8, r9, sl, fp, lr}
  400ca4:	b087      	sub	sp, #28
  400ca6:	f8bd 1040 	ldrh.w	r1, [sp, #64]	; 0x40
  400caa:	9102      	str	r1, [sp, #8]
    uint16_t buffer_index, i, j;
    uint16_t k, l, m, bit_value[4];
    
    /* Scan pixels by column */
    for (i = 0; i < image_width_px; i++) {
  400cac:	2a00      	cmp	r2, #0
  400cae:	d047      	beq.n	400d40 <eink_ed037tc1_graphics_load_2bgrey_image+0xa0>
  400cb0:	9201      	str	r2, [sp, #4]
  400cb2:	9305      	str	r3, [sp, #20]
  400cb4:	9004      	str	r0, [sp, #16]
  400cb6:	f04f 0a00 	mov.w	sl, #0
        m = 0;
        for (j = (image_height_bytes-1); j > 0; j--) {
  400cba:	f103 3bff 	add.w	fp, r3, #4294967295
  400cbe:	fa1f fb8b 	uxth.w	fp, fp
            /* Process each pixel in byte  */
            bit_value[0] = ((img_array[(i*image_height_bytes)+j]) & 0x3);
  400cc2:	f8bd 3044 	ldrh.w	r3, [sp, #68]	; 0x44
  400cc6:	9303      	str	r3, [sp, #12]
            bit_value[1] = ((img_array[(i*image_height_bytes)+j] >> 2) & 0x3);
            bit_value[2] = ((img_array[(i*image_height_bytes)+j] >> 4) & 0x3);
            bit_value[3] = ((img_array[(i*image_height_bytes)+j] >> 6) & 0x3);
            /* Set the pixel in the display buffer */
            eink_ed037tc1_set_pixel_raw((x_place+i), (y_place+m), (~bit_value[0]));
  400cc8:	f8df 807c 	ldr.w	r8, [pc, #124]	; 400d48 <eink_ed037tc1_graphics_load_2bgrey_image+0xa8>
        for (j = (image_height_bytes-1); j > 0; j--) {
  400ccc:	465e      	mov	r6, fp
  400cce:	f1bb 0f00 	cmp.w	fp, #0
  400cd2:	d02e      	beq.n	400d32 <eink_ed037tc1_graphics_load_2bgrey_image+0x92>
            bit_value[0] = ((img_array[(i*image_height_bytes)+j]) & 0x3);
  400cd4:	9c03      	ldr	r4, [sp, #12]
  400cd6:	9b05      	ldr	r3, [sp, #20]
  400cd8:	9a04      	ldr	r2, [sp, #16]
  400cda:	fb03 290a 	mla	r9, r3, sl, r2
            eink_ed037tc1_set_pixel_raw((x_place+i), (y_place+m), (~bit_value[0]));
  400cde:	9b02      	ldr	r3, [sp, #8]
  400ce0:	eb03 070a 	add.w	r7, r3, sl
  400ce4:	b2bf      	uxth	r7, r7
            bit_value[0] = ((img_array[(i*image_height_bytes)+j]) & 0x3);
  400ce6:	f819 5006 	ldrb.w	r5, [r9, r6]
            eink_ed037tc1_set_pixel_raw((x_place+i), (y_place+m), (~bit_value[0]));
  400cea:	f005 0203 	and.w	r2, r5, #3
  400cee:	f082 02ff 	eor.w	r2, r2, #255	; 0xff
  400cf2:	4621      	mov	r1, r4
  400cf4:	4638      	mov	r0, r7
  400cf6:	47c0      	blx	r8
            eink_ed037tc1_set_pixel_raw((x_place+i), (y_place+m+1), (~bit_value[1]));
  400cf8:	f3c5 0281 	ubfx	r2, r5, #2, #2
  400cfc:	1c61      	adds	r1, r4, #1
  400cfe:	f082 02ff 	eor.w	r2, r2, #255	; 0xff
  400d02:	b289      	uxth	r1, r1
  400d04:	4638      	mov	r0, r7
  400d06:	47c0      	blx	r8
            eink_ed037tc1_set_pixel_raw((x_place+i), (y_place+m+2), (~bit_value[2]));
  400d08:	f3c5 1201 	ubfx	r2, r5, #4, #2
  400d0c:	1ca1      	adds	r1, r4, #2
  400d0e:	f082 02ff 	eor.w	r2, r2, #255	; 0xff
  400d12:	b289      	uxth	r1, r1
  400d14:	4638      	mov	r0, r7
  400d16:	47c0      	blx	r8
            eink_ed037tc1_set_pixel_raw((x_place+i), (y_place+m+3), (~bit_value[3]));
  400d18:	ea6f 1295 	mvn.w	r2, r5, lsr #6
  400d1c:	1ce1      	adds	r1, r4, #3
  400d1e:	b2d2      	uxtb	r2, r2
  400d20:	b289      	uxth	r1, r1
  400d22:	4638      	mov	r0, r7
  400d24:	47c0      	blx	r8
        for (j = (image_height_bytes-1); j > 0; j--) {
  400d26:	3e01      	subs	r6, #1
  400d28:	b2b6      	uxth	r6, r6
  400d2a:	3404      	adds	r4, #4
  400d2c:	b2a4      	uxth	r4, r4
  400d2e:	2e00      	cmp	r6, #0
  400d30:	d1d9      	bne.n	400ce6 <eink_ed037tc1_graphics_load_2bgrey_image+0x46>
    for (i = 0; i < image_width_px; i++) {
  400d32:	f10a 0a01 	add.w	sl, sl, #1
  400d36:	fa1f fa8a 	uxth.w	sl, sl
  400d3a:	9b01      	ldr	r3, [sp, #4]
  400d3c:	4553      	cmp	r3, sl
  400d3e:	d8c5      	bhi.n	400ccc <eink_ed037tc1_graphics_load_2bgrey_image+0x2c>
            m += 4;
        }
    }
    return;
  400d40:	b007      	add	sp, #28
  400d42:	e8bd 8ff0 	ldmia.w	sp!, {r4, r5, r6, r7, r8, r9, sl, fp, pc}
  400d46:	bf00      	nop
  400d48:	00400b99 	.word	0x00400b99

00400d4c <eink_ed028tc1_set_pixel_raw>:
{    
  400d4c:	b410      	push	{r4}
    if ( (x_set >= 0) && (x_set < uc8177_global_instance.display_width) && (y_set >= 0) && (y_set < uc8177_global_instance.display_height) ) {
  400d4e:	4c44      	ldr	r4, [pc, #272]	; (400e60 <eink_ed028tc1_set_pixel_raw+0x114>)
  400d50:	8864      	ldrh	r4, [r4, #2]
  400d52:	b2a4      	uxth	r4, r4
  400d54:	4284      	cmp	r4, r0
  400d56:	d94f      	bls.n	400df8 <eink_ed028tc1_set_pixel_raw+0xac>
  400d58:	4c41      	ldr	r4, [pc, #260]	; (400e60 <eink_ed028tc1_set_pixel_raw+0x114>)
  400d5a:	88a4      	ldrh	r4, [r4, #4]
  400d5c:	b2a4      	uxth	r4, r4
  400d5e:	428c      	cmp	r4, r1
  400d60:	d94a      	bls.n	400df8 <eink_ed028tc1_set_pixel_raw+0xac>
        if ( (uc8177_global_instance.display_config.display_rotation == ROTATE_0) || (uc8177_global_instance.display_config.display_rotation == ROTATE_180) ) {
  400d62:	4b3f      	ldr	r3, [pc, #252]	; (400e60 <eink_ed028tc1_set_pixel_raw+0x114>)
  400d64:	781b      	ldrb	r3, [r3, #0]
  400d66:	b16b      	cbz	r3, 400d84 <eink_ed028tc1_set_pixel_raw+0x38>
  400d68:	4b3d      	ldr	r3, [pc, #244]	; (400e60 <eink_ed028tc1_set_pixel_raw+0x114>)
  400d6a:	781b      	ldrb	r3, [r3, #0]
  400d6c:	b2db      	uxtb	r3, r3
  400d6e:	2b02      	cmp	r3, #2
  400d70:	d008      	beq.n	400d84 <eink_ed028tc1_set_pixel_raw+0x38>
            byte_set = x1_set + ((GFX_ED028TC1_MAX_WIDTH / 2) * y_set);
  400d72:	f44f 7396 	mov.w	r3, #300	; 0x12c
  400d76:	fb03 f101 	mul.w	r1, r3, r1
  400d7a:	eb01 0350 	add.w	r3, r1, r0, lsr #1
            odd_even_bit = x_set % 2;
  400d7e:	f000 0101 	and.w	r1, r0, #1
  400d82:	e007      	b.n	400d94 <eink_ed028tc1_set_pixel_raw+0x48>
           byte_set = y1_set + ((GFX_ED028TC1_MAX_WIDTH / 2) * x_set);
  400d84:	f44f 7396 	mov.w	r3, #300	; 0x12c
  400d88:	fb03 f300 	mul.w	r3, r3, r0
  400d8c:	eb03 0351 	add.w	r3, r3, r1, lsr #1
           odd_even_bit = y_set % 2;
  400d90:	f001 0101 	and.w	r1, r1, #1
        if (odd_even_bit) {
  400d94:	2900      	cmp	r1, #0
  400d96:	d132      	bne.n	400dfe <eink_ed028tc1_set_pixel_raw+0xb2>
            eink_set_bit(&ptr_eink_gfx_config->display_buffer_1_ptr[byte_set], 7, ((pixel_set >> 3) & 0x1));
  400d98:	4932      	ldr	r1, [pc, #200]	; (400e64 <eink_ed028tc1_set_pixel_raw+0x118>)
  400d9a:	6809      	ldr	r1, [r1, #0]
  400d9c:	6909      	ldr	r1, [r1, #16]
    if (bit_value == 1) {
  400d9e:	f012 0f08 	tst.w	r2, #8
        *byte |= 1 << bit_number;
  400da2:	5cc8      	ldrb	r0, [r1, r3]
  400da4:	bf14      	ite	ne
  400da6:	f060 007f 	ornne	r0, r0, #127	; 0x7f
        *byte &= ~(1 << bit_number);
  400daa:	f000 007f 	andeq.w	r0, r0, #127	; 0x7f
  400dae:	54c8      	strb	r0, [r1, r3]
            eink_set_bit(&ptr_eink_gfx_config->display_buffer_1_ptr[byte_set], 6, ((pixel_set >> 2) & 0x1));
  400db0:	492c      	ldr	r1, [pc, #176]	; (400e64 <eink_ed028tc1_set_pixel_raw+0x118>)
  400db2:	6809      	ldr	r1, [r1, #0]
  400db4:	6909      	ldr	r1, [r1, #16]
    if (bit_value == 1) {
  400db6:	f012 0f04 	tst.w	r2, #4
        *byte |= 1 << bit_number;
  400dba:	5cc8      	ldrb	r0, [r1, r3]
  400dbc:	bf14      	ite	ne
  400dbe:	f040 0040 	orrne.w	r0, r0, #64	; 0x40
        *byte &= ~(1 << bit_number);
  400dc2:	f020 0040 	biceq.w	r0, r0, #64	; 0x40
  400dc6:	54c8      	strb	r0, [r1, r3]
            eink_set_bit(&ptr_eink_gfx_config->display_buffer_1_ptr[byte_set], 5, ((pixel_set >> 1) & 0x1));
  400dc8:	4926      	ldr	r1, [pc, #152]	; (400e64 <eink_ed028tc1_set_pixel_raw+0x118>)
  400dca:	6809      	ldr	r1, [r1, #0]
  400dcc:	6909      	ldr	r1, [r1, #16]
    if (bit_value == 1) {
  400dce:	f012 0f02 	tst.w	r2, #2
        *byte |= 1 << bit_number;
  400dd2:	5cc8      	ldrb	r0, [r1, r3]
  400dd4:	bf14      	ite	ne
  400dd6:	f040 0020 	orrne.w	r0, r0, #32
        *byte &= ~(1 << bit_number);
  400dda:	f020 0020 	biceq.w	r0, r0, #32
  400dde:	54c8      	strb	r0, [r1, r3]
            eink_set_bit(&ptr_eink_gfx_config->display_buffer_1_ptr[byte_set], 4, (pixel_set & 0x1));
  400de0:	4920      	ldr	r1, [pc, #128]	; (400e64 <eink_ed028tc1_set_pixel_raw+0x118>)
  400de2:	6809      	ldr	r1, [r1, #0]
  400de4:	6909      	ldr	r1, [r1, #16]
    if (bit_value == 1) {
  400de6:	f012 0f01 	tst.w	r2, #1
        *byte |= 1 << bit_number;
  400dea:	5cca      	ldrb	r2, [r1, r3]
  400dec:	bf14      	ite	ne
  400dee:	f042 0210 	orrne.w	r2, r2, #16
        *byte &= ~(1 << bit_number);
  400df2:	f022 0210 	biceq.w	r2, r2, #16
  400df6:	54ca      	strb	r2, [r1, r3]
}
  400df8:	f85d 4b04 	ldr.w	r4, [sp], #4
  400dfc:	4770      	bx	lr
            eink_set_bit(&ptr_eink_gfx_config->display_buffer_1_ptr[byte_set], 3, ((pixel_set >> 3) & 0x1));
  400dfe:	4919      	ldr	r1, [pc, #100]	; (400e64 <eink_ed028tc1_set_pixel_raw+0x118>)
  400e00:	6809      	ldr	r1, [r1, #0]
  400e02:	6909      	ldr	r1, [r1, #16]
    if (bit_value == 1) {
  400e04:	f012 0f08 	tst.w	r2, #8
        *byte |= 1 << bit_number;
  400e08:	5cc8      	ldrb	r0, [r1, r3]
  400e0a:	bf14      	ite	ne
  400e0c:	f040 0008 	orrne.w	r0, r0, #8
        *byte &= ~(1 << bit_number);
  400e10:	f020 0008 	biceq.w	r0, r0, #8
  400e14:	54c8      	strb	r0, [r1, r3]
            eink_set_bit(&ptr_eink_gfx_config->display_buffer_1_ptr[byte_set], 2, ((pixel_set >> 2) & 0x1));
  400e16:	4913      	ldr	r1, [pc, #76]	; (400e64 <eink_ed028tc1_set_pixel_raw+0x118>)
  400e18:	6809      	ldr	r1, [r1, #0]
  400e1a:	6909      	ldr	r1, [r1, #16]
    if (bit_value == 1) {
  400e1c:	f012 0f04 	tst.w	r2, #4
        *byte |= 1 << bit_number;
  400e20:	5cc8      	ldrb	r0, [r1, r3]
  400e22:	bf14      	ite	ne
  400e24:	f040 0004 	orrne.w	r0, r0, #4
        *byte &= ~(1 << bit_number);
  400e28:	f020 0004 	biceq.w	r0, r0, #4
  400e2c:	54c8      	strb	r0, [r1, r3]
            eink_set_bit(&ptr_eink_gfx_config->display_buffer_1_ptr[byte_set], 1, ((pixel_set >> 1) & 0x1));
  400e2e:	490d      	ldr	r1, [pc, #52]	; (400e64 <eink_ed028tc1_set_pixel_raw+0x118>)
  400e30:	6809      	ldr	r1, [r1, #0]
  400e32:	6909      	ldr	r1, [r1, #16]
    if (bit_value == 1) {
  400e34:	f012 0f02 	tst.w	r2, #2
        *byte |= 1 << bit_number;
  400e38:	5cc8      	ldrb	r0, [r1, r3]
  400e3a:	bf14      	ite	ne
  400e3c:	f040 0002 	orrne.w	r0, r0, #2
        *byte &= ~(1 << bit_number);
  400e40:	f020 0002 	biceq.w	r0, r0, #2
  400e44:	54c8      	strb	r0, [r1, r3]
            eink_set_bit(&ptr_eink_gfx_config->display_buffer_1_ptr[byte_set], 0, (pixel_set & 0x1));
  400e46:	4907      	ldr	r1, [pc, #28]	; (400e64 <eink_ed028tc1_set_pixel_raw+0x118>)
  400e48:	6809      	ldr	r1, [r1, #0]
  400e4a:	6909      	ldr	r1, [r1, #16]
    if (bit_value == 1) {
  400e4c:	f012 0f01 	tst.w	r2, #1
        *byte |= 1 << bit_number;
  400e50:	5cca      	ldrb	r2, [r1, r3]
  400e52:	bf14      	ite	ne
  400e54:	f042 0201 	orrne.w	r2, r2, #1
        *byte &= ~(1 << bit_number);
  400e58:	f022 0201 	biceq.w	r2, r2, #1
  400e5c:	54ca      	strb	r2, [r1, r3]
  400e5e:	e7cb      	b.n	400df8 <eink_ed028tc1_set_pixel_raw+0xac>
  400e60:	200004c0 	.word	0x200004c0
  400e64:	20000544 	.word	0x20000544

00400e68 <eink_ed028tc1_set_pixel>:
{    
  400e68:	b508      	push	{r3, lr}
    switch(pixel_colour) {
  400e6a:	b11a      	cbz	r2, 400e74 <eink_ed028tc1_set_pixel+0xc>
            eink_ed028tc1_set_pixel_raw(x_set, y_set, 0xF);
  400e6c:	220f      	movs	r2, #15
  400e6e:	4b03      	ldr	r3, [pc, #12]	; (400e7c <eink_ed028tc1_set_pixel+0x14>)
  400e70:	4798      	blx	r3
  400e72:	bd08      	pop	{r3, pc}
            eink_ed028tc1_set_pixel_raw(x_set, y_set, 0x0);
  400e74:	4b01      	ldr	r3, [pc, #4]	; (400e7c <eink_ed028tc1_set_pixel+0x14>)
  400e76:	4798      	blx	r3
            break;
  400e78:	bd08      	pop	{r3, pc}
  400e7a:	bf00      	nop
  400e7c:	00400d4d 	.word	0x00400d4d

00400e80 <eink_ed028tc1_graphics_load_4bgrey_image>:
 *                           as a multiple of 8.
 * \param x_place X location to place with bitmap.
 * \param y_place Y location to place with bitmap.
 */
void eink_ed028tc1_graphics_load_4bgrey_image(uint8_t *img_array, uint16_t array_size, eink_coordinate image_width_px, eink_coordinate image_height_bytes, eink_coordinate x_place, eink_coordinate y_place)
{
  400e80:	e92d 4ff0 	stmdb	sp!, {r4, r5, r6, r7, r8, r9, sl, fp, lr}
  400e84:	b087      	sub	sp, #28
  400e86:	f8bd 1040 	ldrh.w	r1, [sp, #64]	; 0x40
  400e8a:	9102      	str	r1, [sp, #8]
    uint16_t buffer_index, i, j;
    uint16_t k, l, m, bit_value_1, bit_value_2;
    
    /* Scan pixels by column */
    for (i = 0; i < image_width_px; i++) {
  400e8c:	2a00      	cmp	r2, #0
  400e8e:	d037      	beq.n	400f00 <eink_ed028tc1_graphics_load_4bgrey_image+0x80>
  400e90:	9201      	str	r2, [sp, #4]
  400e92:	9305      	str	r3, [sp, #20]
  400e94:	9004      	str	r0, [sp, #16]
  400e96:	f04f 0a00 	mov.w	sl, #0
        m = 0;
        for (j = (image_height_bytes-1); j > 0; j--) {
  400e9a:	f103 3bff 	add.w	fp, r3, #4294967295
  400e9e:	fa1f fb8b 	uxth.w	fp, fp
            /* Process each pixel in byte  */
            bit_value_1 = ((img_array[(i*image_height_bytes)+j]) & 0xF);
  400ea2:	f8bd 3044 	ldrh.w	r3, [sp, #68]	; 0x44
  400ea6:	9303      	str	r3, [sp, #12]
            bit_value_2 = ((img_array[(i*image_height_bytes)+j] >> 4) & 0xF);
            /* Set the pixel in the display buffer */
            eink_ed028tc1_set_pixel_raw((x_place+i), (y_place+m), (~bit_value_1));
  400ea8:	f8df 805c 	ldr.w	r8, [pc, #92]	; 400f08 <eink_ed028tc1_graphics_load_4bgrey_image+0x88>
        for (j = (image_height_bytes-1); j > 0; j--) {
  400eac:	465c      	mov	r4, fp
  400eae:	f1bb 0f00 	cmp.w	fp, #0
  400eb2:	d01e      	beq.n	400ef2 <eink_ed028tc1_graphics_load_4bgrey_image+0x72>
            bit_value_1 = ((img_array[(i*image_height_bytes)+j]) & 0xF);
  400eb4:	9d03      	ldr	r5, [sp, #12]
  400eb6:	9b05      	ldr	r3, [sp, #20]
  400eb8:	9a04      	ldr	r2, [sp, #16]
  400eba:	fb03 290a 	mla	r9, r3, sl, r2
            eink_ed028tc1_set_pixel_raw((x_place+i), (y_place+m), (~bit_value_1));
  400ebe:	9b02      	ldr	r3, [sp, #8]
  400ec0:	eb03 070a 	add.w	r7, r3, sl
  400ec4:	b2bf      	uxth	r7, r7
            bit_value_1 = ((img_array[(i*image_height_bytes)+j]) & 0xF);
  400ec6:	f819 6004 	ldrb.w	r6, [r9, r4]
            eink_ed028tc1_set_pixel_raw((x_place+i), (y_place+m), (~bit_value_1));
  400eca:	f006 020f 	and.w	r2, r6, #15
  400ece:	f082 02ff 	eor.w	r2, r2, #255	; 0xff
  400ed2:	4629      	mov	r1, r5
  400ed4:	4638      	mov	r0, r7
  400ed6:	47c0      	blx	r8
            eink_ed028tc1_set_pixel_raw((x_place+i), (y_place+m+1), (~bit_value_2));
  400ed8:	ea6f 1216 	mvn.w	r2, r6, lsr #4
  400edc:	1c69      	adds	r1, r5, #1
  400ede:	b2d2      	uxtb	r2, r2
  400ee0:	b289      	uxth	r1, r1
  400ee2:	4638      	mov	r0, r7
  400ee4:	47c0      	blx	r8
        for (j = (image_height_bytes-1); j > 0; j--) {
  400ee6:	3c01      	subs	r4, #1
  400ee8:	b2a4      	uxth	r4, r4
  400eea:	3502      	adds	r5, #2
  400eec:	b2ad      	uxth	r5, r5
  400eee:	2c00      	cmp	r4, #0
  400ef0:	d1e9      	bne.n	400ec6 <eink_ed028tc1_graphics_load_4bgrey_image+0x46>
    for (i = 0; i < image_width_px; i++) {
  400ef2:	f10a 0a01 	add.w	sl, sl, #1
  400ef6:	fa1f fa8a 	uxth.w	sl, sl
  400efa:	9b01      	ldr	r3, [sp, #4]
  400efc:	4553      	cmp	r3, sl
  400efe:	d8d5      	bhi.n	400eac <eink_ed028tc1_graphics_load_4bgrey_image+0x2c>
            m += 2;
        }
    }
    return;
  400f00:	b007      	add	sp, #28
  400f02:	e8bd 8ff0 	ldmia.w	sp!, {r4, r5, r6, r7, r8, r9, sl, fp, pc}
  400f06:	bf00      	nop
  400f08:	00400d4d 	.word	0x00400d4d

00400f0c <eink_ed057tc2_set_pixel>:
    if ( (x_set >= 0) && (x_set < uc8159_global_instance.display_width) && (y_set >= 0) && (y_set < uc8159_global_instance.display_height) ) {
  400f0c:	4b33      	ldr	r3, [pc, #204]	; (400fdc <eink_ed057tc2_set_pixel+0xd0>)
  400f0e:	889b      	ldrh	r3, [r3, #4]
  400f10:	b29b      	uxth	r3, r3
  400f12:	4283      	cmp	r3, r0
  400f14:	d91c      	bls.n	400f50 <eink_ed057tc2_set_pixel+0x44>
{
  400f16:	b410      	push	{r4}
    if ( (x_set >= 0) && (x_set < uc8159_global_instance.display_width) && (y_set >= 0) && (y_set < uc8159_global_instance.display_height) ) {
  400f18:	4b30      	ldr	r3, [pc, #192]	; (400fdc <eink_ed057tc2_set_pixel+0xd0>)
  400f1a:	88dc      	ldrh	r4, [r3, #6]
  400f1c:	b2a4      	uxth	r4, r4
  400f1e:	428c      	cmp	r4, r1
  400f20:	d914      	bls.n	400f4c <eink_ed057tc2_set_pixel+0x40>
        if ( (uc8159_global_instance.panel_settings.display_rotation == ROTATE_90) || (uc8159_global_instance.panel_settings.display_rotation == ROTATE_270) ) {
  400f22:	785b      	ldrb	r3, [r3, #1]
  400f24:	b2db      	uxtb	r3, r3
  400f26:	2b01      	cmp	r3, #1
  400f28:	d013      	beq.n	400f52 <eink_ed057tc2_set_pixel+0x46>
  400f2a:	4b2c      	ldr	r3, [pc, #176]	; (400fdc <eink_ed057tc2_set_pixel+0xd0>)
  400f2c:	785b      	ldrb	r3, [r3, #1]
  400f2e:	b2db      	uxtb	r3, r3
  400f30:	2b03      	cmp	r3, #3
  400f32:	d00e      	beq.n	400f52 <eink_ed057tc2_set_pixel+0x46>
            byte_set = x1_set + ((GFX_ED057TC2_MAX_WIDTH / 2) * y_set);
  400f34:	f44f 7396 	mov.w	r3, #300	; 0x12c
  400f38:	fb03 f101 	mul.w	r1, r3, r1
  400f3c:	eb01 0350 	add.w	r3, r1, r0, lsr #1
            odd_even_bit = x_set % 2;
  400f40:	f000 0001 	and.w	r0, r0, #1
        if (odd_even_bit) {
  400f44:	b350      	cbz	r0, 400f9c <eink_ed057tc2_set_pixel+0x90>
            switch(pixel_colour) {
  400f46:	b16a      	cbz	r2, 400f64 <eink_ed057tc2_set_pixel+0x58>
  400f48:	2a01      	cmp	r2, #1
  400f4a:	d019      	beq.n	400f80 <eink_ed057tc2_set_pixel+0x74>
}
  400f4c:	f85d 4b04 	ldr.w	r4, [sp], #4
  400f50:	4770      	bx	lr
           byte_set = y1_set + ((GFX_ED057TC2_MAX_WIDTH / 2) * x_set);
  400f52:	f44f 7396 	mov.w	r3, #300	; 0x12c
  400f56:	fb03 f000 	mul.w	r0, r3, r0
  400f5a:	eb00 0351 	add.w	r3, r0, r1, lsr #1
           odd_even_bit = y_set % 2;
  400f5e:	f001 0001 	and.w	r0, r1, #1
  400f62:	e7ef      	b.n	400f44 <eink_ed057tc2_set_pixel+0x38>
                    eink_set_bit(&ptr_eink_gfx_config->display_buffer_1_ptr[byte_set], 1, 0);
  400f64:	491e      	ldr	r1, [pc, #120]	; (400fe0 <eink_ed057tc2_set_pixel+0xd4>)
  400f66:	680a      	ldr	r2, [r1, #0]
  400f68:	6910      	ldr	r0, [r2, #16]
  400f6a:	5cc2      	ldrb	r2, [r0, r3]
  400f6c:	f022 0202 	bic.w	r2, r2, #2
  400f70:	54c2      	strb	r2, [r0, r3]
                    eink_set_bit(&ptr_eink_gfx_config->display_buffer_1_ptr[byte_set], 0, 0);
  400f72:	680a      	ldr	r2, [r1, #0]
  400f74:	6911      	ldr	r1, [r2, #16]
  400f76:	5cca      	ldrb	r2, [r1, r3]
  400f78:	f022 0201 	bic.w	r2, r2, #1
  400f7c:	54ca      	strb	r2, [r1, r3]
  400f7e:	e7e5      	b.n	400f4c <eink_ed057tc2_set_pixel+0x40>
                    eink_set_bit(&ptr_eink_gfx_config->display_buffer_1_ptr[byte_set], 1, 1);
  400f80:	4917      	ldr	r1, [pc, #92]	; (400fe0 <eink_ed057tc2_set_pixel+0xd4>)
  400f82:	680a      	ldr	r2, [r1, #0]
  400f84:	6910      	ldr	r0, [r2, #16]
        *byte |= 1 << bit_number;
  400f86:	5cc2      	ldrb	r2, [r0, r3]
  400f88:	f042 0202 	orr.w	r2, r2, #2
  400f8c:	54c2      	strb	r2, [r0, r3]
                    eink_set_bit(&ptr_eink_gfx_config->display_buffer_1_ptr[byte_set], 0, 1);
  400f8e:	680a      	ldr	r2, [r1, #0]
  400f90:	6911      	ldr	r1, [r2, #16]
  400f92:	5cca      	ldrb	r2, [r1, r3]
  400f94:	f042 0201 	orr.w	r2, r2, #1
  400f98:	54ca      	strb	r2, [r1, r3]
  400f9a:	e7d7      	b.n	400f4c <eink_ed057tc2_set_pixel+0x40>
            switch(pixel_colour) {
  400f9c:	b17a      	cbz	r2, 400fbe <eink_ed057tc2_set_pixel+0xb2>
  400f9e:	2a01      	cmp	r2, #1
  400fa0:	d1d4      	bne.n	400f4c <eink_ed057tc2_set_pixel+0x40>
                    eink_set_bit(&ptr_eink_gfx_config->display_buffer_1_ptr[byte_set], 5, 1);
  400fa2:	490f      	ldr	r1, [pc, #60]	; (400fe0 <eink_ed057tc2_set_pixel+0xd4>)
  400fa4:	680a      	ldr	r2, [r1, #0]
  400fa6:	6910      	ldr	r0, [r2, #16]
  400fa8:	5cc2      	ldrb	r2, [r0, r3]
  400faa:	f042 0220 	orr.w	r2, r2, #32
  400fae:	54c2      	strb	r2, [r0, r3]
                    eink_set_bit(&ptr_eink_gfx_config->display_buffer_1_ptr[byte_set], 4, 1);
  400fb0:	680a      	ldr	r2, [r1, #0]
  400fb2:	6911      	ldr	r1, [r2, #16]
  400fb4:	5cca      	ldrb	r2, [r1, r3]
  400fb6:	f042 0210 	orr.w	r2, r2, #16
  400fba:	54ca      	strb	r2, [r1, r3]
}
  400fbc:	e7c6      	b.n	400f4c <eink_ed057tc2_set_pixel+0x40>
                    eink_set_bit(&ptr_eink_gfx_config->display_buffer_1_ptr[byte_set], 5, 0);
  400fbe:	4908      	ldr	r1, [pc, #32]	; (400fe0 <eink_ed057tc2_set_pixel+0xd4>)
  400fc0:	680a      	ldr	r2, [r1, #0]
  400fc2:	6910      	ldr	r0, [r2, #16]
        *byte &= ~(1 << bit_number);
  400fc4:	5cc2      	ldrb	r2, [r0, r3]
  400fc6:	f022 0220 	bic.w	r2, r2, #32
  400fca:	54c2      	strb	r2, [r0, r3]
                    eink_set_bit(&ptr_eink_gfx_config->display_buffer_1_ptr[byte_set], 4, 0);
  400fcc:	680a      	ldr	r2, [r1, #0]
  400fce:	6911      	ldr	r1, [r2, #16]
  400fd0:	5cca      	ldrb	r2, [r1, r3]
  400fd2:	f022 0210 	bic.w	r2, r2, #16
  400fd6:	54ca      	strb	r2, [r1, r3]
  400fd8:	e7b8      	b.n	400f4c <eink_ed057tc2_set_pixel+0x40>
  400fda:	bf00      	nop
  400fdc:	20000518 	.word	0x20000518
  400fe0:	20000544 	.word	0x20000544

00400fe4 <eink_ac057tc1_set_pixel>:
    if ( (x_set >= 0) && (x_set < uc8159_global_instance.display_width) && (y_set >= 0) && (y_set < uc8159_global_instance.display_height) ) {
  400fe4:	4b95      	ldr	r3, [pc, #596]	; (40123c <eink_ac057tc1_set_pixel+0x258>)
  400fe6:	889b      	ldrh	r3, [r3, #4]
  400fe8:	b29b      	uxth	r3, r3
  400fea:	4283      	cmp	r3, r0
  400fec:	d93f      	bls.n	40106e <eink_ac057tc1_set_pixel+0x8a>
{
  400fee:	b410      	push	{r4}
    if ( (x_set >= 0) && (x_set < uc8159_global_instance.display_width) && (y_set >= 0) && (y_set < uc8159_global_instance.display_height) ) {
  400ff0:	4b92      	ldr	r3, [pc, #584]	; (40123c <eink_ac057tc1_set_pixel+0x258>)
  400ff2:	88dc      	ldrh	r4, [r3, #6]
  400ff4:	b2a4      	uxth	r4, r4
  400ff6:	428c      	cmp	r4, r1
  400ff8:	d937      	bls.n	40106a <eink_ac057tc1_set_pixel+0x86>
        if ( (uc8159_global_instance.panel_settings.display_rotation == ROTATE_90) || (uc8159_global_instance.panel_settings.display_rotation == ROTATE_270) ) {
  400ffa:	785b      	ldrb	r3, [r3, #1]
  400ffc:	b2db      	uxtb	r3, r3
  400ffe:	2b01      	cmp	r3, #1
  401000:	d017      	beq.n	401032 <eink_ac057tc1_set_pixel+0x4e>
  401002:	4b8e      	ldr	r3, [pc, #568]	; (40123c <eink_ac057tc1_set_pixel+0x258>)
  401004:	785b      	ldrb	r3, [r3, #1]
  401006:	b2db      	uxtb	r3, r3
  401008:	2b03      	cmp	r3, #3
  40100a:	d012      	beq.n	401032 <eink_ac057tc1_set_pixel+0x4e>
            byte_set = x1_set + ((GFX_AC057TC1_MAX_WIDTH / 2) * y_set);
  40100c:	f44f 7396 	mov.w	r3, #300	; 0x12c
  401010:	fb03 f101 	mul.w	r1, r3, r1
  401014:	eb01 0350 	add.w	r3, r1, r0, lsr #1
            odd_even_bit = x_set % 2;
  401018:	f000 0001 	and.w	r0, r0, #1
        if (odd_even_bit) {
  40101c:	2800      	cmp	r0, #0
  40101e:	f000 80b3 	beq.w	401188 <eink_ac057tc1_set_pixel+0x1a4>
            switch(pixel_colour) {
  401022:	2a07      	cmp	r2, #7
  401024:	d821      	bhi.n	40106a <eink_ac057tc1_set_pixel+0x86>
  401026:	e8df f002 	tbb	[pc, r2]
  40102a:	230d      	.short	0x230d
  40102c:	4b37735f 	.word	0x4b37735f
  401030:	9b87      	.short	0x9b87
           byte_set = y1_set + ((GFX_AC057TC1_MAX_WIDTH / 2) * x_set);
  401032:	f44f 7396 	mov.w	r3, #300	; 0x12c
  401036:	fb03 f000 	mul.w	r0, r3, r0
  40103a:	eb00 0351 	add.w	r3, r0, r1, lsr #1
           odd_even_bit = y_set % 2;
  40103e:	f001 0001 	and.w	r0, r1, #1
  401042:	e7eb      	b.n	40101c <eink_ac057tc1_set_pixel+0x38>
                    eink_set_bit(&ptr_eink_gfx_config->display_buffer_1_ptr[byte_set], 2, 0);
  401044:	4a7e      	ldr	r2, [pc, #504]	; (401240 <eink_ac057tc1_set_pixel+0x25c>)
  401046:	6811      	ldr	r1, [r2, #0]
  401048:	6908      	ldr	r0, [r1, #16]
  40104a:	5cc1      	ldrb	r1, [r0, r3]
  40104c:	f021 0104 	bic.w	r1, r1, #4
  401050:	54c1      	strb	r1, [r0, r3]
                    eink_set_bit(&ptr_eink_gfx_config->display_buffer_1_ptr[byte_set], 1, 0);
  401052:	6811      	ldr	r1, [r2, #0]
  401054:	6908      	ldr	r0, [r1, #16]
  401056:	5cc1      	ldrb	r1, [r0, r3]
  401058:	f021 0102 	bic.w	r1, r1, #2
  40105c:	54c1      	strb	r1, [r0, r3]
                    eink_set_bit(&ptr_eink_gfx_config->display_buffer_1_ptr[byte_set], 0, 0);
  40105e:	6812      	ldr	r2, [r2, #0]
  401060:	6911      	ldr	r1, [r2, #16]
  401062:	5cca      	ldrb	r2, [r1, r3]
  401064:	f022 0201 	bic.w	r2, r2, #1
  401068:	54ca      	strb	r2, [r1, r3]
}
  40106a:	f85d 4b04 	ldr.w	r4, [sp], #4
  40106e:	4770      	bx	lr
                    eink_set_bit(&ptr_eink_gfx_config->display_buffer_1_ptr[byte_set], 2, 0);
  401070:	4a73      	ldr	r2, [pc, #460]	; (401240 <eink_ac057tc1_set_pixel+0x25c>)
  401072:	6811      	ldr	r1, [r2, #0]
  401074:	6908      	ldr	r0, [r1, #16]
  401076:	5cc1      	ldrb	r1, [r0, r3]
  401078:	f021 0104 	bic.w	r1, r1, #4
  40107c:	54c1      	strb	r1, [r0, r3]
                    eink_set_bit(&ptr_eink_gfx_config->display_buffer_1_ptr[byte_set], 1, 0);
  40107e:	6811      	ldr	r1, [r2, #0]
  401080:	6908      	ldr	r0, [r1, #16]
  401082:	5cc1      	ldrb	r1, [r0, r3]
  401084:	f021 0102 	bic.w	r1, r1, #2
  401088:	54c1      	strb	r1, [r0, r3]
                    eink_set_bit(&ptr_eink_gfx_config->display_buffer_1_ptr[byte_set], 0, 1);
  40108a:	6812      	ldr	r2, [r2, #0]
  40108c:	6911      	ldr	r1, [r2, #16]
        *byte |= 1 << bit_number;
  40108e:	5cca      	ldrb	r2, [r1, r3]
  401090:	f042 0201 	orr.w	r2, r2, #1
  401094:	54ca      	strb	r2, [r1, r3]
  401096:	e7e8      	b.n	40106a <eink_ac057tc1_set_pixel+0x86>
                    eink_set_bit(&ptr_eink_gfx_config->display_buffer_1_ptr[byte_set], 2, 0);
  401098:	4a69      	ldr	r2, [pc, #420]	; (401240 <eink_ac057tc1_set_pixel+0x25c>)
  40109a:	6811      	ldr	r1, [r2, #0]
  40109c:	6908      	ldr	r0, [r1, #16]
        *byte &= ~(1 << bit_number);
  40109e:	5cc1      	ldrb	r1, [r0, r3]
  4010a0:	f021 0104 	bic.w	r1, r1, #4
  4010a4:	54c1      	strb	r1, [r0, r3]
                    eink_set_bit(&ptr_eink_gfx_config->display_buffer_1_ptr[byte_set], 1, 1);
  4010a6:	6811      	ldr	r1, [r2, #0]
  4010a8:	6908      	ldr	r0, [r1, #16]
        *byte |= 1 << bit_number;
  4010aa:	5cc1      	ldrb	r1, [r0, r3]
  4010ac:	f041 0102 	orr.w	r1, r1, #2
  4010b0:	54c1      	strb	r1, [r0, r3]
                    eink_set_bit(&ptr_eink_gfx_config->display_buffer_1_ptr[byte_set], 0, 0);
  4010b2:	6812      	ldr	r2, [r2, #0]
  4010b4:	6911      	ldr	r1, [r2, #16]
        *byte &= ~(1 << bit_number);
  4010b6:	5cca      	ldrb	r2, [r1, r3]
  4010b8:	f022 0201 	bic.w	r2, r2, #1
  4010bc:	54ca      	strb	r2, [r1, r3]
  4010be:	e7d4      	b.n	40106a <eink_ac057tc1_set_pixel+0x86>
                    eink_set_bit(&ptr_eink_gfx_config->display_buffer_1_ptr[byte_set], 2, 0);
  4010c0:	4a5f      	ldr	r2, [pc, #380]	; (401240 <eink_ac057tc1_set_pixel+0x25c>)
  4010c2:	6811      	ldr	r1, [r2, #0]
  4010c4:	6908      	ldr	r0, [r1, #16]
  4010c6:	5cc1      	ldrb	r1, [r0, r3]
  4010c8:	f021 0104 	bic.w	r1, r1, #4
  4010cc:	54c1      	strb	r1, [r0, r3]
                    eink_set_bit(&ptr_eink_gfx_config->display_buffer_1_ptr[byte_set], 1, 1);
  4010ce:	6811      	ldr	r1, [r2, #0]
  4010d0:	6908      	ldr	r0, [r1, #16]
        *byte |= 1 << bit_number;
  4010d2:	5cc1      	ldrb	r1, [r0, r3]
  4010d4:	f041 0102 	orr.w	r1, r1, #2
  4010d8:	54c1      	strb	r1, [r0, r3]
                    eink_set_bit(&ptr_eink_gfx_config->display_buffer_1_ptr[byte_set], 0, 1);
  4010da:	6812      	ldr	r2, [r2, #0]
  4010dc:	6911      	ldr	r1, [r2, #16]
  4010de:	5cca      	ldrb	r2, [r1, r3]
  4010e0:	f042 0201 	orr.w	r2, r2, #1
  4010e4:	54ca      	strb	r2, [r1, r3]
  4010e6:	e7c0      	b.n	40106a <eink_ac057tc1_set_pixel+0x86>
                    eink_set_bit(&ptr_eink_gfx_config->display_buffer_1_ptr[byte_set], 2, 1);
  4010e8:	4a55      	ldr	r2, [pc, #340]	; (401240 <eink_ac057tc1_set_pixel+0x25c>)
  4010ea:	6811      	ldr	r1, [r2, #0]
  4010ec:	6908      	ldr	r0, [r1, #16]
  4010ee:	5cc1      	ldrb	r1, [r0, r3]
  4010f0:	f041 0104 	orr.w	r1, r1, #4
  4010f4:	54c1      	strb	r1, [r0, r3]
                    eink_set_bit(&ptr_eink_gfx_config->display_buffer_1_ptr[byte_set], 1, 0);
  4010f6:	6811      	ldr	r1, [r2, #0]
  4010f8:	6908      	ldr	r0, [r1, #16]
        *byte &= ~(1 << bit_number);
  4010fa:	5cc1      	ldrb	r1, [r0, r3]
  4010fc:	f021 0102 	bic.w	r1, r1, #2
  401100:	54c1      	strb	r1, [r0, r3]
                    eink_set_bit(&ptr_eink_gfx_config->display_buffer_1_ptr[byte_set], 0, 0);
  401102:	6812      	ldr	r2, [r2, #0]
  401104:	6911      	ldr	r1, [r2, #16]
  401106:	5cca      	ldrb	r2, [r1, r3]
  401108:	f022 0201 	bic.w	r2, r2, #1
  40110c:	54ca      	strb	r2, [r1, r3]
  40110e:	e7ac      	b.n	40106a <eink_ac057tc1_set_pixel+0x86>
                    eink_set_bit(&ptr_eink_gfx_config->display_buffer_1_ptr[byte_set], 2, 1);
  401110:	4a4b      	ldr	r2, [pc, #300]	; (401240 <eink_ac057tc1_set_pixel+0x25c>)
  401112:	6811      	ldr	r1, [r2, #0]
  401114:	6908      	ldr	r0, [r1, #16]
        *byte |= 1 << bit_number;
  401116:	5cc1      	ldrb	r1, [r0, r3]
  401118:	f041 0104 	orr.w	r1, r1, #4
  40111c:	54c1      	strb	r1, [r0, r3]
                    eink_set_bit(&ptr_eink_gfx_config->display_buffer_1_ptr[byte_set], 1, 0);
  40111e:	6811      	ldr	r1, [r2, #0]
  401120:	6908      	ldr	r0, [r1, #16]
        *byte &= ~(1 << bit_number);
  401122:	5cc1      	ldrb	r1, [r0, r3]
  401124:	f021 0102 	bic.w	r1, r1, #2
  401128:	54c1      	strb	r1, [r0, r3]
                    eink_set_bit(&ptr_eink_gfx_config->display_buffer_1_ptr[byte_set], 0, 1);
  40112a:	6812      	ldr	r2, [r2, #0]
  40112c:	6911      	ldr	r1, [r2, #16]
        *byte |= 1 << bit_number;
  40112e:	5cca      	ldrb	r2, [r1, r3]
  401130:	f042 0201 	orr.w	r2, r2, #1
  401134:	54ca      	strb	r2, [r1, r3]
  401136:	e798      	b.n	40106a <eink_ac057tc1_set_pixel+0x86>
                    eink_set_bit(&ptr_eink_gfx_config->display_buffer_1_ptr[byte_set], 2, 1);
  401138:	4a41      	ldr	r2, [pc, #260]	; (401240 <eink_ac057tc1_set_pixel+0x25c>)
  40113a:	6811      	ldr	r1, [r2, #0]
  40113c:	6908      	ldr	r0, [r1, #16]
  40113e:	5cc1      	ldrb	r1, [r0, r3]
  401140:	f041 0104 	orr.w	r1, r1, #4
  401144:	54c1      	strb	r1, [r0, r3]
                    eink_set_bit(&ptr_eink_gfx_config->display_buffer_1_ptr[byte_set], 1, 1);
  401146:	6811      	ldr	r1, [r2, #0]
  401148:	6908      	ldr	r0, [r1, #16]
  40114a:	5cc1      	ldrb	r1, [r0, r3]
  40114c:	f041 0102 	orr.w	r1, r1, #2
  401150:	54c1      	strb	r1, [r0, r3]
                    eink_set_bit(&ptr_eink_gfx_config->display_buffer_1_ptr[byte_set], 0, 0);
  401152:	6812      	ldr	r2, [r2, #0]
  401154:	6911      	ldr	r1, [r2, #16]
        *byte &= ~(1 << bit_number);
  401156:	5cca      	ldrb	r2, [r1, r3]
  401158:	f022 0201 	bic.w	r2, r2, #1
  40115c:	54ca      	strb	r2, [r1, r3]
  40115e:	e784      	b.n	40106a <eink_ac057tc1_set_pixel+0x86>
                    eink_set_bit(&ptr_eink_gfx_config->display_buffer_1_ptr[byte_set], 2, 1);
  401160:	4a37      	ldr	r2, [pc, #220]	; (401240 <eink_ac057tc1_set_pixel+0x25c>)
  401162:	6811      	ldr	r1, [r2, #0]
  401164:	6908      	ldr	r0, [r1, #16]
        *byte |= 1 << bit_number;
  401166:	5cc1      	ldrb	r1, [r0, r3]
  401168:	f041 0104 	orr.w	r1, r1, #4
  40116c:	54c1      	strb	r1, [r0, r3]
                    eink_set_bit(&ptr_eink_gfx_config->display_buffer_1_ptr[byte_set], 1, 1);
  40116e:	6811      	ldr	r1, [r2, #0]
  401170:	6908      	ldr	r0, [r1, #16]
  401172:	5cc1      	ldrb	r1, [r0, r3]
  401174:	f041 0102 	orr.w	r1, r1, #2
  401178:	54c1      	strb	r1, [r0, r3]
                    eink_set_bit(&ptr_eink_gfx_config->display_buffer_1_ptr[byte_set], 0, 1);
  40117a:	6812      	ldr	r2, [r2, #0]
  40117c:	6911      	ldr	r1, [r2, #16]
  40117e:	5cca      	ldrb	r2, [r1, r3]
  401180:	f042 0201 	orr.w	r2, r2, #1
  401184:	54ca      	strb	r2, [r1, r3]
  401186:	e770      	b.n	40106a <eink_ac057tc1_set_pixel+0x86>
            switch(pixel_colour) {
  401188:	2a07      	cmp	r2, #7
  40118a:	f63f af6e 	bhi.w	40106a <eink_ac057tc1_set_pixel+0x86>
  40118e:	e8df f002 	tbb	[pc, r2]
  401192:	1804      	.short	0x1804
  401194:	402c6d59 	.word	0x402c6d59
  401198:	9581      	.short	0x9581
                    eink_set_bit(&ptr_eink_gfx_config->display_buffer_1_ptr[byte_set], 6, 0);
  40119a:	4a29      	ldr	r2, [pc, #164]	; (401240 <eink_ac057tc1_set_pixel+0x25c>)
  40119c:	6811      	ldr	r1, [r2, #0]
  40119e:	6908      	ldr	r0, [r1, #16]
        *byte &= ~(1 << bit_number);
  4011a0:	5cc1      	ldrb	r1, [r0, r3]
  4011a2:	f021 0140 	bic.w	r1, r1, #64	; 0x40
  4011a6:	54c1      	strb	r1, [r0, r3]
                    eink_set_bit(&ptr_eink_gfx_config->display_buffer_1_ptr[byte_set], 5, 0);
  4011a8:	6811      	ldr	r1, [r2, #0]
  4011aa:	6908      	ldr	r0, [r1, #16]
  4011ac:	5cc1      	ldrb	r1, [r0, r3]
  4011ae:	f021 0120 	bic.w	r1, r1, #32
  4011b2:	54c1      	strb	r1, [r0, r3]
                    eink_set_bit(&ptr_eink_gfx_config->display_buffer_1_ptr[byte_set], 4, 0);
  4011b4:	6812      	ldr	r2, [r2, #0]
  4011b6:	6911      	ldr	r1, [r2, #16]
  4011b8:	5cca      	ldrb	r2, [r1, r3]
  4011ba:	f022 0210 	bic.w	r2, r2, #16
  4011be:	54ca      	strb	r2, [r1, r3]
  4011c0:	e753      	b.n	40106a <eink_ac057tc1_set_pixel+0x86>
                    eink_set_bit(&ptr_eink_gfx_config->display_buffer_1_ptr[byte_set], 6, 0);
  4011c2:	4a1f      	ldr	r2, [pc, #124]	; (401240 <eink_ac057tc1_set_pixel+0x25c>)
  4011c4:	6811      	ldr	r1, [r2, #0]
  4011c6:	6908      	ldr	r0, [r1, #16]
  4011c8:	5cc1      	ldrb	r1, [r0, r3]
  4011ca:	f021 0140 	bic.w	r1, r1, #64	; 0x40
  4011ce:	54c1      	strb	r1, [r0, r3]
                    eink_set_bit(&ptr_eink_gfx_config->display_buffer_1_ptr[byte_set], 5, 0);
  4011d0:	6811      	ldr	r1, [r2, #0]
  4011d2:	6908      	ldr	r0, [r1, #16]
  4011d4:	5cc1      	ldrb	r1, [r0, r3]
  4011d6:	f021 0120 	bic.w	r1, r1, #32
  4011da:	54c1      	strb	r1, [r0, r3]
                    eink_set_bit(&ptr_eink_gfx_config->display_buffer_1_ptr[byte_set], 4, 1);
  4011dc:	6812      	ldr	r2, [r2, #0]
  4011de:	6911      	ldr	r1, [r2, #16]
        *byte |= 1 << bit_number;
  4011e0:	5cca      	ldrb	r2, [r1, r3]
  4011e2:	f042 0210 	orr.w	r2, r2, #16
  4011e6:	54ca      	strb	r2, [r1, r3]
  4011e8:	e73f      	b.n	40106a <eink_ac057tc1_set_pixel+0x86>
                    eink_set_bit(&ptr_eink_gfx_config->display_buffer_1_ptr[byte_set], 6, 0);
  4011ea:	4a15      	ldr	r2, [pc, #84]	; (401240 <eink_ac057tc1_set_pixel+0x25c>)
  4011ec:	6811      	ldr	r1, [r2, #0]
  4011ee:	6908      	ldr	r0, [r1, #16]
        *byte &= ~(1 << bit_number);
  4011f0:	5cc1      	ldrb	r1, [r0, r3]
  4011f2:	f021 0140 	bic.w	r1, r1, #64	; 0x40
  4011f6:	54c1      	strb	r1, [r0, r3]
                    eink_set_bit(&ptr_eink_gfx_config->display_buffer_1_ptr[byte_set], 5, 1);
  4011f8:	6811      	ldr	r1, [r2, #0]
  4011fa:	6908      	ldr	r0, [r1, #16]
        *byte |= 1 << bit_number;
  4011fc:	5cc1      	ldrb	r1, [r0, r3]
  4011fe:	f041 0120 	orr.w	r1, r1, #32
  401202:	54c1      	strb	r1, [r0, r3]
                    eink_set_bit(&ptr_eink_gfx_config->display_buffer_1_ptr[byte_set], 4, 0);
  401204:	6812      	ldr	r2, [r2, #0]
  401206:	6911      	ldr	r1, [r2, #16]
        *byte &= ~(1 << bit_number);
  401208:	5cca      	ldrb	r2, [r1, r3]
  40120a:	f022 0210 	bic.w	r2, r2, #16
  40120e:	54ca      	strb	r2, [r1, r3]
  401210:	e72b      	b.n	40106a <eink_ac057tc1_set_pixel+0x86>
                    eink_set_bit(&ptr_eink_gfx_config->display_buffer_1_ptr[byte_set], 6, 0);
  401212:	4a0b      	ldr	r2, [pc, #44]	; (401240 <eink_ac057tc1_set_pixel+0x25c>)
  401214:	6811      	ldr	r1, [r2, #0]
  401216:	6908      	ldr	r0, [r1, #16]
  401218:	5cc1      	ldrb	r1, [r0, r3]
  40121a:	f021 0140 	bic.w	r1, r1, #64	; 0x40
  40121e:	54c1      	strb	r1, [r0, r3]
                    eink_set_bit(&ptr_eink_gfx_config->display_buffer_1_ptr[byte_set], 5, 1);
  401220:	6811      	ldr	r1, [r2, #0]
  401222:	6908      	ldr	r0, [r1, #16]
        *byte |= 1 << bit_number;
  401224:	5cc1      	ldrb	r1, [r0, r3]
  401226:	f041 0120 	orr.w	r1, r1, #32
  40122a:	54c1      	strb	r1, [r0, r3]
                    eink_set_bit(&ptr_eink_gfx_config->display_buffer_1_ptr[byte_set], 4, 1);
  40122c:	6812      	ldr	r2, [r2, #0]
  40122e:	6911      	ldr	r1, [r2, #16]
  401230:	5cca      	ldrb	r2, [r1, r3]
  401232:	f042 0210 	orr.w	r2, r2, #16
  401236:	54ca      	strb	r2, [r1, r3]
  401238:	e717      	b.n	40106a <eink_ac057tc1_set_pixel+0x86>
  40123a:	bf00      	nop
  40123c:	20000518 	.word	0x20000518
  401240:	20000544 	.word	0x20000544
                    eink_set_bit(&ptr_eink_gfx_config->display_buffer_1_ptr[byte_set], 6, 1);
  401244:	4a27      	ldr	r2, [pc, #156]	; (4012e4 <eink_ac057tc1_set_pixel+0x300>)
  401246:	6811      	ldr	r1, [r2, #0]
  401248:	6908      	ldr	r0, [r1, #16]
  40124a:	5cc1      	ldrb	r1, [r0, r3]
  40124c:	f041 0140 	orr.w	r1, r1, #64	; 0x40
  401250:	54c1      	strb	r1, [r0, r3]
                    eink_set_bit(&ptr_eink_gfx_config->display_buffer_1_ptr[byte_set], 5, 0);
  401252:	6811      	ldr	r1, [r2, #0]
  401254:	6908      	ldr	r0, [r1, #16]
        *byte &= ~(1 << bit_number);
  401256:	5cc1      	ldrb	r1, [r0, r3]
  401258:	f021 0120 	bic.w	r1, r1, #32
  40125c:	54c1      	strb	r1, [r0, r3]
                    eink_set_bit(&ptr_eink_gfx_config->display_buffer_1_ptr[byte_set], 4, 0);
  40125e:	6812      	ldr	r2, [r2, #0]
  401260:	6911      	ldr	r1, [r2, #16]
  401262:	5cca      	ldrb	r2, [r1, r3]
  401264:	f022 0210 	bic.w	r2, r2, #16
  401268:	54ca      	strb	r2, [r1, r3]
  40126a:	e6fe      	b.n	40106a <eink_ac057tc1_set_pixel+0x86>
                    eink_set_bit(&ptr_eink_gfx_config->display_buffer_1_ptr[byte_set], 6, 1);
  40126c:	4a1d      	ldr	r2, [pc, #116]	; (4012e4 <eink_ac057tc1_set_pixel+0x300>)
  40126e:	6811      	ldr	r1, [r2, #0]
  401270:	6908      	ldr	r0, [r1, #16]
        *byte |= 1 << bit_number;
  401272:	5cc1      	ldrb	r1, [r0, r3]
  401274:	f041 0140 	orr.w	r1, r1, #64	; 0x40
  401278:	54c1      	strb	r1, [r0, r3]
                    eink_set_bit(&ptr_eink_gfx_config->display_buffer_1_ptr[byte_set], 5, 0);
  40127a:	6811      	ldr	r1, [r2, #0]
  40127c:	6908      	ldr	r0, [r1, #16]
        *byte &= ~(1 << bit_number);
  40127e:	5cc1      	ldrb	r1, [r0, r3]
  401280:	f021 0120 	bic.w	r1, r1, #32
  401284:	54c1      	strb	r1, [r0, r3]
                    eink_set_bit(&ptr_eink_gfx_config->display_buffer_1_ptr[byte_set], 4, 1);
  401286:	6812      	ldr	r2, [r2, #0]
  401288:	6911      	ldr	r1, [r2, #16]
        *byte |= 1 << bit_number;
  40128a:	5cca      	ldrb	r2, [r1, r3]
  40128c:	f042 0210 	orr.w	r2, r2, #16
  401290:	54ca      	strb	r2, [r1, r3]
  401292:	e6ea      	b.n	40106a <eink_ac057tc1_set_pixel+0x86>
                    eink_set_bit(&ptr_eink_gfx_config->display_buffer_1_ptr[byte_set], 6, 1);
  401294:	4a13      	ldr	r2, [pc, #76]	; (4012e4 <eink_ac057tc1_set_pixel+0x300>)
  401296:	6811      	ldr	r1, [r2, #0]
  401298:	6908      	ldr	r0, [r1, #16]
  40129a:	5cc1      	ldrb	r1, [r0, r3]
  40129c:	f041 0140 	orr.w	r1, r1, #64	; 0x40
  4012a0:	54c1      	strb	r1, [r0, r3]
                    eink_set_bit(&ptr_eink_gfx_config->display_buffer_1_ptr[byte_set], 5, 1);
  4012a2:	6811      	ldr	r1, [r2, #0]
  4012a4:	6908      	ldr	r0, [r1, #16]
  4012a6:	5cc1      	ldrb	r1, [r0, r3]
  4012a8:	f041 0120 	orr.w	r1, r1, #32
  4012ac:	54c1      	strb	r1, [r0, r3]
                    eink_set_bit(&ptr_eink_gfx_config->display_buffer_1_ptr[byte_set], 4, 0);
  4012ae:	6812      	ldr	r2, [r2, #0]
  4012b0:	6911      	ldr	r1, [r2, #16]
        *byte &= ~(1 << bit_number);
  4012b2:	5cca      	ldrb	r2, [r1, r3]
  4012b4:	f022 0210 	bic.w	r2, r2, #16
  4012b8:	54ca      	strb	r2, [r1, r3]
  4012ba:	e6d6      	b.n	40106a <eink_ac057tc1_set_pixel+0x86>
                    eink_set_bit(&ptr_eink_gfx_config->display_buffer_1_ptr[byte_set], 6, 1);
  4012bc:	4a09      	ldr	r2, [pc, #36]	; (4012e4 <eink_ac057tc1_set_pixel+0x300>)
  4012be:	6811      	ldr	r1, [r2, #0]
  4012c0:	6908      	ldr	r0, [r1, #16]
        *byte |= 1 << bit_number;
  4012c2:	5cc1      	ldrb	r1, [r0, r3]
  4012c4:	f041 0140 	orr.w	r1, r1, #64	; 0x40
  4012c8:	54c1      	strb	r1, [r0, r3]
                    eink_set_bit(&ptr_eink_gfx_config->display_buffer_1_ptr[byte_set], 5, 1);
  4012ca:	6811      	ldr	r1, [r2, #0]
  4012cc:	6908      	ldr	r0, [r1, #16]
  4012ce:	5cc1      	ldrb	r1, [r0, r3]
  4012d0:	f041 0120 	orr.w	r1, r1, #32
  4012d4:	54c1      	strb	r1, [r0, r3]
                    eink_set_bit(&ptr_eink_gfx_config->display_buffer_1_ptr[byte_set], 4, 1);
  4012d6:	6812      	ldr	r2, [r2, #0]
  4012d8:	6911      	ldr	r1, [r2, #16]
  4012da:	5cca      	ldrb	r2, [r1, r3]
  4012dc:	f042 0210 	orr.w	r2, r2, #16
  4012e0:	54ca      	strb	r2, [r1, r3]
}
  4012e2:	e6c2      	b.n	40106a <eink_ac057tc1_set_pixel+0x86>
  4012e4:	20000544 	.word	0x20000544

004012e8 <eink_ac040tc1_set_pixel>:
    if ( (x_set >= 0) && (x_set < uc8159_global_instance.display_width) && (y_set >= 0) && (y_set < uc8159_global_instance.display_height) ) {
  4012e8:	4b94      	ldr	r3, [pc, #592]	; (40153c <eink_ac040tc1_set_pixel+0x254>)
  4012ea:	889b      	ldrh	r3, [r3, #4]
  4012ec:	b29b      	uxth	r3, r3
  4012ee:	4283      	cmp	r3, r0
  4012f0:	f240 8177 	bls.w	4015e2 <eink_ac040tc1_set_pixel+0x2fa>
  4012f4:	4b91      	ldr	r3, [pc, #580]	; (40153c <eink_ac040tc1_set_pixel+0x254>)
  4012f6:	88db      	ldrh	r3, [r3, #6]
  4012f8:	b29b      	uxth	r3, r3
  4012fa:	428b      	cmp	r3, r1
  4012fc:	f240 8171 	bls.w	4015e2 <eink_ac040tc1_set_pixel+0x2fa>
        if ( (uc8159_global_instance.panel_settings.display_rotation == ROTATE_90) || (uc8159_global_instance.panel_settings.display_rotation == ROTATE_270) ) {
  401300:	4b8e      	ldr	r3, [pc, #568]	; (40153c <eink_ac040tc1_set_pixel+0x254>)
  401302:	785b      	ldrb	r3, [r3, #1]
  401304:	b2db      	uxtb	r3, r3
  401306:	2b01      	cmp	r3, #1
  401308:	d017      	beq.n	40133a <eink_ac040tc1_set_pixel+0x52>
  40130a:	4b8c      	ldr	r3, [pc, #560]	; (40153c <eink_ac040tc1_set_pixel+0x254>)
  40130c:	785b      	ldrb	r3, [r3, #1]
  40130e:	b2db      	uxtb	r3, r3
  401310:	2b03      	cmp	r3, #3
  401312:	d012      	beq.n	40133a <eink_ac040tc1_set_pixel+0x52>
            byte_set = x1_set + ((GFX_AC040TC1_MAX_WIDTH / 2) * y_set);
  401314:	eb01 0181 	add.w	r1, r1, r1, lsl #2
  401318:	0189      	lsls	r1, r1, #6
  40131a:	eb01 0350 	add.w	r3, r1, r0, lsr #1
            odd_even_bit = x_set % 2;
  40131e:	f000 0001 	and.w	r0, r0, #1
        if (odd_even_bit) {
  401322:	2800      	cmp	r0, #0
  401324:	f000 80b1 	beq.w	40148a <eink_ac040tc1_set_pixel+0x1a2>
            switch(pixel_colour) {
  401328:	2a07      	cmp	r2, #7
  40132a:	f200 815a 	bhi.w	4015e2 <eink_ac040tc1_set_pixel+0x2fa>
  40132e:	e8df f002 	tbb	[pc, r2]
  401332:	200c      	.short	0x200c
  401334:	4834705c 	.word	0x4834705c
  401338:	9884      	.short	0x9884
           byte_set = y1_set + ((GFX_AC040TC1_MAX_WIDTH / 2) * x_set);
  40133a:	eb00 0080 	add.w	r0, r0, r0, lsl #2
  40133e:	0183      	lsls	r3, r0, #6
  401340:	eb03 0351 	add.w	r3, r3, r1, lsr #1
           odd_even_bit = y_set % 2;
  401344:	f001 0001 	and.w	r0, r1, #1
  401348:	e7eb      	b.n	401322 <eink_ac040tc1_set_pixel+0x3a>
                    eink_set_bit(&ptr_eink_gfx_config->display_buffer_1_ptr[byte_set], 2, 0);
  40134a:	4a7d      	ldr	r2, [pc, #500]	; (401540 <eink_ac040tc1_set_pixel+0x258>)
  40134c:	6811      	ldr	r1, [r2, #0]
  40134e:	6908      	ldr	r0, [r1, #16]
        *byte &= ~(1 << bit_number);
  401350:	5cc1      	ldrb	r1, [r0, r3]
  401352:	f021 0104 	bic.w	r1, r1, #4
  401356:	54c1      	strb	r1, [r0, r3]
                    eink_set_bit(&ptr_eink_gfx_config->display_buffer_1_ptr[byte_set], 1, 0);
  401358:	6811      	ldr	r1, [r2, #0]
  40135a:	6908      	ldr	r0, [r1, #16]
  40135c:	5cc1      	ldrb	r1, [r0, r3]
  40135e:	f021 0102 	bic.w	r1, r1, #2
  401362:	54c1      	strb	r1, [r0, r3]
                    eink_set_bit(&ptr_eink_gfx_config->display_buffer_1_ptr[byte_set], 0, 0);
  401364:	6812      	ldr	r2, [r2, #0]
  401366:	6911      	ldr	r1, [r2, #16]
  401368:	5cca      	ldrb	r2, [r1, r3]
  40136a:	f022 0201 	bic.w	r2, r2, #1
  40136e:	54ca      	strb	r2, [r1, r3]
  401370:	4770      	bx	lr
                    eink_set_bit(&ptr_eink_gfx_config->display_buffer_1_ptr[byte_set], 2, 0);
  401372:	4a73      	ldr	r2, [pc, #460]	; (401540 <eink_ac040tc1_set_pixel+0x258>)
  401374:	6811      	ldr	r1, [r2, #0]
  401376:	6908      	ldr	r0, [r1, #16]
  401378:	5cc1      	ldrb	r1, [r0, r3]
  40137a:	f021 0104 	bic.w	r1, r1, #4
  40137e:	54c1      	strb	r1, [r0, r3]
                    eink_set_bit(&ptr_eink_gfx_config->display_buffer_1_ptr[byte_set], 1, 0);
  401380:	6811      	ldr	r1, [r2, #0]
  401382:	6908      	ldr	r0, [r1, #16]
  401384:	5cc1      	ldrb	r1, [r0, r3]
  401386:	f021 0102 	bic.w	r1, r1, #2
  40138a:	54c1      	strb	r1, [r0, r3]
                    eink_set_bit(&ptr_eink_gfx_config->display_buffer_1_ptr[byte_set], 0, 1);
  40138c:	6812      	ldr	r2, [r2, #0]
  40138e:	6911      	ldr	r1, [r2, #16]
        *byte |= 1 << bit_number;
  401390:	5cca      	ldrb	r2, [r1, r3]
  401392:	f042 0201 	orr.w	r2, r2, #1
  401396:	54ca      	strb	r2, [r1, r3]
  401398:	4770      	bx	lr
                    eink_set_bit(&ptr_eink_gfx_config->display_buffer_1_ptr[byte_set], 2, 0);
  40139a:	4a69      	ldr	r2, [pc, #420]	; (401540 <eink_ac040tc1_set_pixel+0x258>)
  40139c:	6811      	ldr	r1, [r2, #0]
  40139e:	6908      	ldr	r0, [r1, #16]
        *byte &= ~(1 << bit_number);
  4013a0:	5cc1      	ldrb	r1, [r0, r3]
  4013a2:	f021 0104 	bic.w	r1, r1, #4
  4013a6:	54c1      	strb	r1, [r0, r3]
                    eink_set_bit(&ptr_eink_gfx_config->display_buffer_1_ptr[byte_set], 1, 1);
  4013a8:	6811      	ldr	r1, [r2, #0]
  4013aa:	6908      	ldr	r0, [r1, #16]
        *byte |= 1 << bit_number;
  4013ac:	5cc1      	ldrb	r1, [r0, r3]
  4013ae:	f041 0102 	orr.w	r1, r1, #2
  4013b2:	54c1      	strb	r1, [r0, r3]
                    eink_set_bit(&ptr_eink_gfx_config->display_buffer_1_ptr[byte_set], 0, 0);
  4013b4:	6812      	ldr	r2, [r2, #0]
  4013b6:	6911      	ldr	r1, [r2, #16]
        *byte &= ~(1 << bit_number);
  4013b8:	5cca      	ldrb	r2, [r1, r3]
  4013ba:	f022 0201 	bic.w	r2, r2, #1
  4013be:	54ca      	strb	r2, [r1, r3]
  4013c0:	4770      	bx	lr
                    eink_set_bit(&ptr_eink_gfx_config->display_buffer_1_ptr[byte_set], 2, 0);
  4013c2:	4a5f      	ldr	r2, [pc, #380]	; (401540 <eink_ac040tc1_set_pixel+0x258>)
  4013c4:	6811      	ldr	r1, [r2, #0]
  4013c6:	6908      	ldr	r0, [r1, #16]
  4013c8:	5cc1      	ldrb	r1, [r0, r3]
  4013ca:	f021 0104 	bic.w	r1, r1, #4
  4013ce:	54c1      	strb	r1, [r0, r3]
                    eink_set_bit(&ptr_eink_gfx_config->display_buffer_1_ptr[byte_set], 1, 1);
  4013d0:	6811      	ldr	r1, [r2, #0]
  4013d2:	6908      	ldr	r0, [r1, #16]
        *byte |= 1 << bit_number;
  4013d4:	5cc1      	ldrb	r1, [r0, r3]
  4013d6:	f041 0102 	orr.w	r1, r1, #2
  4013da:	54c1      	strb	r1, [r0, r3]
                    eink_set_bit(&ptr_eink_gfx_config->display_buffer_1_ptr[byte_set], 0, 1);
  4013dc:	6812      	ldr	r2, [r2, #0]
  4013de:	6911      	ldr	r1, [r2, #16]
  4013e0:	5cca      	ldrb	r2, [r1, r3]
  4013e2:	f042 0201 	orr.w	r2, r2, #1
  4013e6:	54ca      	strb	r2, [r1, r3]
  4013e8:	4770      	bx	lr
                    eink_set_bit(&ptr_eink_gfx_config->display_buffer_1_ptr[byte_set], 2, 1);
  4013ea:	4a55      	ldr	r2, [pc, #340]	; (401540 <eink_ac040tc1_set_pixel+0x258>)
  4013ec:	6811      	ldr	r1, [r2, #0]
  4013ee:	6908      	ldr	r0, [r1, #16]
  4013f0:	5cc1      	ldrb	r1, [r0, r3]
  4013f2:	f041 0104 	orr.w	r1, r1, #4
  4013f6:	54c1      	strb	r1, [r0, r3]
                    eink_set_bit(&ptr_eink_gfx_config->display_buffer_1_ptr[byte_set], 1, 0);
  4013f8:	6811      	ldr	r1, [r2, #0]
  4013fa:	6908      	ldr	r0, [r1, #16]
        *byte &= ~(1 << bit_number);
  4013fc:	5cc1      	ldrb	r1, [r0, r3]
  4013fe:	f021 0102 	bic.w	r1, r1, #2
  401402:	54c1      	strb	r1, [r0, r3]
                    eink_set_bit(&ptr_eink_gfx_config->display_buffer_1_ptr[byte_set], 0, 0);
  401404:	6812      	ldr	r2, [r2, #0]
  401406:	6911      	ldr	r1, [r2, #16]
  401408:	5cca      	ldrb	r2, [r1, r3]
  40140a:	f022 0201 	bic.w	r2, r2, #1
  40140e:	54ca      	strb	r2, [r1, r3]
  401410:	4770      	bx	lr
                    eink_set_bit(&ptr_eink_gfx_config->display_buffer_1_ptr[byte_set], 2, 1);
  401412:	4a4b      	ldr	r2, [pc, #300]	; (401540 <eink_ac040tc1_set_pixel+0x258>)
  401414:	6811      	ldr	r1, [r2, #0]
  401416:	6908      	ldr	r0, [r1, #16]
        *byte |= 1 << bit_number;
  401418:	5cc1      	ldrb	r1, [r0, r3]
  40141a:	f041 0104 	orr.w	r1, r1, #4
  40141e:	54c1      	strb	r1, [r0, r3]
                    eink_set_bit(&ptr_eink_gfx_config->display_buffer_1_ptr[byte_set], 1, 0);
  401420:	6811      	ldr	r1, [r2, #0]
  401422:	6908      	ldr	r0, [r1, #16]
        *byte &= ~(1 << bit_number);
  401424:	5cc1      	ldrb	r1, [r0, r3]
  401426:	f021 0102 	bic.w	r1, r1, #2
  40142a:	54c1      	strb	r1, [r0, r3]
                    eink_set_bit(&ptr_eink_gfx_config->display_buffer_1_ptr[byte_set], 0, 1);
  40142c:	6812      	ldr	r2, [r2, #0]
  40142e:	6911      	ldr	r1, [r2, #16]
        *byte |= 1 << bit_number;
  401430:	5cca      	ldrb	r2, [r1, r3]
  401432:	f042 0201 	orr.w	r2, r2, #1
  401436:	54ca      	strb	r2, [r1, r3]
  401438:	4770      	bx	lr
                    eink_set_bit(&ptr_eink_gfx_config->display_buffer_1_ptr[byte_set], 2, 1);
  40143a:	4a41      	ldr	r2, [pc, #260]	; (401540 <eink_ac040tc1_set_pixel+0x258>)
  40143c:	6811      	ldr	r1, [r2, #0]
  40143e:	6908      	ldr	r0, [r1, #16]
  401440:	5cc1      	ldrb	r1, [r0, r3]
  401442:	f041 0104 	orr.w	r1, r1, #4
  401446:	54c1      	strb	r1, [r0, r3]
                    eink_set_bit(&ptr_eink_gfx_config->display_buffer_1_ptr[byte_set], 1, 1);
  401448:	6811      	ldr	r1, [r2, #0]
  40144a:	6908      	ldr	r0, [r1, #16]
  40144c:	5cc1      	ldrb	r1, [r0, r3]
  40144e:	f041 0102 	orr.w	r1, r1, #2
  401452:	54c1      	strb	r1, [r0, r3]
                    eink_set_bit(&ptr_eink_gfx_config->display_buffer_1_ptr[byte_set], 0, 0);
  401454:	6812      	ldr	r2, [r2, #0]
  401456:	6911      	ldr	r1, [r2, #16]
        *byte &= ~(1 << bit_number);
  401458:	5cca      	ldrb	r2, [r1, r3]
  40145a:	f022 0201 	bic.w	r2, r2, #1
  40145e:	54ca      	strb	r2, [r1, r3]
  401460:	4770      	bx	lr
                    eink_set_bit(&ptr_eink_gfx_config->display_buffer_1_ptr[byte_set], 2, 1);
  401462:	4a37      	ldr	r2, [pc, #220]	; (401540 <eink_ac040tc1_set_pixel+0x258>)
  401464:	6811      	ldr	r1, [r2, #0]
  401466:	6908      	ldr	r0, [r1, #16]
        *byte |= 1 << bit_number;
  401468:	5cc1      	ldrb	r1, [r0, r3]
  40146a:	f041 0104 	orr.w	r1, r1, #4
  40146e:	54c1      	strb	r1, [r0, r3]
                    eink_set_bit(&ptr_eink_gfx_config->display_buffer_1_ptr[byte_set], 1, 1);
  401470:	6811      	ldr	r1, [r2, #0]
  401472:	6908      	ldr	r0, [r1, #16]
  401474:	5cc1      	ldrb	r1, [r0, r3]
  401476:	f041 0102 	orr.w	r1, r1, #2
  40147a:	54c1      	strb	r1, [r0, r3]
                    eink_set_bit(&ptr_eink_gfx_config->display_buffer_1_ptr[byte_set], 0, 1);
  40147c:	6812      	ldr	r2, [r2, #0]
  40147e:	6911      	ldr	r1, [r2, #16]
  401480:	5cca      	ldrb	r2, [r1, r3]
  401482:	f042 0201 	orr.w	r2, r2, #1
  401486:	54ca      	strb	r2, [r1, r3]
  401488:	4770      	bx	lr
            switch(pixel_colour) {
  40148a:	2a07      	cmp	r2, #7
  40148c:	f200 80a9 	bhi.w	4015e2 <eink_ac040tc1_set_pixel+0x2fa>
  401490:	e8df f002 	tbb	[pc, r2]
  401494:	6c581804 	.word	0x6c581804
  401498:	9480402c 	.word	0x9480402c
                    eink_set_bit(&ptr_eink_gfx_config->display_buffer_1_ptr[byte_set], 6, 0);
  40149c:	4a28      	ldr	r2, [pc, #160]	; (401540 <eink_ac040tc1_set_pixel+0x258>)
  40149e:	6811      	ldr	r1, [r2, #0]
  4014a0:	6908      	ldr	r0, [r1, #16]
        *byte &= ~(1 << bit_number);
  4014a2:	5cc1      	ldrb	r1, [r0, r3]
  4014a4:	f021 0140 	bic.w	r1, r1, #64	; 0x40
  4014a8:	54c1      	strb	r1, [r0, r3]
                    eink_set_bit(&ptr_eink_gfx_config->display_buffer_1_ptr[byte_set], 5, 0);
  4014aa:	6811      	ldr	r1, [r2, #0]
  4014ac:	6908      	ldr	r0, [r1, #16]
  4014ae:	5cc1      	ldrb	r1, [r0, r3]
  4014b0:	f021 0120 	bic.w	r1, r1, #32
  4014b4:	54c1      	strb	r1, [r0, r3]
                    eink_set_bit(&ptr_eink_gfx_config->display_buffer_1_ptr[byte_set], 4, 0);
  4014b6:	6812      	ldr	r2, [r2, #0]
  4014b8:	6911      	ldr	r1, [r2, #16]
  4014ba:	5cca      	ldrb	r2, [r1, r3]
  4014bc:	f022 0210 	bic.w	r2, r2, #16
  4014c0:	54ca      	strb	r2, [r1, r3]
  4014c2:	4770      	bx	lr
                    eink_set_bit(&ptr_eink_gfx_config->display_buffer_1_ptr[byte_set], 6, 0);
  4014c4:	4a1e      	ldr	r2, [pc, #120]	; (401540 <eink_ac040tc1_set_pixel+0x258>)
  4014c6:	6811      	ldr	r1, [r2, #0]
  4014c8:	6908      	ldr	r0, [r1, #16]
  4014ca:	5cc1      	ldrb	r1, [r0, r3]
  4014cc:	f021 0140 	bic.w	r1, r1, #64	; 0x40
  4014d0:	54c1      	strb	r1, [r0, r3]
                    eink_set_bit(&ptr_eink_gfx_config->display_buffer_1_ptr[byte_set], 5, 0);
  4014d2:	6811      	ldr	r1, [r2, #0]
  4014d4:	6908      	ldr	r0, [r1, #16]
  4014d6:	5cc1      	ldrb	r1, [r0, r3]
  4014d8:	f021 0120 	bic.w	r1, r1, #32
  4014dc:	54c1      	strb	r1, [r0, r3]
                    eink_set_bit(&ptr_eink_gfx_config->display_buffer_1_ptr[byte_set], 4, 1);
  4014de:	6812      	ldr	r2, [r2, #0]
  4014e0:	6911      	ldr	r1, [r2, #16]
        *byte |= 1 << bit_number;
  4014e2:	5cca      	ldrb	r2, [r1, r3]
  4014e4:	f042 0210 	orr.w	r2, r2, #16
  4014e8:	54ca      	strb	r2, [r1, r3]
  4014ea:	4770      	bx	lr
                    eink_set_bit(&ptr_eink_gfx_config->display_buffer_1_ptr[byte_set], 6, 0);
  4014ec:	4a14      	ldr	r2, [pc, #80]	; (401540 <eink_ac040tc1_set_pixel+0x258>)
  4014ee:	6811      	ldr	r1, [r2, #0]
  4014f0:	6908      	ldr	r0, [r1, #16]
        *byte &= ~(1 << bit_number);
  4014f2:	5cc1      	ldrb	r1, [r0, r3]
  4014f4:	f021 0140 	bic.w	r1, r1, #64	; 0x40
  4014f8:	54c1      	strb	r1, [r0, r3]
                    eink_set_bit(&ptr_eink_gfx_config->display_buffer_1_ptr[byte_set], 5, 1);
  4014fa:	6811      	ldr	r1, [r2, #0]
  4014fc:	6908      	ldr	r0, [r1, #16]
        *byte |= 1 << bit_number;
  4014fe:	5cc1      	ldrb	r1, [r0, r3]
  401500:	f041 0120 	orr.w	r1, r1, #32
  401504:	54c1      	strb	r1, [r0, r3]
                    eink_set_bit(&ptr_eink_gfx_config->display_buffer_1_ptr[byte_set], 4, 0);
  401506:	6812      	ldr	r2, [r2, #0]
  401508:	6911      	ldr	r1, [r2, #16]
        *byte &= ~(1 << bit_number);
  40150a:	5cca      	ldrb	r2, [r1, r3]
  40150c:	f022 0210 	bic.w	r2, r2, #16
  401510:	54ca      	strb	r2, [r1, r3]
  401512:	4770      	bx	lr
                    eink_set_bit(&ptr_eink_gfx_config->display_buffer_1_ptr[byte_set], 6, 0);
  401514:	4a0a      	ldr	r2, [pc, #40]	; (401540 <eink_ac040tc1_set_pixel+0x258>)
  401516:	6811      	ldr	r1, [r2, #0]
  401518:	6908      	ldr	r0, [r1, #16]
  40151a:	5cc1      	ldrb	r1, [r0, r3]
  40151c:	f021 0140 	bic.w	r1, r1, #64	; 0x40
  401520:	54c1      	strb	r1, [r0, r3]
                    eink_set_bit(&ptr_eink_gfx_config->display_buffer_1_ptr[byte_set], 5, 1);
  401522:	6811      	ldr	r1, [r2, #0]
  401524:	6908      	ldr	r0, [r1, #16]
        *byte |= 1 << bit_number;
  401526:	5cc1      	ldrb	r1, [r0, r3]
  401528:	f041 0120 	orr.w	r1, r1, #32
  40152c:	54c1      	strb	r1, [r0, r3]
                    eink_set_bit(&ptr_eink_gfx_config->display_buffer_1_ptr[byte_set], 4, 1);
  40152e:	6812      	ldr	r2, [r2, #0]
  401530:	6911      	ldr	r1, [r2, #16]
  401532:	5cca      	ldrb	r2, [r1, r3]
  401534:	f042 0210 	orr.w	r2, r2, #16
  401538:	54ca      	strb	r2, [r1, r3]
  40153a:	4770      	bx	lr
  40153c:	20000518 	.word	0x20000518
  401540:	20000544 	.word	0x20000544
                    eink_set_bit(&ptr_eink_gfx_config->display_buffer_1_ptr[byte_set], 6, 1);
  401544:	4a27      	ldr	r2, [pc, #156]	; (4015e4 <eink_ac040tc1_set_pixel+0x2fc>)
  401546:	6811      	ldr	r1, [r2, #0]
  401548:	6908      	ldr	r0, [r1, #16]
  40154a:	5cc1      	ldrb	r1, [r0, r3]
  40154c:	f041 0140 	orr.w	r1, r1, #64	; 0x40
  401550:	54c1      	strb	r1, [r0, r3]
                    eink_set_bit(&ptr_eink_gfx_config->display_buffer_1_ptr[byte_set], 5, 0);
  401552:	6811      	ldr	r1, [r2, #0]
  401554:	6908      	ldr	r0, [r1, #16]
        *byte &= ~(1 << bit_number);
  401556:	5cc1      	ldrb	r1, [r0, r3]
  401558:	f021 0120 	bic.w	r1, r1, #32
  40155c:	54c1      	strb	r1, [r0, r3]
                    eink_set_bit(&ptr_eink_gfx_config->display_buffer_1_ptr[byte_set], 4, 0);
  40155e:	6812      	ldr	r2, [r2, #0]
  401560:	6911      	ldr	r1, [r2, #16]
  401562:	5cca      	ldrb	r2, [r1, r3]
  401564:	f022 0210 	bic.w	r2, r2, #16
  401568:	54ca      	strb	r2, [r1, r3]
  40156a:	4770      	bx	lr
                    eink_set_bit(&ptr_eink_gfx_config->display_buffer_1_ptr[byte_set], 6, 1);
  40156c:	4a1d      	ldr	r2, [pc, #116]	; (4015e4 <eink_ac040tc1_set_pixel+0x2fc>)
  40156e:	6811      	ldr	r1, [r2, #0]
  401570:	6908      	ldr	r0, [r1, #16]
        *byte |= 1 << bit_number;
  401572:	5cc1      	ldrb	r1, [r0, r3]
  401574:	f041 0140 	orr.w	r1, r1, #64	; 0x40
  401578:	54c1      	strb	r1, [r0, r3]
                    eink_set_bit(&ptr_eink_gfx_config->display_buffer_1_ptr[byte_set], 5, 0);
  40157a:	6811      	ldr	r1, [r2, #0]
  40157c:	6908      	ldr	r0, [r1, #16]
        *byte &= ~(1 << bit_number);
  40157e:	5cc1      	ldrb	r1, [r0, r3]
  401580:	f021 0120 	bic.w	r1, r1, #32
  401584:	54c1      	strb	r1, [r0, r3]
                    eink_set_bit(&ptr_eink_gfx_config->display_buffer_1_ptr[byte_set], 4, 1);
  401586:	6812      	ldr	r2, [r2, #0]
  401588:	6911      	ldr	r1, [r2, #16]
        *byte |= 1 << bit_number;
  40158a:	5cca      	ldrb	r2, [r1, r3]
  40158c:	f042 0210 	orr.w	r2, r2, #16
  401590:	54ca      	strb	r2, [r1, r3]
  401592:	4770      	bx	lr
                    eink_set_bit(&ptr_eink_gfx_config->display_buffer_1_ptr[byte_set], 6, 1);
  401594:	4a13      	ldr	r2, [pc, #76]	; (4015e4 <eink_ac040tc1_set_pixel+0x2fc>)
  401596:	6811      	ldr	r1, [r2, #0]
  401598:	6908      	ldr	r0, [r1, #16]
  40159a:	5cc1      	ldrb	r1, [r0, r3]
  40159c:	f041 0140 	orr.w	r1, r1, #64	; 0x40
  4015a0:	54c1      	strb	r1, [r0, r3]
                    eink_set_bit(&ptr_eink_gfx_config->display_buffer_1_ptr[byte_set], 5, 1);
  4015a2:	6811      	ldr	r1, [r2, #0]
  4015a4:	6908      	ldr	r0, [r1, #16]
  4015a6:	5cc1      	ldrb	r1, [r0, r3]
  4015a8:	f041 0120 	orr.w	r1, r1, #32
  4015ac:	54c1      	strb	r1, [r0, r3]
                    eink_set_bit(&ptr_eink_gfx_config->display_buffer_1_ptr[byte_set], 4, 0);
  4015ae:	6812      	ldr	r2, [r2, #0]
  4015b0:	6911      	ldr	r1, [r2, #16]
        *byte &= ~(1 << bit_number);
  4015b2:	5cca      	ldrb	r2, [r1, r3]
  4015b4:	f022 0210 	bic.w	r2, r2, #16
  4015b8:	54ca      	strb	r2, [r1, r3]
  4015ba:	4770      	bx	lr
                    eink_set_bit(&ptr_eink_gfx_config->display_buffer_1_ptr[byte_set], 6, 1);
  4015bc:	4a09      	ldr	r2, [pc, #36]	; (4015e4 <eink_ac040tc1_set_pixel+0x2fc>)
  4015be:	6811      	ldr	r1, [r2, #0]
  4015c0:	6908      	ldr	r0, [r1, #16]
        *byte |= 1 << bit_number;
  4015c2:	5cc1      	ldrb	r1, [r0, r3]
  4015c4:	f041 0140 	orr.w	r1, r1, #64	; 0x40
  4015c8:	54c1      	strb	r1, [r0, r3]
                    eink_set_bit(&ptr_eink_gfx_config->display_buffer_1_ptr[byte_set], 5, 1);
  4015ca:	6811      	ldr	r1, [r2, #0]
  4015cc:	6908      	ldr	r0, [r1, #16]
  4015ce:	5cc1      	ldrb	r1, [r0, r3]
  4015d0:	f041 0120 	orr.w	r1, r1, #32
  4015d4:	54c1      	strb	r1, [r0, r3]
                    eink_set_bit(&ptr_eink_gfx_config->display_buffer_1_ptr[byte_set], 4, 1);
  4015d6:	6812      	ldr	r2, [r2, #0]
  4015d8:	6911      	ldr	r1, [r2, #16]
  4015da:	5cca      	ldrb	r2, [r1, r3]
  4015dc:	f042 0210 	orr.w	r2, r2, #16
  4015e0:	54ca      	strb	r2, [r1, r3]
  4015e2:	4770      	bx	lr
  4015e4:	20000544 	.word	0x20000544

004015e8 <eink_hink_e0154a05_set_pixel>:
{    
  4015e8:	b5f0      	push	{r4, r5, r6, r7, lr}
    switch(ssd1608_global_instance.display_config.display_rotation)
  4015ea:	4c28      	ldr	r4, [pc, #160]	; (40168c <eink_hink_e0154a05_set_pixel+0xa4>)
  4015ec:	7824      	ldrb	r4, [r4, #0]
  4015ee:	b2e4      	uxtb	r4, r4
  4015f0:	2c03      	cmp	r4, #3
  4015f2:	d80c      	bhi.n	40160e <eink_hink_e0154a05_set_pixel+0x26>
  4015f4:	e8df f004 	tbb	[pc, r4]
  4015f8:	261c1002 	.word	0x261c1002
            x_set = ssd1608_global_instance.display_height - y;
  4015fc:	4c23      	ldr	r4, [pc, #140]	; (40168c <eink_hink_e0154a05_set_pixel+0xa4>)
  4015fe:	88e3      	ldrh	r3, [r4, #6]
  401600:	1a59      	subs	r1, r3, r1
  401602:	b28b      	uxth	r3, r1
            max_x = ssd1608_global_instance.display_height;
  401604:	88e6      	ldrh	r6, [r4, #6]
  401606:	b2b6      	uxth	r6, r6
            max_y = ssd1608_global_instance.display_width;
  401608:	88a7      	ldrh	r7, [r4, #4]
  40160a:	b2bf      	uxth	r7, r7
            y_set = x;
  40160c:	4605      	mov	r5, r0
    if ( (x_set >= 0) && (x_set < max_x) && (y_set >= 0) && (y_set < max_y) ) {
  40160e:	42b3      	cmp	r3, r6
  401610:	d201      	bcs.n	401616 <eink_hink_e0154a05_set_pixel+0x2e>
  401612:	42bd      	cmp	r5, r7
  401614:	d31e      	bcc.n	401654 <eink_hink_e0154a05_set_pixel+0x6c>
  401616:	bdf0      	pop	{r4, r5, r6, r7, pc}
            x_set = ssd1608_global_instance.display_width - x;
  401618:	4c1c      	ldr	r4, [pc, #112]	; (40168c <eink_hink_e0154a05_set_pixel+0xa4>)
  40161a:	88a3      	ldrh	r3, [r4, #4]
  40161c:	1a18      	subs	r0, r3, r0
  40161e:	b283      	uxth	r3, r0
            y_set = ssd1608_global_instance.display_height - y;
  401620:	88e5      	ldrh	r5, [r4, #6]
  401622:	1a69      	subs	r1, r5, r1
  401624:	b28d      	uxth	r5, r1
            max_x = ssd1608_global_instance.display_width;
  401626:	88a6      	ldrh	r6, [r4, #4]
  401628:	b2b6      	uxth	r6, r6
            max_y = ssd1608_global_instance.display_height;
  40162a:	88e7      	ldrh	r7, [r4, #6]
  40162c:	b2bf      	uxth	r7, r7
            break;
  40162e:	e7ee      	b.n	40160e <eink_hink_e0154a05_set_pixel+0x26>
            y_set = ssd1608_global_instance.display_width - x;
  401630:	4c16      	ldr	r4, [pc, #88]	; (40168c <eink_hink_e0154a05_set_pixel+0xa4>)
  401632:	88a5      	ldrh	r5, [r4, #4]
  401634:	1a28      	subs	r0, r5, r0
  401636:	b285      	uxth	r5, r0
            max_x = ssd1608_global_instance.display_height;
  401638:	88e6      	ldrh	r6, [r4, #6]
  40163a:	b2b6      	uxth	r6, r6
            max_y = ssd1608_global_instance.display_width;
  40163c:	88a7      	ldrh	r7, [r4, #4]
  40163e:	b2bf      	uxth	r7, r7
            x_set = y;
  401640:	460b      	mov	r3, r1
            break;
  401642:	e7e4      	b.n	40160e <eink_hink_e0154a05_set_pixel+0x26>
            max_x = ssd1608_global_instance.display_width;
  401644:	4b11      	ldr	r3, [pc, #68]	; (40168c <eink_hink_e0154a05_set_pixel+0xa4>)
  401646:	889e      	ldrh	r6, [r3, #4]
  401648:	b2b6      	uxth	r6, r6
            max_y = ssd1608_global_instance.display_height;
  40164a:	88df      	ldrh	r7, [r3, #6]
  40164c:	b2bf      	uxth	r7, r7
            y_set = y;
  40164e:	460d      	mov	r5, r1
            x_set = x;
  401650:	4603      	mov	r3, r0
            break;
  401652:	e7dc      	b.n	40160e <eink_hink_e0154a05_set_pixel+0x26>
        eink_set_bit(&ptr_eink_gfx_config->display_buffer_1_ptr[byte_set], bit_set, pixel_set);
  401654:	490e      	ldr	r1, [pc, #56]	; (401690 <eink_hink_e0154a05_set_pixel+0xa8>)
  401656:	6809      	ldr	r1, [r1, #0]
        byte_set = (((x_set + 1) * 25) - 1 - y1_set);
  401658:	3301      	adds	r3, #1
  40165a:	eb03 0383 	add.w	r3, r3, r3, lsl #2
  40165e:	eb03 0383 	add.w	r3, r3, r3, lsl #2
  401662:	eba3 03e5 	sub.w	r3, r3, r5, asr #3
  401666:	3b01      	subs	r3, #1
        eink_set_bit(&ptr_eink_gfx_config->display_buffer_1_ptr[byte_set], bit_set, pixel_set);
  401668:	b29b      	uxth	r3, r3
  40166a:	6909      	ldr	r1, [r1, #16]
  40166c:	f005 0507 	and.w	r5, r5, #7
    if (bit_value == 1) {
  401670:	b932      	cbnz	r2, 401680 <eink_hink_e0154a05_set_pixel+0x98>
        *byte &= ~(1 << bit_number);
  401672:	2201      	movs	r2, #1
  401674:	40aa      	lsls	r2, r5
  401676:	5ccd      	ldrb	r5, [r1, r3]
  401678:	ea25 0502 	bic.w	r5, r5, r2
  40167c:	54cd      	strb	r5, [r1, r3]
}
  40167e:	e7ca      	b.n	401616 <eink_hink_e0154a05_set_pixel+0x2e>
        *byte |= 1 << bit_number;
  401680:	2201      	movs	r2, #1
  401682:	40aa      	lsls	r2, r5
  401684:	5ccd      	ldrb	r5, [r1, r3]
  401686:	4315      	orrs	r5, r2
  401688:	54cd      	strb	r5, [r1, r3]
  40168a:	bdf0      	pop	{r4, r5, r6, r7, pc}
  40168c:	200004c8 	.word	0x200004c8
  401690:	20000544 	.word	0x20000544

00401694 <eink_ed029tc1_set_pixel>:
{    
  401694:	b470      	push	{r4, r5, r6}
    uint8_t height_bytes = uc8151_global_instance.display_height / 8;
  401696:	4b38      	ldr	r3, [pc, #224]	; (401778 <eink_ed029tc1_set_pixel+0xe4>)
  401698:	891c      	ldrh	r4, [r3, #8]
    uint8_t width_bytes = uc8151_global_instance.display_width / 8;
  40169a:	88dd      	ldrh	r5, [r3, #6]
    if ( (x_set >= 0) && (x_set < uc8151_global_instance.display_width) && (y_set >= 0) && (y_set < uc8151_global_instance.display_height) ) {
  40169c:	88db      	ldrh	r3, [r3, #6]
  40169e:	b29b      	uxth	r3, r3
  4016a0:	4283      	cmp	r3, r0
  4016a2:	d925      	bls.n	4016f0 <eink_ed029tc1_set_pixel+0x5c>
  4016a4:	b2a6      	uxth	r6, r4
  4016a6:	b2ad      	uxth	r5, r5
  4016a8:	4b33      	ldr	r3, [pc, #204]	; (401778 <eink_ed029tc1_set_pixel+0xe4>)
  4016aa:	891c      	ldrh	r4, [r3, #8]
  4016ac:	b2a4      	uxth	r4, r4
  4016ae:	428c      	cmp	r4, r1
  4016b0:	d91e      	bls.n	4016f0 <eink_ed029tc1_set_pixel+0x5c>
        if ( (uc8151_global_instance.panel_settings.display_rotation == ROTATE_90) || (uc8151_global_instance.panel_settings.display_rotation == ROTATE_270) ) {
  4016b2:	78db      	ldrb	r3, [r3, #3]
  4016b4:	b2db      	uxtb	r3, r3
  4016b6:	2b01      	cmp	r3, #1
  4016b8:	d01c      	beq.n	4016f4 <eink_ed029tc1_set_pixel+0x60>
  4016ba:	4b2f      	ldr	r3, [pc, #188]	; (401778 <eink_ed029tc1_set_pixel+0xe4>)
  4016bc:	78db      	ldrb	r3, [r3, #3]
  4016be:	b2db      	uxtb	r3, r3
  4016c0:	2b03      	cmp	r3, #3
  4016c2:	d017      	beq.n	4016f4 <eink_ed029tc1_set_pixel+0x60>
            byte_set = (((x_set + 1) * height_bytes) - 1 - y1_set);
  4016c4:	f3c6 04c7 	ubfx	r4, r6, #3, #8
  4016c8:	fb00 4404 	mla	r4, r0, r4, r4
  4016cc:	ea6f 03e1 	mvn.w	r3, r1, asr #3
  4016d0:	4423      	add	r3, r4
            bit_set = (y_set % 8);
  4016d2:	f001 0107 	and.w	r1, r1, #7
        if (uc8151_global_instance.panel_settings.display_colours == B_W_PIXELS) {
  4016d6:	4828      	ldr	r0, [pc, #160]	; (401778 <eink_ed029tc1_set_pixel+0xe4>)
  4016d8:	7880      	ldrb	r0, [r0, #2]
  4016da:	b9e0      	cbnz	r0, 401716 <eink_ed029tc1_set_pixel+0x82>
            eink_set_bit(&ptr_eink_gfx_config->display_buffer_2_ptr[byte_set], bit_set, pixel_set_2);
  4016dc:	4827      	ldr	r0, [pc, #156]	; (40177c <eink_ed029tc1_set_pixel+0xe8>)
  4016de:	6800      	ldr	r0, [r0, #0]
  4016e0:	6944      	ldr	r4, [r0, #20]
    if (bit_value == 1) {
  4016e2:	b992      	cbnz	r2, 40170a <eink_ed029tc1_set_pixel+0x76>
        *byte &= ~(1 << bit_number);
  4016e4:	2001      	movs	r0, #1
  4016e6:	4088      	lsls	r0, r1
  4016e8:	5ce1      	ldrb	r1, [r4, r3]
  4016ea:	ea21 0100 	bic.w	r1, r1, r0
  4016ee:	54e1      	strb	r1, [r4, r3]
}
  4016f0:	bc70      	pop	{r4, r5, r6}
  4016f2:	4770      	bx	lr
            byte_set = (((y_set + 1) * width_bytes ) - 1 - x1_set);
  4016f4:	f3c5 03c7 	ubfx	r3, r5, #3, #8
  4016f8:	fb01 3303 	mla	r3, r1, r3, r3
            x1_set = 15 - ((x_set - (x_set % 8)) / 8);
  4016fc:	eb03 03e0 	add.w	r3, r3, r0, asr #3
            byte_set = (((y_set + 1) * width_bytes ) - 1 - x1_set);
  401700:	3b10      	subs	r3, #16
            bit_set = 7 - (x_set % 8);
  401702:	43c1      	mvns	r1, r0
  401704:	f001 0107 	and.w	r1, r1, #7
  401708:	e7e5      	b.n	4016d6 <eink_ed029tc1_set_pixel+0x42>
        *byte |= 1 << bit_number;
  40170a:	2001      	movs	r0, #1
  40170c:	4088      	lsls	r0, r1
  40170e:	5ce1      	ldrb	r1, [r4, r3]
  401710:	4301      	orrs	r1, r0
  401712:	54e1      	strb	r1, [r4, r3]
  401714:	e7ec      	b.n	4016f0 <eink_ed029tc1_set_pixel+0x5c>
            if (pixel_colour == PIXEL_BLACK) {
  401716:	b1ba      	cbz	r2, 401748 <eink_ed029tc1_set_pixel+0xb4>
            } else if(pixel_colour == PIXEL_WHITE) {
  401718:	3a02      	subs	r2, #2
  40171a:	b2d2      	uxtb	r2, r2
  40171c:	2a01      	cmp	r2, #1
  40171e:	d801      	bhi.n	401724 <eink_ed029tc1_set_pixel+0x90>
                pixel_set_2 = 0;    
  401720:	2600      	movs	r6, #0
  401722:	e012      	b.n	40174a <eink_ed029tc1_set_pixel+0xb6>
            eink_set_bit(&ptr_eink_gfx_config->display_buffer_1_ptr[byte_set], bit_set, pixel_set_1);
  401724:	4c15      	ldr	r4, [pc, #84]	; (40177c <eink_ed029tc1_set_pixel+0xe8>)
  401726:	6822      	ldr	r2, [r4, #0]
  401728:	6915      	ldr	r5, [r2, #16]
  40172a:	2201      	movs	r2, #1
  40172c:	fa02 f001 	lsl.w	r0, r2, r1
  401730:	5cea      	ldrb	r2, [r5, r3]
  401732:	4302      	orrs	r2, r0
  401734:	54ea      	strb	r2, [r5, r3]
            eink_set_bit(&ptr_eink_gfx_config->display_buffer_2_ptr[byte_set], bit_set, pixel_set_2);    
  401736:	6822      	ldr	r2, [r4, #0]
  401738:	6952      	ldr	r2, [r2, #20]
  40173a:	441a      	add	r2, r3
  40173c:	2301      	movs	r3, #1
  40173e:	408b      	lsls	r3, r1
  401740:	7811      	ldrb	r1, [r2, #0]
  401742:	4319      	orrs	r1, r3
  401744:	7011      	strb	r1, [r2, #0]
  401746:	e7d3      	b.n	4016f0 <eink_ed029tc1_set_pixel+0x5c>
                pixel_set_2 = 1;
  401748:	2601      	movs	r6, #1
            eink_set_bit(&ptr_eink_gfx_config->display_buffer_1_ptr[byte_set], bit_set, pixel_set_1);
  40174a:	4c0c      	ldr	r4, [pc, #48]	; (40177c <eink_ed029tc1_set_pixel+0xe8>)
  40174c:	6822      	ldr	r2, [r4, #0]
  40174e:	6915      	ldr	r5, [r2, #16]
        *byte &= ~(1 << bit_number);
  401750:	2201      	movs	r2, #1
  401752:	fa02 f001 	lsl.w	r0, r2, r1
  401756:	5cea      	ldrb	r2, [r5, r3]
  401758:	ea22 0200 	bic.w	r2, r2, r0
  40175c:	54ea      	strb	r2, [r5, r3]
            eink_set_bit(&ptr_eink_gfx_config->display_buffer_2_ptr[byte_set], bit_set, pixel_set_2);    
  40175e:	6822      	ldr	r2, [r4, #0]
  401760:	6954      	ldr	r4, [r2, #20]
  401762:	18e2      	adds	r2, r4, r3
    if (bit_value == 1) {
  401764:	2e00      	cmp	r6, #0
  401766:	d1e9      	bne.n	40173c <eink_ed029tc1_set_pixel+0xa8>
        *byte &= ~(1 << bit_number);
  401768:	2001      	movs	r0, #1
  40176a:	4088      	lsls	r0, r1
  40176c:	5ce1      	ldrb	r1, [r4, r3]
  40176e:	ea21 0100 	bic.w	r1, r1, r0
  401772:	54e1      	strb	r1, [r4, r3]
}
  401774:	e7bc      	b.n	4016f0 <eink_ed029tc1_set_pixel+0x5c>
  401776:	bf00      	nop
  401778:	20000508 	.word	0x20000508
  40177c:	20000544 	.word	0x20000544

00401780 <eink_el026tr1_set_pixel>:
{    
  401780:	b508      	push	{r3, lr}
    eink_ed029tc1_set_pixel(x_set, y_set, pixel_colour);
  401782:	4b01      	ldr	r3, [pc, #4]	; (401788 <eink_el026tr1_set_pixel+0x8>)
  401784:	4798      	blx	r3
  401786:	bd08      	pop	{r3, pc}
  401788:	00401695 	.word	0x00401695

0040178c <eink_ed013tc1_set_pixel>:
{    
  40178c:	b410      	push	{r4}
    uint8_t height_bytes = uc8173_global_instance.display_height / 8;
  40178e:	4c15      	ldr	r4, [pc, #84]	; (4017e4 <eink_ed013tc1_set_pixel+0x58>)
  401790:	88e3      	ldrh	r3, [r4, #6]
    if ( (x_set >= 0) && (x_set < uc8173_global_instance.display_width) && (y_set >= 0) && (y_set < uc8173_global_instance.display_height) ) {
  401792:	88a4      	ldrh	r4, [r4, #4]
  401794:	b2a4      	uxth	r4, r4
  401796:	4284      	cmp	r4, r0
  401798:	d917      	bls.n	4017ca <eink_ed013tc1_set_pixel+0x3e>
  40179a:	b29b      	uxth	r3, r3
  40179c:	4c11      	ldr	r4, [pc, #68]	; (4017e4 <eink_ed013tc1_set_pixel+0x58>)
  40179e:	88e4      	ldrh	r4, [r4, #6]
  4017a0:	b2a4      	uxth	r4, r4
  4017a2:	428c      	cmp	r4, r1
  4017a4:	d911      	bls.n	4017ca <eink_ed013tc1_set_pixel+0x3e>
        byte_set = ((x_set * height_bytes) - 1 - y1_set);
  4017a6:	f3c3 03c7 	ubfx	r3, r3, #3, #8
  4017aa:	fb00 f303 	mul.w	r3, r0, r3
  4017ae:	eba3 03e1 	sub.w	r3, r3, r1, asr #3
  4017b2:	3b01      	subs	r3, #1
        bit_set = (y_set % 8);
  4017b4:	f001 0107 	and.w	r1, r1, #7
		if(pixel_colour == PIXEL_BLACK) eink_set_bit(&ptr_eink_gfx_config->display_buffer_2_ptr[byte_set], bit_set, 0);
  4017b8:	b152      	cbz	r2, 4017d0 <eink_ed013tc1_set_pixel+0x44>
		else eink_set_bit(&ptr_eink_gfx_config->display_buffer_2_ptr[byte_set], bit_set, 1);
  4017ba:	4a0b      	ldr	r2, [pc, #44]	; (4017e8 <eink_ed013tc1_set_pixel+0x5c>)
  4017bc:	6812      	ldr	r2, [r2, #0]
  4017be:	6950      	ldr	r0, [r2, #20]
        *byte |= 1 << bit_number;
  4017c0:	2201      	movs	r2, #1
  4017c2:	408a      	lsls	r2, r1
  4017c4:	5cc1      	ldrb	r1, [r0, r3]
  4017c6:	4311      	orrs	r1, r2
  4017c8:	54c1      	strb	r1, [r0, r3]
}
  4017ca:	f85d 4b04 	ldr.w	r4, [sp], #4
  4017ce:	4770      	bx	lr
		if(pixel_colour == PIXEL_BLACK) eink_set_bit(&ptr_eink_gfx_config->display_buffer_2_ptr[byte_set], bit_set, 0);
  4017d0:	4a05      	ldr	r2, [pc, #20]	; (4017e8 <eink_ed013tc1_set_pixel+0x5c>)
  4017d2:	6812      	ldr	r2, [r2, #0]
  4017d4:	6950      	ldr	r0, [r2, #20]
        *byte &= ~(1 << bit_number);
  4017d6:	2201      	movs	r2, #1
  4017d8:	408a      	lsls	r2, r1
  4017da:	5cc1      	ldrb	r1, [r0, r3]
  4017dc:	ea21 0102 	bic.w	r1, r1, r2
  4017e0:	54c1      	strb	r1, [r0, r3]
  4017e2:	e7f2      	b.n	4017ca <eink_ed013tc1_set_pixel+0x3e>
  4017e4:	200004a0 	.word	0x200004a0
  4017e8:	20000544 	.word	0x20000544

004017ec <eink_et011tt2_set_pixel_raw>:
{
  4017ec:	b430      	push	{r4, r5}
    uint8_t height_bytes = uc8173_global_instance.display_height / 4;
  4017ee:	4b37      	ldr	r3, [pc, #220]	; (4018cc <eink_et011tt2_set_pixel_raw+0xe0>)
  4017f0:	88dc      	ldrh	r4, [r3, #6]
  4017f2:	b2a5      	uxth	r5, r4
    uint8_t width_bytes = uc8173_global_instance.display_width / 4;
  4017f4:	889c      	ldrh	r4, [r3, #4]
    if ( (x_set >= 0) && (x_set < uc8173_global_instance.display_width) && (y_set >= 0) && (y_set < uc8173_global_instance.display_height) ) {
  4017f6:	889b      	ldrh	r3, [r3, #4]
  4017f8:	b29b      	uxth	r3, r3
  4017fa:	4283      	cmp	r3, r0
  4017fc:	d936      	bls.n	40186c <eink_et011tt2_set_pixel_raw+0x80>
  4017fe:	b2a4      	uxth	r4, r4
  401800:	4b32      	ldr	r3, [pc, #200]	; (4018cc <eink_et011tt2_set_pixel_raw+0xe0>)
  401802:	88db      	ldrh	r3, [r3, #6]
  401804:	b29b      	uxth	r3, r3
  401806:	428b      	cmp	r3, r1
  401808:	d930      	bls.n	40186c <eink_et011tt2_set_pixel_raw+0x80>
		if ( (uc8173_global_instance.display_config.display_rotation == ROTATE_90) || (uc8173_global_instance.display_config.display_rotation == ROTATE_270) ) {
  40180a:	4b30      	ldr	r3, [pc, #192]	; (4018cc <eink_et011tt2_set_pixel_raw+0xe0>)
  40180c:	781b      	ldrb	r3, [r3, #0]
  40180e:	b2db      	uxtb	r3, r3
  401810:	2b01      	cmp	r3, #1
  401812:	d02d      	beq.n	401870 <eink_et011tt2_set_pixel_raw+0x84>
  401814:	4b2d      	ldr	r3, [pc, #180]	; (4018cc <eink_et011tt2_set_pixel_raw+0xe0>)
  401816:	781b      	ldrb	r3, [r3, #0]
  401818:	b2db      	uxtb	r3, r3
  40181a:	2b03      	cmp	r3, #3
  40181c:	d028      	beq.n	401870 <eink_et011tt2_set_pixel_raw+0x84>
			byte_set = ((x_set * height_bytes) - 1 - y1_set);
  40181e:	f3c5 0487 	ubfx	r4, r5, #2, #8
  401822:	fb00 f004 	mul.w	r0, r0, r4
  401826:	eba0 00a1 	sub.w	r0, r0, r1, asr #2
  40182a:	3801      	subs	r0, #1
			bit_set = (y_set % 4) * 2;
  40182c:	f001 0103 	and.w	r1, r1, #3
  401830:	0049      	lsls	r1, r1, #1
			eink_set_bit(&ptr_eink_gfx_config->display_buffer_1_ptr[byte_set], bit_set, (pixel_set & 0x1));
  401832:	4b27      	ldr	r3, [pc, #156]	; (4018d0 <eink_et011tt2_set_pixel_raw+0xe4>)
  401834:	681b      	ldr	r3, [r3, #0]
  401836:	691b      	ldr	r3, [r3, #16]
    if (bit_value == 1) {
  401838:	f012 0f01 	tst.w	r2, #1
        *byte |= 1 << bit_number;
  40183c:	f04f 0401 	mov.w	r4, #1
  401840:	fa04 f501 	lsl.w	r5, r4, r1
  401844:	5c1c      	ldrb	r4, [r3, r0]
  401846:	bf14      	ite	ne
  401848:	432c      	orrne	r4, r5
        *byte &= ~(1 << bit_number);
  40184a:	43ac      	biceq	r4, r5
  40184c:	541c      	strb	r4, [r3, r0]
			eink_set_bit(&ptr_eink_gfx_config->display_buffer_1_ptr[byte_set], bit_set+1, ((pixel_set >> 1) & 0x1));
  40184e:	4b20      	ldr	r3, [pc, #128]	; (4018d0 <eink_et011tt2_set_pixel_raw+0xe4>)
  401850:	681b      	ldr	r3, [r3, #0]
  401852:	691b      	ldr	r3, [r3, #16]
  401854:	3101      	adds	r1, #1
    if (bit_value == 1) {
  401856:	f012 0f02 	tst.w	r2, #2
        *byte |= 1 << bit_number;
  40185a:	f04f 0201 	mov.w	r2, #1
  40185e:	fa02 f201 	lsl.w	r2, r2, r1
  401862:	5c19      	ldrb	r1, [r3, r0]
  401864:	bf14      	ite	ne
  401866:	4311      	orrne	r1, r2
        *byte &= ~(1 << bit_number);
  401868:	4391      	biceq	r1, r2
  40186a:	5419      	strb	r1, [r3, r0]
}
  40186c:	bc30      	pop	{r4, r5}
  40186e:	4770      	bx	lr
			byte_set = (((y_set + 1) * width_bytes ) - 1 - x1_set);
  401870:	f3c4 0387 	ubfx	r3, r4, #2, #8
  401874:	fb01 3303 	mla	r3, r1, r3, r3
			x1_set = 59 - ((x_set - (x_set % 4)) / 4);
  401878:	eb03 03a0 	add.w	r3, r3, r0, asr #2
			byte_set = (((y_set + 1) * width_bytes ) - 1 - x1_set);
  40187c:	3b3c      	subs	r3, #60	; 0x3c
			bit_set = 7 - ((x_set % 4) * 2);
  40187e:	f000 0003 	and.w	r0, r0, #3
  401882:	0040      	lsls	r0, r0, #1
  401884:	f1c0 0107 	rsb	r1, r0, #7
  401888:	b2c9      	uxtb	r1, r1
			eink_set_bit(&ptr_eink_gfx_config->display_buffer_1_ptr[byte_set], bit_set, ((pixel_set >> 1) & 0x1));
  40188a:	4c11      	ldr	r4, [pc, #68]	; (4018d0 <eink_et011tt2_set_pixel_raw+0xe4>)
  40188c:	6824      	ldr	r4, [r4, #0]
  40188e:	6924      	ldr	r4, [r4, #16]
    if (bit_value == 1) {
  401890:	f012 0f02 	tst.w	r2, #2
        *byte |= 1 << bit_number;
  401894:	f04f 0501 	mov.w	r5, #1
  401898:	fa05 f501 	lsl.w	r5, r5, r1
  40189c:	5ce1      	ldrb	r1, [r4, r3]
  40189e:	bf14      	ite	ne
  4018a0:	4329      	orrne	r1, r5
        *byte &= ~(1 << bit_number);
  4018a2:	43a9      	biceq	r1, r5
  4018a4:	54e1      	strb	r1, [r4, r3]
			eink_set_bit(&ptr_eink_gfx_config->display_buffer_1_ptr[byte_set], bit_set-1, (pixel_set & 0x1));
  4018a6:	490a      	ldr	r1, [pc, #40]	; (4018d0 <eink_et011tt2_set_pixel_raw+0xe4>)
  4018a8:	6809      	ldr	r1, [r1, #0]
  4018aa:	6909      	ldr	r1, [r1, #16]
  4018ac:	f1c0 0006 	rsb	r0, r0, #6
  4018b0:	b2c0      	uxtb	r0, r0
    if (bit_value == 1) {
  4018b2:	f012 0f01 	tst.w	r2, #1
        *byte |= 1 << bit_number;
  4018b6:	f04f 0201 	mov.w	r2, #1
  4018ba:	fa02 f200 	lsl.w	r2, r2, r0
  4018be:	5cc8      	ldrb	r0, [r1, r3]
  4018c0:	bf14      	ite	ne
  4018c2:	4310      	orrne	r0, r2
        *byte &= ~(1 << bit_number);
  4018c4:	4390      	biceq	r0, r2
  4018c6:	54c8      	strb	r0, [r1, r3]
  4018c8:	e7d0      	b.n	40186c <eink_et011tt2_set_pixel_raw+0x80>
  4018ca:	bf00      	nop
  4018cc:	200004a0 	.word	0x200004a0
  4018d0:	20000544 	.word	0x20000544

004018d4 <eink_et011tt2_set_pixel>:
{    
  4018d4:	b508      	push	{r3, lr}
	switch(pixel_colour) {
  4018d6:	b11a      	cbz	r2, 4018e0 <eink_et011tt2_set_pixel+0xc>
            eink_et011tt2_set_pixel_raw(x_set, y_set, 0x3);
  4018d8:	2203      	movs	r2, #3
  4018da:	4b03      	ldr	r3, [pc, #12]	; (4018e8 <eink_et011tt2_set_pixel+0x14>)
  4018dc:	4798      	blx	r3
  4018de:	bd08      	pop	{r3, pc}
            eink_et011tt2_set_pixel_raw(x_set, y_set, 0x0);
  4018e0:	4b01      	ldr	r3, [pc, #4]	; (4018e8 <eink_et011tt2_set_pixel+0x14>)
  4018e2:	4798      	blx	r3
            break;
  4018e4:	bd08      	pop	{r3, pc}
  4018e6:	bf00      	nop
  4018e8:	004017ed 	.word	0x004017ed

004018ec <eink_et011tt2_graphics_load_2bgrey_image>:
 *                           as a multiple of 8.
 * \param x_place X location to place with bitmap.
 * \param y_place Y location to place with bitmap.
 */
void eink_et011tt2_graphics_load_2bgrey_image(uint8_t *img_array, uint16_t array_size, eink_coordinate image_width_px, eink_coordinate image_height_bytes, eink_coordinate x_place, eink_coordinate y_place)
{
  4018ec:	e92d 4ff0 	stmdb	sp!, {r4, r5, r6, r7, r8, r9, sl, fp, lr}
  4018f0:	b087      	sub	sp, #28
  4018f2:	f8bd 1040 	ldrh.w	r1, [sp, #64]	; 0x40
  4018f6:	9102      	str	r1, [sp, #8]
    uint16_t buffer_index, i, j;
    uint16_t k, l, m, bit_value[4];
    
    /* Scan pixels by column */
    for (i = 0; i < image_width_px; i++) {
  4018f8:	2a00      	cmp	r2, #0
  4018fa:	d047      	beq.n	40198c <eink_et011tt2_graphics_load_2bgrey_image+0xa0>
  4018fc:	9201      	str	r2, [sp, #4]
  4018fe:	9305      	str	r3, [sp, #20]
  401900:	9004      	str	r0, [sp, #16]
  401902:	f04f 0a00 	mov.w	sl, #0
        m = 0;
        for (j = (image_height_bytes-1); j > 0; j--) {
  401906:	f103 3bff 	add.w	fp, r3, #4294967295
  40190a:	fa1f fb8b 	uxth.w	fp, fp
            /* Process each pixel in byte  */
            bit_value[0] = ((img_array[(i*image_height_bytes)+j]) & 0x3);
  40190e:	f8bd 3044 	ldrh.w	r3, [sp, #68]	; 0x44
  401912:	9303      	str	r3, [sp, #12]
            bit_value[1] = ((img_array[(i*image_height_bytes)+j] >> 2) & 0x3);
            bit_value[2] = ((img_array[(i*image_height_bytes)+j] >> 4) & 0x3);
            bit_value[3] = ((img_array[(i*image_height_bytes)+j] >> 6) & 0x3);
            /* Set the pixel in the display buffer */
            eink_et011tt2_set_pixel_raw((x_place+i), (y_place+m), (~bit_value[0]));
  401914:	f8df 807c 	ldr.w	r8, [pc, #124]	; 401994 <eink_et011tt2_graphics_load_2bgrey_image+0xa8>
        for (j = (image_height_bytes-1); j > 0; j--) {
  401918:	465e      	mov	r6, fp
  40191a:	f1bb 0f00 	cmp.w	fp, #0
  40191e:	d02e      	beq.n	40197e <eink_et011tt2_graphics_load_2bgrey_image+0x92>
            bit_value[0] = ((img_array[(i*image_height_bytes)+j]) & 0x3);
  401920:	9c03      	ldr	r4, [sp, #12]
  401922:	9b05      	ldr	r3, [sp, #20]
  401924:	9a04      	ldr	r2, [sp, #16]
  401926:	fb03 290a 	mla	r9, r3, sl, r2
            eink_et011tt2_set_pixel_raw((x_place+i), (y_place+m), (~bit_value[0]));
  40192a:	9b02      	ldr	r3, [sp, #8]
  40192c:	eb03 070a 	add.w	r7, r3, sl
  401930:	b2bf      	uxth	r7, r7
            bit_value[0] = ((img_array[(i*image_height_bytes)+j]) & 0x3);
  401932:	f819 5006 	ldrb.w	r5, [r9, r6]
            eink_et011tt2_set_pixel_raw((x_place+i), (y_place+m), (~bit_value[0]));
  401936:	f005 0203 	and.w	r2, r5, #3
  40193a:	f082 02ff 	eor.w	r2, r2, #255	; 0xff
  40193e:	4621      	mov	r1, r4
  401940:	4638      	mov	r0, r7
  401942:	47c0      	blx	r8
            eink_et011tt2_set_pixel_raw((x_place+i), (y_place+m+1), (~bit_value[1]));
  401944:	f3c5 0281 	ubfx	r2, r5, #2, #2
  401948:	1c61      	adds	r1, r4, #1
  40194a:	f082 02ff 	eor.w	r2, r2, #255	; 0xff
  40194e:	b289      	uxth	r1, r1
  401950:	4638      	mov	r0, r7
  401952:	47c0      	blx	r8
            eink_et011tt2_set_pixel_raw((x_place+i), (y_place+m+2), (~bit_value[2]));
  401954:	f3c5 1201 	ubfx	r2, r5, #4, #2
  401958:	1ca1      	adds	r1, r4, #2
  40195a:	f082 02ff 	eor.w	r2, r2, #255	; 0xff
  40195e:	b289      	uxth	r1, r1
  401960:	4638      	mov	r0, r7
  401962:	47c0      	blx	r8
            eink_et011tt2_set_pixel_raw((x_place+i), (y_place+m+3), (~bit_value[3]));
  401964:	ea6f 1295 	mvn.w	r2, r5, lsr #6
  401968:	1ce1      	adds	r1, r4, #3
  40196a:	b2d2      	uxtb	r2, r2
  40196c:	b289      	uxth	r1, r1
  40196e:	4638      	mov	r0, r7
  401970:	47c0      	blx	r8
        for (j = (image_height_bytes-1); j > 0; j--) {
  401972:	3e01      	subs	r6, #1
  401974:	b2b6      	uxth	r6, r6
  401976:	3404      	adds	r4, #4
  401978:	b2a4      	uxth	r4, r4
  40197a:	2e00      	cmp	r6, #0
  40197c:	d1d9      	bne.n	401932 <eink_et011tt2_graphics_load_2bgrey_image+0x46>
    for (i = 0; i < image_width_px; i++) {
  40197e:	f10a 0a01 	add.w	sl, sl, #1
  401982:	fa1f fa8a 	uxth.w	sl, sl
  401986:	9b01      	ldr	r3, [sp, #4]
  401988:	4553      	cmp	r3, sl
  40198a:	d8c5      	bhi.n	401918 <eink_et011tt2_graphics_load_2bgrey_image+0x2c>
            m += 4;
        }
    }
    return;
  40198c:	b007      	add	sp, #28
  40198e:	e8bd 8ff0 	ldmia.w	sp!, {r4, r5, r6, r7, r8, r9, sl, fp, pc}
  401992:	bf00      	nop
  401994:	004017ed 	.word	0x004017ed

00401998 <eink_send_raw_byte>:
{    
  401998:	b430      	push	{r4, r5}
    if(!f_send)
  40199a:	460d      	mov	r5, r1
  40199c:	b919      	cbnz	r1, 4019a6 <eink_send_raw_byte+0xe>
	((Pio *)hw)->PIO_CODR = mask;
  40199e:	f44f 6200 	mov.w	r2, #2048	; 0x800
  4019a2:	4b0e      	ldr	r3, [pc, #56]	; (4019dc <eink_send_raw_byte+0x44>)
  4019a4:	635a      	str	r2, [r3, #52]	; 0x34
{    
  4019a6:	2308      	movs	r3, #8
  4019a8:	4a0c      	ldr	r2, [pc, #48]	; (4019dc <eink_send_raw_byte+0x44>)
  4019aa:	f44f 5480 	mov.w	r4, #4096	; 0x1000
	((Pio *)hw)->PIO_SODR = mask;
  4019ae:	f44f 4180 	mov.w	r1, #16384	; 0x4000
        if (send_byte & 0x80) {
  4019b2:	f010 0f80 	tst.w	r0, #128	; 0x80
  4019b6:	bf14      	ite	ne
  4019b8:	6314      	strne	r4, [r2, #48]	; 0x30
	((Pio *)hw)->PIO_CODR = mask;
  4019ba:	6354      	streq	r4, [r2, #52]	; 0x34
	((Pio *)hw)->PIO_SODR = mask;
  4019bc:	6311      	str	r1, [r2, #48]	; 0x30
        send_byte=send_byte << 1;
  4019be:	0040      	lsls	r0, r0, #1
  4019c0:	b2c0      	uxtb	r0, r0
	((Pio *)hw)->PIO_CODR = mask;
  4019c2:	6351      	str	r1, [r2, #52]	; 0x34
  4019c4:	3b01      	subs	r3, #1
    for (i=0;i<8;i++) {
  4019c6:	f013 03ff 	ands.w	r3, r3, #255	; 0xff
  4019ca:	d1f2      	bne.n	4019b2 <eink_send_raw_byte+0x1a>
    if(!f_send)
  4019cc:	b91d      	cbnz	r5, 4019d6 <eink_send_raw_byte+0x3e>
	((Pio *)hw)->PIO_SODR = mask;
  4019ce:	f44f 6200 	mov.w	r2, #2048	; 0x800
  4019d2:	4b02      	ldr	r3, [pc, #8]	; (4019dc <eink_send_raw_byte+0x44>)
  4019d4:	631a      	str	r2, [r3, #48]	; 0x30
}
  4019d6:	bc30      	pop	{r4, r5}
  4019d8:	4770      	bx	lr
  4019da:	bf00      	nop
  4019dc:	400e0e00 	.word	0x400e0e00

004019e0 <eink_write_data>:
{    
  4019e0:	b5f8      	push	{r3, r4, r5, r6, r7, lr}
  4019e2:	460c      	mov	r4, r1
  4019e4:	4615      	mov	r5, r2
	((Pio *)hw)->PIO_CODR = mask;
  4019e6:	4e0b      	ldr	r6, [pc, #44]	; (401a14 <eink_write_data+0x34>)
  4019e8:	f44f 3700 	mov.w	r7, #131072	; 0x20000
  4019ec:	6377      	str	r7, [r6, #52]	; 0x34
  4019ee:	f44f 6300 	mov.w	r3, #2048	; 0x800
  4019f2:	6373      	str	r3, [r6, #52]	; 0x34
    eink_send_raw_byte(command, f_send);
  4019f4:	2100      	movs	r1, #0
  4019f6:	4b08      	ldr	r3, [pc, #32]	; (401a18 <eink_write_data+0x38>)
  4019f8:	4798      	blx	r3
	((Pio *)hw)->PIO_SODR = mask;
  4019fa:	6337      	str	r7, [r6, #48]	; 0x30
    if (data_bytes != 0) {
  4019fc:	b145      	cbz	r5, 401a10 <eink_write_data+0x30>
  4019fe:	4425      	add	r5, r4
            eink_send_raw_byte(*data, f_send);
  401a00:	2700      	movs	r7, #0
  401a02:	4e05      	ldr	r6, [pc, #20]	; (401a18 <eink_write_data+0x38>)
  401a04:	4639      	mov	r1, r7
  401a06:	f814 0b01 	ldrb.w	r0, [r4], #1
  401a0a:	47b0      	blx	r6
        for (i=0;i<data_bytes;i++) {
  401a0c:	42a5      	cmp	r5, r4
  401a0e:	d1f9      	bne.n	401a04 <eink_write_data+0x24>
  401a10:	bdf8      	pop	{r3, r4, r5, r6, r7, pc}
  401a12:	bf00      	nop
  401a14:	400e0e00 	.word	0x400e0e00
  401a18:	00401999 	.word	0x00401999

00401a1c <eink_et011tt2_refresh_display_buffer>:
    
/**
 * \brief Send the refresh command to the display driver.
 */
static inline void eink_et011tt2_refresh_display_buffer(void)
{
  401a1c:	b530      	push	{r4, r5, lr}
  401a1e:	b083      	sub	sp, #12
    /* Enable power to the display */   
    //eink_write_data(UC8173_PON, 0, 0);
    //uc8173_wait_for_busy_low();
    
	/* Upload update waveforms */
	if(uc8173_global_instance.display_config.update_mode == UPDATE_FAST)
  401a20:	4b2a      	ldr	r3, [pc, #168]	; (401acc <eink_et011tt2_refresh_display_buffer+0xb0>)
  401a22:	785b      	ldrb	r3, [r3, #1]
  401a24:	b2db      	uxtb	r3, r3
  401a26:	2b01      	cmp	r3, #1
  401a28:	d035      	beq.n	401a96 <eink_et011tt2_refresh_display_buffer+0x7a>
}

static inline void uc8173_send_et011tt2_a2_lut(void)
{
	/* Upload update waveform - Note for demo purposes, only 25C waveforms are used */
	if(uc8173_global_instance.display_config.uc8173_current_lut != UC8173_LUT_ET011TT2_A2)
  401a2a:	4b28      	ldr	r3, [pc, #160]	; (401acc <eink_et011tt2_refresh_display_buffer+0xb0>)
  401a2c:	78db      	ldrb	r3, [r3, #3]
  401a2e:	b2db      	uxtb	r3, r3
  401a30:	2b02      	cmp	r3, #2
  401a32:	d014      	beq.n	401a5e <eink_et011tt2_refresh_display_buffer+0x42>
	{
		uc8173_global_instance.display_config.uc8173_current_lut = UC8173_LUT_ET011TT2_A2;
  401a34:	2202      	movs	r2, #2
  401a36:	4b25      	ldr	r3, [pc, #148]	; (401acc <eink_et011tt2_refresh_display_buffer+0xb0>)
  401a38:	70da      	strb	r2, [r3, #3]
		
		eink_write_data(UC8173_LUT_KWVCOM, ET011TT2_KWVCOM_A2_LUT, 32);
  401a3a:	4d25      	ldr	r5, [pc, #148]	; (401ad0 <eink_et011tt2_refresh_display_buffer+0xb4>)
  401a3c:	2220      	movs	r2, #32
  401a3e:	f505 7128 	add.w	r1, r5, #672	; 0x2a0
  401a42:	4610      	mov	r0, r2
  401a44:	4c23      	ldr	r4, [pc, #140]	; (401ad4 <eink_et011tt2_refresh_display_buffer+0xb8>)
  401a46:	47a0      	blx	r4
		eink_write_data(UC8173_LUT_KW, ET011TT2_KW_A2_LUT, 512);
  401a48:	f44f 7200 	mov.w	r2, #512	; 0x200
  401a4c:	f505 7130 	add.w	r1, r5, #704	; 0x2c0
  401a50:	2022      	movs	r0, #34	; 0x22
  401a52:	47a0      	blx	r4
		eink_write_data(UC8173_LUT_FT, ET011TT2_FT_LUT, 128);
  401a54:	2280      	movs	r2, #128	; 0x80
  401a56:	f505 7108 	add.w	r1, r5, #544	; 0x220
  401a5a:	2026      	movs	r0, #38	; 0x26
  401a5c:	47a0      	blx	r4
    } else {
		uc8173_send_et011tt2_a2_lut();
    }
	
    /* Display Refresh */
    eink_data[0] = 0x00; /* GU2 Update Mode */
  401a5e:	2300      	movs	r3, #0
  401a60:	f88d 3000 	strb.w	r3, [sp]
    eink_data[1] = 0x00; /* X = 0 */
  401a64:	f88d 3001 	strb.w	r3, [sp, #1]
    eink_data[2] = 0x00;
  401a68:	f88d 3002 	strb.w	r3, [sp, #2]
    eink_data[3] = 0x00; /* Y = 0 */
  401a6c:	f88d 3003 	strb.w	r3, [sp, #3]
    eink_data[4] = 0xEF; /* W = 249 */
  401a70:	22ef      	movs	r2, #239	; 0xef
  401a72:	f88d 2004 	strb.w	r2, [sp, #4]
    eink_data[5] = 0x00;
  401a76:	f88d 3005 	strb.w	r3, [sp, #5]
    eink_data[6] = 0xEF; /* H = 249 */
  401a7a:	f88d 2006 	strb.w	r2, [sp, #6]
    eink_write_data(UC8173_DRF, eink_data, 7);
  401a7e:	2207      	movs	r2, #7
  401a80:	4669      	mov	r1, sp
  401a82:	2012      	movs	r0, #18
  401a84:	4b13      	ldr	r3, [pc, #76]	; (401ad4 <eink_et011tt2_refresh_display_buffer+0xb8>)
  401a86:	4798      	blx	r3
	return tmp;
}

static inline hri_pio_pdsr_reg_t hri_pio_read_PDSR_reg(const void *const hw)
{
	return ((Pio *)hw)->PIO_PDSR;
  401a88:	4a13      	ldr	r2, [pc, #76]	; (401ad8 <eink_et011tt2_refresh_display_buffer+0xbc>)
  401a8a:	6bd3      	ldr	r3, [r2, #60]	; 0x3c
    while(!gpio_get_pin_level(EINK_BUSY));
  401a8c:	f013 7f00 	tst.w	r3, #33554432	; 0x2000000
  401a90:	d0fb      	beq.n	401a8a <eink_et011tt2_refresh_display_buffer+0x6e>
    uc8173_wait_for_busy_low();
    
    /* Disable power to the display */
    //eink_write_data(UC8173_POF, 0, 0);
    //uc8173_wait_for_busy_low();
}
  401a92:	b003      	add	sp, #12
  401a94:	bd30      	pop	{r4, r5, pc}
	if(uc8173_global_instance.display_config.uc8173_current_lut != UC8173_LUT_ET011TT2_GU)
  401a96:	4b0d      	ldr	r3, [pc, #52]	; (401acc <eink_et011tt2_refresh_display_buffer+0xb0>)
  401a98:	78db      	ldrb	r3, [r3, #3]
  401a9a:	b2db      	uxtb	r3, r3
  401a9c:	2b01      	cmp	r3, #1
  401a9e:	d0de      	beq.n	401a5e <eink_et011tt2_refresh_display_buffer+0x42>
		uc8173_global_instance.display_config.uc8173_current_lut = UC8173_LUT_ET011TT2_GU;
  401aa0:	2201      	movs	r2, #1
  401aa2:	4b0a      	ldr	r3, [pc, #40]	; (401acc <eink_et011tt2_refresh_display_buffer+0xb0>)
  401aa4:	70da      	strb	r2, [r3, #3]
		eink_write_data(UC8173_LUT_KWVCOM, ET011TT2_KWVCOM_GU_LUT, 32);
  401aa6:	4d0a      	ldr	r5, [pc, #40]	; (401ad0 <eink_et011tt2_refresh_display_buffer+0xb4>)
  401aa8:	2220      	movs	r2, #32
  401aaa:	4629      	mov	r1, r5
  401aac:	4610      	mov	r0, r2
  401aae:	4c09      	ldr	r4, [pc, #36]	; (401ad4 <eink_et011tt2_refresh_display_buffer+0xb8>)
  401ab0:	47a0      	blx	r4
		eink_write_data(UC8173_LUT_KW, ET011TT2_KW_GU_LUT, 512);
  401ab2:	f44f 7200 	mov.w	r2, #512	; 0x200
  401ab6:	f105 0120 	add.w	r1, r5, #32
  401aba:	2022      	movs	r0, #34	; 0x22
  401abc:	47a0      	blx	r4
		eink_write_data(UC8173_LUT_FT, ET011TT2_FT_LUT, 128);
  401abe:	2280      	movs	r2, #128	; 0x80
  401ac0:	f505 7108 	add.w	r1, r5, #544	; 0x220
  401ac4:	2026      	movs	r0, #38	; 0x26
  401ac6:	47a0      	blx	r4
  401ac8:	e7c9      	b.n	401a5e <eink_et011tt2_refresh_display_buffer+0x42>
  401aca:	bf00      	nop
  401acc:	200004a0 	.word	0x200004a0
  401ad0:	0040306c 	.word	0x0040306c
  401ad4:	004019e1 	.word	0x004019e1
  401ad8:	400e0e00 	.word	0x400e0e00

00401adc <eink_ed013tc1_refresh_display_buffer>:
    
/**
 * \brief Send the refresh command to the display driver.
 */
static inline void eink_ed013tc1_refresh_display_buffer(void)
{
  401adc:	b530      	push	{r4, r5, lr}
  401ade:	b083      	sub	sp, #12
    uint8_t eink_data[7];
    
    /* Enable power to the display */   
    eink_write_data(UC8173_PON, 0, 0);
  401ae0:	2200      	movs	r2, #0
  401ae2:	4611      	mov	r1, r2
  401ae4:	2004      	movs	r0, #4
  401ae6:	4b22      	ldr	r3, [pc, #136]	; (401b70 <eink_ed013tc1_refresh_display_buffer+0x94>)
  401ae8:	4798      	blx	r3
  401aea:	4a22      	ldr	r2, [pc, #136]	; (401b74 <eink_ed013tc1_refresh_display_buffer+0x98>)
  401aec:	6bd3      	ldr	r3, [r2, #60]	; 0x3c
    while(!gpio_get_pin_level(EINK_BUSY));
  401aee:	f013 7f00 	tst.w	r3, #33554432	; 0x2000000
  401af2:	d0fb      	beq.n	401aec <eink_ed013tc1_refresh_display_buffer+0x10>
	if(uc8173_global_instance.display_config.uc8173_current_lut != UC8173_LUT_ED013TC1_GC2)
  401af4:	4b20      	ldr	r3, [pc, #128]	; (401b78 <eink_ed013tc1_refresh_display_buffer+0x9c>)
  401af6:	78db      	ldrb	r3, [r3, #3]
  401af8:	bb3b      	cbnz	r3, 401b4a <eink_ed013tc1_refresh_display_buffer+0x6e>
    uc8173_wait_for_busy_low();
    
    uc8173_send_ed013tc1_gc2_lut();
	
    /* Display Refresh */
    eink_data[0] = 0x01; /* GU2 Update Mode */
  401afa:	2301      	movs	r3, #1
  401afc:	f88d 3000 	strb.w	r3, [sp]
    eink_data[1] = 0x00; /* X = 0 */
  401b00:	2300      	movs	r3, #0
  401b02:	f88d 3001 	strb.w	r3, [sp, #1]
    eink_data[2] = 0x00;
  401b06:	f88d 3002 	strb.w	r3, [sp, #2]
    eink_data[3] = 0x00; /* Y = 0 */
  401b0a:	f88d 3003 	strb.w	r3, [sp, #3]
    eink_data[4] = 0x7F; /* W = 127 */
  401b0e:	227f      	movs	r2, #127	; 0x7f
  401b10:	f88d 2004 	strb.w	r2, [sp, #4]
    eink_data[5] = 0x00;
  401b14:	f88d 3005 	strb.w	r3, [sp, #5]
    eink_data[6] = 0xFF; /* H = 255 */
  401b18:	23ff      	movs	r3, #255	; 0xff
  401b1a:	f88d 3006 	strb.w	r3, [sp, #6]
    eink_write_data(UC8173_DRF, eink_data, 7);
  401b1e:	2207      	movs	r2, #7
  401b20:	4669      	mov	r1, sp
  401b22:	2012      	movs	r0, #18
  401b24:	4b12      	ldr	r3, [pc, #72]	; (401b70 <eink_ed013tc1_refresh_display_buffer+0x94>)
  401b26:	4798      	blx	r3
  401b28:	4a12      	ldr	r2, [pc, #72]	; (401b74 <eink_ed013tc1_refresh_display_buffer+0x98>)
  401b2a:	6bd3      	ldr	r3, [r2, #60]	; 0x3c
    while(!gpio_get_pin_level(EINK_BUSY));
  401b2c:	f013 7f00 	tst.w	r3, #33554432	; 0x2000000
  401b30:	d0fb      	beq.n	401b2a <eink_ed013tc1_refresh_display_buffer+0x4e>
    uc8173_wait_for_busy_low();
    
    /* Disable power to the display */
    eink_write_data(UC8173_POF, 0, 0);
  401b32:	2200      	movs	r2, #0
  401b34:	4611      	mov	r1, r2
  401b36:	2002      	movs	r0, #2
  401b38:	4b0d      	ldr	r3, [pc, #52]	; (401b70 <eink_ed013tc1_refresh_display_buffer+0x94>)
  401b3a:	4798      	blx	r3
  401b3c:	4a0d      	ldr	r2, [pc, #52]	; (401b74 <eink_ed013tc1_refresh_display_buffer+0x98>)
  401b3e:	6bd3      	ldr	r3, [r2, #60]	; 0x3c
    while(gpio_get_pin_level(EINK_BUSY));
  401b40:	f013 7f00 	tst.w	r3, #33554432	; 0x2000000
  401b44:	d1fb      	bne.n	401b3e <eink_ed013tc1_refresh_display_buffer+0x62>
    uc8173_wait_for_busy_high();
}
  401b46:	b003      	add	sp, #12
  401b48:	bd30      	pop	{r4, r5, pc}
		uc8173_global_instance.display_config.uc8173_current_lut = UC8173_LUT_ED013TC1_GC2;
  401b4a:	2500      	movs	r5, #0
  401b4c:	4b0a      	ldr	r3, [pc, #40]	; (401b78 <eink_ed013tc1_refresh_display_buffer+0x9c>)
  401b4e:	70dd      	strb	r5, [r3, #3]
		eink_write_data(UC8173_LUT_KWVCOM, ED013TC1_VCOM_GC2, 32);
  401b50:	2220      	movs	r2, #32
  401b52:	2155      	movs	r1, #85	; 0x55
  401b54:	4610      	mov	r0, r2
  401b56:	4c06      	ldr	r4, [pc, #24]	; (401b70 <eink_ed013tc1_refresh_display_buffer+0x94>)
  401b58:	47a0      	blx	r4
		eink_write_data(UC8173_LUT_KW, ED013TC1_WF_GC2, 512);
  401b5a:	f44f 7200 	mov.w	r2, #512	; 0x200
  401b5e:	2181      	movs	r1, #129	; 0x81
  401b60:	2022      	movs	r0, #34	; 0x22
  401b62:	47a0      	blx	r4
		eink_write_data(UC8173_LUT_FT, ED013TC1_FT_GC2, 128);	
  401b64:	2280      	movs	r2, #128	; 0x80
  401b66:	4629      	mov	r1, r5
  401b68:	2026      	movs	r0, #38	; 0x26
  401b6a:	47a0      	blx	r4
  401b6c:	e7c5      	b.n	401afa <eink_ed013tc1_refresh_display_buffer+0x1e>
  401b6e:	bf00      	nop
  401b70:	004019e1 	.word	0x004019e1
  401b74:	400e0e00 	.word	0x400e0e00
  401b78:	200004a0 	.word	0x200004a0

00401b7c <eink_ed029tc1_refresh_display_buffer>:
    
/**
 * \brief Send the refresh command to the display driver.
 */
static inline void eink_ed029tc1_refresh_display_buffer(void)
{
  401b7c:	b510      	push	{r4, lr}
    /* Enable power to the display */
    eink_write_data(UC8151_PON, 0, 0);
  401b7e:	2200      	movs	r2, #0
  401b80:	4611      	mov	r1, r2
  401b82:	2004      	movs	r0, #4
  401b84:	4c0a      	ldr	r4, [pc, #40]	; (401bb0 <eink_ed029tc1_refresh_display_buffer+0x34>)
  401b86:	47a0      	blx	r4
    
    /* Send the Refresh Display command */
    eink_write_data(UC8151_DRF, 0, 0);
  401b88:	2200      	movs	r2, #0
  401b8a:	4611      	mov	r1, r2
  401b8c:	2012      	movs	r0, #18
  401b8e:	47a0      	blx	r4
  401b90:	4a08      	ldr	r2, [pc, #32]	; (401bb4 <eink_ed029tc1_refresh_display_buffer+0x38>)
  401b92:	6bd3      	ldr	r3, [r2, #60]	; 0x3c
 * hold the MCU until it returns HIGH again.
 */
static inline void uc8151_wait_for_busy(void)
{
#ifdef EINK_BUSY
    while(!gpio_get_pin_level(EINK_BUSY));
  401b94:	f013 7f00 	tst.w	r3, #33554432	; 0x2000000
  401b98:	d0fb      	beq.n	401b92 <eink_ed029tc1_refresh_display_buffer+0x16>
    uc8151_wait_for_busy();
    
    /* Disable power to the display */
    eink_write_data(UC8151_POF, 0, 0);
  401b9a:	2200      	movs	r2, #0
  401b9c:	4611      	mov	r1, r2
  401b9e:	2002      	movs	r0, #2
  401ba0:	4b03      	ldr	r3, [pc, #12]	; (401bb0 <eink_ed029tc1_refresh_display_buffer+0x34>)
  401ba2:	4798      	blx	r3
  401ba4:	4a03      	ldr	r2, [pc, #12]	; (401bb4 <eink_ed029tc1_refresh_display_buffer+0x38>)
  401ba6:	6bd3      	ldr	r3, [r2, #60]	; 0x3c
  401ba8:	f013 7f00 	tst.w	r3, #33554432	; 0x2000000
  401bac:	d0fb      	beq.n	401ba6 <eink_ed029tc1_refresh_display_buffer+0x2a>
    uc8151_wait_for_busy();
}
  401bae:	bd10      	pop	{r4, pc}
  401bb0:	004019e1 	.word	0x004019e1
  401bb4:	400e0e00 	.word	0x400e0e00

00401bb8 <eink_ed029tc1_put_display_buffer>:
{
  401bb8:	b538      	push	{r3, r4, r5, lr}
  401bba:	4605      	mov	r5, r0
    eink_write_data(UC8151_PON, 0, 0);
  401bbc:	2200      	movs	r2, #0
  401bbe:	4611      	mov	r1, r2
  401bc0:	2004      	movs	r0, #4
  401bc2:	4c23      	ldr	r4, [pc, #140]	; (401c50 <eink_ed029tc1_put_display_buffer+0x98>)
  401bc4:	47a0      	blx	r4
    eink_write_data(UC8151_DTM1, ptr_eink_gfx_config->display_buffer_1_ptr, GFX_ED029TC1_DISPLAY_BUFFER_SIZE);
  401bc6:	4b23      	ldr	r3, [pc, #140]	; (401c54 <eink_ed029tc1_put_display_buffer+0x9c>)
  401bc8:	681b      	ldr	r3, [r3, #0]
  401bca:	f44f 5294 	mov.w	r2, #4736	; 0x1280
  401bce:	6919      	ldr	r1, [r3, #16]
  401bd0:	2010      	movs	r0, #16
  401bd2:	47a0      	blx	r4
    eink_write_data(UC8151_DSP, 0, 0);
  401bd4:	2200      	movs	r2, #0
  401bd6:	4611      	mov	r1, r2
  401bd8:	2011      	movs	r0, #17
  401bda:	47a0      	blx	r4
  401bdc:	4a1e      	ldr	r2, [pc, #120]	; (401c58 <eink_ed029tc1_put_display_buffer+0xa0>)
  401bde:	6bd3      	ldr	r3, [r2, #60]	; 0x3c
  401be0:	f013 7f00 	tst.w	r3, #33554432	; 0x2000000
  401be4:	d0fb      	beq.n	401bde <eink_ed029tc1_put_display_buffer+0x26>
    eink_write_data(UC8151_DTM2, ptr_eink_gfx_config->display_buffer_2_ptr, GFX_ED029TC1_DISPLAY_BUFFER_SIZE);
  401be6:	4b1b      	ldr	r3, [pc, #108]	; (401c54 <eink_ed029tc1_put_display_buffer+0x9c>)
  401be8:	681b      	ldr	r3, [r3, #0]
  401bea:	f44f 5294 	mov.w	r2, #4736	; 0x1280
  401bee:	6959      	ldr	r1, [r3, #20]
  401bf0:	2013      	movs	r0, #19
  401bf2:	4c17      	ldr	r4, [pc, #92]	; (401c50 <eink_ed029tc1_put_display_buffer+0x98>)
  401bf4:	47a0      	blx	r4
    eink_write_data(UC8151_DSP, 0, 0);
  401bf6:	2200      	movs	r2, #0
  401bf8:	4611      	mov	r1, r2
  401bfa:	2011      	movs	r0, #17
  401bfc:	47a0      	blx	r4
  401bfe:	4a16      	ldr	r2, [pc, #88]	; (401c58 <eink_ed029tc1_put_display_buffer+0xa0>)
  401c00:	6bd3      	ldr	r3, [r2, #60]	; 0x3c
  401c02:	f013 7f00 	tst.w	r3, #33554432	; 0x2000000
  401c06:	d0fb      	beq.n	401c00 <eink_ed029tc1_put_display_buffer+0x48>
    if(refresh_display) {
  401c08:	b9bd      	cbnz	r5, 401c3a <eink_ed029tc1_put_display_buffer+0x82>
    eink_write_data(UC8151_POF, 0, 0);
  401c0a:	2200      	movs	r2, #0
  401c0c:	4611      	mov	r1, r2
  401c0e:	2002      	movs	r0, #2
  401c10:	4b0f      	ldr	r3, [pc, #60]	; (401c50 <eink_ed029tc1_put_display_buffer+0x98>)
  401c12:	4798      	blx	r3
  401c14:	4a10      	ldr	r2, [pc, #64]	; (401c58 <eink_ed029tc1_put_display_buffer+0xa0>)
  401c16:	6bd3      	ldr	r3, [r2, #60]	; 0x3c
  401c18:	f013 7f00 	tst.w	r3, #33554432	; 0x2000000
  401c1c:	d0fb      	beq.n	401c16 <eink_ed029tc1_put_display_buffer+0x5e>
    if (uc8151_global_instance.panel_settings.display_colours == B_W_PIXELS) {
  401c1e:	4b0f      	ldr	r3, [pc, #60]	; (401c5c <eink_ed029tc1_put_display_buffer+0xa4>)
  401c20:	789b      	ldrb	r3, [r3, #2]
  401c22:	b94b      	cbnz	r3, 401c38 <eink_ed029tc1_put_display_buffer+0x80>
            ptr_eink_gfx_config->display_buffer_1_ptr[i] = ptr_eink_gfx_config->display_buffer_2_ptr[i];
  401c24:	480b      	ldr	r0, [pc, #44]	; (401c54 <eink_ed029tc1_put_display_buffer+0x9c>)
  401c26:	6802      	ldr	r2, [r0, #0]
  401c28:	6951      	ldr	r1, [r2, #20]
  401c2a:	5cc9      	ldrb	r1, [r1, r3]
  401c2c:	6912      	ldr	r2, [r2, #16]
  401c2e:	54d1      	strb	r1, [r2, r3]
  401c30:	3301      	adds	r3, #1
        for (i=0;i<GFX_ED029TC1_DISPLAY_BUFFER_SIZE;i++) {
  401c32:	f5b3 5f94 	cmp.w	r3, #4736	; 0x1280
  401c36:	d1f6      	bne.n	401c26 <eink_ed029tc1_put_display_buffer+0x6e>
  401c38:	bd38      	pop	{r3, r4, r5, pc}
        eink_write_data(UC8151_DRF, 0, 0);
  401c3a:	2200      	movs	r2, #0
  401c3c:	4611      	mov	r1, r2
  401c3e:	2012      	movs	r0, #18
  401c40:	4b03      	ldr	r3, [pc, #12]	; (401c50 <eink_ed029tc1_put_display_buffer+0x98>)
  401c42:	4798      	blx	r3
  401c44:	4a04      	ldr	r2, [pc, #16]	; (401c58 <eink_ed029tc1_put_display_buffer+0xa0>)
  401c46:	6bd3      	ldr	r3, [r2, #60]	; 0x3c
  401c48:	f013 7f00 	tst.w	r3, #33554432	; 0x2000000
  401c4c:	d0fb      	beq.n	401c46 <eink_ed029tc1_put_display_buffer+0x8e>
  401c4e:	e7dc      	b.n	401c0a <eink_ed029tc1_put_display_buffer+0x52>
  401c50:	004019e1 	.word	0x004019e1
  401c54:	20000544 	.word	0x20000544
  401c58:	400e0e00 	.word	0x400e0e00
  401c5c:	20000508 	.word	0x20000508

00401c60 <eink_el026tr1_refresh_display_buffer>:
    
/**
 * \brief Send the refresh command to the display driver.
 */
static inline void eink_el026tr1_refresh_display_buffer(void)
{
  401c60:	b510      	push	{r4, lr}
    /* Enable power to the display */
    eink_write_data(UC8151_PON, 0, 0);
  401c62:	2200      	movs	r2, #0
  401c64:	4611      	mov	r1, r2
  401c66:	2004      	movs	r0, #4
  401c68:	4c0a      	ldr	r4, [pc, #40]	; (401c94 <eink_el026tr1_refresh_display_buffer+0x34>)
  401c6a:	47a0      	blx	r4
    
    /* Send the Refresh Display command */
    eink_write_data(UC8151_DRF, 0, 0);
  401c6c:	2200      	movs	r2, #0
  401c6e:	4611      	mov	r1, r2
  401c70:	2012      	movs	r0, #18
  401c72:	47a0      	blx	r4
  401c74:	4a08      	ldr	r2, [pc, #32]	; (401c98 <eink_el026tr1_refresh_display_buffer+0x38>)
  401c76:	6bd3      	ldr	r3, [r2, #60]	; 0x3c
  401c78:	f013 7f00 	tst.w	r3, #33554432	; 0x2000000
  401c7c:	d0fb      	beq.n	401c76 <eink_el026tr1_refresh_display_buffer+0x16>
    uc8151_wait_for_busy();
    
    /* Disable power to the display */
    eink_write_data(UC8151_POF, 0, 0);
  401c7e:	2200      	movs	r2, #0
  401c80:	4611      	mov	r1, r2
  401c82:	2002      	movs	r0, #2
  401c84:	4b03      	ldr	r3, [pc, #12]	; (401c94 <eink_el026tr1_refresh_display_buffer+0x34>)
  401c86:	4798      	blx	r3
  401c88:	4a03      	ldr	r2, [pc, #12]	; (401c98 <eink_el026tr1_refresh_display_buffer+0x38>)
  401c8a:	6bd3      	ldr	r3, [r2, #60]	; 0x3c
  401c8c:	f013 7f00 	tst.w	r3, #33554432	; 0x2000000
  401c90:	d0fb      	beq.n	401c8a <eink_el026tr1_refresh_display_buffer+0x2a>
    uc8151_wait_for_busy();
}
  401c92:	bd10      	pop	{r4, pc}
  401c94:	004019e1 	.word	0x004019e1
  401c98:	400e0e00 	.word	0x400e0e00

00401c9c <eink_el026tr1_put_display_buffer>:
{
  401c9c:	b538      	push	{r3, r4, r5, lr}
  401c9e:	4605      	mov	r5, r0
    eink_write_data(UC8151_PON, 0, 0);
  401ca0:	2200      	movs	r2, #0
  401ca2:	4611      	mov	r1, r2
  401ca4:	2004      	movs	r0, #4
  401ca6:	4c1d      	ldr	r4, [pc, #116]	; (401d1c <eink_el026tr1_put_display_buffer+0x80>)
  401ca8:	47a0      	blx	r4
    eink_write_data(UC8151_DTM1, ptr_eink_gfx_config->display_buffer_1_ptr, GFX_EL026TR1_DISPLAY_BUFFER_SIZE);
  401caa:	4b1d      	ldr	r3, [pc, #116]	; (401d20 <eink_el026tr1_put_display_buffer+0x84>)
  401cac:	681b      	ldr	r3, [r3, #0]
  401cae:	f241 52f8 	movw	r2, #5624	; 0x15f8
  401cb2:	6919      	ldr	r1, [r3, #16]
  401cb4:	2010      	movs	r0, #16
  401cb6:	47a0      	blx	r4
    eink_write_data(UC8151_DSP, 0, 0);
  401cb8:	2200      	movs	r2, #0
  401cba:	4611      	mov	r1, r2
  401cbc:	2011      	movs	r0, #17
  401cbe:	47a0      	blx	r4
  401cc0:	4a18      	ldr	r2, [pc, #96]	; (401d24 <eink_el026tr1_put_display_buffer+0x88>)
  401cc2:	6bd3      	ldr	r3, [r2, #60]	; 0x3c
  401cc4:	f013 7f00 	tst.w	r3, #33554432	; 0x2000000
  401cc8:	d0fb      	beq.n	401cc2 <eink_el026tr1_put_display_buffer+0x26>
    eink_write_data(UC8151_DTM2, ptr_eink_gfx_config->display_buffer_2_ptr, GFX_EL026TR1_DISPLAY_BUFFER_SIZE);
  401cca:	4b15      	ldr	r3, [pc, #84]	; (401d20 <eink_el026tr1_put_display_buffer+0x84>)
  401ccc:	681b      	ldr	r3, [r3, #0]
  401cce:	f241 52f8 	movw	r2, #5624	; 0x15f8
  401cd2:	6959      	ldr	r1, [r3, #20]
  401cd4:	2013      	movs	r0, #19
  401cd6:	4c11      	ldr	r4, [pc, #68]	; (401d1c <eink_el026tr1_put_display_buffer+0x80>)
  401cd8:	47a0      	blx	r4
    eink_write_data(UC8151_DSP, 0, 0);
  401cda:	2200      	movs	r2, #0
  401cdc:	4611      	mov	r1, r2
  401cde:	2011      	movs	r0, #17
  401ce0:	47a0      	blx	r4
  401ce2:	4a10      	ldr	r2, [pc, #64]	; (401d24 <eink_el026tr1_put_display_buffer+0x88>)
  401ce4:	6bd3      	ldr	r3, [r2, #60]	; 0x3c
  401ce6:	f013 7f00 	tst.w	r3, #33554432	; 0x2000000
  401cea:	d0fb      	beq.n	401ce4 <eink_el026tr1_put_display_buffer+0x48>
    if(refresh_display) {
  401cec:	b955      	cbnz	r5, 401d04 <eink_el026tr1_put_display_buffer+0x68>
    eink_write_data(UC8151_POF, 0, 0);
  401cee:	2200      	movs	r2, #0
  401cf0:	4611      	mov	r1, r2
  401cf2:	2002      	movs	r0, #2
  401cf4:	4b09      	ldr	r3, [pc, #36]	; (401d1c <eink_el026tr1_put_display_buffer+0x80>)
  401cf6:	4798      	blx	r3
  401cf8:	4a0a      	ldr	r2, [pc, #40]	; (401d24 <eink_el026tr1_put_display_buffer+0x88>)
  401cfa:	6bd3      	ldr	r3, [r2, #60]	; 0x3c
  401cfc:	f013 7f00 	tst.w	r3, #33554432	; 0x2000000
  401d00:	d0fb      	beq.n	401cfa <eink_el026tr1_put_display_buffer+0x5e>
}
  401d02:	bd38      	pop	{r3, r4, r5, pc}
        eink_write_data(UC8151_DRF, 0, 0);
  401d04:	2200      	movs	r2, #0
  401d06:	4611      	mov	r1, r2
  401d08:	2012      	movs	r0, #18
  401d0a:	4b04      	ldr	r3, [pc, #16]	; (401d1c <eink_el026tr1_put_display_buffer+0x80>)
  401d0c:	4798      	blx	r3
  401d0e:	4a05      	ldr	r2, [pc, #20]	; (401d24 <eink_el026tr1_put_display_buffer+0x88>)
  401d10:	6bd3      	ldr	r3, [r2, #60]	; 0x3c
  401d12:	f013 7f00 	tst.w	r3, #33554432	; 0x2000000
  401d16:	d0fb      	beq.n	401d10 <eink_el026tr1_put_display_buffer+0x74>
  401d18:	e7e9      	b.n	401cee <eink_el026tr1_put_display_buffer+0x52>
  401d1a:	bf00      	nop
  401d1c:	004019e1 	.word	0x004019e1
  401d20:	20000544 	.word	0x20000544
  401d24:	400e0e00 	.word	0x400e0e00

00401d28 <eink_hink_e0154a05_refresh_display_buffer>:
    
/**
 * \brief Send the refresh command to the display driver.
 */
static inline void eink_hink_e0154a05_refresh_display_buffer(void)
{
  401d28:	b500      	push	{lr}
  401d2a:	b083      	sub	sp, #12
    uint8_t eink_data[1];
    uint8_t temperature_value = 20;
    
    if(ssd1608_global_instance.display_config.update_mode == UPDATE_FAST)
  401d2c:	4b14      	ldr	r3, [pc, #80]	; (401d80 <eink_hink_e0154a05_refresh_display_buffer+0x58>)
  401d2e:	785b      	ldrb	r3, [r3, #1]
  401d30:	b2db      	uxtb	r3, r3
  401d32:	2b01      	cmp	r3, #1
  401d34:	d019      	beq.n	401d6a <eink_hink_e0154a05_refresh_display_buffer+0x42>
            eink_data[0] = 0xC7; /* Register LUT Update - HINK-E0154A05 */
        else
            eink_data[0] = 0xFF; /* Register LUT Update - HINK-E0154A45 */
        
    } else {
        eink_data[0] = 0xF7; /* Slow Update */
  401d36:	23f7      	movs	r3, #247	; 0xf7
  401d38:	f88d 3004 	strb.w	r3, [sp, #4]
    }

    /* Display Update Control 2 */
    eink_write_data(SSD1608_DUC2, eink_data, 1);
  401d3c:	2201      	movs	r2, #1
  401d3e:	a901      	add	r1, sp, #4
  401d40:	2022      	movs	r0, #34	; 0x22
  401d42:	4b10      	ldr	r3, [pc, #64]	; (401d84 <eink_hink_e0154a05_refresh_display_buffer+0x5c>)
  401d44:	4798      	blx	r3
  401d46:	4a10      	ldr	r2, [pc, #64]	; (401d88 <eink_hink_e0154a05_refresh_display_buffer+0x60>)
  401d48:	6bd3      	ldr	r3, [r2, #60]	; 0x3c
 * hold the MCU until it returns LOW again.
 */
static inline void ssd1608_wait_for_busy(void)
{
#ifdef EINK_BUSY
    while(gpio_get_pin_level(EINK_BUSY));
  401d4a:	f013 7f00 	tst.w	r3, #33554432	; 0x2000000
  401d4e:	d1fb      	bne.n	401d48 <eink_hink_e0154a05_refresh_display_buffer+0x20>
    ssd1608_wait_for_busy();
    
    /* Master Activation */
    eink_write_data(SSD1608_MA, 0, 0);
  401d50:	2200      	movs	r2, #0
  401d52:	4611      	mov	r1, r2
  401d54:	2020      	movs	r0, #32
  401d56:	4b0b      	ldr	r3, [pc, #44]	; (401d84 <eink_hink_e0154a05_refresh_display_buffer+0x5c>)
  401d58:	4798      	blx	r3
  401d5a:	4a0b      	ldr	r2, [pc, #44]	; (401d88 <eink_hink_e0154a05_refresh_display_buffer+0x60>)
  401d5c:	6bd3      	ldr	r3, [r2, #60]	; 0x3c
  401d5e:	f013 7f00 	tst.w	r3, #33554432	; 0x2000000
  401d62:	d1fb      	bne.n	401d5c <eink_hink_e0154a05_refresh_display_buffer+0x34>
    ssd1608_wait_for_busy();
}
  401d64:	b003      	add	sp, #12
  401d66:	f85d fb04 	ldr.w	pc, [sp], #4
        if(ssd1608_global_instance.display_config.display_part_no == SSD1608_HINK_E0154A05)
  401d6a:	4b05      	ldr	r3, [pc, #20]	; (401d80 <eink_hink_e0154a05_refresh_display_buffer+0x58>)
  401d6c:	789b      	ldrb	r3, [r3, #2]
  401d6e:	b91b      	cbnz	r3, 401d78 <eink_hink_e0154a05_refresh_display_buffer+0x50>
            eink_data[0] = 0xC7; /* Register LUT Update - HINK-E0154A05 */
  401d70:	23c7      	movs	r3, #199	; 0xc7
  401d72:	f88d 3004 	strb.w	r3, [sp, #4]
  401d76:	e7e1      	b.n	401d3c <eink_hink_e0154a05_refresh_display_buffer+0x14>
            eink_data[0] = 0xFF; /* Register LUT Update - HINK-E0154A45 */
  401d78:	23ff      	movs	r3, #255	; 0xff
  401d7a:	f88d 3004 	strb.w	r3, [sp, #4]
  401d7e:	e7dd      	b.n	401d3c <eink_hink_e0154a05_refresh_display_buffer+0x14>
  401d80:	200004c8 	.word	0x200004c8
  401d84:	004019e1 	.word	0x004019e1
  401d88:	400e0e00 	.word	0x400e0e00

00401d8c <eink_ac040tc1_refresh_display_buffer>:
    
/**
 * \brief Send the refresh command to the display driver.
 */
static inline void eink_ac040tc1_refresh_display_buffer(void)
{
  401d8c:	b508      	push	{r3, lr}
    /* Enable power to the display */
    eink_write_data(UC8159_PON, 0, 0);
  401d8e:	2200      	movs	r2, #0
  401d90:	4611      	mov	r1, r2
  401d92:	2004      	movs	r0, #4
  401d94:	4b0d      	ldr	r3, [pc, #52]	; (401dcc <eink_ac040tc1_refresh_display_buffer+0x40>)
  401d96:	4798      	blx	r3
  401d98:	4a0d      	ldr	r2, [pc, #52]	; (401dd0 <eink_ac040tc1_refresh_display_buffer+0x44>)
  401d9a:	6bd3      	ldr	r3, [r2, #60]	; 0x3c
 * hold the MCU until it returns HIGH again.
 */
static inline void uc8159_wait_for_busy(void)
{
#ifdef EINK_BUSY
    while(!gpio_get_pin_level(EINK_BUSY));
  401d9c:	f013 7f00 	tst.w	r3, #33554432	; 0x2000000
  401da0:	d0fb      	beq.n	401d9a <eink_ac040tc1_refresh_display_buffer+0xe>
    uc8159_wait_for_busy();
    
    /* Send the Refresh Display command */
    eink_write_data(UC8159_DRF, 0, 0);
  401da2:	2200      	movs	r2, #0
  401da4:	4611      	mov	r1, r2
  401da6:	2012      	movs	r0, #18
  401da8:	4b08      	ldr	r3, [pc, #32]	; (401dcc <eink_ac040tc1_refresh_display_buffer+0x40>)
  401daa:	4798      	blx	r3
  401dac:	4a08      	ldr	r2, [pc, #32]	; (401dd0 <eink_ac040tc1_refresh_display_buffer+0x44>)
  401dae:	6bd3      	ldr	r3, [r2, #60]	; 0x3c
  401db0:	f013 7f00 	tst.w	r3, #33554432	; 0x2000000
  401db4:	d0fb      	beq.n	401dae <eink_ac040tc1_refresh_display_buffer+0x22>
    uc8159_wait_for_busy();
    
    /* Disable power to the display */
    eink_write_data(UC8159_POF, 0, 0);
  401db6:	2200      	movs	r2, #0
  401db8:	4611      	mov	r1, r2
  401dba:	2002      	movs	r0, #2
  401dbc:	4b03      	ldr	r3, [pc, #12]	; (401dcc <eink_ac040tc1_refresh_display_buffer+0x40>)
  401dbe:	4798      	blx	r3
  401dc0:	4a03      	ldr	r2, [pc, #12]	; (401dd0 <eink_ac040tc1_refresh_display_buffer+0x44>)
  401dc2:	6bd3      	ldr	r3, [r2, #60]	; 0x3c
  401dc4:	f013 7f00 	tst.w	r3, #33554432	; 0x2000000
  401dc8:	d0fb      	beq.n	401dc2 <eink_ac040tc1_refresh_display_buffer+0x36>
    uc8159_wait_for_busy();
}
  401dca:	bd08      	pop	{r3, pc}
  401dcc:	004019e1 	.word	0x004019e1
  401dd0:	400e0e00 	.word	0x400e0e00

00401dd4 <eink_ac040tc1_put_display_buffer>:
{
  401dd4:	b510      	push	{r4, lr}
  401dd6:	4604      	mov	r4, r0
    eink_write_data(UC8159_DTM1, ptr_eink_gfx_config->display_buffer_1_ptr, GFX_AC040TC1_DISPLAY_BUFFER_SIZE);
  401dd8:	4b16      	ldr	r3, [pc, #88]	; (401e34 <eink_ac040tc1_put_display_buffer+0x60>)
  401dda:	681b      	ldr	r3, [r3, #0]
  401ddc:	f44f 320c 	mov.w	r2, #143360	; 0x23000
  401de0:	6919      	ldr	r1, [r3, #16]
  401de2:	2010      	movs	r0, #16
  401de4:	4b14      	ldr	r3, [pc, #80]	; (401e38 <eink_ac040tc1_put_display_buffer+0x64>)
  401de6:	4798      	blx	r3
  401de8:	4a14      	ldr	r2, [pc, #80]	; (401e3c <eink_ac040tc1_put_display_buffer+0x68>)
  401dea:	6bd3      	ldr	r3, [r2, #60]	; 0x3c
  401dec:	f013 7f00 	tst.w	r3, #33554432	; 0x2000000
  401df0:	d0fb      	beq.n	401dea <eink_ac040tc1_put_display_buffer+0x16>
    if(refresh_display) {
  401df2:	b904      	cbnz	r4, 401df6 <eink_ac040tc1_put_display_buffer+0x22>
  401df4:	bd10      	pop	{r4, pc}
        eink_write_data(UC8159_PON, 0, 0);
  401df6:	2200      	movs	r2, #0
  401df8:	4611      	mov	r1, r2
  401dfa:	2004      	movs	r0, #4
  401dfc:	4b0e      	ldr	r3, [pc, #56]	; (401e38 <eink_ac040tc1_put_display_buffer+0x64>)
  401dfe:	4798      	blx	r3
  401e00:	4a0e      	ldr	r2, [pc, #56]	; (401e3c <eink_ac040tc1_put_display_buffer+0x68>)
  401e02:	6bd3      	ldr	r3, [r2, #60]	; 0x3c
  401e04:	f013 7f00 	tst.w	r3, #33554432	; 0x2000000
  401e08:	d0fb      	beq.n	401e02 <eink_ac040tc1_put_display_buffer+0x2e>
        eink_write_data(UC8159_DRF, 0, 0);
  401e0a:	2200      	movs	r2, #0
  401e0c:	4611      	mov	r1, r2
  401e0e:	2012      	movs	r0, #18
  401e10:	4b09      	ldr	r3, [pc, #36]	; (401e38 <eink_ac040tc1_put_display_buffer+0x64>)
  401e12:	4798      	blx	r3
  401e14:	4a09      	ldr	r2, [pc, #36]	; (401e3c <eink_ac040tc1_put_display_buffer+0x68>)
  401e16:	6bd3      	ldr	r3, [r2, #60]	; 0x3c
  401e18:	f013 7f00 	tst.w	r3, #33554432	; 0x2000000
  401e1c:	d0fb      	beq.n	401e16 <eink_ac040tc1_put_display_buffer+0x42>
        eink_write_data(UC8159_POF, 0, 0);
  401e1e:	2200      	movs	r2, #0
  401e20:	4611      	mov	r1, r2
  401e22:	2002      	movs	r0, #2
  401e24:	4b04      	ldr	r3, [pc, #16]	; (401e38 <eink_ac040tc1_put_display_buffer+0x64>)
  401e26:	4798      	blx	r3
  401e28:	4a04      	ldr	r2, [pc, #16]	; (401e3c <eink_ac040tc1_put_display_buffer+0x68>)
  401e2a:	6bd3      	ldr	r3, [r2, #60]	; 0x3c
  401e2c:	f013 7f00 	tst.w	r3, #33554432	; 0x2000000
  401e30:	d0fb      	beq.n	401e2a <eink_ac040tc1_put_display_buffer+0x56>
  401e32:	e7df      	b.n	401df4 <eink_ac040tc1_put_display_buffer+0x20>
  401e34:	20000544 	.word	0x20000544
  401e38:	004019e1 	.word	0x004019e1
  401e3c:	400e0e00 	.word	0x400e0e00

00401e40 <eink_ac057tc1_refresh_display_buffer>:
    
/**
 * \brief Send the refresh command to the display driver.
 */
static inline void eink_ac057tc1_refresh_display_buffer(void)
{
  401e40:	b508      	push	{r3, lr}
    /* Enable power to the display */
    eink_write_data(UC8159_PON, 0, 0);
  401e42:	2200      	movs	r2, #0
  401e44:	4611      	mov	r1, r2
  401e46:	2004      	movs	r0, #4
  401e48:	4b0d      	ldr	r3, [pc, #52]	; (401e80 <eink_ac057tc1_refresh_display_buffer+0x40>)
  401e4a:	4798      	blx	r3
  401e4c:	4a0d      	ldr	r2, [pc, #52]	; (401e84 <eink_ac057tc1_refresh_display_buffer+0x44>)
  401e4e:	6bd3      	ldr	r3, [r2, #60]	; 0x3c
  401e50:	f013 7f00 	tst.w	r3, #33554432	; 0x2000000
  401e54:	d0fb      	beq.n	401e4e <eink_ac057tc1_refresh_display_buffer+0xe>
    uc8159_wait_for_busy();
    
    /* Send the Refresh Display command */
    eink_write_data(UC8159_DRF, 0, 0);
  401e56:	2200      	movs	r2, #0
  401e58:	4611      	mov	r1, r2
  401e5a:	2012      	movs	r0, #18
  401e5c:	4b08      	ldr	r3, [pc, #32]	; (401e80 <eink_ac057tc1_refresh_display_buffer+0x40>)
  401e5e:	4798      	blx	r3
  401e60:	4a08      	ldr	r2, [pc, #32]	; (401e84 <eink_ac057tc1_refresh_display_buffer+0x44>)
  401e62:	6bd3      	ldr	r3, [r2, #60]	; 0x3c
  401e64:	f013 7f00 	tst.w	r3, #33554432	; 0x2000000
  401e68:	d0fb      	beq.n	401e62 <eink_ac057tc1_refresh_display_buffer+0x22>
    uc8159_wait_for_busy();
    
    /* Disable power to the display */
    eink_write_data(UC8159_POF, 0, 0);
  401e6a:	2200      	movs	r2, #0
  401e6c:	4611      	mov	r1, r2
  401e6e:	2002      	movs	r0, #2
  401e70:	4b03      	ldr	r3, [pc, #12]	; (401e80 <eink_ac057tc1_refresh_display_buffer+0x40>)
  401e72:	4798      	blx	r3
  401e74:	4a03      	ldr	r2, [pc, #12]	; (401e84 <eink_ac057tc1_refresh_display_buffer+0x44>)
  401e76:	6bd3      	ldr	r3, [r2, #60]	; 0x3c
  401e78:	f013 7f00 	tst.w	r3, #33554432	; 0x2000000
  401e7c:	d0fb      	beq.n	401e76 <eink_ac057tc1_refresh_display_buffer+0x36>
    uc8159_wait_for_busy();
}
  401e7e:	bd08      	pop	{r3, pc}
  401e80:	004019e1 	.word	0x004019e1
  401e84:	400e0e00 	.word	0x400e0e00

00401e88 <eink_ac057tc1_put_display_buffer>:
{
  401e88:	b510      	push	{r4, lr}
  401e8a:	4604      	mov	r4, r0
    eink_write_data(UC8159_DTM1, ptr_eink_gfx_config->display_buffer_1_ptr, GFX_AC057TC1_DISPLAY_BUFFER_SIZE);
  401e8c:	4b16      	ldr	r3, [pc, #88]	; (401ee8 <eink_ac057tc1_put_display_buffer+0x60>)
  401e8e:	681b      	ldr	r3, [r3, #0]
  401e90:	4a16      	ldr	r2, [pc, #88]	; (401eec <eink_ac057tc1_put_display_buffer+0x64>)
  401e92:	6919      	ldr	r1, [r3, #16]
  401e94:	2010      	movs	r0, #16
  401e96:	4b16      	ldr	r3, [pc, #88]	; (401ef0 <eink_ac057tc1_put_display_buffer+0x68>)
  401e98:	4798      	blx	r3
  401e9a:	4a16      	ldr	r2, [pc, #88]	; (401ef4 <eink_ac057tc1_put_display_buffer+0x6c>)
  401e9c:	6bd3      	ldr	r3, [r2, #60]	; 0x3c
  401e9e:	f013 7f00 	tst.w	r3, #33554432	; 0x2000000
  401ea2:	d0fb      	beq.n	401e9c <eink_ac057tc1_put_display_buffer+0x14>
    if(refresh_display) {
  401ea4:	b904      	cbnz	r4, 401ea8 <eink_ac057tc1_put_display_buffer+0x20>
  401ea6:	bd10      	pop	{r4, pc}
        eink_write_data(UC8159_PON, 0, 0);
  401ea8:	2200      	movs	r2, #0
  401eaa:	4611      	mov	r1, r2
  401eac:	2004      	movs	r0, #4
  401eae:	4b10      	ldr	r3, [pc, #64]	; (401ef0 <eink_ac057tc1_put_display_buffer+0x68>)
  401eb0:	4798      	blx	r3
  401eb2:	4a10      	ldr	r2, [pc, #64]	; (401ef4 <eink_ac057tc1_put_display_buffer+0x6c>)
  401eb4:	6bd3      	ldr	r3, [r2, #60]	; 0x3c
  401eb6:	f013 7f00 	tst.w	r3, #33554432	; 0x2000000
  401eba:	d0fb      	beq.n	401eb4 <eink_ac057tc1_put_display_buffer+0x2c>
        eink_write_data(UC8159_DRF, 0, 0);
  401ebc:	2200      	movs	r2, #0
  401ebe:	4611      	mov	r1, r2
  401ec0:	2012      	movs	r0, #18
  401ec2:	4b0b      	ldr	r3, [pc, #44]	; (401ef0 <eink_ac057tc1_put_display_buffer+0x68>)
  401ec4:	4798      	blx	r3
  401ec6:	4a0b      	ldr	r2, [pc, #44]	; (401ef4 <eink_ac057tc1_put_display_buffer+0x6c>)
  401ec8:	6bd3      	ldr	r3, [r2, #60]	; 0x3c
  401eca:	f013 7f00 	tst.w	r3, #33554432	; 0x2000000
  401ece:	d0fb      	beq.n	401ec8 <eink_ac057tc1_put_display_buffer+0x40>
        eink_write_data(UC8159_POF, 0, 0);
  401ed0:	2200      	movs	r2, #0
  401ed2:	4611      	mov	r1, r2
  401ed4:	2002      	movs	r0, #2
  401ed6:	4b06      	ldr	r3, [pc, #24]	; (401ef0 <eink_ac057tc1_put_display_buffer+0x68>)
  401ed8:	4798      	blx	r3
  401eda:	4a06      	ldr	r2, [pc, #24]	; (401ef4 <eink_ac057tc1_put_display_buffer+0x6c>)
  401edc:	6bd3      	ldr	r3, [r2, #60]	; 0x3c
  401ede:	f013 7f00 	tst.w	r3, #33554432	; 0x2000000
  401ee2:	d0fb      	beq.n	401edc <eink_ac057tc1_put_display_buffer+0x54>
  401ee4:	e7df      	b.n	401ea6 <eink_ac057tc1_put_display_buffer+0x1e>
  401ee6:	bf00      	nop
  401ee8:	20000544 	.word	0x20000544
  401eec:	00020d00 	.word	0x00020d00
  401ef0:	004019e1 	.word	0x004019e1
  401ef4:	400e0e00 	.word	0x400e0e00

00401ef8 <eink_ed057tc2_refresh_display_buffer>:
    
/**
 * \brief Send the refresh command to the display driver.
 */
static inline void eink_ed057tc2_refresh_display_buffer(void)
{
  401ef8:	b510      	push	{r4, lr}
    /* Enable power to the display */
    eink_write_data(UC8159_PON, 0, 0);
  401efa:	2200      	movs	r2, #0
  401efc:	4611      	mov	r1, r2
  401efe:	2004      	movs	r0, #4
  401f00:	4c0a      	ldr	r4, [pc, #40]	; (401f2c <eink_ed057tc2_refresh_display_buffer+0x34>)
  401f02:	47a0      	blx	r4
    
    /* Send the Refresh Display command */
    eink_write_data(UC8159_DRF, 0, 0);
  401f04:	2200      	movs	r2, #0
  401f06:	4611      	mov	r1, r2
  401f08:	2012      	movs	r0, #18
  401f0a:	47a0      	blx	r4
  401f0c:	4a08      	ldr	r2, [pc, #32]	; (401f30 <eink_ed057tc2_refresh_display_buffer+0x38>)
  401f0e:	6bd3      	ldr	r3, [r2, #60]	; 0x3c
  401f10:	f013 7f00 	tst.w	r3, #33554432	; 0x2000000
  401f14:	d0fb      	beq.n	401f0e <eink_ed057tc2_refresh_display_buffer+0x16>
    uc8159_wait_for_busy();
    
    /* Disable power to the display */
    eink_write_data(UC8159_POF, 0, 0);
  401f16:	2200      	movs	r2, #0
  401f18:	4611      	mov	r1, r2
  401f1a:	2002      	movs	r0, #2
  401f1c:	4b03      	ldr	r3, [pc, #12]	; (401f2c <eink_ed057tc2_refresh_display_buffer+0x34>)
  401f1e:	4798      	blx	r3
  401f20:	4a03      	ldr	r2, [pc, #12]	; (401f30 <eink_ed057tc2_refresh_display_buffer+0x38>)
  401f22:	6bd3      	ldr	r3, [r2, #60]	; 0x3c
  401f24:	f013 7f00 	tst.w	r3, #33554432	; 0x2000000
  401f28:	d0fb      	beq.n	401f22 <eink_ed057tc2_refresh_display_buffer+0x2a>
    uc8159_wait_for_busy();
}
  401f2a:	bd10      	pop	{r4, pc}
  401f2c:	004019e1 	.word	0x004019e1
  401f30:	400e0e00 	.word	0x400e0e00

00401f34 <eink_ed057tc2_put_display_buffer>:
{
  401f34:	b538      	push	{r3, r4, r5, lr}
  401f36:	4605      	mov	r5, r0
    eink_write_data(UC8159_PON, 0, 0);
  401f38:	2200      	movs	r2, #0
  401f3a:	4611      	mov	r1, r2
  401f3c:	2004      	movs	r0, #4
  401f3e:	4c14      	ldr	r4, [pc, #80]	; (401f90 <eink_ed057tc2_put_display_buffer+0x5c>)
  401f40:	47a0      	blx	r4
    eink_write_data(UC8159_DTM1, ptr_eink_gfx_config->display_buffer_1_ptr, GFX_ED057TC2_DISPLAY_BUFFER_SIZE);
  401f42:	4b14      	ldr	r3, [pc, #80]	; (401f94 <eink_ed057tc2_put_display_buffer+0x60>)
  401f44:	681b      	ldr	r3, [r3, #0]
  401f46:	4a14      	ldr	r2, [pc, #80]	; (401f98 <eink_ed057tc2_put_display_buffer+0x64>)
  401f48:	6919      	ldr	r1, [r3, #16]
  401f4a:	2010      	movs	r0, #16
  401f4c:	47a0      	blx	r4
    eink_write_data(UC8159_DSP, 0, 0);
  401f4e:	2200      	movs	r2, #0
  401f50:	4611      	mov	r1, r2
  401f52:	2011      	movs	r0, #17
  401f54:	47a0      	blx	r4
  401f56:	4a11      	ldr	r2, [pc, #68]	; (401f9c <eink_ed057tc2_put_display_buffer+0x68>)
  401f58:	6bd3      	ldr	r3, [r2, #60]	; 0x3c
  401f5a:	f013 7f00 	tst.w	r3, #33554432	; 0x2000000
  401f5e:	d0fb      	beq.n	401f58 <eink_ed057tc2_put_display_buffer+0x24>
    if(refresh_display) {
  401f60:	b955      	cbnz	r5, 401f78 <eink_ed057tc2_put_display_buffer+0x44>
    eink_write_data(UC8159_POF, 0, 0);
  401f62:	2200      	movs	r2, #0
  401f64:	4611      	mov	r1, r2
  401f66:	2002      	movs	r0, #2
  401f68:	4b09      	ldr	r3, [pc, #36]	; (401f90 <eink_ed057tc2_put_display_buffer+0x5c>)
  401f6a:	4798      	blx	r3
  401f6c:	4a0b      	ldr	r2, [pc, #44]	; (401f9c <eink_ed057tc2_put_display_buffer+0x68>)
  401f6e:	6bd3      	ldr	r3, [r2, #60]	; 0x3c
  401f70:	f013 7f00 	tst.w	r3, #33554432	; 0x2000000
  401f74:	d0fb      	beq.n	401f6e <eink_ed057tc2_put_display_buffer+0x3a>
}
  401f76:	bd38      	pop	{r3, r4, r5, pc}
        eink_write_data(UC8159_DRF, 0, 0);
  401f78:	2200      	movs	r2, #0
  401f7a:	4611      	mov	r1, r2
  401f7c:	2012      	movs	r0, #18
  401f7e:	4b04      	ldr	r3, [pc, #16]	; (401f90 <eink_ed057tc2_put_display_buffer+0x5c>)
  401f80:	4798      	blx	r3
  401f82:	4a06      	ldr	r2, [pc, #24]	; (401f9c <eink_ed057tc2_put_display_buffer+0x68>)
  401f84:	6bd3      	ldr	r3, [r2, #60]	; 0x3c
  401f86:	f013 7f00 	tst.w	r3, #33554432	; 0x2000000
  401f8a:	d0fb      	beq.n	401f84 <eink_ed057tc2_put_display_buffer+0x50>
  401f8c:	e7e9      	b.n	401f62 <eink_ed057tc2_put_display_buffer+0x2e>
  401f8e:	bf00      	nop
  401f90:	004019e1 	.word	0x004019e1
  401f94:	20000544 	.word	0x20000544
  401f98:	00020d00 	.word	0x00020d00
  401f9c:	400e0e00 	.word	0x400e0e00

00401fa0 <eink_ed028tc1_refresh_display_buffer>:
    
/**
 * \brief Send the refresh command to the display driver.
 */
static inline void eink_ed028tc1_refresh_display_buffer(void)
{
  401fa0:	b570      	push	{r4, r5, r6, lr}
  401fa2:	b084      	sub	sp, #16
    uint8_t eink_data[9];
    
    /* Enable power to the display */
    eink_write_data(UC8177_PON, 0, 0);
  401fa4:	2200      	movs	r2, #0
  401fa6:	4611      	mov	r1, r2
  401fa8:	2004      	movs	r0, #4
  401faa:	4b17      	ldr	r3, [pc, #92]	; (402008 <eink_ed028tc1_refresh_display_buffer+0x68>)
  401fac:	4798      	blx	r3
  401fae:	4a17      	ldr	r2, [pc, #92]	; (40200c <eink_ed028tc1_refresh_display_buffer+0x6c>)
  401fb0:	6bd3      	ldr	r3, [r2, #60]	; 0x3c
 * hold the MCU until it returns HIGH again.
 */
static inline void uc8177_wait_for_busy_low(void)
{
#ifdef EINK_BUSY
    while(!gpio_get_pin_level(EINK_BUSY));
  401fb2:	f013 7f00 	tst.w	r3, #33554432	; 0x2000000
  401fb6:	d0fb      	beq.n	401fb0 <eink_ed028tc1_refresh_display_buffer+0x10>
    
    uc8177_wait_for_busy_low();
    
    /* Display Refresh */
    eink_data[0] = 0x18; /* Update Mode 1 */
  401fb8:	2318      	movs	r3, #24
  401fba:	f88d 3004 	strb.w	r3, [sp, #4]
    eink_data[1] = 0x00; /* X = 0 */
  401fbe:	2400      	movs	r4, #0
  401fc0:	f88d 4005 	strb.w	r4, [sp, #5]
    eink_data[2] = 0x00;
  401fc4:	f88d 4006 	strb.w	r4, [sp, #6]
    eink_data[3] = 0x00; /* Y = 0 */
  401fc8:	f88d 4007 	strb.w	r4, [sp, #7]
    eink_data[4] = 0x00;
  401fcc:	f88d 4008 	strb.w	r4, [sp, #8]
    eink_data[5] = 0x02; /* W = 600 */
  401fd0:	2602      	movs	r6, #2
  401fd2:	f88d 6009 	strb.w	r6, [sp, #9]
    eink_data[6] = 0x58;
  401fd6:	2358      	movs	r3, #88	; 0x58
  401fd8:	f88d 300a 	strb.w	r3, [sp, #10]
    eink_data[7] = 0x01; /* H = 480 */
  401fdc:	2301      	movs	r3, #1
  401fde:	f88d 300b 	strb.w	r3, [sp, #11]
    eink_data[8] = 0xE0;
  401fe2:	23e0      	movs	r3, #224	; 0xe0
  401fe4:	f88d 300c 	strb.w	r3, [sp, #12]
    eink_write_data(UC8177_DRF, eink_data, 9);
  401fe8:	2209      	movs	r2, #9
  401fea:	a901      	add	r1, sp, #4
  401fec:	2012      	movs	r0, #18
  401fee:	4d06      	ldr	r5, [pc, #24]	; (402008 <eink_ed028tc1_refresh_display_buffer+0x68>)
  401ff0:	47a8      	blx	r5
    
    /* Disable power to the display */
    eink_write_data(UC8177_POF, 0, 0);
  401ff2:	4622      	mov	r2, r4
  401ff4:	4621      	mov	r1, r4
  401ff6:	4630      	mov	r0, r6
  401ff8:	47a8      	blx	r5
  401ffa:	4a04      	ldr	r2, [pc, #16]	; (40200c <eink_ed028tc1_refresh_display_buffer+0x6c>)
  401ffc:	6bd3      	ldr	r3, [r2, #60]	; 0x3c
  401ffe:	f013 7f00 	tst.w	r3, #33554432	; 0x2000000
  402002:	d0fb      	beq.n	401ffc <eink_ed028tc1_refresh_display_buffer+0x5c>
    uc8177_wait_for_busy_low();
}
  402004:	b004      	add	sp, #16
  402006:	bd70      	pop	{r4, r5, r6, pc}
  402008:	004019e1 	.word	0x004019e1
  40200c:	400e0e00 	.word	0x400e0e00

00402010 <eink_ed037tc1_refresh_display_buffer>:
    
/**
 * \brief Send the refresh command to the display driver.
 */
static inline void eink_ed037tc1_refresh_display_buffer(void)
{
  402010:	b510      	push	{r4, lr}
  402012:	b082      	sub	sp, #8
	uint8_t eink_data[1];
	
    /* Upload update waveform - Note for demo purposes, only 25C waveforms are used */
    if(ssd1677_global_instance.panel_settings.update_mode == UPDATE_SLOW)
  402014:	4b10      	ldr	r3, [pc, #64]	; (402058 <eink_ed037tc1_refresh_display_buffer+0x48>)
  402016:	78db      	ldrb	r3, [r3, #3]
  402018:	b9bb      	cbnz	r3, 40204a <eink_ed037tc1_refresh_display_buffer+0x3a>
    {
        eink_write_data(SSD1677_LUT_REG, ED037TC1_A2_LUT, 105); /* Slow Update */
  40201a:	2269      	movs	r2, #105	; 0x69
  40201c:	490f      	ldr	r1, [pc, #60]	; (40205c <eink_ed037tc1_refresh_display_buffer+0x4c>)
  40201e:	2032      	movs	r0, #50	; 0x32
  402020:	4b0f      	ldr	r3, [pc, #60]	; (402060 <eink_ed037tc1_refresh_display_buffer+0x50>)
  402022:	4798      	blx	r3
    } else {
        eink_write_data(SSD1677_LUT_REG, ED037TC1_DU_LUT, 105); /* Fast Update */
    }
    
    eink_data[0] = 0xCF;
  402024:	a902      	add	r1, sp, #8
  402026:	23cf      	movs	r3, #207	; 0xcf
  402028:	f801 3d04 	strb.w	r3, [r1, #-4]!
    eink_write_data(SSD1677_DSP_SEQ, eink_data, 1);
  40202c:	2201      	movs	r2, #1
  40202e:	2022      	movs	r0, #34	; 0x22
  402030:	4c0b      	ldr	r4, [pc, #44]	; (402060 <eink_ed037tc1_refresh_display_buffer+0x50>)
  402032:	47a0      	blx	r4
	
    /* Display Update */
    eink_write_data(SSD1677_DSP_ACT, 0, 0);
  402034:	2200      	movs	r2, #0
  402036:	4611      	mov	r1, r2
  402038:	2020      	movs	r0, #32
  40203a:	47a0      	blx	r4
  40203c:	4a09      	ldr	r2, [pc, #36]	; (402064 <eink_ed037tc1_refresh_display_buffer+0x54>)
  40203e:	6bd3      	ldr	r3, [r2, #60]	; 0x3c
 * hold the MCU until it returns HIGH again.
 */
static inline void ssd1677_wait_for_busy(void)
{
#ifdef EINK_BUSY
    while(gpio_get_pin_level(EINK_BUSY));
  402040:	f013 7f00 	tst.w	r3, #33554432	; 0x2000000
  402044:	d1fb      	bne.n	40203e <eink_ed037tc1_refresh_display_buffer+0x2e>
	ssd1677_wait_for_busy();
}
  402046:	b002      	add	sp, #8
  402048:	bd10      	pop	{r4, pc}
        eink_write_data(SSD1677_LUT_REG, ED037TC1_DU_LUT, 105); /* Fast Update */
  40204a:	2269      	movs	r2, #105	; 0x69
  40204c:	4906      	ldr	r1, [pc, #24]	; (402068 <eink_ed037tc1_refresh_display_buffer+0x58>)
  40204e:	2032      	movs	r0, #50	; 0x32
  402050:	4b03      	ldr	r3, [pc, #12]	; (402060 <eink_ed037tc1_refresh_display_buffer+0x50>)
  402052:	4798      	blx	r3
  402054:	e7e6      	b.n	402024 <eink_ed037tc1_refresh_display_buffer+0x14>
  402056:	bf00      	nop
  402058:	20000524 	.word	0x20000524
  40205c:	0040352c 	.word	0x0040352c
  402060:	004019e1 	.word	0x004019e1
  402064:	400e0e00 	.word	0x400e0e00
  402068:	00403598 	.word	0x00403598

0040206c <eink_ed037tc1_put_display_buffer>:
{
  40206c:	b5f0      	push	{r4, r5, r6, r7, lr}
  40206e:	b083      	sub	sp, #12
  402070:	4607      	mov	r7, r0
    eink_data[0] = 0x00;
  402072:	2400      	movs	r4, #0
  402074:	f88d 4004 	strb.w	r4, [sp, #4]
    eink_data[1] = 0x00;
  402078:	f88d 4005 	strb.w	r4, [sp, #5]
    eink_write_data(SSD1677_X_ADDRC, eink_data, 2);
  40207c:	2202      	movs	r2, #2
  40207e:	a901      	add	r1, sp, #4
  402080:	204e      	movs	r0, #78	; 0x4e
  402082:	4d24      	ldr	r5, [pc, #144]	; (402114 <eink_ed037tc1_put_display_buffer+0xa8>)
  402084:	47a8      	blx	r5
    eink_data[0] = 0x00;
  402086:	f88d 4004 	strb.w	r4, [sp, #4]
    eink_data[1] = 0x00;
  40208a:	f88d 4005 	strb.w	r4, [sp, #5]
    eink_write_data(SSD1677_Y_ADDRC, eink_data, 2);
  40208e:	2202      	movs	r2, #2
  402090:	a901      	add	r1, sp, #4
  402092:	204f      	movs	r0, #79	; 0x4f
  402094:	47a8      	blx	r5
    eink_write_data(SSD1677_RAM_BW, ptr_eink_gfx_config->display_buffer_1_ptr, GFX_ED037TC1_DISPLAY_BUFFER_SIZE);
  402096:	4e20      	ldr	r6, [pc, #128]	; (402118 <eink_ed037tc1_put_display_buffer+0xac>)
  402098:	6833      	ldr	r3, [r6, #0]
  40209a:	f244 12a0 	movw	r2, #16800	; 0x41a0
  40209e:	6919      	ldr	r1, [r3, #16]
  4020a0:	2024      	movs	r0, #36	; 0x24
  4020a2:	47a8      	blx	r5
    eink_data[0] = 0x00;
  4020a4:	f88d 4004 	strb.w	r4, [sp, #4]
    eink_data[1] = 0x00;
  4020a8:	f88d 4005 	strb.w	r4, [sp, #5]
    eink_write_data(SSD1677_X_ADDRC, eink_data, 2);
  4020ac:	2202      	movs	r2, #2
  4020ae:	a901      	add	r1, sp, #4
  4020b0:	204e      	movs	r0, #78	; 0x4e
  4020b2:	47a8      	blx	r5
    eink_data[0] = 0x00;
  4020b4:	f88d 4004 	strb.w	r4, [sp, #4]
    eink_data[1] = 0x00;
  4020b8:	f88d 4005 	strb.w	r4, [sp, #5]
    eink_write_data(SSD1677_Y_ADDRC, eink_data, 2);
  4020bc:	2202      	movs	r2, #2
  4020be:	a901      	add	r1, sp, #4
  4020c0:	204f      	movs	r0, #79	; 0x4f
  4020c2:	47a8      	blx	r5
    eink_write_data(SSD1677_RAM_RED, ptr_eink_gfx_config->display_buffer_2_ptr, GFX_ED037TC1_DISPLAY_BUFFER_SIZE);
  4020c4:	6833      	ldr	r3, [r6, #0]
  4020c6:	f244 12a0 	movw	r2, #16800	; 0x41a0
  4020ca:	6959      	ldr	r1, [r3, #20]
  4020cc:	2026      	movs	r0, #38	; 0x26
  4020ce:	47a8      	blx	r5
    if(refresh_display) {
  4020d0:	b1bf      	cbz	r7, 402102 <eink_ed037tc1_put_display_buffer+0x96>
        if(ssd1677_global_instance.panel_settings.update_mode == UPDATE_SLOW)
  4020d2:	4b12      	ldr	r3, [pc, #72]	; (40211c <eink_ed037tc1_put_display_buffer+0xb0>)
  4020d4:	78db      	ldrb	r3, [r3, #3]
  4020d6:	b9b3      	cbnz	r3, 402106 <eink_ed037tc1_put_display_buffer+0x9a>
            eink_write_data(SSD1677_LUT_REG, ED037TC1_A2_LUT, 105); /* Slow Update */
  4020d8:	2269      	movs	r2, #105	; 0x69
  4020da:	4911      	ldr	r1, [pc, #68]	; (402120 <eink_ed037tc1_put_display_buffer+0xb4>)
  4020dc:	2032      	movs	r0, #50	; 0x32
  4020de:	47a8      	blx	r5
        eink_data[0] = 0xCF;
  4020e0:	a902      	add	r1, sp, #8
  4020e2:	23cf      	movs	r3, #207	; 0xcf
  4020e4:	f801 3d04 	strb.w	r3, [r1, #-4]!
        eink_write_data(SSD1677_DSP_SEQ, eink_data, 1);
  4020e8:	2201      	movs	r2, #1
  4020ea:	2022      	movs	r0, #34	; 0x22
  4020ec:	4c09      	ldr	r4, [pc, #36]	; (402114 <eink_ed037tc1_put_display_buffer+0xa8>)
  4020ee:	47a0      	blx	r4
        eink_write_data(SSD1677_DSP_ACT, 0, 0);
  4020f0:	2200      	movs	r2, #0
  4020f2:	4611      	mov	r1, r2
  4020f4:	2020      	movs	r0, #32
  4020f6:	47a0      	blx	r4
  4020f8:	4a0a      	ldr	r2, [pc, #40]	; (402124 <eink_ed037tc1_put_display_buffer+0xb8>)
  4020fa:	6bd3      	ldr	r3, [r2, #60]	; 0x3c
  4020fc:	f013 7f00 	tst.w	r3, #33554432	; 0x2000000
  402100:	d1fb      	bne.n	4020fa <eink_ed037tc1_put_display_buffer+0x8e>
}
  402102:	b003      	add	sp, #12
  402104:	bdf0      	pop	{r4, r5, r6, r7, pc}
            eink_write_data(SSD1677_LUT_REG, ED037TC1_DU_LUT, 105); /* Fast Update */
  402106:	2269      	movs	r2, #105	; 0x69
  402108:	4907      	ldr	r1, [pc, #28]	; (402128 <eink_ed037tc1_put_display_buffer+0xbc>)
  40210a:	2032      	movs	r0, #50	; 0x32
  40210c:	4b01      	ldr	r3, [pc, #4]	; (402114 <eink_ed037tc1_put_display_buffer+0xa8>)
  40210e:	4798      	blx	r3
  402110:	e7e6      	b.n	4020e0 <eink_ed037tc1_put_display_buffer+0x74>
  402112:	bf00      	nop
  402114:	004019e1 	.word	0x004019e1
  402118:	20000544 	.word	0x20000544
  40211c:	20000524 	.word	0x20000524
  402120:	0040352c 	.word	0x0040352c
  402124:	400e0e00 	.word	0x400e0e00
  402128:	00403598 	.word	0x00403598

0040212c <eink_ed037tc1_put_partial_display_buffer>:
{
  40212c:	e92d 4ff0 	stmdb	sp!, {r4, r5, r6, r7, r8, r9, sl, fp, lr}
  402130:	b083      	sub	sp, #12
  402132:	4681      	mov	r9, r0
  402134:	460c      	mov	r4, r1
	if (ssd1677_global_instance.panel_settings.display_rotation == ROTATE_90) {
  402136:	493d      	ldr	r1, [pc, #244]	; (40222c <eink_ed037tc1_put_partial_display_buffer+0x100>)
  402138:	7809      	ldrb	r1, [r1, #0]
  40213a:	b2c9      	uxtb	r1, r1
  40213c:	2901      	cmp	r1, #1
  40213e:	d04a      	beq.n	4021d6 <eink_ed037tc1_put_partial_display_buffer+0xaa>
    } else if (ssd1677_global_instance.panel_settings.display_rotation == ROTATE_180) {
  402140:	493a      	ldr	r1, [pc, #232]	; (40222c <eink_ed037tc1_put_partial_display_buffer+0x100>)
  402142:	7809      	ldrb	r1, [r1, #0]
  402144:	b2c9      	uxtb	r1, r1
  402146:	2902      	cmp	r1, #2
  402148:	d05c      	beq.n	402204 <eink_ed037tc1_put_partial_display_buffer+0xd8>
    } else if (ssd1677_global_instance.panel_settings.display_rotation == ROTATE_270) {
  40214a:	4938      	ldr	r1, [pc, #224]	; (40222c <eink_ed037tc1_put_partial_display_buffer+0x100>)
  40214c:	7809      	ldrb	r1, [r1, #0]
  40214e:	b2c9      	uxtb	r1, r1
  402150:	2903      	cmp	r1, #3
  402152:	d060      	beq.n	402216 <eink_ed037tc1_put_partial_display_buffer+0xea>
        byte_set = x1_set + ((GFX_ED037TC1_MAX_WIDTH/8) * start_y);
  402154:	eb04 0584 	add.w	r5, r4, r4, lsl #2
  402158:	ebc5 05c5 	rsb	r5, r5, r5, lsl #3
  40215c:	eb05 01e0 	add.w	r1, r5, r0, asr #3
		window_set_w = (window_w + mod_calc_x + mod_calc_w) / 8;
  402160:	f000 0bf8 	and.w	fp, r0, #248	; 0xf8
  402164:	eb0b 0002 	add.w	r0, fp, r2
        mod_calc_w = 8 - (window_w % 8);
  402168:	f002 0b07 	and.w	fp, r2, #7
  40216c:	f1cb 0b08 	rsb	fp, fp, #8
		window_set_w = (window_w + mod_calc_x + mod_calc_w) / 8;
  402170:	fa50 fb8b 	uxtab	fp, r0, fp
  402174:	f1bb 0f00 	cmp.w	fp, #0
  402178:	bfb8      	it	lt
  40217a:	f10b 0b07 	addlt.w	fp, fp, #7
  40217e:	f3cb 0bcf 	ubfx	fp, fp, #3, #16
    display_buffer = (uint8_t*) ptr_eink_gfx_config->display_buffer_1_ptr;
  402182:	4a2b      	ldr	r2, [pc, #172]	; (402230 <eink_ed037tc1_put_partial_display_buffer+0x104>)
  402184:	6812      	ldr	r2, [r2, #0]
  402186:	6915      	ldr	r5, [r2, #16]
    display_buffer += byte_set;
  402188:	440d      	add	r5, r1
    for(i=0; i<window_set_h; i++)
  40218a:	b30b      	cbz	r3, 4021d0 <eink_ed037tc1_put_partial_display_buffer+0xa4>
	    eink_data[1] = (window_set_x >> 8) & 0x3;
  40218c:	f3c9 2a01 	ubfx	sl, r9, #8, #2
  402190:	4423      	add	r3, r4
  402192:	fa1f f883 	uxth.w	r8, r3
	    eink_write_data(SSD1677_X_ADDRC, eink_data, 2);
  402196:	2702      	movs	r7, #2
  402198:	4e26      	ldr	r6, [pc, #152]	; (402234 <eink_ed037tc1_put_partial_display_buffer+0x108>)
	    eink_data[0] = (window_set_x & 0xFF);
  40219a:	f88d 9004 	strb.w	r9, [sp, #4]
	    eink_data[1] = (window_set_x >> 8) & 0x3;
  40219e:	f88d a005 	strb.w	sl, [sp, #5]
	    eink_write_data(SSD1677_X_ADDRC, eink_data, 2);
  4021a2:	463a      	mov	r2, r7
  4021a4:	a901      	add	r1, sp, #4
  4021a6:	204e      	movs	r0, #78	; 0x4e
  4021a8:	47b0      	blx	r6
	    eink_data[0] = (temp_y & 0xFF);
  4021aa:	f88d 4004 	strb.w	r4, [sp, #4]
	    eink_data[1] = (temp_y >> 8) & 0x3;
  4021ae:	f3c4 2301 	ubfx	r3, r4, #8, #2
  4021b2:	f88d 3005 	strb.w	r3, [sp, #5]
	    eink_write_data(SSD1677_Y_ADDRC, eink_data, 2);
  4021b6:	463a      	mov	r2, r7
  4021b8:	a901      	add	r1, sp, #4
  4021ba:	204f      	movs	r0, #79	; 0x4f
  4021bc:	47b0      	blx	r6
	    display_buffer += (GFX_ED037TC1_MAX_WIDTH / 8);
  4021be:	3523      	adds	r5, #35	; 0x23
	    eink_write_data(SSD1677_RAM_BW, display_buffer, window_set_w);
  4021c0:	465a      	mov	r2, fp
  4021c2:	4629      	mov	r1, r5
  4021c4:	2024      	movs	r0, #36	; 0x24
  4021c6:	47b0      	blx	r6
  4021c8:	3401      	adds	r4, #1
  4021ca:	b2a4      	uxth	r4, r4
    for(i=0; i<window_set_h; i++)
  4021cc:	4544      	cmp	r4, r8
  4021ce:	d1e4      	bne.n	40219a <eink_ed037tc1_put_partial_display_buffer+0x6e>
}
  4021d0:	b003      	add	sp, #12
  4021d2:	e8bd 8ff0 	ldmia.w	sp!, {r4, r5, r6, r7, r8, r9, sl, fp, pc}
		y1_set = ((GFX_ED037TC1_MAX_WIDTH / 8) - 1) - (((start_y + window_h) - ((start_y + window_h) % 8)) / 8);
  4021d6:	18e1      	adds	r1, r4, r3
  4021d8:	f031 0107 	bics.w	r1, r1, #7
  4021dc:	bf48      	it	mi
  4021de:	3107      	addmi	r1, #7
  4021e0:	10c9      	asrs	r1, r1, #3
  4021e2:	f1c1 0122 	rsb	r1, r1, #34	; 0x22
		byte_set = y1_set + ((GFX_ED037TC1_MAX_WIDTH/8) * (start_x));
  4021e6:	eb00 0580 	add.w	r5, r0, r0, lsl #2
  4021ea:	ebc5 05c5 	rsb	r5, r5, r5, lsl #3
  4021ee:	4429      	add	r1, r5
		window_set_x = (GFX_ED037TC1_MAX_WIDTH - start_y - window_h);
  4021f0:	f5c3 708c 	rsb	r0, r3, #280	; 0x118
  4021f4:	1b00      	subs	r0, r0, r4
		window_set_w = window_h / 8;
  4021f6:	ea4f 0bd3 	mov.w	fp, r3, lsr #3
		window_set_h = window_w;
  4021fa:	4613      	mov	r3, r2
		window_set_y = start_x;
  4021fc:	464c      	mov	r4, r9
		window_set_x = (GFX_ED037TC1_MAX_WIDTH - start_y - window_h);
  4021fe:	fa1f f980 	uxth.w	r9, r0
  402202:	e7be      	b.n	402182 <eink_ed037tc1_put_partial_display_buffer+0x56>
        x1_set = (GFX_ED037TC1_MAX_WIDTH - 1) - ((start_x - (start_x % 8)) / 8);
  402204:	08c1      	lsrs	r1, r0, #3
        byte_set = ( ((GFX_ED037TC1_MAX_HEIGHT - 1) * (GFX_ED037TC1_MAX_WIDTH/8)) - (start_y * (GFX_ED037TC1_MAX_WIDTH/8)) + x1_set );
  402206:	f5c1 4285 	rsb	r2, r1, #17024	; 0x4280
  40220a:	3214      	adds	r2, #20
  40220c:	f06f 0522 	mvn.w	r5, #34	; 0x22
  402210:	fb05 2104 	mla	r1, r5, r4, r2
  402214:	e7b5      	b.n	402182 <eink_ed037tc1_put_partial_display_buffer+0x56>
        byte_set = ( ((GFX_ED037TC1_MAX_HEIGHT - 1) * (GFX_ED037TC1_MAX_WIDTH/8)) - (start_y * (GFX_ED037TC1_MAX_WIDTH/8)) + y1_set );
  402216:	f06f 0122 	mvn.w	r1, #34	; 0x22
  40221a:	fb01 f104 	mul.w	r1, r1, r4
  40221e:	eb01 01e4 	add.w	r1, r1, r4, asr #3
  402222:	f501 4182 	add.w	r1, r1, #16640	; 0x4100
  402226:	317d      	adds	r1, #125	; 0x7d
  402228:	e7ab      	b.n	402182 <eink_ed037tc1_put_partial_display_buffer+0x56>
  40222a:	bf00      	nop
  40222c:	20000524 	.word	0x20000524
  402230:	20000544 	.word	0x20000544
  402234:	004019e1 	.word	0x004019e1

00402238 <eink_hink_e0154a05_put_display_buffer>:
{
  402238:	e92d 41f0 	stmdb	sp!, {r4, r5, r6, r7, r8, lr}
  40223c:	b082      	sub	sp, #8
  40223e:	4680      	mov	r8, r0
    eink_data[0] = 0x7D;
  402240:	ac02      	add	r4, sp, #8
  402242:	237d      	movs	r3, #125	; 0x7d
  402244:	f804 3d04 	strb.w	r3, [r4, #-4]!
    eink_write_data(SSD1608_WVCOM, eink_data, 1);
  402248:	2201      	movs	r2, #1
  40224a:	4621      	mov	r1, r4
  40224c:	202c      	movs	r0, #44	; 0x2c
  40224e:	4d2a      	ldr	r5, [pc, #168]	; (4022f8 <eink_hink_e0154a05_put_display_buffer+0xc0>)
  402250:	47a8      	blx	r5
    eink_data[0] = 0x18;
  402252:	2718      	movs	r7, #24
  402254:	f88d 7004 	strb.w	r7, [sp, #4]
    eink_data[1] = 0x00;
  402258:	2600      	movs	r6, #0
  40225a:	f88d 6005 	strb.w	r6, [sp, #5]
    eink_write_data(SSD1608_RXAS, eink_data, 2);
  40225e:	2202      	movs	r2, #2
  402260:	4621      	mov	r1, r4
  402262:	2044      	movs	r0, #68	; 0x44
  402264:	47a8      	blx	r5
    eink_data[0] = 0x18;
  402266:	f88d 7004 	strb.w	r7, [sp, #4]
    eink_write_data(SSD1608_RXC, eink_data, 1);
  40226a:	2201      	movs	r2, #1
  40226c:	4621      	mov	r1, r4
  40226e:	204e      	movs	r0, #78	; 0x4e
  402270:	47a8      	blx	r5
    eink_data[0] = 0xC7;
  402272:	23c7      	movs	r3, #199	; 0xc7
  402274:	f88d 3004 	strb.w	r3, [sp, #4]
    eink_data[1] = 0x00;
  402278:	f88d 6005 	strb.w	r6, [sp, #5]
    eink_write_data(SSD1608_RYC, eink_data, 2);
  40227c:	2202      	movs	r2, #2
  40227e:	4621      	mov	r1, r4
  402280:	204f      	movs	r0, #79	; 0x4f
  402282:	47a8      	blx	r5
    eink_write_data(SSD1608_WR, ptr_eink_gfx_config->display_buffer_1_ptr, GFX_HINK_E0154A05_DISPLAY_BUFFER_SIZE);
  402284:	4b1d      	ldr	r3, [pc, #116]	; (4022fc <eink_hink_e0154a05_put_display_buffer+0xc4>)
  402286:	681b      	ldr	r3, [r3, #0]
  402288:	f241 3288 	movw	r2, #5000	; 0x1388
  40228c:	6919      	ldr	r1, [r3, #16]
  40228e:	2024      	movs	r0, #36	; 0x24
  402290:	47a8      	blx	r5
  402292:	4a1b      	ldr	r2, [pc, #108]	; (402300 <eink_hink_e0154a05_put_display_buffer+0xc8>)
  402294:	6bd3      	ldr	r3, [r2, #60]	; 0x3c
  402296:	f013 7f00 	tst.w	r3, #33554432	; 0x2000000
  40229a:	d1fb      	bne.n	402294 <eink_hink_e0154a05_put_display_buffer+0x5c>
    if(refresh_display) {
  40229c:	f1b8 0f00 	cmp.w	r8, #0
  4022a0:	d102      	bne.n	4022a8 <eink_hink_e0154a05_put_display_buffer+0x70>
}
  4022a2:	b002      	add	sp, #8
  4022a4:	e8bd 81f0 	ldmia.w	sp!, {r4, r5, r6, r7, r8, pc}
    if(ssd1608_global_instance.display_config.update_mode == UPDATE_FAST)
  4022a8:	4b16      	ldr	r3, [pc, #88]	; (402304 <eink_hink_e0154a05_put_display_buffer+0xcc>)
  4022aa:	785b      	ldrb	r3, [r3, #1]
  4022ac:	b2db      	uxtb	r3, r3
  4022ae:	2b01      	cmp	r3, #1
  4022b0:	d017      	beq.n	4022e2 <eink_hink_e0154a05_put_display_buffer+0xaa>
        eink_data[0] = 0xF7; /* Slow Update */
  4022b2:	23f7      	movs	r3, #247	; 0xf7
  4022b4:	f88d 3000 	strb.w	r3, [sp]
    eink_write_data(SSD1608_DUC2, eink_data, 1);
  4022b8:	2201      	movs	r2, #1
  4022ba:	4669      	mov	r1, sp
  4022bc:	2022      	movs	r0, #34	; 0x22
  4022be:	4b0e      	ldr	r3, [pc, #56]	; (4022f8 <eink_hink_e0154a05_put_display_buffer+0xc0>)
  4022c0:	4798      	blx	r3
  4022c2:	4a0f      	ldr	r2, [pc, #60]	; (402300 <eink_hink_e0154a05_put_display_buffer+0xc8>)
  4022c4:	6bd3      	ldr	r3, [r2, #60]	; 0x3c
  4022c6:	f013 7f00 	tst.w	r3, #33554432	; 0x2000000
  4022ca:	d1fb      	bne.n	4022c4 <eink_hink_e0154a05_put_display_buffer+0x8c>
    eink_write_data(SSD1608_MA, 0, 0);
  4022cc:	2200      	movs	r2, #0
  4022ce:	4611      	mov	r1, r2
  4022d0:	2020      	movs	r0, #32
  4022d2:	4b09      	ldr	r3, [pc, #36]	; (4022f8 <eink_hink_e0154a05_put_display_buffer+0xc0>)
  4022d4:	4798      	blx	r3
  4022d6:	4a0a      	ldr	r2, [pc, #40]	; (402300 <eink_hink_e0154a05_put_display_buffer+0xc8>)
  4022d8:	6bd3      	ldr	r3, [r2, #60]	; 0x3c
  4022da:	f013 7f00 	tst.w	r3, #33554432	; 0x2000000
  4022de:	d1fb      	bne.n	4022d8 <eink_hink_e0154a05_put_display_buffer+0xa0>
  4022e0:	e7df      	b.n	4022a2 <eink_hink_e0154a05_put_display_buffer+0x6a>
        if(ssd1608_global_instance.display_config.display_part_no == SSD1608_HINK_E0154A05)
  4022e2:	4b08      	ldr	r3, [pc, #32]	; (402304 <eink_hink_e0154a05_put_display_buffer+0xcc>)
  4022e4:	789b      	ldrb	r3, [r3, #2]
  4022e6:	b91b      	cbnz	r3, 4022f0 <eink_hink_e0154a05_put_display_buffer+0xb8>
            eink_data[0] = 0xC7; /* Register LUT Update - HINK-E0154A05 */
  4022e8:	23c7      	movs	r3, #199	; 0xc7
  4022ea:	f88d 3000 	strb.w	r3, [sp]
  4022ee:	e7e3      	b.n	4022b8 <eink_hink_e0154a05_put_display_buffer+0x80>
            eink_data[0] = 0xFF; /* Register LUT Update - HINK-E0154A45 */
  4022f0:	23ff      	movs	r3, #255	; 0xff
  4022f2:	f88d 3000 	strb.w	r3, [sp]
  4022f6:	e7df      	b.n	4022b8 <eink_hink_e0154a05_put_display_buffer+0x80>
  4022f8:	004019e1 	.word	0x004019e1
  4022fc:	20000544 	.word	0x20000544
  402300:	400e0e00 	.word	0x400e0e00
  402304:	200004c8 	.word	0x200004c8

00402308 <eink_et011tt2_put_display_buffer>:
{
  402308:	b530      	push	{r4, r5, lr}
  40230a:	b085      	sub	sp, #20
  40230c:	4605      	mov	r5, r0
    eink_data[0] = 0x00; /* X = 0 */
  40230e:	2300      	movs	r3, #0
  402310:	f88d 3008 	strb.w	r3, [sp, #8]
    eink_data[1] = 0x00;
  402314:	f88d 3009 	strb.w	r3, [sp, #9]
    eink_data[2] = 0x00; /* Y = 0 */
  402318:	f88d 300a 	strb.w	r3, [sp, #10]
    eink_data[3] = 0xEF; /* W = 239 */
  40231c:	22ef      	movs	r2, #239	; 0xef
  40231e:	f88d 200b 	strb.w	r2, [sp, #11]
    eink_data[4] = 0x00;
  402322:	f88d 300c 	strb.w	r3, [sp, #12]
    eink_data[5] = 0xEF; /* H = 239 */
  402326:	f88d 200d 	strb.w	r2, [sp, #13]
    eink_write_data(UC8173_DTMW, eink_data, 6);
  40232a:	2206      	movs	r2, #6
  40232c:	a902      	add	r1, sp, #8
  40232e:	2014      	movs	r0, #20
  402330:	4c2f      	ldr	r4, [pc, #188]	; (4023f0 <eink_et011tt2_put_display_buffer+0xe8>)
  402332:	47a0      	blx	r4
    eink_write_data(UC8173_DTM2, ptr_eink_gfx_config->display_buffer_1_ptr, GFX_ET011TT2_DISPLAY_BUFFER_SIZE);
  402334:	4b2f      	ldr	r3, [pc, #188]	; (4023f4 <eink_et011tt2_put_display_buffer+0xec>)
  402336:	681b      	ldr	r3, [r3, #0]
  402338:	f44f 5261 	mov.w	r2, #14400	; 0x3840
  40233c:	6919      	ldr	r1, [r3, #16]
  40233e:	2013      	movs	r0, #19
  402340:	47a0      	blx	r4
    if(refresh_display) {
  402342:	b90d      	cbnz	r5, 402348 <eink_et011tt2_put_display_buffer+0x40>
}
  402344:	b005      	add	sp, #20
  402346:	bd30      	pop	{r4, r5, pc}
	if(uc8173_global_instance.display_config.update_mode == UPDATE_FAST)
  402348:	4b2b      	ldr	r3, [pc, #172]	; (4023f8 <eink_et011tt2_put_display_buffer+0xf0>)
  40234a:	785b      	ldrb	r3, [r3, #1]
  40234c:	b2db      	uxtb	r3, r3
  40234e:	2b01      	cmp	r3, #1
  402350:	d034      	beq.n	4023bc <eink_et011tt2_put_display_buffer+0xb4>
	if(uc8173_global_instance.display_config.uc8173_current_lut != UC8173_LUT_ET011TT2_A2)
  402352:	4b29      	ldr	r3, [pc, #164]	; (4023f8 <eink_et011tt2_put_display_buffer+0xf0>)
  402354:	78db      	ldrb	r3, [r3, #3]
  402356:	b2db      	uxtb	r3, r3
  402358:	2b02      	cmp	r3, #2
  40235a:	d014      	beq.n	402386 <eink_et011tt2_put_display_buffer+0x7e>
		uc8173_global_instance.display_config.uc8173_current_lut = UC8173_LUT_ET011TT2_A2;
  40235c:	2202      	movs	r2, #2
  40235e:	4b26      	ldr	r3, [pc, #152]	; (4023f8 <eink_et011tt2_put_display_buffer+0xf0>)
  402360:	70da      	strb	r2, [r3, #3]
		eink_write_data(UC8173_LUT_KWVCOM, ET011TT2_KWVCOM_A2_LUT, 32);
  402362:	4d26      	ldr	r5, [pc, #152]	; (4023fc <eink_et011tt2_put_display_buffer+0xf4>)
  402364:	2220      	movs	r2, #32
  402366:	f505 7128 	add.w	r1, r5, #672	; 0x2a0
  40236a:	4610      	mov	r0, r2
  40236c:	4c20      	ldr	r4, [pc, #128]	; (4023f0 <eink_et011tt2_put_display_buffer+0xe8>)
  40236e:	47a0      	blx	r4
		eink_write_data(UC8173_LUT_KW, ET011TT2_KW_A2_LUT, 512);
  402370:	f44f 7200 	mov.w	r2, #512	; 0x200
  402374:	f505 7130 	add.w	r1, r5, #704	; 0x2c0
  402378:	2022      	movs	r0, #34	; 0x22
  40237a:	47a0      	blx	r4
		eink_write_data(UC8173_LUT_FT, ET011TT2_FT_LUT, 128);
  40237c:	2280      	movs	r2, #128	; 0x80
  40237e:	f505 7108 	add.w	r1, r5, #544	; 0x220
  402382:	2026      	movs	r0, #38	; 0x26
  402384:	47a0      	blx	r4
    eink_data[0] = 0x00; /* GU2 Update Mode */
  402386:	2300      	movs	r3, #0
  402388:	f88d 3000 	strb.w	r3, [sp]
    eink_data[1] = 0x00; /* X = 0 */
  40238c:	f88d 3001 	strb.w	r3, [sp, #1]
    eink_data[2] = 0x00;
  402390:	f88d 3002 	strb.w	r3, [sp, #2]
    eink_data[3] = 0x00; /* Y = 0 */
  402394:	f88d 3003 	strb.w	r3, [sp, #3]
    eink_data[4] = 0xEF; /* W = 249 */
  402398:	22ef      	movs	r2, #239	; 0xef
  40239a:	f88d 2004 	strb.w	r2, [sp, #4]
    eink_data[5] = 0x00;
  40239e:	f88d 3005 	strb.w	r3, [sp, #5]
    eink_data[6] = 0xEF; /* H = 249 */
  4023a2:	f88d 2006 	strb.w	r2, [sp, #6]
    eink_write_data(UC8173_DRF, eink_data, 7);
  4023a6:	2207      	movs	r2, #7
  4023a8:	4669      	mov	r1, sp
  4023aa:	2012      	movs	r0, #18
  4023ac:	4b10      	ldr	r3, [pc, #64]	; (4023f0 <eink_et011tt2_put_display_buffer+0xe8>)
  4023ae:	4798      	blx	r3
  4023b0:	4a13      	ldr	r2, [pc, #76]	; (402400 <eink_et011tt2_put_display_buffer+0xf8>)
  4023b2:	6bd3      	ldr	r3, [r2, #60]	; 0x3c
    while(!gpio_get_pin_level(EINK_BUSY));
  4023b4:	f013 7f00 	tst.w	r3, #33554432	; 0x2000000
  4023b8:	d0fb      	beq.n	4023b2 <eink_et011tt2_put_display_buffer+0xaa>
  4023ba:	e7c3      	b.n	402344 <eink_et011tt2_put_display_buffer+0x3c>
	if(uc8173_global_instance.display_config.uc8173_current_lut != UC8173_LUT_ET011TT2_GU)
  4023bc:	4b0e      	ldr	r3, [pc, #56]	; (4023f8 <eink_et011tt2_put_display_buffer+0xf0>)
  4023be:	78db      	ldrb	r3, [r3, #3]
  4023c0:	b2db      	uxtb	r3, r3
  4023c2:	2b01      	cmp	r3, #1
  4023c4:	d0df      	beq.n	402386 <eink_et011tt2_put_display_buffer+0x7e>
		uc8173_global_instance.display_config.uc8173_current_lut = UC8173_LUT_ET011TT2_GU;
  4023c6:	2201      	movs	r2, #1
  4023c8:	4b0b      	ldr	r3, [pc, #44]	; (4023f8 <eink_et011tt2_put_display_buffer+0xf0>)
  4023ca:	70da      	strb	r2, [r3, #3]
		eink_write_data(UC8173_LUT_KWVCOM, ET011TT2_KWVCOM_GU_LUT, 32);
  4023cc:	4d0b      	ldr	r5, [pc, #44]	; (4023fc <eink_et011tt2_put_display_buffer+0xf4>)
  4023ce:	2220      	movs	r2, #32
  4023d0:	4629      	mov	r1, r5
  4023d2:	4610      	mov	r0, r2
  4023d4:	47a0      	blx	r4
		eink_write_data(UC8173_LUT_KW, ET011TT2_KW_GU_LUT, 512);
  4023d6:	f44f 7200 	mov.w	r2, #512	; 0x200
  4023da:	f105 0120 	add.w	r1, r5, #32
  4023de:	2022      	movs	r0, #34	; 0x22
  4023e0:	47a0      	blx	r4
		eink_write_data(UC8173_LUT_FT, ET011TT2_FT_LUT, 128);
  4023e2:	2280      	movs	r2, #128	; 0x80
  4023e4:	f505 7108 	add.w	r1, r5, #544	; 0x220
  4023e8:	2026      	movs	r0, #38	; 0x26
  4023ea:	47a0      	blx	r4
  4023ec:	e7cb      	b.n	402386 <eink_et011tt2_put_display_buffer+0x7e>
  4023ee:	bf00      	nop
  4023f0:	004019e1 	.word	0x004019e1
  4023f4:	20000544 	.word	0x20000544
  4023f8:	200004a0 	.word	0x200004a0
  4023fc:	0040306c 	.word	0x0040306c
  402400:	400e0e00 	.word	0x400e0e00

00402404 <eink_ed028tc1_put_display_buffer>:
{
  402404:	b570      	push	{r4, r5, r6, lr}
  402406:	b086      	sub	sp, #24
  402408:	4605      	mov	r5, r0
    eink_data[0] = 0x00; /* X = 0 */
  40240a:	2300      	movs	r3, #0
  40240c:	f88d 3010 	strb.w	r3, [sp, #16]
    eink_data[1] = 0x00;
  402410:	f88d 3011 	strb.w	r3, [sp, #17]
    eink_data[2] = 0x00; /* Y = 0 */
  402414:	f88d 3012 	strb.w	r3, [sp, #18]
    eink_data[3] = 0x00;
  402418:	f88d 3013 	strb.w	r3, [sp, #19]
    eink_data[4] = 0x02; /* W = 600 */
  40241c:	2302      	movs	r3, #2
  40241e:	f88d 3014 	strb.w	r3, [sp, #20]
    eink_data[5] = 0x58;
  402422:	2358      	movs	r3, #88	; 0x58
  402424:	f88d 3015 	strb.w	r3, [sp, #21]
    eink_data[6] = 0x01; /* H = 480 */
  402428:	2301      	movs	r3, #1
  40242a:	f88d 3016 	strb.w	r3, [sp, #22]
    eink_data[7] = 0xE0;
  40242e:	23e0      	movs	r3, #224	; 0xe0
  402430:	f88d 3017 	strb.w	r3, [sp, #23]
    eink_write_data(UC8177_DTMW, eink_data, 8);
  402434:	2208      	movs	r2, #8
  402436:	a904      	add	r1, sp, #16
  402438:	2083      	movs	r0, #131	; 0x83
  40243a:	4c29      	ldr	r4, [pc, #164]	; (4024e0 <eink_ed028tc1_put_display_buffer+0xdc>)
  40243c:	47a0      	blx	r4
    eink_write_data(UC8177_DTM1, ptr_eink_gfx_config->display_buffer_1_ptr, GFX_ED028TC1_DISPLAY_BUFFER_SIZE);
  40243e:	4b29      	ldr	r3, [pc, #164]	; (4024e4 <eink_ed028tc1_put_display_buffer+0xe0>)
  402440:	681b      	ldr	r3, [r3, #0]
  402442:	4a29      	ldr	r2, [pc, #164]	; (4024e8 <eink_ed028tc1_put_display_buffer+0xe4>)
  402444:	6919      	ldr	r1, [r3, #16]
  402446:	2010      	movs	r0, #16
  402448:	47a0      	blx	r4
    if((uc8177_global_instance.display_config.display_rotation == ROTATE_90) || (uc8177_global_instance.display_config.display_rotation == ROTATE_180)) {
  40244a:	4b28      	ldr	r3, [pc, #160]	; (4024ec <eink_ed028tc1_put_display_buffer+0xe8>)
  40244c:	781b      	ldrb	r3, [r3, #0]
  40244e:	b2db      	uxtb	r3, r3
  402450:	2b01      	cmp	r3, #1
  402452:	d00f      	beq.n	402474 <eink_ed028tc1_put_display_buffer+0x70>
  402454:	4b25      	ldr	r3, [pc, #148]	; (4024ec <eink_ed028tc1_put_display_buffer+0xe8>)
  402456:	781b      	ldrb	r3, [r3, #0]
  402458:	b2db      	uxtb	r3, r3
  40245a:	2b02      	cmp	r3, #2
  40245c:	d00a      	beq.n	402474 <eink_ed028tc1_put_display_buffer+0x70>
        eink_data[0] = 0x02;
  40245e:	2302      	movs	r3, #2
  402460:	f88d 3010 	strb.w	r3, [sp, #16]
    eink_write_data(UC8177_GDOS, eink_data, 1);
  402464:	2201      	movs	r2, #1
  402466:	a904      	add	r1, sp, #16
  402468:	20e0      	movs	r0, #224	; 0xe0
  40246a:	4b1d      	ldr	r3, [pc, #116]	; (4024e0 <eink_ed028tc1_put_display_buffer+0xdc>)
  40246c:	4798      	blx	r3
    if(refresh_display) {
  40246e:	b92d      	cbnz	r5, 40247c <eink_ed028tc1_put_display_buffer+0x78>
}
  402470:	b006      	add	sp, #24
  402472:	bd70      	pop	{r4, r5, r6, pc}
        eink_data[0] = 0x03;
  402474:	2303      	movs	r3, #3
  402476:	f88d 3010 	strb.w	r3, [sp, #16]
  40247a:	e7f3      	b.n	402464 <eink_ed028tc1_put_display_buffer+0x60>
    eink_write_data(UC8177_PON, 0, 0);
  40247c:	2200      	movs	r2, #0
  40247e:	4611      	mov	r1, r2
  402480:	2004      	movs	r0, #4
  402482:	4b17      	ldr	r3, [pc, #92]	; (4024e0 <eink_ed028tc1_put_display_buffer+0xdc>)
  402484:	4798      	blx	r3
  402486:	4a1a      	ldr	r2, [pc, #104]	; (4024f0 <eink_ed028tc1_put_display_buffer+0xec>)
  402488:	6bd3      	ldr	r3, [r2, #60]	; 0x3c
  40248a:	f013 7f00 	tst.w	r3, #33554432	; 0x2000000
  40248e:	d0fb      	beq.n	402488 <eink_ed028tc1_put_display_buffer+0x84>
    eink_data[0] = 0x18; /* Update Mode 1 */
  402490:	2318      	movs	r3, #24
  402492:	f88d 3004 	strb.w	r3, [sp, #4]
    eink_data[1] = 0x00; /* X = 0 */
  402496:	2400      	movs	r4, #0
  402498:	f88d 4005 	strb.w	r4, [sp, #5]
    eink_data[2] = 0x00;
  40249c:	f88d 4006 	strb.w	r4, [sp, #6]
    eink_data[3] = 0x00; /* Y = 0 */
  4024a0:	f88d 4007 	strb.w	r4, [sp, #7]
    eink_data[4] = 0x00;
  4024a4:	f88d 4008 	strb.w	r4, [sp, #8]
    eink_data[5] = 0x02; /* W = 600 */
  4024a8:	2602      	movs	r6, #2
  4024aa:	f88d 6009 	strb.w	r6, [sp, #9]
    eink_data[6] = 0x58;
  4024ae:	2358      	movs	r3, #88	; 0x58
  4024b0:	f88d 300a 	strb.w	r3, [sp, #10]
    eink_data[7] = 0x01; /* H = 480 */
  4024b4:	2301      	movs	r3, #1
  4024b6:	f88d 300b 	strb.w	r3, [sp, #11]
    eink_data[8] = 0xE0;
  4024ba:	23e0      	movs	r3, #224	; 0xe0
  4024bc:	f88d 300c 	strb.w	r3, [sp, #12]
    eink_write_data(UC8177_DRF, eink_data, 9);
  4024c0:	2209      	movs	r2, #9
  4024c2:	a901      	add	r1, sp, #4
  4024c4:	2012      	movs	r0, #18
  4024c6:	4d06      	ldr	r5, [pc, #24]	; (4024e0 <eink_ed028tc1_put_display_buffer+0xdc>)
  4024c8:	47a8      	blx	r5
    eink_write_data(UC8177_POF, 0, 0);
  4024ca:	4622      	mov	r2, r4
  4024cc:	4621      	mov	r1, r4
  4024ce:	4630      	mov	r0, r6
  4024d0:	47a8      	blx	r5
  4024d2:	4a07      	ldr	r2, [pc, #28]	; (4024f0 <eink_ed028tc1_put_display_buffer+0xec>)
  4024d4:	6bd3      	ldr	r3, [r2, #60]	; 0x3c
  4024d6:	f013 7f00 	tst.w	r3, #33554432	; 0x2000000
  4024da:	d0fb      	beq.n	4024d4 <eink_ed028tc1_put_display_buffer+0xd0>
  4024dc:	e7c8      	b.n	402470 <eink_ed028tc1_put_display_buffer+0x6c>
  4024de:	bf00      	nop
  4024e0:	004019e1 	.word	0x004019e1
  4024e4:	20000544 	.word	0x20000544
  4024e8:	00023280 	.word	0x00023280
  4024ec:	200004c0 	.word	0x200004c0
  4024f0:	400e0e00 	.word	0x400e0e00

004024f4 <eink_ed013tc1_put_display_buffer>:
{
  4024f4:	b530      	push	{r4, r5, lr}
  4024f6:	b085      	sub	sp, #20
  4024f8:	4605      	mov	r5, r0
    eink_data[0] = 0x00; /* X = 0 */
  4024fa:	2300      	movs	r3, #0
  4024fc:	f88d 3008 	strb.w	r3, [sp, #8]
    eink_data[1] = 0x00;
  402500:	f88d 3009 	strb.w	r3, [sp, #9]
    eink_data[2] = 0x00; /* Y = 0 */
  402504:	f88d 300a 	strb.w	r3, [sp, #10]
    eink_data[3] = 0x7F; /* W = 127 */
  402508:	227f      	movs	r2, #127	; 0x7f
  40250a:	f88d 200b 	strb.w	r2, [sp, #11]
    eink_data[4] = 0x00;
  40250e:	f88d 300c 	strb.w	r3, [sp, #12]
    eink_data[5] = 0xFF; /* H = 255 */
  402512:	23ff      	movs	r3, #255	; 0xff
  402514:	f88d 300d 	strb.w	r3, [sp, #13]
    eink_write_data(UC8173_DTMW, eink_data, 6);
  402518:	2206      	movs	r2, #6
  40251a:	a902      	add	r1, sp, #8
  40251c:	2014      	movs	r0, #20
  40251e:	4c2e      	ldr	r4, [pc, #184]	; (4025d8 <eink_ed013tc1_put_display_buffer+0xe4>)
  402520:	47a0      	blx	r4
    eink_write_data(UC8173_DTM4, ptr_eink_gfx_config->display_buffer_2_ptr, GFX_ED013TC1_DISPLAY_BUFFER_SIZE);
  402522:	4b2e      	ldr	r3, [pc, #184]	; (4025dc <eink_ed013tc1_put_display_buffer+0xe8>)
  402524:	681b      	ldr	r3, [r3, #0]
  402526:	f44f 5280 	mov.w	r2, #4096	; 0x1000
  40252a:	6959      	ldr	r1, [r3, #20]
  40252c:	2016      	movs	r0, #22
  40252e:	47a0      	blx	r4
    if(refresh_display) {
  402530:	b965      	cbnz	r5, 40254c <eink_ed013tc1_put_display_buffer+0x58>
{
  402532:	2300      	movs	r3, #0
        ptr_eink_gfx_config->display_buffer_1_ptr[i] = ptr_eink_gfx_config->display_buffer_2_ptr[i];
  402534:	4829      	ldr	r0, [pc, #164]	; (4025dc <eink_ed013tc1_put_display_buffer+0xe8>)
  402536:	6802      	ldr	r2, [r0, #0]
  402538:	6951      	ldr	r1, [r2, #20]
  40253a:	5cc9      	ldrb	r1, [r1, r3]
  40253c:	6912      	ldr	r2, [r2, #16]
  40253e:	54d1      	strb	r1, [r2, r3]
  402540:	3301      	adds	r3, #1
    for (i=0;i<GFX_ED013TC1_DISPLAY_BUFFER_SIZE;i++) {
  402542:	f5b3 5f80 	cmp.w	r3, #4096	; 0x1000
  402546:	d1f6      	bne.n	402536 <eink_ed013tc1_put_display_buffer+0x42>
}
  402548:	b005      	add	sp, #20
  40254a:	bd30      	pop	{r4, r5, pc}
    eink_write_data(UC8173_PON, 0, 0);
  40254c:	2200      	movs	r2, #0
  40254e:	4611      	mov	r1, r2
  402550:	2004      	movs	r0, #4
  402552:	47a0      	blx	r4
  402554:	4a22      	ldr	r2, [pc, #136]	; (4025e0 <eink_ed013tc1_put_display_buffer+0xec>)
  402556:	6bd3      	ldr	r3, [r2, #60]	; 0x3c
    while(!gpio_get_pin_level(EINK_BUSY));
  402558:	f013 7f00 	tst.w	r3, #33554432	; 0x2000000
  40255c:	d0fb      	beq.n	402556 <eink_ed013tc1_put_display_buffer+0x62>
	if(uc8173_global_instance.display_config.uc8173_current_lut != UC8173_LUT_ED013TC1_GC2)
  40255e:	4b21      	ldr	r3, [pc, #132]	; (4025e4 <eink_ed013tc1_put_display_buffer+0xf0>)
  402560:	78db      	ldrb	r3, [r3, #3]
  402562:	bb33      	cbnz	r3, 4025b2 <eink_ed013tc1_put_display_buffer+0xbe>
    eink_data[0] = 0x01; /* GU2 Update Mode */
  402564:	2301      	movs	r3, #1
  402566:	f88d 3000 	strb.w	r3, [sp]
    eink_data[1] = 0x00; /* X = 0 */
  40256a:	2300      	movs	r3, #0
  40256c:	f88d 3001 	strb.w	r3, [sp, #1]
    eink_data[2] = 0x00;
  402570:	f88d 3002 	strb.w	r3, [sp, #2]
    eink_data[3] = 0x00; /* Y = 0 */
  402574:	f88d 3003 	strb.w	r3, [sp, #3]
    eink_data[4] = 0x7F; /* W = 127 */
  402578:	227f      	movs	r2, #127	; 0x7f
  40257a:	f88d 2004 	strb.w	r2, [sp, #4]
    eink_data[5] = 0x00;
  40257e:	f88d 3005 	strb.w	r3, [sp, #5]
    eink_data[6] = 0xFF; /* H = 255 */
  402582:	23ff      	movs	r3, #255	; 0xff
  402584:	f88d 3006 	strb.w	r3, [sp, #6]
    eink_write_data(UC8173_DRF, eink_data, 7);
  402588:	2207      	movs	r2, #7
  40258a:	4669      	mov	r1, sp
  40258c:	2012      	movs	r0, #18
  40258e:	4b12      	ldr	r3, [pc, #72]	; (4025d8 <eink_ed013tc1_put_display_buffer+0xe4>)
  402590:	4798      	blx	r3
  402592:	4a13      	ldr	r2, [pc, #76]	; (4025e0 <eink_ed013tc1_put_display_buffer+0xec>)
  402594:	6bd3      	ldr	r3, [r2, #60]	; 0x3c
    while(!gpio_get_pin_level(EINK_BUSY));
  402596:	f013 7f00 	tst.w	r3, #33554432	; 0x2000000
  40259a:	d0fb      	beq.n	402594 <eink_ed013tc1_put_display_buffer+0xa0>
    eink_write_data(UC8173_POF, 0, 0);
  40259c:	2200      	movs	r2, #0
  40259e:	4611      	mov	r1, r2
  4025a0:	2002      	movs	r0, #2
  4025a2:	4b0d      	ldr	r3, [pc, #52]	; (4025d8 <eink_ed013tc1_put_display_buffer+0xe4>)
  4025a4:	4798      	blx	r3
  4025a6:	4a0e      	ldr	r2, [pc, #56]	; (4025e0 <eink_ed013tc1_put_display_buffer+0xec>)
  4025a8:	6bd3      	ldr	r3, [r2, #60]	; 0x3c
    while(gpio_get_pin_level(EINK_BUSY));
  4025aa:	f013 7f00 	tst.w	r3, #33554432	; 0x2000000
  4025ae:	d1fb      	bne.n	4025a8 <eink_ed013tc1_put_display_buffer+0xb4>
  4025b0:	e7bf      	b.n	402532 <eink_ed013tc1_put_display_buffer+0x3e>
		uc8173_global_instance.display_config.uc8173_current_lut = UC8173_LUT_ED013TC1_GC2;
  4025b2:	2500      	movs	r5, #0
  4025b4:	4b0b      	ldr	r3, [pc, #44]	; (4025e4 <eink_ed013tc1_put_display_buffer+0xf0>)
  4025b6:	70dd      	strb	r5, [r3, #3]
		eink_write_data(UC8173_LUT_KWVCOM, ED013TC1_VCOM_GC2, 32);
  4025b8:	2220      	movs	r2, #32
  4025ba:	2155      	movs	r1, #85	; 0x55
  4025bc:	4610      	mov	r0, r2
  4025be:	4c06      	ldr	r4, [pc, #24]	; (4025d8 <eink_ed013tc1_put_display_buffer+0xe4>)
  4025c0:	47a0      	blx	r4
		eink_write_data(UC8173_LUT_KW, ED013TC1_WF_GC2, 512);
  4025c2:	f44f 7200 	mov.w	r2, #512	; 0x200
  4025c6:	2181      	movs	r1, #129	; 0x81
  4025c8:	2022      	movs	r0, #34	; 0x22
  4025ca:	47a0      	blx	r4
		eink_write_data(UC8173_LUT_FT, ED013TC1_FT_GC2, 128);	
  4025cc:	2280      	movs	r2, #128	; 0x80
  4025ce:	4629      	mov	r1, r5
  4025d0:	2026      	movs	r0, #38	; 0x26
  4025d2:	47a0      	blx	r4
  4025d4:	e7c6      	b.n	402564 <eink_ed013tc1_put_display_buffer+0x70>
  4025d6:	bf00      	nop
  4025d8:	004019e1 	.word	0x004019e1
  4025dc:	20000544 	.word	0x20000544
  4025e0:	400e0e00 	.word	0x400e0e00
  4025e4:	200004a0 	.word	0x200004a0

004025e8 <_eink_ite_write_data>:
void _eink_ite_write_data(
        uint16_t command,
        uint16_t *data,
        uint32_t data_bytes,
        uint8_t fast_write)
{   
  4025e8:	b5f8      	push	{r3, r4, r5, r6, r7, lr}
  4025ea:	4605      	mov	r5, r0
  4025ec:	4614      	mov	r4, r2
    uint32_t i, j, sendWords_m, sendWords_r;
    
    eink_ite_wait_for_hrdy();
  4025ee:	4b10      	ldr	r3, [pc, #64]	; (402630 <_eink_ite_write_data+0x48>)
  4025f0:	4798      	blx	r3
    if (command != 0) {
  4025f2:	b9cd      	cbnz	r5, 402628 <_eink_ite_write_data+0x40>
        /* Set CSB LOW to enable communication to the display */
        gpio_set_pin_level(EINK_SPI_CSB, 1);
#endif
    }
    
    eink_ite_wait_for_hrdy();
  4025f4:	4b0e      	ldr	r3, [pc, #56]	; (402630 <_eink_ite_write_data+0x48>)
  4025f6:	4798      	blx	r3
    if (data_bytes != 0) {
  4025f8:	b1ac      	cbz	r4, 402626 <_eink_ite_write_data+0x3e>
        /* Data burst must be sent 1024 words at a time */
        sendWords_r = data_bytes % 2048;
  4025fa:	f3c4 060a 	ubfx	r6, r4, #0, #11
        sendWords_m = (data_bytes - sendWords_r) / 2048;
  4025fe:	1ba4      	subs	r4, r4, r6
        
        /* If we have more than 1024 words, start sending them in bursts */
        for(j=0; j<sendWords_m; j++)
  402600:	0ae5      	lsrs	r5, r4, #11
  402602:	d009      	beq.n	402618 <_eink_ite_write_data+0x30>
  402604:	2400      	movs	r4, #0
            }           
            /* Set CSB LOW to enable communication to the display */
#ifdef EINK_SPI_CSB
            gpio_set_pin_level(EINK_SPI_CSB, 1);
#endif
            eink_ite_wait_for_hrdy();
  402606:	4f0a      	ldr	r7, [pc, #40]	; (402630 <_eink_ite_write_data+0x48>)
{   
  402608:	f44f 6300 	mov.w	r3, #2048	; 0x800
            for (i=0; i<2048; i++)
  40260c:	3b01      	subs	r3, #1
  40260e:	d1fd      	bne.n	40260c <_eink_ite_write_data+0x24>
            eink_ite_wait_for_hrdy();
  402610:	47b8      	blx	r7
        for(j=0; j<sendWords_m; j++)
  402612:	3401      	adds	r4, #1
  402614:	42a5      	cmp	r5, r4
  402616:	d1f7      	bne.n	402608 <_eink_ite_write_data+0x20>
#ifdef EINK_SPI_CSB
        gpio_set_pin_level(EINK_SPI_CSB, 0);
#endif
        eink_ite_send_raw_hword(0x0000);
        /* Send the remaining data (or all the data if there was less than 1024 words */
        for (i=0; i<sendWords_r; i++) {
  402618:	b11e      	cbz	r6, 402622 <_eink_ite_write_data+0x3a>
  40261a:	2300      	movs	r3, #0
  40261c:	3301      	adds	r3, #1
  40261e:	429e      	cmp	r6, r3
  402620:	d1fc      	bne.n	40261c <_eink_ite_write_data+0x34>
        }
        /* Set CSB LOW to enable communication to the display */
#ifdef EINK_SPI_CSB
        gpio_set_pin_level(EINK_SPI_CSB, 1);
#endif
        eink_ite_wait_for_hrdy();
  402622:	4b03      	ldr	r3, [pc, #12]	; (402630 <_eink_ite_write_data+0x48>)
  402624:	4798      	blx	r3
  402626:	bdf8      	pop	{r3, r4, r5, r6, r7, pc}
        eink_ite_wait_for_hrdy();
  402628:	4b01      	ldr	r3, [pc, #4]	; (402630 <_eink_ite_write_data+0x48>)
  40262a:	4798      	blx	r3
  40262c:	e7e2      	b.n	4025f4 <_eink_ite_write_data+0xc>
  40262e:	bf00      	nop
  402630:	00400491 	.word	0x00400491

00402634 <eink_ite_write_data>:
 */
void eink_ite_write_data(
        uint16_t command,
        uint16_t *data,
        uint32_t data_bytes)
{
  402634:	b510      	push	{r4, lr}
    _eink_ite_write_data(command, data, data_bytes, 0);
  402636:	2300      	movs	r3, #0
  402638:	4c01      	ldr	r4, [pc, #4]	; (402640 <eink_ite_write_data+0xc>)
  40263a:	47a0      	blx	r4
  40263c:	bd10      	pop	{r4, pc}
  40263e:	bf00      	nop
  402640:	004025e9 	.word	0x004025e9

00402644 <eink_it8951_refresh_partial_display>:
    eink_coordinate show_x,
    eink_coordinate show_y,
    eink_coordinate show_w,
    eink_coordinate show_h,
    uint8_t update_mode)
{
  402644:	b530      	push	{r4, r5, lr}
  402646:	b085      	sub	sp, #20
    uint16_t eink_data[5];
    switch(it8951_global_instance.display_rotation)
  402648:	4c2e      	ldr	r4, [pc, #184]	; (402704 <eink_it8951_refresh_partial_display+0xc0>)
  40264a:	f894 4030 	ldrb.w	r4, [r4, #48]	; 0x30
  40264e:	b2e4      	uxtb	r4, r4
  402650:	2c03      	cmp	r4, #3
  402652:	d80b      	bhi.n	40266c <eink_it8951_refresh_partial_display+0x28>
  402654:	e8df f004 	tbb	[pc, r4]
  402658:	47352702 	.word	0x47352702
    {
        case ROTATE_0:
            eink_data[0] = (uint16_t) show_y;
  40265c:	f8ad 1004 	strh.w	r1, [sp, #4]
            eink_data[1] = (uint16_t) show_x;
  402660:	f8ad 0006 	strh.w	r0, [sp, #6]
            eink_data[2] = (uint16_t) show_h;
  402664:	f8ad 3008 	strh.w	r3, [sp, #8]
            eink_data[3] = (uint16_t) show_w;
  402668:	f8ad 200a 	strh.w	r2, [sp, #10]
            eink_data[1] = (uint16_t) show_y;
            eink_data[2] = (uint16_t) show_w;
            eink_data[3] = (uint16_t) show_h;
            break;
    }
    eink_data[4] = (uint16_t) update_mode;
  40266c:	f89d 3020 	ldrb.w	r3, [sp, #32]
  402670:	f8ad 300c 	strh.w	r3, [sp, #12]
    /* Send I80 Display Command */
    eink_ite_write_data(IT8951_I80_USR_DPY_AREA, &eink_data[0], 1);
  402674:	2201      	movs	r2, #1
  402676:	a901      	add	r1, sp, #4
  402678:	2034      	movs	r0, #52	; 0x34
  40267a:	4c23      	ldr	r4, [pc, #140]	; (402708 <eink_it8951_refresh_partial_display+0xc4>)
  40267c:	47a0      	blx	r4
    eink_ite_write_data(0, &eink_data[1], 1);
  40267e:	2201      	movs	r2, #1
  402680:	f10d 0106 	add.w	r1, sp, #6
  402684:	2000      	movs	r0, #0
  402686:	47a0      	blx	r4
    eink_ite_write_data(0, &eink_data[2], 1);
  402688:	2201      	movs	r2, #1
  40268a:	a902      	add	r1, sp, #8
  40268c:	2000      	movs	r0, #0
  40268e:	47a0      	blx	r4
    eink_ite_write_data(0, &eink_data[3], 1);
  402690:	2201      	movs	r2, #1
  402692:	f10d 010a 	add.w	r1, sp, #10
  402696:	2000      	movs	r0, #0
  402698:	47a0      	blx	r4
    eink_ite_write_data(0, &eink_data[4], 1);
  40269a:	2201      	movs	r2, #1
  40269c:	a903      	add	r1, sp, #12
  40269e:	2000      	movs	r0, #0
  4026a0:	47a0      	blx	r4
}
  4026a2:	b005      	add	sp, #20
  4026a4:	bd30      	pop	{r4, r5, pc}
            eink_data[0] = (uint16_t) show_x;
  4026a6:	f8ad 0004 	strh.w	r0, [sp, #4]
            eink_data[1] = (uint16_t) it8951_global_instance.display_width-show_y-show_h;
  4026aa:	4816      	ldr	r0, [pc, #88]	; (402704 <eink_it8951_refresh_partial_display+0xc0>)
  4026ac:	8d00      	ldrh	r0, [r0, #40]	; 0x28
  4026ae:	b280      	uxth	r0, r0
  4026b0:	1a41      	subs	r1, r0, r1
  4026b2:	1ac9      	subs	r1, r1, r3
  4026b4:	f8ad 1006 	strh.w	r1, [sp, #6]
            eink_data[2] = (uint16_t) show_w;
  4026b8:	f8ad 2008 	strh.w	r2, [sp, #8]
            eink_data[3] = (uint16_t) show_h;
  4026bc:	f8ad 300a 	strh.w	r3, [sp, #10]
            break;
  4026c0:	e7d4      	b.n	40266c <eink_it8951_refresh_partial_display+0x28>
            eink_data[0] = (uint16_t) it8951_global_instance.display_height-show_y-show_h;
  4026c2:	4d10      	ldr	r5, [pc, #64]	; (402704 <eink_it8951_refresh_partial_display+0xc0>)
  4026c4:	8d6c      	ldrh	r4, [r5, #42]	; 0x2a
  4026c6:	b2a4      	uxth	r4, r4
  4026c8:	1a61      	subs	r1, r4, r1
  4026ca:	1ac9      	subs	r1, r1, r3
  4026cc:	f8ad 1004 	strh.w	r1, [sp, #4]
            eink_data[1] = (uint16_t) it8951_global_instance.display_width-show_x-show_w;
  4026d0:	8d29      	ldrh	r1, [r5, #40]	; 0x28
  4026d2:	b289      	uxth	r1, r1
  4026d4:	1a08      	subs	r0, r1, r0
  4026d6:	1a80      	subs	r0, r0, r2
  4026d8:	f8ad 0006 	strh.w	r0, [sp, #6]
            eink_data[2] = (uint16_t) show_h;
  4026dc:	f8ad 3008 	strh.w	r3, [sp, #8]
            eink_data[3] = (uint16_t) show_w;
  4026e0:	f8ad 200a 	strh.w	r2, [sp, #10]
            break;
  4026e4:	e7c2      	b.n	40266c <eink_it8951_refresh_partial_display+0x28>
            eink_data[0] = (uint16_t) it8951_global_instance.display_height-show_x-show_w;
  4026e6:	4c07      	ldr	r4, [pc, #28]	; (402704 <eink_it8951_refresh_partial_display+0xc0>)
  4026e8:	8d64      	ldrh	r4, [r4, #42]	; 0x2a
  4026ea:	b2a4      	uxth	r4, r4
  4026ec:	1a20      	subs	r0, r4, r0
  4026ee:	1a80      	subs	r0, r0, r2
  4026f0:	f8ad 0004 	strh.w	r0, [sp, #4]
            eink_data[1] = (uint16_t) show_y;
  4026f4:	f8ad 1006 	strh.w	r1, [sp, #6]
            eink_data[2] = (uint16_t) show_w;
  4026f8:	f8ad 2008 	strh.w	r2, [sp, #8]
            eink_data[3] = (uint16_t) show_h;
  4026fc:	f8ad 300a 	strh.w	r3, [sp, #10]
            break;
  402700:	e7b4      	b.n	40266c <eink_it8951_refresh_partial_display+0x28>
  402702:	bf00      	nop
  402704:	200004d0 	.word	0x200004d0
  402708:	00402635 	.word	0x00402635

0040270c <eink_it8951_refresh_display_mode>:
{
  40270c:	b530      	push	{r4, r5, lr}
  40270e:	b085      	sub	sp, #20
     eink_data[0] = (uint16_t) 0;
  402710:	2400      	movs	r4, #0
  402712:	f8ad 4004 	strh.w	r4, [sp, #4]
     eink_data[1] = (uint16_t) 0;
  402716:	f8ad 4006 	strh.w	r4, [sp, #6]
     eink_data[2] = (uint16_t) it8951_global_instance.display_height;
  40271a:	4b11      	ldr	r3, [pc, #68]	; (402760 <eink_it8951_refresh_display_mode+0x54>)
  40271c:	8d5a      	ldrh	r2, [r3, #42]	; 0x2a
  40271e:	f8ad 2008 	strh.w	r2, [sp, #8]
     eink_data[3] = (uint16_t) it8951_global_instance.display_width;
  402722:	8d1b      	ldrh	r3, [r3, #40]	; 0x28
  402724:	f8ad 300a 	strh.w	r3, [sp, #10]
     eink_data[4] = (uint16_t) update_mode;
  402728:	f8ad 000c 	strh.w	r0, [sp, #12]
     eink_ite_write_data(IT8951_I80_USR_DPY_AREA, &eink_data[0], 1);
  40272c:	2201      	movs	r2, #1
  40272e:	a901      	add	r1, sp, #4
  402730:	2034      	movs	r0, #52	; 0x34
  402732:	4d0c      	ldr	r5, [pc, #48]	; (402764 <eink_it8951_refresh_display_mode+0x58>)
  402734:	47a8      	blx	r5
     eink_ite_write_data(0, &eink_data[1], 1);
  402736:	2201      	movs	r2, #1
  402738:	f10d 0106 	add.w	r1, sp, #6
  40273c:	4620      	mov	r0, r4
  40273e:	47a8      	blx	r5
     eink_ite_write_data(0, &eink_data[2], 1);
  402740:	2201      	movs	r2, #1
  402742:	a902      	add	r1, sp, #8
  402744:	4620      	mov	r0, r4
  402746:	47a8      	blx	r5
     eink_ite_write_data(0, &eink_data[3], 1);
  402748:	2201      	movs	r2, #1
  40274a:	f10d 010a 	add.w	r1, sp, #10
  40274e:	4620      	mov	r0, r4
  402750:	47a8      	blx	r5
     eink_ite_write_data(0, &eink_data[4], 1);
  402752:	2201      	movs	r2, #1
  402754:	a903      	add	r1, sp, #12
  402756:	4620      	mov	r0, r4
  402758:	47a8      	blx	r5
 }
  40275a:	b005      	add	sp, #20
  40275c:	bd30      	pop	{r4, r5, pc}
  40275e:	bf00      	nop
  402760:	200004d0 	.word	0x200004d0
  402764:	00402635 	.word	0x00402635

00402768 <eink_it8951_put_partial_display_buffer>:
 * \param start_y starting Y coordinate start of the display buffer to send
 * \param window_w width of the display buffer to send
 * \param window_h height of the display buffer to send
 */
void eink_it8951_put_partial_display_buffer(eink_coordinate start_x, eink_coordinate start_y, eink_coordinate window_w, eink_coordinate window_h)
{
  402768:	e92d 4ff0 	stmdb	sp!, {r4, r5, r6, r7, r8, r9, sl, fp, lr}
  40276c:	b085      	sub	sp, #20
  40276e:	4680      	mov	r8, r0
  402770:	460d      	mov	r5, r1
  402772:	4616      	mov	r6, r2
  402774:	461f      	mov	r7, r3
    uint16_t eink_data[5], rotation = 0;
    uint16_t* display_buffer;
    uint32_t i, j, k;

    /* Get pointer to Display Buffer */
    display_buffer = (uint16_t*) it8951_dtm_display_buffer;
  402776:	4b48      	ldr	r3, [pc, #288]	; (402898 <eink_it8951_put_partial_display_buffer+0x130>)
  402778:	681c      	ldr	r4, [r3, #0]
        
    /* Set Image Buffer Base address (IT8951) */
    uint16_t usWordH = (unsigned short)((it8951_global_instance.img_buffer_addr >> 16) & 0x0000FFFF);
  40277a:	f8df 9124 	ldr.w	r9, [pc, #292]	; 4028a0 <eink_it8951_put_partial_display_buffer+0x138>
  40277e:	f8d9 3034 	ldr.w	r3, [r9, #52]	; 0x34
    uint16_t usWordL = (unsigned short)( it8951_global_instance.img_buffer_addr & 0x0000FFFF);
  402782:	f8d9 a034 	ldr.w	sl, [r9, #52]	; 0x34
    uint16_t data_send[2] = {reg_addr, reg_value};
  402786:	f240 220a 	movw	r2, #522	; 0x20a
  40278a:	f8ad 2000 	strh.w	r2, [sp]
    uint16_t usWordH = (unsigned short)((it8951_global_instance.img_buffer_addr >> 16) & 0x0000FFFF);
  40278e:	0c1b      	lsrs	r3, r3, #16
  402790:	f8ad 3002 	strh.w	r3, [sp, #2]
    eink_ite_write_data(IT8951_I80_REG_WR, data_send, 2);
  402794:	2202      	movs	r2, #2
  402796:	4669      	mov	r1, sp
  402798:	2011      	movs	r0, #17
  40279a:	f8df b100 	ldr.w	fp, [pc, #256]	; 40289c <eink_it8951_put_partial_display_buffer+0x134>
  40279e:	47d8      	blx	fp
    uint16_t data_send[2] = {reg_addr, reg_value};
  4027a0:	f44f 7302 	mov.w	r3, #520	; 0x208
  4027a4:	f8ad 3000 	strh.w	r3, [sp]
    uint16_t usWordL = (unsigned short)( it8951_global_instance.img_buffer_addr & 0x0000FFFF);
  4027a8:	f8ad a002 	strh.w	sl, [sp, #2]
    eink_ite_write_data(IT8951_I80_REG_WR, data_send, 2);
  4027ac:	2202      	movs	r2, #2
  4027ae:	4669      	mov	r1, sp
  4027b0:	2011      	movs	r0, #17
  4027b2:	47d8      	blx	fp
    it8951_write_reg(LISAR + 2, usWordH);
    it8951_write_reg(LISAR, usWordL);
    
    /* Set arguments for Load Image Start */
    switch(it8951_global_instance.display_rotation)
  4027b4:	f899 3030 	ldrb.w	r3, [r9, #48]	; 0x30
  4027b8:	b2db      	uxtb	r3, r3
  4027ba:	2b02      	cmp	r3, #2
  4027bc:	d029      	beq.n	402812 <eink_it8951_put_partial_display_buffer+0xaa>
  4027be:	2b03      	cmp	r3, #3
  4027c0:	d029      	beq.n	402816 <eink_it8951_put_partial_display_buffer+0xae>
    uint16_t eink_data[5], rotation = 0;
  4027c2:	2b01      	cmp	r3, #1
  4027c4:	bf14      	ite	ne
  4027c6:	2300      	movne	r3, #0
  4027c8:	2301      	moveq	r3, #1
        case ROTATE_0: rotation = 0; break;
        case ROTATE_90: rotation = 1; break;
        case ROTATE_180: rotation = 2; break;
        case ROTATE_270: rotation = 3; break;
    }
    eink_data[0] = (0 << 8) | (2 << 4) | (rotation);
  4027ca:	f043 0320 	orr.w	r3, r3, #32
  4027ce:	f8ad 3004 	strh.w	r3, [sp, #4]
    eink_data[1] = start_y;
  4027d2:	f8ad 5006 	strh.w	r5, [sp, #6]
    eink_data[2] = start_x;
  4027d6:	f8ad 8008 	strh.w	r8, [sp, #8]
    eink_data[3] = window_h;
  4027da:	f8ad 700a 	strh.w	r7, [sp, #10]
    eink_data[4] = window_w;
  4027de:	f8ad 600c 	strh.w	r6, [sp, #12]
    eink_ite_write_data(IT8951_I80_LD_IMG_AREA, eink_data, 5);
  4027e2:	2205      	movs	r2, #5
  4027e4:	a901      	add	r1, sp, #4
  4027e6:	2021      	movs	r0, #33	; 0x21
  4027e8:	4b2c      	ldr	r3, [pc, #176]	; (40289c <eink_it8951_put_partial_display_buffer+0x134>)
  4027ea:	4798      	blx	r3
    
    /* Move to start of the window within the display buffer */
    if((it8951_global_instance.display_rotation == ROTATE_0) || (it8951_global_instance.display_rotation == ROTATE_180))
  4027ec:	4b2c      	ldr	r3, [pc, #176]	; (4028a0 <eink_it8951_put_partial_display_buffer+0x138>)
  4027ee:	f893 3030 	ldrb.w	r3, [r3, #48]	; 0x30
  4027f2:	b193      	cbz	r3, 40281a <eink_it8951_put_partial_display_buffer+0xb2>
  4027f4:	4b2a      	ldr	r3, [pc, #168]	; (4028a0 <eink_it8951_put_partial_display_buffer+0x138>)
  4027f6:	f893 3030 	ldrb.w	r3, [r3, #48]	; 0x30
  4027fa:	b2db      	uxtb	r3, r3
  4027fc:	2b02      	cmp	r3, #2
  4027fe:	d00c      	beq.n	40281a <eink_it8951_put_partial_display_buffer+0xb2>
        display_buffer += (it8951_global_instance.display_height / 4) * (start_x);
    else
        display_buffer += (it8951_global_instance.display_width / 4) * (start_x);
  402800:	4b27      	ldr	r3, [pc, #156]	; (4028a0 <eink_it8951_put_partial_display_buffer+0x138>)
  402802:	8d1b      	ldrh	r3, [r3, #40]	; 0x28
  402804:	f3c3 038d 	ubfx	r3, r3, #2, #14
  402808:	fb08 f803 	mul.w	r8, r8, r3
  40280c:	eb04 0448 	add.w	r4, r4, r8, lsl #1
  402810:	e00b      	b.n	40282a <eink_it8951_put_partial_display_buffer+0xc2>
        case ROTATE_180: rotation = 2; break;
  402812:	2302      	movs	r3, #2
  402814:	e7d9      	b.n	4027ca <eink_it8951_put_partial_display_buffer+0x62>
        case ROTATE_270: rotation = 3; break;
  402816:	2303      	movs	r3, #3
  402818:	e7d7      	b.n	4027ca <eink_it8951_put_partial_display_buffer+0x62>
        display_buffer += (it8951_global_instance.display_height / 4) * (start_x);
  40281a:	4b21      	ldr	r3, [pc, #132]	; (4028a0 <eink_it8951_put_partial_display_buffer+0x138>)
  40281c:	8d5b      	ldrh	r3, [r3, #42]	; 0x2a
  40281e:	f3c3 038d 	ubfx	r3, r3, #2, #14
  402822:	fb08 f803 	mul.w	r8, r8, r3
  402826:	eb04 0448 	add.w	r4, r4, r8, lsl #1
    display_buffer += (start_y / 4);
  40282a:	08ad      	lsrs	r5, r5, #2
  40282c:	eb04 0445 	add.w	r4, r4, r5, lsl #1
    
    /* Loop through window sending the display buffer */
    for(j = 0; j < window_w; j++)
  402830:	46b0      	mov	r8, r6
  402832:	b346      	cbz	r6, 402886 <eink_it8951_put_partial_display_buffer+0x11e>
    {
        eink_ite_write_data(0, display_buffer, (window_h / 4));
  402834:	08bf      	lsrs	r7, r7, #2
        display_buffer += (window_h / 4);
  402836:	ea4f 0a47 	mov.w	sl, r7, lsl #1
        
        if((it8951_global_instance.display_rotation == ROTATE_0) || (it8951_global_instance.display_rotation == ROTATE_180))
            display_buffer += (it8951_global_instance.display_height / 4) - (window_h / 4);
        else
            display_buffer += (it8951_global_instance.display_width / 4) - (window_h / 4);
  40283a:	46bb      	mov	fp, r7
  40283c:	2500      	movs	r5, #0
        eink_ite_write_data(0, display_buffer, (window_h / 4));
  40283e:	f8df 905c 	ldr.w	r9, [pc, #92]	; 40289c <eink_it8951_put_partial_display_buffer+0x134>
        if((it8951_global_instance.display_rotation == ROTATE_0) || (it8951_global_instance.display_rotation == ROTATE_180))
  402842:	4e17      	ldr	r6, [pc, #92]	; (4028a0 <eink_it8951_put_partial_display_buffer+0x138>)
  402844:	e009      	b.n	40285a <eink_it8951_put_partial_display_buffer+0xf2>
            display_buffer += (it8951_global_instance.display_height / 4) - (window_h / 4);
  402846:	8d73      	ldrh	r3, [r6, #42]	; 0x2a
  402848:	f3c3 038d 	ubfx	r3, r3, #2, #14
  40284c:	eba3 030b 	sub.w	r3, r3, fp
  402850:	eb04 0443 	add.w	r4, r4, r3, lsl #1
    for(j = 0; j < window_w; j++)
  402854:	3501      	adds	r5, #1
  402856:	4545      	cmp	r5, r8
  402858:	d015      	beq.n	402886 <eink_it8951_put_partial_display_buffer+0x11e>
        eink_ite_write_data(0, display_buffer, (window_h / 4));
  40285a:	463a      	mov	r2, r7
  40285c:	4621      	mov	r1, r4
  40285e:	2000      	movs	r0, #0
  402860:	47c8      	blx	r9
        display_buffer += (window_h / 4);
  402862:	4454      	add	r4, sl
        if((it8951_global_instance.display_rotation == ROTATE_0) || (it8951_global_instance.display_rotation == ROTATE_180))
  402864:	f896 3030 	ldrb.w	r3, [r6, #48]	; 0x30
  402868:	2b00      	cmp	r3, #0
  40286a:	d0ec      	beq.n	402846 <eink_it8951_put_partial_display_buffer+0xde>
  40286c:	f896 3030 	ldrb.w	r3, [r6, #48]	; 0x30
  402870:	b2db      	uxtb	r3, r3
  402872:	2b02      	cmp	r3, #2
  402874:	d0e7      	beq.n	402846 <eink_it8951_put_partial_display_buffer+0xde>
            display_buffer += (it8951_global_instance.display_width / 4) - (window_h / 4);
  402876:	8d33      	ldrh	r3, [r6, #40]	; 0x28
  402878:	f3c3 038d 	ubfx	r3, r3, #2, #14
  40287c:	eba3 030b 	sub.w	r3, r3, fp
  402880:	eb04 0443 	add.w	r4, r4, r3, lsl #1
  402884:	e7e6      	b.n	402854 <eink_it8951_put_partial_display_buffer+0xec>
    }
    
    /* Send Load Img End Command */
    eink_ite_write_data(IT8951_I80_LD_IMG_END, 0, 0);
  402886:	2200      	movs	r2, #0
  402888:	4611      	mov	r1, r2
  40288a:	2022      	movs	r0, #34	; 0x22
  40288c:	4b03      	ldr	r3, [pc, #12]	; (40289c <eink_it8951_put_partial_display_buffer+0x134>)
  40288e:	4798      	blx	r3
}
  402890:	b005      	add	sp, #20
  402892:	e8bd 8ff0 	ldmia.w	sp!, {r4, r5, r6, r7, r8, r9, sl, fp, pc}
  402896:	bf00      	nop
  402898:	200004b4 	.word	0x200004b4
  40289c:	00402635 	.word	0x00402635
  4028a0:	200004d0 	.word	0x200004d0

004028a4 <eink_it8951_refresh_display>:
{
  4028a4:	b530      	push	{r4, r5, lr}
  4028a6:	b085      	sub	sp, #20
     eink_data[0] = (uint16_t) 0;
  4028a8:	2400      	movs	r4, #0
  4028aa:	f8ad 4004 	strh.w	r4, [sp, #4]
     eink_data[1] = (uint16_t) 0;
  4028ae:	f8ad 4006 	strh.w	r4, [sp, #6]
     eink_data[2] = (uint16_t) it8951_global_instance.display_height;
  4028b2:	4b11      	ldr	r3, [pc, #68]	; (4028f8 <eink_it8951_refresh_display+0x54>)
  4028b4:	8d5a      	ldrh	r2, [r3, #42]	; 0x2a
  4028b6:	f8ad 2008 	strh.w	r2, [sp, #8]
     eink_data[3] = (uint16_t) it8951_global_instance.display_width;
  4028ba:	8d1b      	ldrh	r3, [r3, #40]	; 0x28
  4028bc:	f8ad 300a 	strh.w	r3, [sp, #10]
     eink_data[4] = (uint16_t) update_mode;
  4028c0:	2302      	movs	r3, #2
  4028c2:	f8ad 300c 	strh.w	r3, [sp, #12]
     eink_ite_write_data(IT8951_I80_USR_DPY_AREA, &eink_data[0], 1);
  4028c6:	2201      	movs	r2, #1
  4028c8:	a901      	add	r1, sp, #4
  4028ca:	2034      	movs	r0, #52	; 0x34
  4028cc:	4d0b      	ldr	r5, [pc, #44]	; (4028fc <eink_it8951_refresh_display+0x58>)
  4028ce:	47a8      	blx	r5
     eink_ite_write_data(0, &eink_data[1], 1);
  4028d0:	2201      	movs	r2, #1
  4028d2:	f10d 0106 	add.w	r1, sp, #6
  4028d6:	4620      	mov	r0, r4
  4028d8:	47a8      	blx	r5
     eink_ite_write_data(0, &eink_data[2], 1);
  4028da:	2201      	movs	r2, #1
  4028dc:	a902      	add	r1, sp, #8
  4028de:	4620      	mov	r0, r4
  4028e0:	47a8      	blx	r5
     eink_ite_write_data(0, &eink_data[3], 1);
  4028e2:	2201      	movs	r2, #1
  4028e4:	f10d 010a 	add.w	r1, sp, #10
  4028e8:	4620      	mov	r0, r4
  4028ea:	47a8      	blx	r5
     eink_ite_write_data(0, &eink_data[4], 1);
  4028ec:	2201      	movs	r2, #1
  4028ee:	a903      	add	r1, sp, #12
  4028f0:	4620      	mov	r0, r4
  4028f2:	47a8      	blx	r5
}
  4028f4:	b005      	add	sp, #20
  4028f6:	bd30      	pop	{r4, r5, pc}
  4028f8:	200004d0 	.word	0x200004d0
  4028fc:	00402635 	.word	0x00402635

00402900 <eink_ite_write_data_fast>:
 */
void eink_ite_write_data_fast(
        uint16_t command,
        uint16_t *data,
        uint32_t data_bytes)
{
  402900:	b510      	push	{r4, lr}
    _eink_ite_write_data(command, data, data_bytes, 1);
  402902:	2301      	movs	r3, #1
  402904:	4c01      	ldr	r4, [pc, #4]	; (40290c <eink_ite_write_data_fast+0xc>)
  402906:	47a0      	blx	r4
  402908:	bd10      	pop	{r4, pc}
  40290a:	bf00      	nop
  40290c:	004025e9 	.word	0x004025e9

00402910 <eink_it8951_put_display_buffer>:
{
  402910:	b5f0      	push	{r4, r5, r6, r7, lr}
  402912:	b085      	sub	sp, #20
  402914:	4605      	mov	r5, r0
    uint16_t usWordH = (unsigned short)((it8951_global_instance.img_buffer_addr >> 16) & 0x0000FFFF);
  402916:	4c33      	ldr	r4, [pc, #204]	; (4029e4 <eink_it8951_put_display_buffer+0xd4>)
  402918:	6b63      	ldr	r3, [r4, #52]	; 0x34
    uint16_t usWordL = (unsigned short)( it8951_global_instance.img_buffer_addr & 0x0000FFFF);
  40291a:	6b67      	ldr	r7, [r4, #52]	; 0x34
    uint16_t data_send[2] = {reg_addr, reg_value};
  40291c:	f240 220a 	movw	r2, #522	; 0x20a
  402920:	f8ad 2004 	strh.w	r2, [sp, #4]
    uint16_t usWordH = (unsigned short)((it8951_global_instance.img_buffer_addr >> 16) & 0x0000FFFF);
  402924:	0c1b      	lsrs	r3, r3, #16
  402926:	f8ad 3006 	strh.w	r3, [sp, #6]
    eink_ite_write_data(IT8951_I80_REG_WR, data_send, 2);
  40292a:	2202      	movs	r2, #2
  40292c:	a901      	add	r1, sp, #4
  40292e:	2011      	movs	r0, #17
  402930:	4e2d      	ldr	r6, [pc, #180]	; (4029e8 <eink_it8951_put_display_buffer+0xd8>)
  402932:	47b0      	blx	r6
    uint16_t data_send[2] = {reg_addr, reg_value};
  402934:	f44f 7302 	mov.w	r3, #520	; 0x208
  402938:	f8ad 3004 	strh.w	r3, [sp, #4]
    uint16_t usWordL = (unsigned short)( it8951_global_instance.img_buffer_addr & 0x0000FFFF);
  40293c:	f8ad 7006 	strh.w	r7, [sp, #6]
    eink_ite_write_data(IT8951_I80_REG_WR, data_send, 2);
  402940:	2202      	movs	r2, #2
  402942:	a901      	add	r1, sp, #4
  402944:	2011      	movs	r0, #17
  402946:	47b0      	blx	r6
    switch(it8951_global_instance.display_rotation)
  402948:	f894 3030 	ldrb.w	r3, [r4, #48]	; 0x30
  40294c:	b2db      	uxtb	r3, r3
  40294e:	2b02      	cmp	r3, #2
  402950:	d01d      	beq.n	40298e <eink_it8951_put_display_buffer+0x7e>
  402952:	2b03      	cmp	r3, #3
  402954:	d01d      	beq.n	402992 <eink_it8951_put_display_buffer+0x82>
    uint16_t eink_data, rotation = 0;
  402956:	2b01      	cmp	r3, #1
  402958:	bf14      	ite	ne
  40295a:	2300      	movne	r3, #0
  40295c:	2301      	moveq	r3, #1
    eink_data = (0 << 8) | (2 << 4) | (rotation);
  40295e:	f043 0320 	orr.w	r3, r3, #32
  402962:	a904      	add	r1, sp, #16
  402964:	f821 3d02 	strh.w	r3, [r1, #-2]!
    eink_ite_write_data(IT8951_I80_LD_IMG, &eink_data, 1);
  402968:	2201      	movs	r2, #1
  40296a:	2020      	movs	r0, #32
  40296c:	4c1e      	ldr	r4, [pc, #120]	; (4029e8 <eink_it8951_put_display_buffer+0xd8>)
  40296e:	47a0      	blx	r4
    eink_ite_write_data_fast(0, display_buffer, (it8951_global_instance.display_buffer_length/2));
  402970:	4b1c      	ldr	r3, [pc, #112]	; (4029e4 <eink_it8951_put_display_buffer+0xd4>)
  402972:	6ada      	ldr	r2, [r3, #44]	; 0x2c
  402974:	0852      	lsrs	r2, r2, #1
  402976:	4b1d      	ldr	r3, [pc, #116]	; (4029ec <eink_it8951_put_display_buffer+0xdc>)
  402978:	6819      	ldr	r1, [r3, #0]
  40297a:	2000      	movs	r0, #0
  40297c:	4b1c      	ldr	r3, [pc, #112]	; (4029f0 <eink_it8951_put_display_buffer+0xe0>)
  40297e:	4798      	blx	r3
    eink_ite_write_data(IT8951_I80_LD_IMG_END, 0, 0);
  402980:	2200      	movs	r2, #0
  402982:	4611      	mov	r1, r2
  402984:	2022      	movs	r0, #34	; 0x22
  402986:	47a0      	blx	r4
    if(refresh_display) eink_it8951_refresh_display();
  402988:	b92d      	cbnz	r5, 402996 <eink_it8951_put_display_buffer+0x86>
}
  40298a:	b005      	add	sp, #20
  40298c:	bdf0      	pop	{r4, r5, r6, r7, pc}
        case ROTATE_180: rotation = 2; break;
  40298e:	2302      	movs	r3, #2
  402990:	e7e5      	b.n	40295e <eink_it8951_put_display_buffer+0x4e>
        case ROTATE_270: rotation = 3; break;
  402992:	2303      	movs	r3, #3
  402994:	e7e3      	b.n	40295e <eink_it8951_put_display_buffer+0x4e>
     eink_data[0] = (uint16_t) 0;
  402996:	2400      	movs	r4, #0
  402998:	f8ad 4004 	strh.w	r4, [sp, #4]
     eink_data[1] = (uint16_t) 0;
  40299c:	f8ad 4006 	strh.w	r4, [sp, #6]
     eink_data[2] = (uint16_t) it8951_global_instance.display_height;
  4029a0:	4b10      	ldr	r3, [pc, #64]	; (4029e4 <eink_it8951_put_display_buffer+0xd4>)
  4029a2:	8d5a      	ldrh	r2, [r3, #42]	; 0x2a
  4029a4:	f8ad 2008 	strh.w	r2, [sp, #8]
     eink_data[3] = (uint16_t) it8951_global_instance.display_width;
  4029a8:	8d1b      	ldrh	r3, [r3, #40]	; 0x28
  4029aa:	f8ad 300a 	strh.w	r3, [sp, #10]
     eink_data[4] = (uint16_t) update_mode;
  4029ae:	2302      	movs	r3, #2
  4029b0:	f8ad 300c 	strh.w	r3, [sp, #12]
     eink_ite_write_data(IT8951_I80_USR_DPY_AREA, &eink_data[0], 1);
  4029b4:	2201      	movs	r2, #1
  4029b6:	a901      	add	r1, sp, #4
  4029b8:	2034      	movs	r0, #52	; 0x34
  4029ba:	4d0b      	ldr	r5, [pc, #44]	; (4029e8 <eink_it8951_put_display_buffer+0xd8>)
  4029bc:	47a8      	blx	r5
     eink_ite_write_data(0, &eink_data[1], 1);
  4029be:	2201      	movs	r2, #1
  4029c0:	f10d 0106 	add.w	r1, sp, #6
  4029c4:	4620      	mov	r0, r4
  4029c6:	47a8      	blx	r5
     eink_ite_write_data(0, &eink_data[2], 1);
  4029c8:	2201      	movs	r2, #1
  4029ca:	a902      	add	r1, sp, #8
  4029cc:	4620      	mov	r0, r4
  4029ce:	47a8      	blx	r5
     eink_ite_write_data(0, &eink_data[3], 1);
  4029d0:	2201      	movs	r2, #1
  4029d2:	f10d 010a 	add.w	r1, sp, #10
  4029d6:	4620      	mov	r0, r4
  4029d8:	47a8      	blx	r5
     eink_ite_write_data(0, &eink_data[4], 1);
  4029da:	2201      	movs	r2, #1
  4029dc:	a903      	add	r1, sp, #12
  4029de:	4620      	mov	r0, r4
  4029e0:	47a8      	blx	r5
}
  4029e2:	e7d2      	b.n	40298a <eink_it8951_put_display_buffer+0x7a>
  4029e4:	200004d0 	.word	0x200004d0
  4029e8:	00402635 	.word	0x00402635
  4029ec:	200004b4 	.word	0x200004b4
  4029f0:	00402901 	.word	0x00402901

004029f4 <eink_ite_set_bit>:
 * \param bit_value Bit value.
 */
void eink_ite_set_bit(uint8_t *byte, uint8_t bit_number, bool bit_value)
{
    /* Update the byte to either set or clear the selected bit */   
    if (bit_value == 1) {
  4029f4:	b932      	cbnz	r2, 402a04 <eink_ite_set_bit+0x10>
        *byte |= 1 << bit_number;
    } else {
        *byte &= ~(1 << bit_number);
  4029f6:	2301      	movs	r3, #1
  4029f8:	408b      	lsls	r3, r1
  4029fa:	7801      	ldrb	r1, [r0, #0]
  4029fc:	ea21 0103 	bic.w	r1, r1, r3
  402a00:	7001      	strb	r1, [r0, #0]
  402a02:	4770      	bx	lr
        *byte |= 1 << bit_number;
  402a04:	2301      	movs	r3, #1
  402a06:	408b      	lsls	r3, r1
  402a08:	7801      	ldrb	r1, [r0, #0]
  402a0a:	4319      	orrs	r1, r3
  402a0c:	7001      	strb	r1, [r0, #0]
  402a0e:	4770      	bx	lr

00402a10 <eink_it8951_set_pixel_raw>:
 * \param x_set X coordinate of the pixel to set.
 * \param y_set Y coordinate of the pixel to set.
 * \param pixel_value Greyscale value to set the pixel to.
 */
void eink_it8951_set_pixel_raw(eink_coordinate x_set, eink_coordinate y_set, uint8_t pixel_value)
{
  402a10:	b5f8      	push	{r3, r4, r5, r6, r7, lr}
    eink_coordinate x1_set, y1_set, odd_even_bit;
    uint32_t byte_set;
    
    /* Ignore any pixels being set outside of the display window */
    if ( (x_set >= 0) && (x_set < ptr_eink_gfx_config->display_width) && (y_set >= 0) && (y_set < ptr_eink_gfx_config->display_height) ) {
  402a12:	4b31      	ldr	r3, [pc, #196]	; (402ad8 <eink_it8951_set_pixel_raw+0xc8>)
  402a14:	681e      	ldr	r6, [r3, #0]
  402a16:	8873      	ldrh	r3, [r6, #2]
  402a18:	4283      	cmp	r3, r0
  402a1a:	d93e      	bls.n	402a9a <eink_it8951_set_pixel_raw+0x8a>
  402a1c:	88b3      	ldrh	r3, [r6, #4]
  402a1e:	428b      	cmp	r3, r1
  402a20:	d93b      	bls.n	402a9a <eink_it8951_set_pixel_raw+0x8a>
        
        if ( (it8951_global_instance.display_rotation == ROTATE_0) || (it8951_global_instance.display_rotation == ROTATE_180) ) {
  402a22:	4b2e      	ldr	r3, [pc, #184]	; (402adc <eink_it8951_set_pixel_raw+0xcc>)
  402a24:	f893 3030 	ldrb.w	r3, [r3, #48]	; 0x30
  402a28:	b17b      	cbz	r3, 402a4a <eink_it8951_set_pixel_raw+0x3a>
  402a2a:	4b2c      	ldr	r3, [pc, #176]	; (402adc <eink_it8951_set_pixel_raw+0xcc>)
  402a2c:	f893 3030 	ldrb.w	r3, [r3, #48]	; 0x30
  402a30:	b2db      	uxtb	r3, r3
  402a32:	2b02      	cmp	r3, #2
  402a34:	d009      	beq.n	402a4a <eink_it8951_set_pixel_raw+0x3a>
            byte_set = y1_set + ((it8951_global_instance.display_config.display_width / 2) * x_set);
            odd_even_bit = y_set % 2;
        } else {
            /* Calculate which byte the pixel in question is contained in */
            y1_set = (y_set - (y_set % 2)) / 2;
            byte_set = y1_set + ((it8951_global_instance.display_config.display_height / 2) * x_set);
  402a36:	4b29      	ldr	r3, [pc, #164]	; (402adc <eink_it8951_set_pixel_raw+0xcc>)
  402a38:	885c      	ldrh	r4, [r3, #2]
  402a3a:	f3c4 044e 	ubfx	r4, r4, #1, #15
  402a3e:	084b      	lsrs	r3, r1, #1
  402a40:	fb00 3404 	mla	r4, r0, r4, r3
            odd_even_bit = y_set % 2;
  402a44:	f001 0101 	and.w	r1, r1, #1
  402a48:	e008      	b.n	402a5c <eink_it8951_set_pixel_raw+0x4c>
            byte_set = y1_set + ((it8951_global_instance.display_config.display_width / 2) * x_set);
  402a4a:	4b24      	ldr	r3, [pc, #144]	; (402adc <eink_it8951_set_pixel_raw+0xcc>)
  402a4c:	881c      	ldrh	r4, [r3, #0]
  402a4e:	f3c4 044e 	ubfx	r4, r4, #1, #15
  402a52:	084b      	lsrs	r3, r1, #1
  402a54:	fb00 3404 	mla	r4, r0, r4, r3
            odd_even_bit = y_set % 2;
  402a58:	f001 0101 	and.w	r1, r1, #1
  402a5c:	4615      	mov	r5, r2
        }
        
        if (!odd_even_bit) {
  402a5e:	b1e9      	cbz	r1, 402a9c <eink_it8951_set_pixel_raw+0x8c>
            eink_ite_set_bit(&ptr_eink_gfx_config->display_buffer_1_ptr[byte_set], 3, ((pixel_value >> 3) & 0x1));
            eink_ite_set_bit(&ptr_eink_gfx_config->display_buffer_1_ptr[byte_set], 2, ((pixel_value >> 2) & 0x1));
            eink_ite_set_bit(&ptr_eink_gfx_config->display_buffer_1_ptr[byte_set], 1, ((pixel_value >> 1) & 0x1));
            eink_ite_set_bit(&ptr_eink_gfx_config->display_buffer_1_ptr[byte_set], 0, (pixel_value & 0x1));
        } else {
           eink_ite_set_bit(&ptr_eink_gfx_config->display_buffer_1_ptr[byte_set], 7, ((pixel_value >> 3) & 0x1));
  402a60:	6930      	ldr	r0, [r6, #16]
  402a62:	f3c2 02c0 	ubfx	r2, r2, #3, #1
  402a66:	2107      	movs	r1, #7
  402a68:	4420      	add	r0, r4
  402a6a:	4e1d      	ldr	r6, [pc, #116]	; (402ae0 <eink_it8951_set_pixel_raw+0xd0>)
  402a6c:	47b0      	blx	r6
           eink_ite_set_bit(&ptr_eink_gfx_config->display_buffer_1_ptr[byte_set], 6, ((pixel_value >> 2) & 0x1));
  402a6e:	4f1a      	ldr	r7, [pc, #104]	; (402ad8 <eink_it8951_set_pixel_raw+0xc8>)
  402a70:	683b      	ldr	r3, [r7, #0]
  402a72:	6918      	ldr	r0, [r3, #16]
  402a74:	f3c5 0280 	ubfx	r2, r5, #2, #1
  402a78:	2106      	movs	r1, #6
  402a7a:	4420      	add	r0, r4
  402a7c:	47b0      	blx	r6
           eink_ite_set_bit(&ptr_eink_gfx_config->display_buffer_1_ptr[byte_set], 5, ((pixel_value >> 1) & 0x1));
  402a7e:	683b      	ldr	r3, [r7, #0]
  402a80:	6918      	ldr	r0, [r3, #16]
  402a82:	f3c5 0240 	ubfx	r2, r5, #1, #1
  402a86:	2105      	movs	r1, #5
  402a88:	4420      	add	r0, r4
  402a8a:	47b0      	blx	r6
           eink_ite_set_bit(&ptr_eink_gfx_config->display_buffer_1_ptr[byte_set], 4, (pixel_value & 0x1));
  402a8c:	683b      	ldr	r3, [r7, #0]
  402a8e:	6918      	ldr	r0, [r3, #16]
  402a90:	f005 0201 	and.w	r2, r5, #1
  402a94:	2104      	movs	r1, #4
  402a96:	4420      	add	r0, r4
  402a98:	47b0      	blx	r6
  402a9a:	bdf8      	pop	{r3, r4, r5, r6, r7, pc}
            eink_ite_set_bit(&ptr_eink_gfx_config->display_buffer_1_ptr[byte_set], 3, ((pixel_value >> 3) & 0x1));
  402a9c:	6930      	ldr	r0, [r6, #16]
  402a9e:	f3c2 02c0 	ubfx	r2, r2, #3, #1
  402aa2:	2103      	movs	r1, #3
  402aa4:	4420      	add	r0, r4
  402aa6:	4e0e      	ldr	r6, [pc, #56]	; (402ae0 <eink_it8951_set_pixel_raw+0xd0>)
  402aa8:	47b0      	blx	r6
            eink_ite_set_bit(&ptr_eink_gfx_config->display_buffer_1_ptr[byte_set], 2, ((pixel_value >> 2) & 0x1));
  402aaa:	4f0b      	ldr	r7, [pc, #44]	; (402ad8 <eink_it8951_set_pixel_raw+0xc8>)
  402aac:	683b      	ldr	r3, [r7, #0]
  402aae:	6918      	ldr	r0, [r3, #16]
  402ab0:	f3c5 0280 	ubfx	r2, r5, #2, #1
  402ab4:	2102      	movs	r1, #2
  402ab6:	4420      	add	r0, r4
  402ab8:	47b0      	blx	r6
            eink_ite_set_bit(&ptr_eink_gfx_config->display_buffer_1_ptr[byte_set], 1, ((pixel_value >> 1) & 0x1));
  402aba:	683b      	ldr	r3, [r7, #0]
  402abc:	6918      	ldr	r0, [r3, #16]
  402abe:	f3c5 0240 	ubfx	r2, r5, #1, #1
  402ac2:	2101      	movs	r1, #1
  402ac4:	4420      	add	r0, r4
  402ac6:	47b0      	blx	r6
            eink_ite_set_bit(&ptr_eink_gfx_config->display_buffer_1_ptr[byte_set], 0, (pixel_value & 0x1));
  402ac8:	683b      	ldr	r3, [r7, #0]
  402aca:	6918      	ldr	r0, [r3, #16]
  402acc:	f005 0201 	and.w	r2, r5, #1
  402ad0:	2100      	movs	r1, #0
  402ad2:	4420      	add	r0, r4
  402ad4:	47b0      	blx	r6
  402ad6:	bdf8      	pop	{r3, r4, r5, r6, r7, pc}
  402ad8:	20000544 	.word	0x20000544
  402adc:	200004d0 	.word	0x200004d0
  402ae0:	004029f5 	.word	0x004029f5

00402ae4 <eink_it8951_graphics_load_4bgrey_image>:
 *                           as a multiple of 8.
 * \param x_place X location to place with bitmap.
 * \param y_place Y location to place with bitmap.
 */
void eink_it8951_graphics_load_4bgrey_image(uint8_t *img_array, uint16_t array_size, eink_coordinate image_width_px, eink_coordinate image_height_bytes, eink_coordinate x_place, eink_coordinate y_place)
{
  402ae4:	e92d 4ff0 	stmdb	sp!, {r4, r5, r6, r7, r8, r9, sl, fp, lr}
  402ae8:	b087      	sub	sp, #28
  402aea:	f8bd 8040 	ldrh.w	r8, [sp, #64]	; 0x40
  402aee:	f8bd 9044 	ldrh.w	r9, [sp, #68]	; 0x44
    volatile uint16_t buffer_index, i, j;
    volatile uint16_t k, l, m, bit_value_1, bit_value_2;
    eink_coordinate x_set, y_set;
    
    /* Scan pixels by column */
    for (i = 0; i < image_width_px; i++) {
  402af2:	2100      	movs	r1, #0
  402af4:	f8ad 1016 	strh.w	r1, [sp, #22]
  402af8:	f8bd 1016 	ldrh.w	r1, [sp, #22]
  402afc:	b289      	uxth	r1, r1
  402afe:	428a      	cmp	r2, r1
  402b00:	d96a      	bls.n	402bd8 <eink_it8951_graphics_load_4bgrey_image+0xf4>
  402b02:	461e      	mov	r6, r3
  402b04:	9201      	str	r2, [sp, #4]
  402b06:	4682      	mov	sl, r0
        m = 0;
        for (j = 0; j < image_height_bytes; j++) {
            x_set = x_place+i;
            y_set = y_place+m;
            
            if ( (x_set >= 0) && (x_set < ptr_eink_gfx_config->display_width) && (y_set >= 0) && (y_set < ptr_eink_gfx_config->display_height) ) {
  402b08:	4f35      	ldr	r7, [pc, #212]	; (402be0 <eink_it8951_graphics_load_4bgrey_image+0xfc>)
                /* Process each pixel in byte  */
                bit_value_1 = ((img_array[(i*image_height_bytes)+j]) & 0xF);
                bit_value_2 = ((img_array[(i*image_height_bytes)+j] >> 4) & 0xF);
                /* Set the pixel in the display buffer */
                eink_it8951_set_pixel_raw(x_set, (y_set+1), (~bit_value_1));
  402b0a:	f8df b0d8 	ldr.w	fp, [pc, #216]	; 402be4 <eink_it8951_graphics_load_4bgrey_image+0x100>
  402b0e:	e058      	b.n	402bc2 <eink_it8951_graphics_load_4bgrey_image+0xde>
                eink_it8951_set_pixel_raw(x_set, (y_set), (~bit_value_2));
            }

        m += 2;
  402b10:	f8bd 3012 	ldrh.w	r3, [sp, #18]
  402b14:	3302      	adds	r3, #2
  402b16:	b29b      	uxth	r3, r3
  402b18:	f8ad 3012 	strh.w	r3, [sp, #18]
        for (j = 0; j < image_height_bytes; j++) {
  402b1c:	f8bd 3014 	ldrh.w	r3, [sp, #20]
  402b20:	3301      	adds	r3, #1
  402b22:	b29b      	uxth	r3, r3
  402b24:	f8ad 3014 	strh.w	r3, [sp, #20]
  402b28:	f8bd 3014 	ldrh.w	r3, [sp, #20]
  402b2c:	b29b      	uxth	r3, r3
  402b2e:	42b3      	cmp	r3, r6
  402b30:	d23b      	bcs.n	402baa <eink_it8951_graphics_load_4bgrey_image+0xc6>
            x_set = x_place+i;
  402b32:	f8bd 4016 	ldrh.w	r4, [sp, #22]
  402b36:	fa18 f484 	uxtah	r4, r8, r4
  402b3a:	b2a4      	uxth	r4, r4
            y_set = y_place+m;
  402b3c:	f8bd 5012 	ldrh.w	r5, [sp, #18]
  402b40:	b2ad      	uxth	r5, r5
            if ( (x_set >= 0) && (x_set < ptr_eink_gfx_config->display_width) && (y_set >= 0) && (y_set < ptr_eink_gfx_config->display_height) ) {
  402b42:	683b      	ldr	r3, [r7, #0]
  402b44:	885a      	ldrh	r2, [r3, #2]
  402b46:	42a2      	cmp	r2, r4
  402b48:	d9e2      	bls.n	402b10 <eink_it8951_graphics_load_4bgrey_image+0x2c>
            y_set = y_place+m;
  402b4a:	444d      	add	r5, r9
  402b4c:	b2ad      	uxth	r5, r5
            if ( (x_set >= 0) && (x_set < ptr_eink_gfx_config->display_width) && (y_set >= 0) && (y_set < ptr_eink_gfx_config->display_height) ) {
  402b4e:	889b      	ldrh	r3, [r3, #4]
  402b50:	42ab      	cmp	r3, r5
  402b52:	d9dd      	bls.n	402b10 <eink_it8951_graphics_load_4bgrey_image+0x2c>
                bit_value_1 = ((img_array[(i*image_height_bytes)+j]) & 0xF);
  402b54:	f8bd 3016 	ldrh.w	r3, [sp, #22]
  402b58:	b29b      	uxth	r3, r3
  402b5a:	f8bd 2014 	ldrh.w	r2, [sp, #20]
  402b5e:	fb06 f303 	mul.w	r3, r6, r3
  402b62:	fa1a f282 	uxtah	r2, sl, r2
  402b66:	5cd3      	ldrb	r3, [r2, r3]
  402b68:	f003 030f 	and.w	r3, r3, #15
  402b6c:	f8ad 3010 	strh.w	r3, [sp, #16]
                bit_value_2 = ((img_array[(i*image_height_bytes)+j] >> 4) & 0xF);
  402b70:	f8bd 3016 	ldrh.w	r3, [sp, #22]
  402b74:	b29b      	uxth	r3, r3
  402b76:	f8bd 2014 	ldrh.w	r2, [sp, #20]
  402b7a:	fb06 f303 	mul.w	r3, r6, r3
  402b7e:	fa1a f282 	uxtah	r2, sl, r2
  402b82:	5cd3      	ldrb	r3, [r2, r3]
  402b84:	091b      	lsrs	r3, r3, #4
  402b86:	f8ad 300e 	strh.w	r3, [sp, #14]
                eink_it8951_set_pixel_raw(x_set, (y_set+1), (~bit_value_1));
  402b8a:	f8bd 2010 	ldrh.w	r2, [sp, #16]
  402b8e:	43d2      	mvns	r2, r2
  402b90:	1c69      	adds	r1, r5, #1
  402b92:	b2d2      	uxtb	r2, r2
  402b94:	b289      	uxth	r1, r1
  402b96:	4620      	mov	r0, r4
  402b98:	47d8      	blx	fp
                eink_it8951_set_pixel_raw(x_set, (y_set), (~bit_value_2));
  402b9a:	f8bd 200e 	ldrh.w	r2, [sp, #14]
  402b9e:	43d2      	mvns	r2, r2
  402ba0:	b2d2      	uxtb	r2, r2
  402ba2:	4629      	mov	r1, r5
  402ba4:	4620      	mov	r0, r4
  402ba6:	47d8      	blx	fp
  402ba8:	e7b2      	b.n	402b10 <eink_it8951_graphics_load_4bgrey_image+0x2c>
    for (i = 0; i < image_width_px; i++) {
  402baa:	f8bd 3016 	ldrh.w	r3, [sp, #22]
  402bae:	3301      	adds	r3, #1
  402bb0:	b29b      	uxth	r3, r3
  402bb2:	f8ad 3016 	strh.w	r3, [sp, #22]
  402bb6:	f8bd 3016 	ldrh.w	r3, [sp, #22]
  402bba:	b29b      	uxth	r3, r3
  402bbc:	9a01      	ldr	r2, [sp, #4]
  402bbe:	4293      	cmp	r3, r2
  402bc0:	d20a      	bcs.n	402bd8 <eink_it8951_graphics_load_4bgrey_image+0xf4>
        m = 0;
  402bc2:	2300      	movs	r3, #0
  402bc4:	f8ad 3012 	strh.w	r3, [sp, #18]
        for (j = 0; j < image_height_bytes; j++) {
  402bc8:	f8ad 3014 	strh.w	r3, [sp, #20]
  402bcc:	f8bd 3014 	ldrh.w	r3, [sp, #20]
  402bd0:	b29b      	uxth	r3, r3
  402bd2:	429e      	cmp	r6, r3
  402bd4:	d8ad      	bhi.n	402b32 <eink_it8951_graphics_load_4bgrey_image+0x4e>
  402bd6:	e7e8      	b.n	402baa <eink_it8951_graphics_load_4bgrey_image+0xc6>
        }
    }
  402bd8:	b007      	add	sp, #28
  402bda:	e8bd 8ff0 	ldmia.w	sp!, {r4, r5, r6, r7, r8, r9, sl, fp, pc}
  402bde:	bf00      	nop
  402be0:	20000544 	.word	0x20000544
  402be4:	00402a11 	.word	0x00402a11

00402be8 <ssd1677_init>:
 *
 * Call this function to initialize the hardware interface and the SSD1677 display
 * driver. When initialization is done the display is ready to receive data.
 */
void ssd1677_init(void)
{
  402be8:	b570      	push	{r4, r5, r6, lr}
    /* Initialize delay routine */
    delay_init(SysTick);
  402bea:	4810      	ldr	r0, [pc, #64]	; (402c2c <ssd1677_init+0x44>)
  402bec:	4b10      	ldr	r3, [pc, #64]	; (402c30 <ssd1677_init+0x48>)
  402bee:	4798      	blx	r3

    /* Initialize the interface */
    eink_interface_init(1);
  402bf0:	2001      	movs	r0, #1
  402bf2:	4b10      	ldr	r3, [pc, #64]	; (402c34 <ssd1677_init+0x4c>)
  402bf4:	4798      	blx	r3
	((Pio *)hw)->PIO_CODR = mask;
  402bf6:	4d10      	ldr	r5, [pc, #64]	; (402c38 <ssd1677_init+0x50>)
  402bf8:	f44f 5600 	mov.w	r6, #8192	; 0x2000
  402bfc:	636e      	str	r6, [r5, #52]	; 0x34
    delay_ms(1);
  402bfe:	2001      	movs	r0, #1
  402c00:	4c0e      	ldr	r4, [pc, #56]	; (402c3c <ssd1677_init+0x54>)
  402c02:	47a0      	blx	r4
	((Pio *)hw)->PIO_SODR = mask;
  402c04:	632e      	str	r6, [r5, #48]	; 0x30
    delay_ms(1);
  402c06:	2001      	movs	r0, #1
  402c08:	47a0      	blx	r4
	return ((Pio *)hw)->PIO_PDSR;
  402c0a:	462a      	mov	r2, r5
  402c0c:	6bd3      	ldr	r3, [r2, #60]	; 0x3c
    while(gpio_get_pin_level(EINK_BUSY));
  402c0e:	f013 7f00 	tst.w	r3, #33554432	; 0x2000000
  402c12:	d1fb      	bne.n	402c0c <ssd1677_init+0x24>

    /* Wait for BUSY output to return HIGH */
    ssd1677_wait_for_busy();

    /* Software Reset */
    eink_write_data(SSD1677_SWRESET, 0, 0);
  402c14:	2200      	movs	r2, #0
  402c16:	4611      	mov	r1, r2
  402c18:	2012      	movs	r0, #18
  402c1a:	4b09      	ldr	r3, [pc, #36]	; (402c40 <ssd1677_init+0x58>)
  402c1c:	4798      	blx	r3
  402c1e:	4a06      	ldr	r2, [pc, #24]	; (402c38 <ssd1677_init+0x50>)
  402c20:	6bd3      	ldr	r3, [r2, #60]	; 0x3c
  402c22:	f013 7f00 	tst.w	r3, #33554432	; 0x2000000
  402c26:	d1fb      	bne.n	402c20 <ssd1677_init+0x38>

    /* Wait for BUSY output to return LOW */
    ssd1677_wait_for_busy();
}
  402c28:	bd70      	pop	{r4, r5, r6, pc}
  402c2a:	bf00      	nop
  402c2c:	e000e010 	.word	0xe000e010
  402c30:	004002f9 	.word	0x004002f9
  402c34:	00400b41 	.word	0x00400b41
  402c38:	400e0e00 	.word	0x400e0e00
  402c3c:	0040030d 	.word	0x0040030d
  402c40:	004019e1 	.word	0x004019e1

00402c44 <ssd1677_set_config>:
 *
 * \param *config The configuration to write to the SSD1677
 */
void ssd1677_set_config(
        const struct ssd1677_config *config)
{
  402c44:	e92d 43f0 	stmdb	sp!, {r4, r5, r6, r7, r8, r9, lr}
  402c48:	b085      	sub	sp, #20
  402c4a:	4607      	mov	r7, r0
    uint8_t eink_data[10];
    
    eink_data[0] = 0xF7;
  402c4c:	a904      	add	r1, sp, #16
  402c4e:	23f7      	movs	r3, #247	; 0xf7
  402c50:	f801 3d0c 	strb.w	r3, [r1, #-12]!
    eink_write_data(SSD1677_AUTO_RAM_RED, eink_data, 1);
  402c54:	2201      	movs	r2, #1
  402c56:	2046      	movs	r0, #70	; 0x46
  402c58:	4b60      	ldr	r3, [pc, #384]	; (402ddc <ssd1677_set_config+0x198>)
  402c5a:	4798      	blx	r3
  402c5c:	4a60      	ldr	r2, [pc, #384]	; (402de0 <ssd1677_set_config+0x19c>)
  402c5e:	6bd3      	ldr	r3, [r2, #60]	; 0x3c
  402c60:	f013 7f00 	tst.w	r3, #33554432	; 0x2000000
  402c64:	d1fb      	bne.n	402c5e <ssd1677_set_config+0x1a>
    ssd1677_wait_for_busy();
    
    eink_data[0] = 0xF7;
  402c66:	a904      	add	r1, sp, #16
  402c68:	23f7      	movs	r3, #247	; 0xf7
  402c6a:	f801 3d0c 	strb.w	r3, [r1, #-12]!
    eink_write_data(SSD1677_AUTO_RAM_BW, eink_data, 1);
  402c6e:	2201      	movs	r2, #1
  402c70:	2047      	movs	r0, #71	; 0x47
  402c72:	4b5a      	ldr	r3, [pc, #360]	; (402ddc <ssd1677_set_config+0x198>)
  402c74:	4798      	blx	r3
  402c76:	4a5a      	ldr	r2, [pc, #360]	; (402de0 <ssd1677_set_config+0x19c>)
  402c78:	6bd3      	ldr	r3, [r2, #60]	; 0x3c
  402c7a:	f013 7f00 	tst.w	r3, #33554432	; 0x2000000
  402c7e:	d1fb      	bne.n	402c78 <ssd1677_set_config+0x34>
    ssd1677_wait_for_busy();
    
    //Gate Settings
    eink_data[0] = 0xDF;
  402c80:	f04f 08df 	mov.w	r8, #223	; 0xdf
  402c84:	f88d 8004 	strb.w	r8, [sp, #4]
    eink_data[1] = 0x01;
  402c88:	2601      	movs	r6, #1
  402c8a:	f88d 6005 	strb.w	r6, [sp, #5]
    eink_data[2] = 0x00;
  402c8e:	2400      	movs	r4, #0
  402c90:	f88d 4006 	strb.w	r4, [sp, #6]
    eink_write_data(SSD1677_GATE_SET, eink_data, 3);
  402c94:	2203      	movs	r2, #3
  402c96:	a901      	add	r1, sp, #4
  402c98:	4630      	mov	r0, r6
  402c9a:	4d50      	ldr	r5, [pc, #320]	; (402ddc <ssd1677_set_config+0x198>)
  402c9c:	47a8      	blx	r5
    
    //Set Gate Voltage
    eink_data[0] = 0x00;
  402c9e:	f88d 4004 	strb.w	r4, [sp, #4]
    eink_write_data(SSD1677_VGH, eink_data, 1);
  402ca2:	4632      	mov	r2, r6
  402ca4:	a901      	add	r1, sp, #4
  402ca6:	2003      	movs	r0, #3
  402ca8:	47a8      	blx	r5
    
    //Set Source Voltage
    eink_data[0] = 0x41;
  402caa:	2341      	movs	r3, #65	; 0x41
  402cac:	f88d 3004 	strb.w	r3, [sp, #4]
    eink_data[1] = 0xA8;
  402cb0:	23a8      	movs	r3, #168	; 0xa8
  402cb2:	f88d 3005 	strb.w	r3, [sp, #5]
    eink_data[2] = 0x32;
  402cb6:	2332      	movs	r3, #50	; 0x32
  402cb8:	f88d 3006 	strb.w	r3, [sp, #6]
    eink_write_data(SSD1677_VSHL, eink_data, 3);
  402cbc:	2203      	movs	r2, #3
  402cbe:	a901      	add	r1, sp, #4
  402cc0:	2004      	movs	r0, #4
  402cc2:	47a8      	blx	r5
    
    //Data Entry Sequence
    eink_data[0] = 0x03;
  402cc4:	2303      	movs	r3, #3
  402cc6:	f88d 3004 	strb.w	r3, [sp, #4]
    eink_write_data(SSD1677_DEY, eink_data, 1);
  402cca:	4632      	mov	r2, r6
  402ccc:	a901      	add	r1, sp, #4
  402cce:	2011      	movs	r0, #17
  402cd0:	47a8      	blx	r5
    
    //Border Settings
    eink_data[0] = 0x00;
  402cd2:	f88d 4004 	strb.w	r4, [sp, #4]
    eink_write_data(SSD1677_BDW, eink_data, 1);
  402cd6:	4632      	mov	r2, r6
  402cd8:	a901      	add	r1, sp, #4
  402cda:	203c      	movs	r0, #60	; 0x3c
  402cdc:	47a8      	blx	r5

    //Booster Strength
    eink_data[0] = 0xAE;
  402cde:	23ae      	movs	r3, #174	; 0xae
  402ce0:	f88d 3004 	strb.w	r3, [sp, #4]
    eink_data[1] = 0xC7;
  402ce4:	23c7      	movs	r3, #199	; 0xc7
  402ce6:	f88d 3005 	strb.w	r3, [sp, #5]
    eink_data[2] = 0xC3;
  402cea:	23c3      	movs	r3, #195	; 0xc3
  402cec:	f88d 3006 	strb.w	r3, [sp, #6]
    eink_data[3] = 0xC0;
  402cf0:	23c0      	movs	r3, #192	; 0xc0
  402cf2:	f88d 3007 	strb.w	r3, [sp, #7]
    eink_data[4] = 0xC0;
  402cf6:	f88d 3008 	strb.w	r3, [sp, #8]
    eink_write_data(SSD1677_BTST, eink_data, 5);
  402cfa:	2205      	movs	r2, #5
  402cfc:	a901      	add	r1, sp, #4
  402cfe:	200c      	movs	r0, #12
  402d00:	47a8      	blx	r5
    
    //Temperature Settings
    eink_data[0] = 0x80;
  402d02:	2380      	movs	r3, #128	; 0x80
  402d04:	f88d 3004 	strb.w	r3, [sp, #4]
    eink_write_data(SSD1677_TSC, eink_data, 1);
  402d08:	4632      	mov	r2, r6
  402d0a:	a901      	add	r1, sp, #4
  402d0c:	2018      	movs	r0, #24
  402d0e:	47a8      	blx	r5
    
    //Set VCOM Value
    eink_data[0] = 0x44;
  402d10:	f04f 0944 	mov.w	r9, #68	; 0x44
  402d14:	f88d 9004 	strb.w	r9, [sp, #4]
    eink_write_data(SSD1677_VCOM_WT, eink_data, 1);
  402d18:	4632      	mov	r2, r6
  402d1a:	a901      	add	r1, sp, #4
  402d1c:	202c      	movs	r0, #44	; 0x2c
  402d1e:	47a8      	blx	r5
    eink_data[5] = 0x4F;
    eink_data[6] = 0xFF;
    eink_data[7] = 0xFF;
    eink_data[8] = 0xFF;
    eink_data[9] = 0xFF;*/
	eink_data[0] = 0x00;
  402d20:	f88d 4004 	strb.w	r4, [sp, #4]
	eink_data[1] = 0x00;
  402d24:	f88d 4005 	strb.w	r4, [sp, #5]
	eink_data[2] = 0x00;
  402d28:	f88d 4006 	strb.w	r4, [sp, #6]
	eink_data[3] = 0x00;
  402d2c:	f88d 4007 	strb.w	r4, [sp, #7]
	eink_data[4] = 0x00;
  402d30:	f88d 4008 	strb.w	r4, [sp, #8]
	eink_data[5] = 0x00;
  402d34:	f88d 4009 	strb.w	r4, [sp, #9]
	eink_data[6] = 0x00;
  402d38:	f88d 400a 	strb.w	r4, [sp, #10]
	eink_data[7] = 0x00;
  402d3c:	f88d 400b 	strb.w	r4, [sp, #11]
	eink_data[8] = 0x00;
  402d40:	f88d 400c 	strb.w	r4, [sp, #12]
	eink_data[9] = 0x00;
  402d44:	f88d 400d 	strb.w	r4, [sp, #13]
    eink_write_data(SSD1677_DIS_OPT, eink_data, 10);
  402d48:	220a      	movs	r2, #10
  402d4a:	a901      	add	r1, sp, #4
  402d4c:	2037      	movs	r0, #55	; 0x37
  402d4e:	47a8      	blx	r5

    //X RAM Start/End Position
    eink_data[0] = 0x00;
  402d50:	f88d 4004 	strb.w	r4, [sp, #4]
    eink_data[1] = 0x00;
  402d54:	f88d 4005 	strb.w	r4, [sp, #5]
    eink_data[2] = 0x17;
  402d58:	2317      	movs	r3, #23
  402d5a:	f88d 3006 	strb.w	r3, [sp, #6]
    eink_data[3] = 0x01;
  402d5e:	f88d 6007 	strb.w	r6, [sp, #7]
    eink_write_data(SSD1677_X_ADDR, eink_data, 4);
  402d62:	2204      	movs	r2, #4
  402d64:	eb0d 0102 	add.w	r1, sp, r2
  402d68:	4648      	mov	r0, r9
  402d6a:	47a8      	blx	r5

    //Y RAM Start/End Position
    eink_data[0] = 0x00;
  402d6c:	f88d 4004 	strb.w	r4, [sp, #4]
    eink_data[1] = 0x00;
  402d70:	f88d 4005 	strb.w	r4, [sp, #5]
    eink_data[2] = 0xDF;
  402d74:	f88d 8006 	strb.w	r8, [sp, #6]
    eink_data[3] = 0x01;
  402d78:	f88d 6007 	strb.w	r6, [sp, #7]
    eink_write_data(SSD1677_Y_ADDR, eink_data, 4);
  402d7c:	2204      	movs	r2, #4
  402d7e:	eb0d 0102 	add.w	r1, sp, r2
  402d82:	2045      	movs	r0, #69	; 0x45
  402d84:	47a8      	blx	r5

    eink_data[0] = 0x00;
  402d86:	f88d 4004 	strb.w	r4, [sp, #4]
    eink_data[1] = 0x00;
  402d8a:	f88d 4005 	strb.w	r4, [sp, #5]
    eink_write_data(SSD1677_X_ADDRC, eink_data, 2);
  402d8e:	2202      	movs	r2, #2
  402d90:	a901      	add	r1, sp, #4
  402d92:	204e      	movs	r0, #78	; 0x4e
  402d94:	47a8      	blx	r5

    eink_data[0] = 0x00;
  402d96:	f88d 4004 	strb.w	r4, [sp, #4]
    eink_data[1] = 0x00;
  402d9a:	f88d 4005 	strb.w	r4, [sp, #5]
    eink_write_data(SSD1677_Y_ADDRC, eink_data, 2);
  402d9e:	2202      	movs	r2, #2
  402da0:	a901      	add	r1, sp, #4
  402da2:	204f      	movs	r0, #79	; 0x4f
  402da4:	47a8      	blx	r5

    /* Copy configuration into UC8151 instance */
    ssd1677_global_instance.panel_settings = *config;
  402da6:	683a      	ldr	r2, [r7, #0]
  402da8:	4b0e      	ldr	r3, [pc, #56]	; (402de4 <ssd1677_set_config+0x1a0>)
  402daa:	601a      	str	r2, [r3, #0]
    
    /* Save display resolution into UC8151 instance */
    if((config->display_rotation == ROTATE_90) || (config->display_rotation == ROTATE_270)) {
  402dac:	783b      	ldrb	r3, [r7, #0]
  402dae:	f003 03fd 	and.w	r3, r3, #253	; 0xfd
  402db2:	42b3      	cmp	r3, r6
  402db4:	d009      	beq.n	402dca <ssd1677_set_config+0x186>
        ssd1677_global_instance.display_width   = 480;
        ssd1677_global_instance.display_height  = 280;
    } else {
        ssd1677_global_instance.display_width   = 280;
  402db6:	4b0b      	ldr	r3, [pc, #44]	; (402de4 <ssd1677_set_config+0x1a0>)
  402db8:	f44f 728c 	mov.w	r2, #280	; 0x118
  402dbc:	809a      	strh	r2, [r3, #4]
        ssd1677_global_instance.display_height  = 480;
  402dbe:	f44f 72f0 	mov.w	r2, #480	; 0x1e0
  402dc2:	80da      	strh	r2, [r3, #6]
    }
  402dc4:	b005      	add	sp, #20
  402dc6:	e8bd 83f0 	ldmia.w	sp!, {r4, r5, r6, r7, r8, r9, pc}
        ssd1677_global_instance.display_width   = 480;
  402dca:	4b06      	ldr	r3, [pc, #24]	; (402de4 <ssd1677_set_config+0x1a0>)
  402dcc:	f44f 72f0 	mov.w	r2, #480	; 0x1e0
  402dd0:	809a      	strh	r2, [r3, #4]
        ssd1677_global_instance.display_height  = 280;
  402dd2:	f44f 728c 	mov.w	r2, #280	; 0x118
  402dd6:	80da      	strh	r2, [r3, #6]
  402dd8:	e7f4      	b.n	402dc4 <ssd1677_set_config+0x180>
  402dda:	bf00      	nop
  402ddc:	004019e1 	.word	0x004019e1
  402de0:	400e0e00 	.word	0x400e0e00
  402de4:	20000524 	.word	0x20000524

00402de8 <eink_ed037tc1_init>:
{
  402de8:	b5f8      	push	{r3, r4, r5, r6, r7, lr}
  402dea:	4606      	mov	r6, r0
  402dec:	460c      	mov	r4, r1
    ed037tc1_dtm1_display_buffer = (uint8_t*) malloc (malloc_size);
  402dee:	f244 10a0 	movw	r0, #16800	; 0x41a0
  402df2:	4d17      	ldr	r5, [pc, #92]	; (402e50 <eink_ed037tc1_init+0x68>)
  402df4:	47a8      	blx	r5
  402df6:	4607      	mov	r7, r0
  402df8:	4b16      	ldr	r3, [pc, #88]	; (402e54 <eink_ed037tc1_init+0x6c>)
  402dfa:	6018      	str	r0, [r3, #0]
    ed037tc1_dtm2_display_buffer = (uint8_t*) malloc (malloc_size);
  402dfc:	f244 10a0 	movw	r0, #16800	; 0x41a0
  402e00:	47a8      	blx	r5
  402e02:	4b15      	ldr	r3, [pc, #84]	; (402e58 <eink_ed037tc1_init+0x70>)
  402e04:	6018      	str	r0, [r3, #0]
    eink_gfx_ed037tc1_config.display_buffer_1_ptr = ed037tc1_dtm1_display_buffer;
  402e06:	4d15      	ldr	r5, [pc, #84]	; (402e5c <eink_ed037tc1_init+0x74>)
  402e08:	f8c5 7268 	str.w	r7, [r5, #616]	; 0x268
    eink_gfx_ed037tc1_config.display_buffer_2_ptr = ed037tc1_dtm2_display_buffer;
  402e0c:	f8c5 026c 	str.w	r0, [r5, #620]	; 0x26c
    ssd1677_init();
  402e10:	4b13      	ldr	r3, [pc, #76]	; (402e60 <eink_ed037tc1_init+0x78>)
  402e12:	4798      	blx	r3
    ssd1677_set_config(config);
  402e14:	4630      	mov	r0, r6
  402e16:	4b13      	ldr	r3, [pc, #76]	; (402e64 <eink_ed037tc1_init+0x7c>)
  402e18:	4798      	blx	r3
    eink_gfx_ed037tc1_config.display_rotation = config->display_rotation;
  402e1a:	7833      	ldrb	r3, [r6, #0]
  402e1c:	f885 3264 	strb.w	r3, [r5, #612]	; 0x264
    ptr_eink_gfx_config = (struct eink_gfx_config*) &eink_gfx_ed037tc1_config;
  402e20:	f505 7516 	add.w	r5, r5, #600	; 0x258
  402e24:	4b10      	ldr	r3, [pc, #64]	; (402e68 <eink_ed037tc1_init+0x80>)
  402e26:	601d      	str	r5, [r3, #0]
    for (buffer_index = 0; buffer_index < GFX_ED037TC1_DISPLAY_BUFFER_SIZE; buffer_index++) {
  402e28:	2300      	movs	r3, #0
        ptr_eink_gfx_config->display_buffer_1_ptr[buffer_index] = 0xFF;
  402e2a:	490f      	ldr	r1, [pc, #60]	; (402e68 <eink_ed037tc1_init+0x80>)
  402e2c:	22ff      	movs	r2, #255	; 0xff
    for (buffer_index = 0; buffer_index < GFX_ED037TC1_DISPLAY_BUFFER_SIZE; buffer_index++) {
  402e2e:	f244 15a0 	movw	r5, #16800	; 0x41a0
        ptr_eink_gfx_config->display_buffer_1_ptr[buffer_index] = 0xFF;
  402e32:	6808      	ldr	r0, [r1, #0]
  402e34:	6900      	ldr	r0, [r0, #16]
  402e36:	54c2      	strb	r2, [r0, r3]
        ptr_eink_gfx_config->display_buffer_2_ptr[buffer_index] = 0xFF;
  402e38:	6808      	ldr	r0, [r1, #0]
  402e3a:	6940      	ldr	r0, [r0, #20]
  402e3c:	54c2      	strb	r2, [r0, r3]
    for (buffer_index = 0; buffer_index < GFX_ED037TC1_DISPLAY_BUFFER_SIZE; buffer_index++) {
  402e3e:	3301      	adds	r3, #1
  402e40:	42ab      	cmp	r3, r5
  402e42:	d1f6      	bne.n	402e32 <eink_ed037tc1_init+0x4a>
    if(clear_display) eink_ed037tc1_put_display_buffer(true);
  402e44:	b904      	cbnz	r4, 402e48 <eink_ed037tc1_init+0x60>
  402e46:	bdf8      	pop	{r3, r4, r5, r6, r7, pc}
  402e48:	2001      	movs	r0, #1
  402e4a:	4b08      	ldr	r3, [pc, #32]	; (402e6c <eink_ed037tc1_init+0x84>)
  402e4c:	4798      	blx	r3
}
  402e4e:	e7fa      	b.n	402e46 <eink_ed037tc1_init+0x5e>
  402e50:	00402f7d 	.word	0x00402f7d
  402e54:	20000540 	.word	0x20000540
  402e58:	2000053c 	.word	0x2000053c
  402e5c:	20000000 	.word	0x20000000
  402e60:	00402be9 	.word	0x00402be9
  402e64:	00402c45 	.word	0x00402c45
  402e68:	20000544 	.word	0x20000544
  402e6c:	0040206d 	.word	0x0040206d

00402e70 <gfx_eink_graphics_fill_screen_raw>:
 * \brief Fill display buffers with a single color
 *
 * \param fill_value The pixel value to fill the display buffer with.
 */
void gfx_eink_graphics_fill_screen_raw(uint8_t fill_value)
{
  402e70:	e92d 47f0 	stmdb	sp!, {r4, r5, r6, r7, r8, r9, sl, lr}
    /* Fill entire display buffer. */
    eink_coordinate dx, width_fill;
    eink_coordinate dy, height_fill;
    
    width_fill = ptr_eink_gfx_config->display_width;
  402e74:	4b12      	ldr	r3, [pc, #72]	; (402ec0 <gfx_eink_graphics_fill_screen_raw+0x50>)
  402e76:	681b      	ldr	r3, [r3, #0]
  402e78:	f8b3 a002 	ldrh.w	sl, [r3, #2]
    height_fill = ptr_eink_gfx_config->display_height;
  402e7c:	889d      	ldrh	r5, [r3, #4]
    
    for(dx = 0; dx < width_fill; dx++) {
  402e7e:	f1ba 0f00 	cmp.w	sl, #0
  402e82:	d005      	beq.n	402e90 <gfx_eink_graphics_fill_screen_raw+0x20>
  402e84:	4607      	mov	r7, r0
  402e86:	f04f 0900 	mov.w	r9, #0
        for(dy = 0; dy < height_fill; dy++) {
            gfx_eink_set_pixel_raw(dx, dy, fill_value);
  402e8a:	f8df 8038 	ldr.w	r8, [pc, #56]	; 402ec4 <gfx_eink_graphics_fill_screen_raw+0x54>
  402e8e:	e00f      	b.n	402eb0 <gfx_eink_graphics_fill_screen_raw+0x40>
  402e90:	e8bd 87f0 	ldmia.w	sp!, {r4, r5, r6, r7, r8, r9, sl, pc}
  402e94:	463a      	mov	r2, r7
  402e96:	b2a1      	uxth	r1, r4
  402e98:	4630      	mov	r0, r6
  402e9a:	47c0      	blx	r8
  402e9c:	3401      	adds	r4, #1
        for(dy = 0; dy < height_fill; dy++) {
  402e9e:	b2a3      	uxth	r3, r4
  402ea0:	42ab      	cmp	r3, r5
  402ea2:	d3f7      	bcc.n	402e94 <gfx_eink_graphics_fill_screen_raw+0x24>
  402ea4:	f109 0901 	add.w	r9, r9, #1
    for(dx = 0; dx < width_fill; dx++) {
  402ea8:	fa1f f389 	uxth.w	r3, r9
  402eac:	4553      	cmp	r3, sl
  402eae:	d205      	bcs.n	402ebc <gfx_eink_graphics_fill_screen_raw+0x4c>
  402eb0:	fa1f f689 	uxth.w	r6, r9
        for(dy = 0; dy < height_fill; dy++) {
  402eb4:	2400      	movs	r4, #0
  402eb6:	2d00      	cmp	r5, #0
  402eb8:	d1ec      	bne.n	402e94 <gfx_eink_graphics_fill_screen_raw+0x24>
  402eba:	e7f3      	b.n	402ea4 <gfx_eink_graphics_fill_screen_raw+0x34>
  402ebc:	e8bd 87f0 	ldmia.w	sp!, {r4, r5, r6, r7, r8, r9, sl, pc}
  402ec0:	20000544 	.word	0x20000544
  402ec4:	004004b1 	.word	0x004004b1

00402ec8 <main>:
//Function prototypes
void eink_init_display();
void eink_draw_display(uint8_t display_no);

int main (void)
{
  402ec8:	b500      	push	{lr}
  402eca:	b085      	sub	sp, #20
	system_init();
  402ecc:	4b12      	ldr	r3, [pc, #72]	; (402f18 <main+0x50>)
  402ece:	4798      	blx	r3
 */
static inline void ssd1677_get_config_defaults(
        struct ssd1677_config *const config)
{
    /* Default configuration values */
    config->display_rotation = ROTATE_0;
  402ed0:	2100      	movs	r1, #0
  402ed2:	f88d 100c 	strb.w	r1, [sp, #12]
    
    config->temperature_sensor_settings.sensor_select = INTERNAL_TEMPERATURE_SENSOR;
  402ed6:	f88d 100d 	strb.w	r1, [sp, #13]
    config->temperature_sensor_settings.temperature_offset = 0;
  402eda:	f88d 100e 	strb.w	r1, [sp, #14]
    
    config->update_mode = UPDATE_SLOW;
  402ede:	f88d 100f 	strb.w	r1, [sp, #15]
	
	struct ssd1677_config eink_conf;
	
	ssd1677_get_config_defaults(&eink_conf);
	eink_conf.display_rotation = ROTATE_0;
	eink_ed037tc1_init(&eink_conf, false);
  402ee2:	a803      	add	r0, sp, #12
  402ee4:	4b0d      	ldr	r3, [pc, #52]	; (402f1c <main+0x54>)
  402ee6:	4798      	blx	r3
		
	gfx_eink_graphics_fill_screen_raw(0x3);
  402ee8:	2003      	movs	r0, #3
  402eea:	4b0d      	ldr	r3, [pc, #52]	; (402f20 <main+0x58>)
  402eec:	4798      	blx	r3

/**
 * \brief Load 4-bit Greyscale Image function.
 */                         
static void gfx_eink_load_4bgrey_image(uint8_t *img_array, uint16_t array_size, eink_coordinate image_width_px, eink_coordinate image_height_bytes, eink_coordinate x_place, eink_coordinate y_place) {
    ptr_eink_gfx_config->load_4bgrey_image(img_array, array_size, image_width_px, image_height_bytes, x_place, y_place);
  402eee:	4b0d      	ldr	r3, [pc, #52]	; (402f24 <main+0x5c>)
  402ef0:	681b      	ldr	r3, [r3, #0]
  402ef2:	2246      	movs	r2, #70	; 0x46
  402ef4:	9201      	str	r2, [sp, #4]
  402ef6:	223c      	movs	r2, #60	; 0x3c
  402ef8:	9200      	str	r2, [sp, #0]
  402efa:	6b9c      	ldr	r4, [r3, #56]	; 0x38
  402efc:	231a      	movs	r3, #26
  402efe:	22a0      	movs	r2, #160	; 0xa0
  402f00:	f44f 5182 	mov.w	r1, #4160	; 0x1040
  402f04:	4808      	ldr	r0, [pc, #32]	; (402f28 <main+0x60>)
  402f06:	47a0      	blx	r4
	gfx_eink_load_4bgrey_image(eink_GSephElecLogo_2bGrey, sizeof(eink_GSephElecLogo_2bGrey), eink_GSephElecLogo_2bGrey_width_px, eink_GSephElecLogo_2bGrey_height_bytes, 60, 70);
	
	eink_ed037tc1_put_display_buffer(true);
  402f08:	2001      	movs	r0, #1
  402f0a:	4b08      	ldr	r3, [pc, #32]	; (402f2c <main+0x64>)
  402f0c:	4798      	blx	r3
	((Pio *)hw)->PIO_SODR = mask;
  402f0e:	f44f 0200 	mov.w	r2, #8388608	; 0x800000
  402f12:	4b07      	ldr	r3, [pc, #28]	; (402f30 <main+0x68>)
  402f14:	631a      	str	r2, [r3, #48]	; 0x30
  402f16:	e7fe      	b.n	402f16 <main+0x4e>
  402f18:	00400211 	.word	0x00400211
  402f1c:	00402de9 	.word	0x00402de9
  402f20:	00402e71 	.word	0x00402e71
  402f24:	20000544 	.word	0x20000544
  402f28:	00404208 	.word	0x00404208
  402f2c:	0040206d 	.word	0x0040206d
  402f30:	400e0e00 	.word	0x400e0e00

00402f34 <__libc_init_array>:
  402f34:	b570      	push	{r4, r5, r6, lr}
  402f36:	4e0d      	ldr	r6, [pc, #52]	; (402f6c <__libc_init_array+0x38>)
  402f38:	4c0d      	ldr	r4, [pc, #52]	; (402f70 <__libc_init_array+0x3c>)
  402f3a:	1ba4      	subs	r4, r4, r6
  402f3c:	10a4      	asrs	r4, r4, #2
  402f3e:	2500      	movs	r5, #0
  402f40:	42a5      	cmp	r5, r4
  402f42:	d109      	bne.n	402f58 <__libc_init_array+0x24>
  402f44:	4e0b      	ldr	r6, [pc, #44]	; (402f74 <__libc_init_array+0x40>)
  402f46:	4c0c      	ldr	r4, [pc, #48]	; (402f78 <__libc_init_array+0x44>)
  402f48:	f026 ff7a 	bl	429e40 <_init>
  402f4c:	1ba4      	subs	r4, r4, r6
  402f4e:	10a4      	asrs	r4, r4, #2
  402f50:	2500      	movs	r5, #0
  402f52:	42a5      	cmp	r5, r4
  402f54:	d105      	bne.n	402f62 <__libc_init_array+0x2e>
  402f56:	bd70      	pop	{r4, r5, r6, pc}
  402f58:	f856 3025 	ldr.w	r3, [r6, r5, lsl #2]
  402f5c:	4798      	blx	r3
  402f5e:	3501      	adds	r5, #1
  402f60:	e7ee      	b.n	402f40 <__libc_init_array+0xc>
  402f62:	f856 3025 	ldr.w	r3, [r6, r5, lsl #2]
  402f66:	4798      	blx	r3
  402f68:	3501      	adds	r5, #1
  402f6a:	e7f2      	b.n	402f52 <__libc_init_array+0x1e>
  402f6c:	00429e4c 	.word	0x00429e4c
  402f70:	00429e4c 	.word	0x00429e4c
  402f74:	00429e4c 	.word	0x00429e4c
  402f78:	00429e50 	.word	0x00429e50

00402f7c <malloc>:
  402f7c:	4b02      	ldr	r3, [pc, #8]	; (402f88 <malloc+0xc>)
  402f7e:	4601      	mov	r1, r0
  402f80:	6818      	ldr	r0, [r3, #0]
  402f82:	f000 b803 	b.w	402f8c <_malloc_r>
  402f86:	bf00      	nop
  402f88:	20000404 	.word	0x20000404

00402f8c <_malloc_r>:
  402f8c:	b570      	push	{r4, r5, r6, lr}
  402f8e:	1ccd      	adds	r5, r1, #3
  402f90:	f025 0503 	bic.w	r5, r5, #3
  402f94:	3508      	adds	r5, #8
  402f96:	2d0c      	cmp	r5, #12
  402f98:	bf38      	it	cc
  402f9a:	250c      	movcc	r5, #12
  402f9c:	2d00      	cmp	r5, #0
  402f9e:	4606      	mov	r6, r0
  402fa0:	db01      	blt.n	402fa6 <_malloc_r+0x1a>
  402fa2:	42a9      	cmp	r1, r5
  402fa4:	d903      	bls.n	402fae <_malloc_r+0x22>
  402fa6:	230c      	movs	r3, #12
  402fa8:	6033      	str	r3, [r6, #0]
  402faa:	2000      	movs	r0, #0
  402fac:	bd70      	pop	{r4, r5, r6, pc}
  402fae:	f000 f85b 	bl	403068 <__malloc_lock>
  402fb2:	4a23      	ldr	r2, [pc, #140]	; (403040 <_malloc_r+0xb4>)
  402fb4:	6814      	ldr	r4, [r2, #0]
  402fb6:	4621      	mov	r1, r4
  402fb8:	b991      	cbnz	r1, 402fe0 <_malloc_r+0x54>
  402fba:	4c22      	ldr	r4, [pc, #136]	; (403044 <_malloc_r+0xb8>)
  402fbc:	6823      	ldr	r3, [r4, #0]
  402fbe:	b91b      	cbnz	r3, 402fc8 <_malloc_r+0x3c>
  402fc0:	4630      	mov	r0, r6
  402fc2:	f000 f841 	bl	403048 <_sbrk_r>
  402fc6:	6020      	str	r0, [r4, #0]
  402fc8:	4629      	mov	r1, r5
  402fca:	4630      	mov	r0, r6
  402fcc:	f000 f83c 	bl	403048 <_sbrk_r>
  402fd0:	1c43      	adds	r3, r0, #1
  402fd2:	d126      	bne.n	403022 <_malloc_r+0x96>
  402fd4:	230c      	movs	r3, #12
  402fd6:	6033      	str	r3, [r6, #0]
  402fd8:	4630      	mov	r0, r6
  402fda:	f000 f846 	bl	40306a <__malloc_unlock>
  402fde:	e7e4      	b.n	402faa <_malloc_r+0x1e>
  402fe0:	680b      	ldr	r3, [r1, #0]
  402fe2:	1b5b      	subs	r3, r3, r5
  402fe4:	d41a      	bmi.n	40301c <_malloc_r+0x90>
  402fe6:	2b0b      	cmp	r3, #11
  402fe8:	d90f      	bls.n	40300a <_malloc_r+0x7e>
  402fea:	600b      	str	r3, [r1, #0]
  402fec:	50cd      	str	r5, [r1, r3]
  402fee:	18cc      	adds	r4, r1, r3
  402ff0:	4630      	mov	r0, r6
  402ff2:	f000 f83a 	bl	40306a <__malloc_unlock>
  402ff6:	f104 000b 	add.w	r0, r4, #11
  402ffa:	1d23      	adds	r3, r4, #4
  402ffc:	f020 0007 	bic.w	r0, r0, #7
  403000:	1ac3      	subs	r3, r0, r3
  403002:	d01b      	beq.n	40303c <_malloc_r+0xb0>
  403004:	425a      	negs	r2, r3
  403006:	50e2      	str	r2, [r4, r3]
  403008:	bd70      	pop	{r4, r5, r6, pc}
  40300a:	428c      	cmp	r4, r1
  40300c:	bf0d      	iteet	eq
  40300e:	6863      	ldreq	r3, [r4, #4]
  403010:	684b      	ldrne	r3, [r1, #4]
  403012:	6063      	strne	r3, [r4, #4]
  403014:	6013      	streq	r3, [r2, #0]
  403016:	bf18      	it	ne
  403018:	460c      	movne	r4, r1
  40301a:	e7e9      	b.n	402ff0 <_malloc_r+0x64>
  40301c:	460c      	mov	r4, r1
  40301e:	6849      	ldr	r1, [r1, #4]
  403020:	e7ca      	b.n	402fb8 <_malloc_r+0x2c>
  403022:	1cc4      	adds	r4, r0, #3
  403024:	f024 0403 	bic.w	r4, r4, #3
  403028:	42a0      	cmp	r0, r4
  40302a:	d005      	beq.n	403038 <_malloc_r+0xac>
  40302c:	1a21      	subs	r1, r4, r0
  40302e:	4630      	mov	r0, r6
  403030:	f000 f80a 	bl	403048 <_sbrk_r>
  403034:	3001      	adds	r0, #1
  403036:	d0cd      	beq.n	402fd4 <_malloc_r+0x48>
  403038:	6025      	str	r5, [r4, #0]
  40303a:	e7d9      	b.n	402ff0 <_malloc_r+0x64>
  40303c:	bd70      	pop	{r4, r5, r6, pc}
  40303e:	bf00      	nop
  403040:	2000048c 	.word	0x2000048c
  403044:	20000490 	.word	0x20000490

00403048 <_sbrk_r>:
  403048:	b538      	push	{r3, r4, r5, lr}
  40304a:	4c06      	ldr	r4, [pc, #24]	; (403064 <_sbrk_r+0x1c>)
  40304c:	2300      	movs	r3, #0
  40304e:	4605      	mov	r5, r0
  403050:	4608      	mov	r0, r1
  403052:	6023      	str	r3, [r4, #0]
  403054:	f7fd f96a 	bl	40032c <_sbrk>
  403058:	1c43      	adds	r3, r0, #1
  40305a:	d102      	bne.n	403062 <_sbrk_r+0x1a>
  40305c:	6823      	ldr	r3, [r4, #0]
  40305e:	b103      	cbz	r3, 403062 <_sbrk_r+0x1a>
  403060:	602b      	str	r3, [r5, #0]
  403062:	bd38      	pop	{r3, r4, r5, pc}
  403064:	20000548 	.word	0x20000548

00403068 <__malloc_lock>:
  403068:	4770      	bx	lr

0040306a <__malloc_unlock>:
  40306a:	4770      	bx	lr

0040306c <ET011TT2_KWVCOM_GU_LUT>:
	...
  403078:	0000 0c00 0000 0000 0000 0000 0000 0000     ................
  403088:	0000 0000                                   ....

0040308c <ET011TT2_KW_GU_LUT>:
  40308c:	0001 8000 0001 8000 0001 8000 0001 8000     ................
  40309c:	0001 8000 0001 8000 0001 8000 0001 8000     ................
  4030ac:	0001 8000 0001 8000 0002 4000 0002 4000     ...........@...@
  4030bc:	0002 4000 0002 4000 0002 4000 0002 4000     ...@...@...@...@
  4030cc:	0002 4000 0002 4000 0002 4000 0002 4000     ...@...@...@...@
  4030dc:	0002 4000 0002 4000 0002 4000 0002 4000     ...@...@...@...@
  4030ec:	0002 4000 0002 4000 0002 4000 0002 4000     ...@...@...@...@
  4030fc:	0002 4000 0002 4000 0002 4000 0002 4000     ...@...@...@...@
  40310c:	0002 4000 0002 4000 0002 4000 0002 4000     ...@...@...@...@
  40311c:	0002 4000 0002 4000 0002 4000 0002 4000     ...@...@...@...@
  40312c:	0002 4000 0002 4000 0002 4000 0002 4000     ...@...@...@...@
  40313c:	0002 4000 0002 4000 0002 4000 0002 4000     ...@...@...@...@
  40314c:	0002 4000 0002 4000 0002 4000 0002 4000     ...@...@...@...@
  40315c:	0002 4000 0002 4000 0002 4000 0002 4000     ...@...@...@...@
  40316c:	0002 4000 0002 4000 0002 4000 0002 4000     ...@...@...@...@
  40317c:	0000 0000 ffff ffff 0000 0000 0000 0000     ................
	...

0040328c <ET011TT2_FT_LUT>:
	...

0040330c <ET011TT2_KWVCOM_A2_LUT>:
	...
  403314:	00c0 0000 0000 0000 0000 0000 0000 0000     ................
	...

0040332c <ET011TT2_KW_A2_LUT>:
  40332c:	a9a9 a9a9 a9a9 a9a9 a9a9 a9a9 a9a9 a9a9     ................
  40333c:	a9a9 a9a9 a9a9 a9a9 a9a9 a1a9 a9a9 a129     ..............).
  40334c:	a9a8 8121 a9a8 8105 a1a8 0505 80a8 1505     ..!.............
  40335c:	0088 5415 0480 5404 5482 5414 5642 5414     ...T...T.T.TBV.T
  40336c:	5646 5456 5646 5456 5656 5656 5656 5656     FVVTFVVTVVVVVVVV
  40337c:	5656 5252 5656 5252 5656 5252 5256 5252     VVRRVVRRVVRRVRRR
  40338c:	5256 5252 5252 4252 5252 4252 4a5a 4a4a     VRRRRRRBRRRBZJJJ
  40339c:	6a6a 6a6a 6a6a 6a6a 0000 0000 ffff ffff     jjjjjjjj........
	...

0040352c <ED037TC1_A2_LUT>:
  40352c:	062a 0015 0000 0000 0000 0628 0014 0000     *.........(.....
  40353c:	0000 0000 0620 0010 0000 0000 0000 0614     .... ...........
  40354c:	0028 0000 0000 0000 0000 0000 0000 0000     (...............
  40355c:	0000 0200 0a02 0000 0800 0208 0200 0a02     ................
	...
  403590:	2222 2222 0022 0000                         """""...

00403598 <ED037TC1_DU_LUT>:
	...
  4035a0:	0000 2a01 0000 0000 0000 0000 550a 0000     ...*.........U..
	...
  4035cc:	0505 0500 0503 0005 0000 0000 0000 0000     ................
	...
  4035fc:	2222 2222 0022 0000                         """""...

00403604 <SSD1608_A45_IU_LUT>:
  403604:	1824 1818 1800 1018 0008 0000 0000 0000     $...............
  403614:	0000 0000 1141 1111 0001 0000 0000 0000     ....A...........

00403624 <SSD1608_A05_IU_LUT>:
  403624:	1810 2818 1818 1818 0008 0000 0000 0000     ...(............
  403634:	0000 0000 1233 1322 0011 0000 0000 0000     ....3.".........

00403644 <ED028TC1_WF_LUT>:
  403644:	042e 0011 0000 0000 0000 0000 0000 0000     ................
  403654:	0010 0000 0100 0000 0100 0000 0100 1004     ................
  403664:	0100 0044 0000 0040 0000 0000 0000 0040     ..D...@.......@.
  403674:	0000 0000 0100 1040 0500 1040 0000 0000     ......@...@.....
  403684:	1400 0051 0000 0000 0000 0000 0010 0000     ..Q.............
  403694:	0010 0000 0100 0040 1100 0040 0100 1004     ......@...@.....
  4036a4:	0100 0044 0000 0040 0000 0000 0100 1044     ..D...@.......D.
  4036b4:	0100 0000 0100 1040 0500 1040 0100 0000     ......@...@.....
  4036c4:	1500 0051 0000 0010 0010 0000 0010 0000     ..Q.............
  4036d4:	0010 0000 0100 0040 1100 1040 0100 1004     ......@...@.....
  4036e4:	1100 0044 0100 0040 0000 1040 4100 1044     ..D...@...@..AD.
  4036f4:	0100 0000 1500 1044 4500 1044 0100 0004     ......D..ED.....
  403704:	1500 0051 0000 0010 0010 0000 0010 0000     ..Q.............
  403714:	0010 0000 0100 0044 1100 1040 0100 1004     ......D...@.....
  403724:	1100 0044 4100 0040 0000 1040 4500 1044     ..D..A@...@..ED.
  403734:	0100 1040 1500 1044 4500 1044 0500 1044     ..@...D..ED...D.
  403744:	2500 0051 0004 0010 0010 0000 0010 0040     .%Q...........@.
  403754:	0010 0040 0100 1044 1500 1040 0500 1004     ..@...D...@.....
  403764:	1100 1044 4100 0040 1100 1040 4500 1044     ..D..A@...@..ED.
  403774:	0100 1044 1500 1044 4500 1044 0500 1044     ..D...D..ED...D.
  403784:	2500 0051 1104 0054 0010 0040 0110 0040     .%Q...T...@...@.
  403794:	4110 0044 0100 1044 5500 1040 4504 1004     .AD...D..U@..E..
  4037a4:	5500 1044 4500 0044 1100 1040 4500 1044     .UD..ED...@..ED.
  4037b4:	0100 1044 1500 1044 4500 1044 0500 1054     ..D...D..ED...T.
  4037c4:	2500 0051 1104 0054 0110 0040 0110 0040     .%Q...T...@...@.
  4037d4:	4110 0044 0500 1044 5500 1444 4504 1054     .AD...D..UD..ET.
  4037e4:	5500 1044 4500 1044 1100 1044 4500 1044     .UD..ED...D..ED.
  4037f4:	0500 1044 5500 1454 4500 1454 0500 1054     ..D..UT..ET...T.
  403804:	2500 0051 5504 1054 0114 0050 5110 1044     .%Q..UT...P..QD.
  403814:	4114 1044 4500 1054 5504 1444 4504 1054     .AD..ET..UD..ET.
  403824:	5500 1044 4500 1044 5500 1044 4500 1454     .UD..ED..UD..ET.
  403834:	1500 1444 5500 1454 4500 1455 0500 1454     ..D..UT..EU...T.
  403844:	2900 0051 5504 1054 0114 1050 5110 1054     .)Q..UT...P..QT.
  403854:	4114 1044 5500 1054 5504 1444 4504 1454     .AD..UT..UD..ET.
  403864:	5500 1444 4510 1454 5500 1044 4500 1454     .UD..ET..UD..ET.
  403874:	1500 1454 5500 1454 4500 1455 0500 1454     ..T..UT..EU...T.
  403884:	2900 0051 5514 1054 0114 1050 5510 1454     .)Q..UT...P..UT.
  403894:	4114 1044 5510 1054 5504 1454 4504 1454     .AD..UT..UT..ET.
  4038a4:	5500 1444 4510 1454 5504 1054 4500 1454     .UD..ET..UT..ET.
  4038b4:	1500 1454 5500 1454 5500 1455 0500 1454     ..T..UT..UU...T.
  4038c4:	2900 00a1 5514 1054 0114 1450 5510 1454     .)...UT...P..UT.
  4038d4:	4114 1054 5514 1454 5504 1454 4514 1454     .AT..UT..UT..ET.
  4038e4:	5510 1444 4510 1454 5504 1454 4500 1454     .UD..ET..UT..ET.
  4038f4:	1500 1454 5500 1455 5511 1455 0511 1454     ..T..UU..UU...T.
  403904:	2a00 00a2 5518 1454 0114 1450 5510 1454     .*...UT...P..UT.
  403914:	4114 1454 5514 1454 5504 1454 4514 1454     .AT..UT..UT..ET.
  403924:	5510 1454 4510 1454 5504 1454 4500 1454     .UT..ET..UT..ET.
  403934:	1511 1454 5501 1455 5511 1555 0511 1455     ..T..UU..UU...U.
  403944:	6a10 00a2 5518 1455 4514 1454 5510 1454     .j...UU..ET..UT.
  403954:	4114 1454 5514 1454 5514 1455 4515 1455     .AT..UT..UU..EU.
  403964:	5511 1454 4511 1454 5515 1454 4501 1454     .UT..ET..UT..ET.
  403974:	1511 1454 5501 1455 5511 1555 0511 1455     ..T..UU..UU...U.
  403984:	aa10 00a6 5518 1455 4515 1454 5510 1454     .....UU..ET..UT.
  403994:	4514 1454 5514 1454 5514 1555 4515 1555     .ET..UT..UU..EU.
  4039a4:	5515 1454 4515 1454 5515 1454 4501 1454     .UT..ET..UT..ET.
  4039b4:	1511 1454 5511 1455 5511 1555 0511 1455     ..T..UU..UU...U.
  4039c4:	aa11 10a6 6518 1555 4515 1455 5514 1454     .....eU..EU..UT.
  4039d4:	4514 1454 5514 1454 5515 1555 4515 1555     .ET..UT..UU..EU.
  4039e4:	6515 1454 4515 1454 5515 1454 5511 1455     .eT..ET..UT..UU.
  4039f4:	5511 1454 5511 1455 5511 1555 0511 1455     .UT..UU..UU...U.
  403a04:	aa11 10a6 a518 55a9 4555 1455 5514 1454     .......UUEU..UT.
  403a14:	8515 1455 5515 1599 6515 1555 4515 1559     ..U..U...eU..EY.
  403a24:	6515 1459 8515 1555 5515 1455 9511 1455     .eY...U..UU...U.
  403a34:	5511 1454 5511 1455 5511 1555 0551 5555     .UT..UU..UU.Q.UU
  403a44:	aa51 10aa a518 55a9 5559 1555 a515 1555     Q......UYUU...U.
  403a54:	8555 1499 5615 1599 6515 5555 5515 5559     U....V...eUU.UYU
  403a64:	6515 5599 9515 1595 6515 1495 9511 1455     .e.U.....e....U.
  403a74:	5611 1454 6511 5455 9551 5595 1551 5555     .VT..eUTQ..UQ.UU
  403a84:	aa51 10aa aa28 55a9 5569 1595 a525 1595     Q...(..UiU..%...
  403a94:	8569 1499 9615 1599 aa15 5595 9a15 5559     i..........U..YU
  403aa4:	a655 5599 9515 5599 a515 1495 9511 1499     U..U...U........
  403ab4:	6611 1495 6911 5599 9951 5595 1551 5559     .f...i.UQ..UQ.YU
  403ac4:	aa55 54aa aa28 55a9 9669 55a5 a625 5599     U..T(..Ui..U%..U
  403ad4:	8669 5499 aa19 5599 aa15 5595 9a55 6599     i..T...U...UU..e
  403ae4:	aa55 5599 9a15 5599 a555 1499 9615 1499     U..U...UU.......
  403af4:	6651 1499 aa11 5599 aa55 5595 1551 5599     Qf.....UU..UQ..U
  403b04:	aa55 64aa aa28 65a9 9669 55a5 aa25 55a9     U..d(..ei..U%..U
  403b14:	9669 5499 aa19 65a9 aa19 6595 9a59 6599     i..T...e...eY..e
  403b24:	aa55 5599 9a15 5599 aa55 2499 9a15 2599     U..U...UU..$...%
  403b34:	6a55 1499 aa11 6599 aa55 65a9 1a51 5599     Uj.....eU..eQ..U
  403b44:	aa55 a5aa aa28 65a9 aa69 65a5 aa69 65a9     U...(..ei..ei..e
  403b54:	9669 64a9 aa59 65a9 aa59 65a9 9a59 65a9     i..dY..eY..eY..e
  403b64:	aa55 6599 9a55 5599 aa55 6499 9a55 6599     U..eU..UU..dU..e
  403b74:	6a55 2499 aa15 6599 aa55 65a9 1a51 55a9     Uj.$...eU..eQ..U
  403b84:	aa55 a5aa aa68 a5aa aa69 65a9 aa69 65a9     U...h...i..ei..e
  403b94:	9a69 65a9 aa59 65a9 aa59 65a9 9a59 65a9     i..eY..eY..eY..e
  403ba4:	aa55 65a9 9a55 65a9 aa59 64a9 aa55 65a9     U..eU..eY..dU..e
  403bb4:	aa55 24a9 aa15 65a9 aa55 65a9 1a51 65a9     U..$...eU..eQ..e
  403bc4:	aa55 aaaa aa68 aaaa aa68 69aa aa69 69a9     U...h...h..ii..i
  403bd4:	9a69 65a9 aa69 65a9 aa59 69aa aa59 65aa     i..ei..eY..iY..e
  403be4:	aa55 65a9 aa55 65a9 aa59 65a9 aa55 65a9     U..eU..eY..eU..e
  403bf4:	aa55 64a9 aa55 65a9 aa55 65aa 2a55 65a9     U..dU..eU..eU*.e
  403c04:	aa55 aaaa aaa8 aaaa aaa8 6aaa aa69 69a9     U..........ji..i
  403c14:	aa69 69aa aa69 69a9 aa59 69aa aa59 69aa     i..ii..iY..iY..i
  403c24:	aa59 69a9 aa69 69a9 aa59 65aa aa55 69a9     Y..ii..iY..eU..i
  403c34:	aa55 69a9 aa55 69aa aa55 69aa 2a55 65aa     U..iU..iU..iU*.e
  403c44:	aa55 aaaa aaa8 aaaa aaaa aaaa aa68 aaaa     U...........h...
  403c54:	aa68 a9aa aa68 6aaa aa68 aaaa aa68 6aaa     h...h..jh...h..j
  403c64:	aa68 69a9 aa68 69aa aa58 69aa aa54 69aa     h..ih..iX..iT..i
  403c74:	aa54 69a9 aa54 69aa aa54 6aaa 2a54 69aa     T..iT..iT..jT*.i
  403c84:	aa55 aaaa aaa8 aaaa aaaa aaaa aa68 aaaa     U...........h...
  403c94:	aaa8 a9aa aa68 aaaa aa68 aaaa aa68 aaaa     ....h...h...h...
  403ca4:	aa68 a9aa aa68 aaaa aa68 69aa aa58 69aa     h...h...h..iX..i
  403cb4:	aa64 69aa aa54 a9aa aa64 aaaa 2a64 69aa     d..iT...d...d*.i
  403cc4:	9a59 aaaa aaaa aaaa aaaa aaaa aa6a aaaa     Y...........j...
  403cd4:	aaaa aaaa aa6a aaaa aa6a aaaa aa6a aaaa     ....j...j...j...
  403ce4:	aa6a aaaa aa6a aaaa aa6a 69aa aa6a 69aa     j...j...j..ij..i
  403cf4:	aa6a 69aa aa6a a9aa aa6a aaaa 2aa6 aaaa     j..ij...j....*..
  403d04:	aa68 aaaa aaaa aaaa aaaa aaaa aaaa aaaa     h...............
  403d14:	aaaa aaaa aaaa aaaa aa6a aaaa aa6a aaaa     ........j...j...
  403d24:	aaaa aaaa aa6a aaaa aaaa a9aa aa6a aaaa     ....j.......j...
  403d34:	aaaa 69aa aa6a aaaa aaaa aaaa 2aa6 aaaa     ...ij........*..
  403d44:	4aa8 aaaa aaaa aaaa aaaa aaaa aaaa aaaa     .J..............
  403d54:	aaaa aaaa aaaa aaaa aaaa aaaa aaaa aaaa     ................
  403d64:	aaaa aaaa aa6a aaaa aaaa aaaa aaaa aaaa     ....j...........
  403d74:	aaaa a9aa aa6a aaaa aaaa aaaa 2aa6 aaaa     ....j........*..
  403d84:	4aaa aaaa aaaa aaaa aaaa aaaa aaaa aaaa     .J..............
  403d94:	aaaa aaaa aaaa aaaa aaaa aaaa aaaa aaaa     ................
  403da4:	aaaa aaaa aaaa aaaa aaaa aaaa aaaa aaaa     ................
  403db4:	aaaa aaaa aa6a aaaa 9aaa aaaa 1aaa aaaa     ....j...........
  403dc4:	4aaa aaaa 6aaa aaaa 6aaa aaaa 6aaa aaaa     .J...j...j...j..
  403dd4:	6aaa aaaa aaaa aaaa aaaa aaaa aaaa aaaa     .j..............
  403de4:	9aaa aaaa 6aaa aaaa 6aaa aaaa 6aaa aaaa     .....j...j...j..
  403df4:	5aaa aaaa aaaa aaaa aaaa aaaa 2aaa aaaa     .Z...........*..
  403e04:	4aaa aaaa 6aaa aaaa 6aaa aaaa 6aaa aaaa     .J...j...j...j..
  403e14:	6aaa aaaa 6aaa aaaa 6aaa aaaa 6aaa aaaa     .j...j...j...j..
  403e24:	6aaa aaaa 6aaa aaaa 6aaa aaaa 5aaa aaaa     .j...j...j...Z..
  403e34:	6aaa aaaa 6aaa aaaa 4aaa aaaa 4aaa aaaa     .j...j...J...J..
  403e44:	4aaa aaaa 5aaa aaaa 5aaa aaaa 5aaa aaaa     .J...Z...Z...Z..
  403e54:	6aaa aaaa 6aa6 aaaa 6aaa aaaa 5aaa aaaa     .j...j...j...Z..
  403e64:	4aaa aaaa 5aaa aaaa 5aaa aaaa 6aaa aaaa     .J...Z...Z...j..
  403e74:	49aa aaaa 5aaa aaaa 4aaa aa9a 4aaa aaaa     .I...Z...J...J..
  403e84:	52aa aaaa 6aa6 aa2a 6aa6 aaaa 6aa6 aaaa     .R...j*..j...j..
  403e94:	6aa6 aaaa 6aaa aaa2 52aa aa9a 62aa aa2a     .j...j...R...b*.
  403ea4:	4aaa aa9a 6aaa aaa2 6aaa aa2a 4aaa aaaa     .J...j...j*..J..
  403eb4:	4aaa aa2a 62aa aaaa 4aaa aa2a 4aaa aa22     .J*..b...J*..J".
  403ec4:	12a6 aaaa 4aaa 6a22 4aaa aaaa 4aaa aaaa     .....J"j.J...J..
  403ed4:	5aaa aa22 5aa2 aa22 62aa 6aaa 42aa aa22     .Z"..Z"..b.j.B".
  403ee4:	42aa aaa2 42aa aaa2 42aa aa20 4aaa aaaa     .B...B...B ..J..
  403ef4:	40aa aa2a 42a6 6aa2 4aaa 6a0a 4aaa aa12     .@*..B.j.J.j.J..
  403f04:	15aa aa52 42a2 aa12 42a2 aa9a 42a2 6a9a     ..R..B...B...B.j
  403f14:	62a2 6a12 62a2 aa12 42aa aa88 42aa aa20     .b.j.b...B...B .
  403f24:	42aa aa02 42aa 6a22 42aa aa10 4aa6 6aaa     .B...B"j.B...J.j
  403f34:	40a6 6a10 42aa aa22 42a6 aa0a 42aa aa20     .@.j.B"..B...B .
  403f44:	16a2 6a62 11a2 2a62 11a2 696a 11a2 aa62     ..bj..b*..ji..b.
  403f54:	11a2 a962 51a2 6a62 51a6 2a48 51a6 6a50     ..b..Qbj.QH*.QPj
  403f64:	51a6 6a42 51a6 aa50 51a6 6960 59aa a950     .QBj.QP..Q`i.YP.
  403f74:	50aa a960 51a2 2a52 51aa 2a4a 51aa 6940     .P`..QR*.QJ*.Q@i
  403f84:	15a2 aa52 16a2 2942 16a2 aa48 16a2 2942     ..R...B)..H...B)
  403f94:	16a2 2a40 16a2 a942 16aa 2948 16aa a960     ..@*..B...H)..`.
  403fa4:	16aa aa42 16aa 2960 16aa aa40 16a2 2a60     ..B...`)..@...`*
  403fb4:	1422 2a40 56a2 2960 56a2 294a 5626 aa40     ".@*.V`).VJ)&V@.
  403fc4:	55a2 1955 55a2 1a54 5522 1854 55a2 1a54     .UU..UT."UT..UT.
  403fd4:	55a2 1854 55a2 1a54 55a2 1a54 55a2 1a54     .UT..UT..UT..UT.
  403fe4:	55a2 1954 55a2 1a54 5522 1854 5522 1854     .UT..UT."UT."UT.
  403ff4:	5522 1854 55a2 1a54 5522 1a54 552a 1854     "UT..UT."UT.*UT.
  404004:	5522 2a55 5526 2855 5526 2855 55a6 2855     "UU*&UU(&UU(.UU(
  404014:	5526 2855 5526 2855 55a6 2855 55a6 2855     &UU(&UU(.UU(.UU(
  404024:	5526 2a55 55a6 2855 5526 2855 5526 2855     &UU*.UU(&UU(&UU(
  404034:	5526 2855 5526 2855 5526 2855 5526 2855     &UU(&UU(&UU(&UU(
  404044:	5526 5455 5506 5455 5506 5455 5506 5455     &UUT.UUT.UUT.UUT
  404054:	5506 5455 5526 5455 5526 5455 5526 5455     .UUT&UUT&UUT&UUT
  404064:	5526 5455 5526 5455 5526 5455 5526 5455     &UUT&UUT&UUT&UUT
  404074:	5526 5455 5526 5455 5526 5455 5526 5455     &UUT&UUT&UUT&UUT
  404084:	5526 5555 5554 5555 5554 5555 5554 5555     &UUUTUUUTUUUTUUU
  404094:	5554 5555 5554 5555 5554 5555 5554 5555     TUUUTUUUTUUUTUUU
  4040a4:	5554 5555 5554 5555 5554 5555 5554 5555     TUUUTUUUTUUUTUUU
  4040b4:	5554 5555 5554 5555 5554 5555 5554 5555     TUUUTUUUTUUUTUUU
  4040c4:	5554 5555 5554 5555 5554 5555 5554 5555     TUUUTUUUTUUUTUUU
  4040d4:	5554 5555 5554 5555 5554 5555 5554 5555     TUUUTUUUTUUUTUUU
  4040e4:	5554 5555 5554 5555 5554 5555 5554 5555     TUUUTUUUTUUUTUUU
  4040f4:	5554 5555 5554 5555 5554 5555 5554 5555     TUUUTUUUTUUUTUUU
  404104:	5454 aaaa 54a8 aaaa 54a8 aaaa 54a8 aaaa     TT...T...T...T..
  404114:	54a8 aaaa 54a8 aaaa 54a8 aaaa 54a8 aaaa     .T...T...T...T..
  404124:	54a8 aaaa 54a8 aaaa 54a8 aaaa 54a8 aaaa     .T...T...T...T..
  404134:	54a8 aaaa 54a8 aaaa 54a8 aaaa 54a8 aaaa     .T...T...T...T..
  404144:	50a8 0000 5008 0000 5008 0000 5008 0000     .P...P...P...P..
  404154:	5008 0000 5008 0000 5008 0000 5008 0000     .P...P...P...P..
  404164:	5008 0000 5008 0000 5008 0000 5008 0000     .P...P...P...P..
  404174:	5008 0000 5008 0000 5008 0000 5008 0000     .P...P...P...P..
  404184:	4008 0000 4008 0000 4008 0000 4008 0000     .@...@...@...@..
  404194:	4008 0000 4008 0000 4008 0000 4008 0000     .@...@...@...@..
  4041a4:	4008 0000 4008 0000 4008 0000 4008 0000     .@...@...@...@..
  4041b4:	4008 0000 4008 0000 4008 0000 4008 0000     .@...@...@...@..
  4041c4:	0008 0000 0000 0000 0000 0000 0000 0000     ................
	...

00404208 <eink_GSephElecLogo_2bGrey>:
	...
  40425c:	0000 ff03 ffff ffff ffff 80ff 0000 0000     ................
	...
  404278:	aa1e aaaa aaaa aaaa f0aa 0000 0000 0000     ................
	...
  404290:	0000 aa3a aaaa aaaa aaaa a8aa 0000 0000     ..:.............
	...
  4042ac:	aa7a aaaa aaaa aaaa acaa 0000 0000 0000     z...............
	...
  4042c4:	0000 aa7a aaaa aaaa aaaa acaa 0000 0000     ..z.............
	...
  4042e0:	aa7a aaaa aaaa aaaa acaa 0000 0000 0000     z...............
	...
  4042f8:	0000 aa7a aaaa aaaa aaaa acaa 0000 0000     ..z.............
	...
  404314:	aa7a aaaa aaaa aaaa acaa 0000 0000 0000     z...............
	...
  40432c:	0000 aa7a aaaa aaaa aaaa acaa 0000 0000     ..z.............
	...
  404348:	aa7a aaaa aaaa aaaa acaa 0000 0000 0000     z...............
	...
  404360:	0000 aa7a aaaa aaaa aaaa acaa 0000 0000     ..z.............
	...
  40437c:	aa7a aaaa aaaa aaaa acaa 0000 0000 0000     z...............
	...
  404394:	0000 aa7a aaaa aaaa aaaa acaa 0000 0000     ..z.............
	...
  4043b0:	aa7a aaaa aaaa aaaa acaa 0000 0000 0000     z...............
  4043c0:	0000 0100 5555 5555 5555 aa7a aaaa aaaa     ....UUUUUUz.....
  4043d0:	aaaa adaa 5555 5555 5555 0040 1600 ffff     ....UUUUUU@.....
  4043e0:	ffff ffff aafa aaaa aaaa aaaa afaa ffff     ................
  4043f0:	ffff ffff 0094 6f00 ffff ffff aaea aaaa     .......o........
  404400:	aaaa aaaa aaaa aaaa aaaa aaaa afaa 00f9     ................
  404410:	ff01 ffff feff aaaa aaaa aaaa aaaa aaaa     ................
  404420:	aaaa aaaa aaaa afaa 40ff ff07 ffff faff     .........@......
  404430:	aaaa aaaa aaaa aaaa aaaa aaaa aaaa aaaa     ................
  404440:	afaa d0ff ff0b ffff eaff aaaa aaaa aaaa     ................
  404450:	aaaa aaaa aaaa aaaa aaaa afaa e0ff ff0f     ................
  404460:	ffff aaff aaaa aaaa aaaa aaaa aaaa aaaa     ................
  404470:	aaaa aaaa afaa f0ff ff1f ffff aafe aaaa     ................
  404480:	aaaa aaaa aaaa aaaa aaaa aaaa aaaa afaa     ................
  404490:	f4ff ff1f ffff aafa aaaa aaaa aaaa aaaa     ................
  4044a0:	aaaa aaaa aaaa aaaa afaa f8ff ff2f ffff     ............/...
  4044b0:	aaea aaaa aaaa aaaa aaaa aaaa aaaa aaaa     ................
  4044c0:	aaaa afaa f8ff ff2f ffff aaaa aaaa aaaa     ....../.........
  4044d0:	aaaa aaaa aaaa aaaa aaaa aaaa afaa f8ff     ................
  4044e0:	ff2f feff aaaa aaaa aaaa aaaa aaaa aaaa     /...............
  4044f0:	aaaa aaaa aaaa afaa f8ff ff2f faff aaaa     ........../.....
  404500:	aaaa aaaa aaaa aaaa aaaa aaaa aaaa aaaa     ................
  404510:	afaa f8ff ff2f eaff aaaa aaaa aaaa aaaa     ..../...........
  404520:	aaaa aaaa aaaa aaaa aaaa afaa f8ff ff2f     ............../.
  404530:	eaff aaaa aaaa aaaa aaaa aaaa aaaa aaaa     ................
  404540:	aaaa aaaa afaa f8ff ff2f aaff aaaa aaaa     ......../.......
  404550:	aaaa 55aa 5555 5555 5555 5655 aaaa afaa     ...UUUUUUUUV....
  404560:	f8ff ff2f aaff aaaa aaaa aaaa 00aa 0000     ../.............
  404570:	0000 0000 0500 aaaa afaa f8ff ff2f aafe     ............/...
  404580:	aaaa aaaa aaaa 00aa 0000 0000 0000 0500     ................
  404590:	aaaa afaa f8ff ff2f aafe aaaa aaaa aaaa     ....../.........
  4045a0:	00aa 0000 0000 0000 0500 aaaa afaa f8ff     ................
  4045b0:	ff2f aafe aaaa aaaa aaaa 00aa 0000 0000     /...............
  4045c0:	0000 0500 aaaa afaa f8ff ff2f aafe aaaa     ........../.....
  4045d0:	aaaa aaaa 00aa 0000 0000 0000 0500 aaaa     ................
  4045e0:	afaa f8ff ff2f aafe aaaa aaaa aaaa 00aa     ..../...........
  4045f0:	0000 0000 0000 0500 aaaa afaa f8ff ff2f     ............../.
  404600:	aafe aaaa aaaa aaaa 00aa 0000 0000 0000     ................
  404610:	0500 aaaa afaa f8ff ff2f aafe aaaa aaaa     ......../.......
  404620:	aaaa 00aa 0000 0000 0000 0500 aaaa afaa     ................
  404630:	f8ff ff2f aafe aaaa aaaa aaaa 00aa 0000     ../.............
  404640:	5501 0000 0500 aaaa afaa f8ff ff2f aafe     .U........../...
  404650:	aaaa aaaa aaaa 00aa 0100 fe5a 0094 0500     ..........Z.....
  404660:	aaaa afaa f8ff ff2f aafe aaaa aaaa aaaa     ....../.........
  404670:	00aa 1600 ffff 80fe 0500 aaaa afaa f8ff     ................
  404680:	ff2f aafe aaaa aaaa aaaa 00aa 6f00 ffff     /............o..
  404690:	d4ff 0500 aaaa afaa f8ff ff2f aafe aaaa     ........../.....
  4046a0:	aaaa aaaa 00aa bf01 ffff fdff 0500 aaaa     ................
  4046b0:	afaa f8ff ff2f aafe aaaa aaaa aaaa 00aa     ..../...........
  4046c0:	ff07 ffff ffff 0540 aaaa afaa f8ff ff2f     ......@......./.
  4046d0:	aafe aaaa aaaa aaaa 00aa ff1f ffff ffff     ................
  4046e0:	05d0 aaaa afaa f8ff ff2f aafe aaaa aaaa     ......../.......
  4046f0:	aaaa 00aa ff6f ffff ffff 05f4 aaaa afaa     ....o...........
  404700:	f8ff ff2f aafe aaaa aaaa aaaa 01aa ffbf     ../.............
  404710:	ffff ffff 05f8 aaaa afaa f8ff ff2f aafe     ............/...
  404720:	aaaa aaaa aaaa 01aa ffff ffff ffff 05fd     ................
  404730:	aaaa afaa f8ff ff2f aafe aaaa aaaa aaaa     ....../.........
  404740:	06aa ffff ffff ffff 05ff aaaa afaa f8ff     ................
  404750:	ff2f aafe aaaa aaaa aaaa 06aa ffff ffff     /...............
  404760:	ffff 45ff aaaa afaa f8ff ff2f aafe aaaa     ...E....../.....
  404770:	aaaa aaaa 07aa ffff ffff ffff 85ff aaaa     ................
  404780:	afaa f8ff ff2f aafe aaaa aaaa aaaa 1baa     ..../...........
  404790:	ffff ffff ffff c5ff aaaa afaa f8ff ff2f     ............../.
  4047a0:	aafe aaaa aaaa aaaa 1baa ffff ffff ffeb     ................
  4047b0:	c5ff aaaa afaa f8ff ff2f aafe aaaa abaa     ......../.......
  4047c0:	aafa 1baa ffff f9ff 7f55 c5ff aaaa afaa     ........U.......
  4047d0:	f8ff ff2f aafe aaaa ffbf aafe 1baa ffff     ../.............
  4047e0:	e4ff 1f00 c5ff aaaa afaa f8ff ff2f aafe     ............/...
  4047f0:	ffab ffff aafa 1baa ffff 90ff 0700 c5ff     ................
  404800:	aaaa afaa f8ff ff2f aafe ffaf aaff aaaa     ....../.........
  404810:	1baa ffff 80ff 0100 c5ff aaaa afaa f8ff     ................
  404820:	ff2f aafe feaf aabe aaaa 17aa ffff 40ff     /..............@
  404830:	0000 85ff aaaa afaa f8ff ff2f aafe aaaa     ........../.....
  404840:	aabe aaaa 06aa ffff 40ff 0000 45ff aaaa     .........@...E..
  404850:	afaa f8ff ff2f aafe aaaa aabe aaaa 06aa     ..../...........
  404860:	ffff 40ff 0000 05ff aaaa afaa f8ff ff2f     ...@........../.
  404870:	aafe aaaa aafe aaaa 01aa ffff 40ff 0200     .............@..
  404880:	05fe aaaa afaa f8ff ff2f aafe aaaa aafe     ......../.......
  404890:	aaaa 01aa ffbf d0ff 0300 05fc aaaa afaa     ................
  4048a0:	f8ff ff2f aafe aaaa aafe aaaa 00aa ff7f     ../.............
  4048b0:	e4ff 0f00 05f4 aaaa afaa f8ff ff2f aafe     ............/...
  4048c0:	aaaa aafe aaaa 00aa ff1f fdff 7f00 05e0     ................
  4048d0:	aaaa afaa f8ff ff2f aafe aaaa aafe aaaa     ....../.........
  4048e0:	00aa ff1b ffff ffff 05c0 aaaa afaa f8ff     ................
  4048f0:	ff2f aafe aaaa aafe aaaa 00aa ff06 ffff     /...............
  404900:	ffff 0500 aaaa afaa f8ff ff2f aafe aaaa     ........../.....
  404910:	aafe aaaa 00aa 7f00 ffff f8ff 0500 aaaa     ................
  404920:	afaa f8ff ff2f aafe aaaa aafa aaaa 00aa     ..../...........
  404930:	1b00 ffff c0ff 0500 aaaa afaa f8ff ff2f     ............../.
  404940:	aafe aaaa aafa aaaa 00aa 0100 ffbf 40f9     ...............@
  404950:	0500 aaaa afaa f8ff ff2f aafe aaaa aafa     ......../.......
  404960:	aaaa 00aa 0000 5505 0050 0500 aaaa afaa     .......UP.......
  404970:	f8ff ff2f aafe aaaa aafa aaaa 00aa 0000     ../.............
  404980:	0000 0000 0500 aaaa afaa f8ff ff2f aafe     ............/...
  404990:	abaa aafa aaaa 00aa 0000 0000 0000 0500     ................
  4049a0:	aaaa afaa f8ff ff2f aafe abaa aafa aaaa     ....../.........
  4049b0:	00aa 0000 0000 0000 0500 aaaa afaa f8ff     ................
  4049c0:	ff2f aafe abaa aafa aaaa 00aa 0000 0000     /...............
  4049d0:	0000 0500 aaaa afaa f8ff ff2f aafe abaa     ........../.....
  4049e0:	aafa aaaa 00aa 0000 0000 0000 0500 aaaa     ................
  4049f0:	afaa f8ff ff2f aafe abaa aafa aaaa 00aa     ..../...........
  404a00:	0000 0000 0000 0500 aaaa afaa f8ff ff2f     ............../.
  404a10:	aafe abaa aafa aaaa 00aa 0000 0000 0000     ................
  404a20:	0500 aaaa afaa f8ff ff2f aafe abaa aafa     ......../.......
  404a30:	aaaa 00aa 0000 0000 0000 0500 aaaa afaa     ................
  404a40:	f8ff ff2f aafe abaa aafa aaaa 00aa 0000     ../.............
  404a50:	0000 0000 0500 aaaa afaa f8ff ff2f aafe     ............/...
  404a60:	abaa aafa aaaa 00aa 0000 0000 0000 0500     ................
  404a70:	aaaa afaa f8ff ff2f aafe abaa aafa aaaa     ....../.........
  404a80:	00aa 0000 0000 0000 0500 aaaa afaa f8ff     ................
  404a90:	ff2f aafe abaa aafa aaaa 00aa 0000 0000     /...............
  404aa0:	0000 0500 aaaa afaa f8ff ff2f aafe abaa     ........../.....
  404ab0:	aafa aaaa 00aa 0000 0000 0000 0500 aaaa     ................
  404ac0:	afaa f8ff ff2f aafe aaaa aafa aaaa 00aa     ..../...........
  404ad0:	0000 5405 0000 0500 aaaa afaa f8ff ff2f     ...T........../.
  404ae0:	aafe aaaa aafa aaaa 00aa 0100 ffbf 40f9     ...............@
  404af0:	0500 aaaa afaa f8ff ff2f aafe aaaa aafa     ......../.......
  404b00:	aaaa 00aa 1b00 ffff c0ff 0500 aaaa afaa     ................
  404b10:	f8ff ff2f aafe aaaa aafa aaaa 00aa 7f00     ../.............
  404b20:	ffff f8ff 0500 aaaa afaa f8ff ff2f aafe     ............/...
  404b30:	aaaa aafe aaaa 00aa ff06 ffff ffff 0500     ................
  404b40:	aaaa afaa f8ff ff2f aafe aaaa aafe aaaa     ....../.........
  404b50:	00aa ff1b ffff ffff 05c0 aaaa afaa f8ff     ................
  404b60:	ff2f aafe aaaa aafe aaaa 00aa ff1f ffff     /...............
  404b70:	ffff 05e0 aaaa afaa f8ff ff2f aafe aaaa     ........../.....
  404b80:	aafe aaaa 00aa ff7f ffff ffff 05f4 aaaa     ................
  404b90:	afaa f8ff ff2f aafe aaaa aafe aaaa 01aa     ..../...........
  404ba0:	ffbf ffff ffff 05fc aaaa afaa f8ff ff2f     ............../.
  404bb0:	aafe aaaa aafe aaaa 01aa ffff ffff ffff     ................
  404bc0:	05fe aaaa afaa f8ff ff2f aafe aaaa aafe     ......../.......
  404bd0:	aaaa 06aa ffff ffff ffff 05ff aaaa afaa     ................
  404be0:	f8ff ff2f aafe aaaa aabe aaaa 06aa ffff     ../.............
  404bf0:	ffff ffff 45ff aaaa afaa f8ff ff2f aafe     .....E....../...
  404c00:	eaab aabe aaaa 17aa ffff ffff ffff 85ff     ................
  404c10:	aaaa afaa f8ff ff2f aafe ffaf aaff aaaa     ....../.........
  404c20:	1baa ffff ffff ffff c5ff aaaa afaa f8ff     ................
  404c30:	ff2f aafe ffab ffff aaea 1baa ffff feff     /...............
  404c40:	bf95 c5ff aaaa afaa f8ff ff2f aafe abaa     ........../.....
  404c50:	ffff aafa 1baa ffff f4ff 1f00 c5ff aaaa     ................
  404c60:	afaa f8ff ff2f aafe aaaa bfaa aafa 1baa     ..../...........
  404c70:	ffff d0ff 0700 c5ff aaaa afaa f8ff ff2f     ............../.
  404c80:	aafe aaaa aaaa aaaa 1baa ffff 90ff 0300     ................
  404c90:	c5ff aaaa afaa f8ff ff2f aafe aaaa aaaa     ......../.......
  404ca0:	aaaa 1baa ffff 40ff 0100 c5ff aaaa afaa     .......@........
  404cb0:	f8ff ff2f aafe aaaa aaaa aaaa 07aa ffff     ../.............
  404cc0:	40ff 0000 85ff aaaa afaa f8ff ff2f aafe     .@........../...
  404cd0:	aaaa aaaa aaaa 06aa ffff 40ff 0000 05ff     ...........@....
  404ce0:	aaaa afaa f8ff ff2f aafe aaaa aaaa aaaa     ....../.........
  404cf0:	06aa ffff 40ff 0100 05ff aaaa bfaa f8ff     .....@..........
  404d00:	ff2f aafe aaaa aaaa aaaa 01aa ffff 90ff     /...............
  404d10:	0300 05fd aaaa bfaa f8ff ff2f aafe aaaa     ........../.....
  404d20:	aaaa aaaa 01aa ffbf d0ff 0b00 05f8 aaaa     ................
  404d30:	bfaa f8ff ff2f aafe aaaa aaaa aaaa 00aa     ..../...........
  404d40:	ff6f f8ff 2f00 05f4 aaaa bfaa f8ff ff2f     o..../......../.
  404d50:	aafe aaaa aaaa aaaa 00aa ff1f feff bfaa     ................
  404d60:	05d0 aaaa bfaa f8ff ff2f aafe aaaa aaaa     ......../.......
  404d70:	aaaa 00aa ff07 ffff ffff 0540 aaaa bfaa     ..........@.....
  404d80:	f8ff ff2f aafe aaaa aaaa aaaa 00aa bf01     ../.............
  404d90:	ffff fdff 0500 aaaa bfaa f8ff ff2f aafe     ............/...
  404da0:	aaaa aaaa aaaa 00aa 6f00 ffff d4ff 0500     .........o......
  404db0:	aaaa bfaa f8ff ff2f aafe aaaa aaaa aaaa     ....../.........
  404dc0:	00aa 1600 ffff 80fe 0500 aaaa bfaa f8ff     ................
  404dd0:	ff2f aafe aaaa aaaa aaaa 00aa 0100 fe5a     /.............Z.
  404de0:	0094 0500 aaaa bfaa f8ff ff2f aafe aaaa     ........../.....
  404df0:	aaaa aaaa 00aa 0000 5501 0000 0500 aaaa     .........U......
  404e00:	bfaa f8ff ff2f aafe aaaa aaaa aaaa 00aa     ..../...........
  404e10:	0000 0000 0000 0500 aaaa bfaa f8ff ff2f     ............../.
  404e20:	aafe aaaa aaaa aaaa 00aa 0000 0000 0000     ................
  404e30:	0500 aaaa bfaa f8ff ff2f aafe aaaa aaaa     ......../.......
  404e40:	aaaa 00aa 0000 0000 0000 0500 aaaa bfaa     ................
  404e50:	f8ff ff2f aafe aaaa aaaa aaaa 00aa 0000     ../.............
  404e60:	0000 0000 0500 aaaa bfaa f8ff ff2f aafe     ............/...
  404e70:	aaaa aaaa aaaa 00aa 0000 0000 0000 0500     ................
  404e80:	aaaa bfaa f8ff ff2f aafe aaaa aaaa aaaa     ....../.........
  404e90:	00aa 0000 0000 0000 0500 aaaa bfaa f8ff     ................
  404ea0:	ff2f aafe aaaa aaaa aaaa 00aa 0000 0000     /...............
  404eb0:	0000 0500 aaaa bfaa f8ff ff2f aafe aaaa     ........../.....
  404ec0:	aaaa aaaa 00aa 0000 0000 0000 0500 aaaa     ................
  404ed0:	bfaa f8ff ff2f aafe aaaa aaaa aaaa 55aa     ..../..........U
  404ee0:	5555 5555 5555 5655 aaaa ffaa f8ff ff2f     UUUUUUUV....../.
  404ef0:	aafe aaaa aaaa aaaa aaaa aaaa aaaa aaaa     ................
  404f00:	aaaa aaaa ffaa f8ff ff2f aafe aaaa aaaa     ......../.......
  404f10:	aaaa aaaa aaaa aaaa aaaa aaaa aaaa ffab     ................
  404f20:	f8ff ff2f aafe aaaa aaaa aaaa aaaa aaaa     ../.............
  404f30:	aaaa aaaa aaaa aaaa ffab f8ff ff2f aafe     ............/...
  404f40:	aaaa aaaa aaaa aaaa aaaa aaaa aaaa aaaa     ................
  404f50:	aaaa ffaf f8ff ff2f aafe aaaa aaaa aaaa     ....../.........
  404f60:	aaaa aaaa aaaa aaaa aaaa aaaa ffbf f8ff     ................
  404f70:	ff2f aafe aaaa aaaa aaaa aaaa aaaa aaaa     /...............
  404f80:	aaaa aaaa aaaa ffff f8ff ff2f aafe aaaa     ........../.....
  404f90:	aaaa aaaa aaaa aaaa aaaa aaaa aaaa abaa     ................
  404fa0:	ffff f8ff ff1f aafe aaaa aaaa aaaa aaaa     ................
  404fb0:	aaaa aaaa aaaa aaaa afaa ffff f4ff ff0f     ................
  404fc0:	aafe aaaa aaaa aaaa aaaa aaaa aaaa aaaa     ................
  404fd0:	aaaa bfaa ffff f0ff ff0b aafe aaaa aaaa     ................
  404fe0:	aaaa aaaa aaaa aaaa aaaa aaaa ffaa ffff     ................
  404ff0:	e0ff ff07 aafe aaaa aaaa aaaa aaaa aaaa     ................
  405000:	aaaa aaaa aaaa ffab ffff d0ff ff01 aafe     ................
  405010:	aaaa aaaa aaaa aaaa aaaa aaaa aaaa aaaa     ................
  405020:	ffaf ffff 40ff 6f00 aaff aaaa aaaa aaaa     .....@.o........
  405030:	aaaa aaaa aaaa aaaa abaa ffff ffff 00f9     ................
  405040:	1600 ffff ffff ffff aafa aaaa aaaa aaaa     ................
  405050:	afaa ffff ffff ffff 00d4 0100 5555 5555     ............UUUU
  405060:	5555 aa7a aaaa aaaa aaaa adaa 5555 5555     UUz.........UUUU
  405070:	5555 0040 0000 0000 0000 0000 aa7a aaaa     UU@.........z...
  405080:	aaaa aaaa acaa 0000 0000 0000 0000 0000     ................
  405090:	0000 0000 0000 aa7a aaaa aaaa aaaa acaa     ......z.........
	...
  4050b0:	aa7a aaaa aaaa aaaa acaa 0000 0000 0000     z...............
	...
  4050c8:	0000 aa7a aaaa aaaa aaaa acaa 0000 0000     ..z.............
	...
  4050e4:	aa7a aaaa aaaa aaaa acaa 0000 0000 0000     z...............
	...
  4050fc:	0000 aa7a aaaa aaaa aaaa acaa 0000 0000     ..z.............
	...
  405118:	aa7a aaaa aaaa aaaa acaa 0000 0000 0000     z...............
	...
  405130:	0000 aa7a aaaa aaaa aaaa acaa 0000 0000     ..z.............
	...
  40514c:	aa7a aaaa aaaa aaaa acaa 0000 0000 0000     z...............
	...
  405164:	0000 aa7a aaaa aaaa aaaa acaa 0000 0000     ..z.............
	...
  405180:	aa7a aaaa aaaa aaaa acaa 0000 0000 0000     z...............
	...
  405198:	0000 aa3a aaaa aaaa aaaa bcaa 0000 0000     ..:.............
	...
  4051b4:	aa1e aaaa aaaa aaaa f0aa 0000 0000 0000     ................
	...
  4051cc:	0000 ff03 ffff ffff ffff c0ff 0000 0000     ................
	...

00405248 <eink_IneltekLogo>:
	...
  405278:	0100 00f0 0000 0000 0100 00fe 0000 0000     ................
  405288:	0100 c0ff 0000 0000 0100 f8ff 0000 0000     ................
  405298:	0100 ffff 0000 0000 0100 ffff 00f0 0000     ................
  4052a8:	0100 ffff 00fe 0000 0100 ffff c0ff 0000     ................
  4052b8:	0100 ffff f8ff 0000 0100 ffff fcff 0000     ................
  4052c8:	0100 ffff fcff 0060 0100 ffff fcff 007c     ......`.......|.
  4052d8:	0100 ffff fcff 807f 0100 ffff fcff c07f     ................
  4052e8:	0100 ffff fcff c07f 0100 ffff fcff c07f     ................
  4052f8:	0100 ffff fcff c07f 0100 ffff fcff c07f     ................
  405308:	0100 ffff fcff c07f 0000 ffff fcff c07f     ................
  405318:	0000 ff3f fcff c07f 0000 ff03 fcff c07f     ..?.............
  405328:	0000 7f00 fcff c07f 0000 0f00 fcff c07f     ................
  405338:	0100 01f0 fcff c07f 0100 00fe fc3f c07f     ............?...
  405348:	0100 c0ff fc07 c07f 0100 f8ff fc00 c07f     ................
  405358:	0100 ffff 1c00 c07f 0100 ffff 00f0 c07f     ................
  405368:	0100 ffff 00fe c03f 0100 ffff c0ff c007     ......?.........
  405378:	0100 ffff f8ff c000 0100 ffff fcff 0000     ................
  405388:	0100 ffff fcff 0070 0100 ffff fcff 007e     ......p.......~.
  405398:	0100 ffff fcff 807f 0100 ffff fcff c07f     ................
  4053a8:	0100 ffff fcff c07f 0000 ff3f fcff c07f     ..........?.....
  4053b8:	0000 ff07 fcff c07f 0000 ff00 fcff c07f     ................
  4053c8:	0000 1f00 fcff c07f 0000 0700 fcff c07f     ................
  4053d8:	0000 3f00 fcff c07f 0000 ff01 fcff c07f     ...?............
  4053e8:	0000 ff1f fcff c07f 0000 ffff fcff c07f     ................
  4053f8:	0100 ffff fcff c07f 0100 ffff fcff c07f     ................
  405408:	0100 ffff fcff c07f 0100 ffff fcff c07f     ................
  405418:	0100 ffff fcff c07f 0100 ffff fcff c07f     ................
  405428:	0100 ffff fcff c07f 0100 ffff fcff c07f     ................
  405438:	0100 ffff f0ff c07f 0100 ffff 00ff c07f     ................
  405448:	0100 ffff 00f8 c07f 0100 ffff 0080 c07f     ................
  405458:	0100 ffff 00c0 c07f 0100 ffff 00f8 c07f     ................
  405468:	0100 ffff 00ff c07f 0100 ffff e0ff c07f     ................
  405478:	0100 ffff fcff c07f 0100 ffff fcff c07f     ................
  405488:	0100 ffff fcff c07f 0100 ffff fcff c07f     ................
  405498:	0100 ffff fcff c07f 0100 ffff fcff c07f     ................
  4054a8:	0000 ff7f fcff c07f 0000 ff0f fcff c07f     ................
  4054b8:	0000 ff01 fcff c07f 0000 3f00 fcff c07f     ...........?....
  4054c8:	0100 07e0 fcff c07f 0100 00fc fcff c07f     ................
  4054d8:	0100 80ff fc1f c07f 0100 f0ff fc03 c07f     ................
  4054e8:	0100 feff 3c00 c07f 0100 ffff 1cc0 c07f     .....<..........
  4054f8:	0100 ffff 00f8 c07f 0100 ffff 00ff c07f     ................
  405508:	0100 ffff e0ff c07f 0100 ffff fcff c07f     ................
  405518:	0100 ffff fcff c07f 0100 ffff fcff c07f     ................
  405528:	0100 ffff fcff c07f 0100 ffff fcff c07f     ................
  405538:	0100 ffff fcff c07f 0100 ffff fcff c07f     ................
  405548:	0100 ffff fcff c07f 0100 ffff fcff c07f     ................
  405558:	0100 ffff fcff c07f 0100 ffff fcff c07f     ................
  405568:	0100 ffff fcff c07f 0100 ffff fcff c07f     ................
  405578:	0100 3fff fcff c07f 0100 1fff fcff c07f     ...?............
  405588:	0100 1fff fcff c07f 0100 1fff fcff c07f     ................
  405598:	0100 1fff fce3 c07f 0100 1fff fce3 c07f     ................
  4055a8:	0100 1fff fce3 c07f 0100 1fff fce3 c07f     ................
  4055b8:	0100 1fff fce3 c07f 0100 1fff fce3 c07f     ................
  4055c8:	0100 1fff fce3 c07f 0100 1fff fce3 c07f     ................
  4055d8:	0100 1fff fce3 c07f 0100 1fff fce3 c07f     ................
  4055e8:	0000 1fff fce3 c07f 0000 1f0f fce3 c07f     ................
  4055f8:	0000 1f01 fce3 c07f 0100 0fc0 fce3 c07f     ................
  405608:	0100 01f8 fce3 c07f 0100 00ff fc23 c07f     ............#...
  405618:	0100 f0ff fc03 c07f 0100 feff fc03 c07f     ................
  405628:	0100 ffff 7cc0 c07f 0100 ffff 0cf8 c07f     .....|..........
  405638:	0100 ffff 00ff c07f 0100 ffff e0ff c07f     ................
  405648:	0100 ffff fcff c07f 0100 ffff fcff c07f     ................
  405658:	0100 ffff fcff c07f 0100 ffff fcff c07f     ................
  405668:	0100 ffff fcff c07f 0100 ffff fcff c07f     ................
  405678:	0100 ffff fcff c07f 0100 ffff fcff c07f     ................
  405688:	0100 ffff fcff c07f 0100 ffff fcff c07f     ................
  405698:	0100 ffff fcff c07f 0100 ffff fcff c07f     ................
  4056a8:	0100 ffff fcff c07f 0100 ffff fcff c07f     ................
  4056b8:	0100 3fff fcff c07f 0100 07ff fcff c07f     ...?............
  4056c8:	0100 00ff fcff c07f 0100 00ff fc1f c07f     ................
  4056d8:	0100 00ff fc01 c07f 0100 00ff 3c00 c07f     .............<..
  4056e8:	0100 00ff 1c00 c07f 0100 00ff 0000 c07f     ................
  4056f8:	0100 00ff 0000 c07f 0100 00ff 0000 c07f     ................
  405708:	0100 00ff 0000 c07f 0100 00ff 0000 c07f     ................
  405718:	0100 00ff 0000 c07f 0100 00ff 0000 c07f     ................
  405728:	0000 003f 0000 c07f 0000 0007 0000 c07f     ..?.............
  405738:	0100 0080 0000 c07f 0100 00f0 0000 c07f     ................
  405748:	0100 00fe 0000 c07f 0100 c0ff 0000 c07f     ................
  405758:	0100 f8ff 0000 c07f 0100 ffff 0000 c07f     ................
  405768:	0100 ffff 00e0 c07f 0100 ffff 00fc c07f     ................
  405778:	0100 ffff c0ff c07f 0100 ffff f8ff c07f     ................
  405788:	0100 ffff ffff c0ff 0100 ffff ffff c0ff     ................
  405798:	0100 ffff ffff c0ff 0100 ffff ffff c0ff     ................
  4057a8:	0100 ffff ffff c0ff 0100 ffff ffff c0ff     ................
  4057b8:	0100 ffff ffff c0ff 0100 ffff ffff c0ff     ................
  4057c8:	0100 ffff ffff c0ff 0100 ffff ffff c0ff     ................
  4057d8:	0000 ffff ffff c0ff 0000 ff1f ffff c0ff     ................
  4057e8:	0000 ff03 ffff c0ff 0000 7f00 ffff c0ff     ................
  4057f8:	0100 0fc0 ffff c0ff 0100 00fc ffff c0ff     ................
  405808:	0100 80ff ff1f c0ff 0100 f0ff ff03 c0ff     ................
  405818:	0100 feff 7f00 c0ff 0100 ffff 0fc0 c0ff     ................
  405828:	0100 ffff 01f8 c0ff 0100 ffff 00ff c07f     ................
  405838:	0100 ffff e0ff c07f 0100 ffff fcff c07f     ................
  405848:	0100 ffff fcff c07f 0100 ffff fcff c07f     ................
  405858:	0100 ffff fcff c07f 0100 ffff fcff c07f     ................
  405868:	0100 ffff fcff c07f 0100 ffff fcff c07f     ................
  405878:	0100 ffff fcff c07f 0100 ffff fcff c07f     ................
  405888:	0100 ffff fcff c07f 0100 ffff fcff c07f     ................
  405898:	0100 ffff fcff c07f 0100 ffff fcff c07f     ................
  4058a8:	0100 3fff fcff c07f 0100 1fff fcff c07f     ...?............
  4058b8:	0100 1fff fcff c07f 0100 1fff fcff c07f     ................
  4058c8:	0100 1fff fce7 c07f 0100 1fff fce3 c07f     ................
  4058d8:	0100 1fff fce3 c07f 0100 1fff fce3 c07f     ................
  4058e8:	0100 1fff fce3 c07f 0100 1fff fce3 c07f     ................
  4058f8:	0100 1fff fce3 c07f 0100 1fff fce3 c07f     ................
  405908:	0100 1fff fce3 c07f 0100 1fff fce3 c07f     ................
  405918:	0000 1fff fce3 c07f 0000 1f1f fce3 c07f     ................
  405928:	0000 1f03 fce3 c07f 0100 0fc0 fce3 c07f     ................
  405938:	0100 01f8 fce3 c07f 0100 00ff fc23 c07f     ............#...
  405948:	0100 e0ff fc03 c07f 0100 fcff fc03 c07f     ................
  405958:	0100 ffff 7c80 c07f 0100 ffff 0cf0 c07f     .....|..........
  405968:	0100 ffff 00fe c07f 0100 ffff c0ff c07f     ................
  405978:	0100 ffff fcff c07f 0100 ffff fcff c07f     ................
  405988:	0100 ffff fcff c07f 0100 ffff fcff c07f     ................
  405998:	0100 ffff fcff c07f 0100 ffff fcff c07f     ................
  4059a8:	0100 ffff fcff c07f 0100 ffff fcff c07f     ................
  4059b8:	0100 ffff fcff c07f 0100 ffff fcff c07f     ................
  4059c8:	0100 ffff fcff c07f 0000 ff3f fcff c07f     ..........?.....
  4059d8:	0000 ff07 fcff c07f 0000 ff00 fcff c07f     ................
  4059e8:	0000 1f00 fcff c07f 0000 0300 fcff c07f     ................
  4059f8:	0000 0700 fcff c07f 0000 7f00 fccf c07f     ................
  405a08:	0000 ff07 fce1 c07f 0000 ff7f 1cf0 c07f     ................
  405a18:	0100 ffff 00fc c07f 0100 ffff 00fe c07f     ................
  405a28:	0100 ffff 00ff c07f 0100 ffff 80ff c07f     ................
  405a38:	0100 ffff c0ff c07f 0100 ffff e0ff c07f     ................
  405a48:	0100 ffff f0ff c07f 0100 ffff f8ff c07f     ................
  405a58:	0100 ffff fcff c07f 0100 ffff fcff c07f     ................
  405a68:	0100 ffff fcff c07f 0100 ffff fcff c07f     ................
  405a78:	0100 ffff fcff c07f 0100 ffff fcff c07f     ................
  405a88:	0100 feff fcff c07f 0100 f8ff fc7f c07f     ................
  405a98:	0100 c0ff fc3f c07f 0100 00ff fc1f c07f     ....?...........
  405aa8:	0100 00fc fc0f c07f 0100 00e0 fc07 c07f     ................
  405ab8:	0100 0080 fc03 c07f 0000 0000 fc01 c07f     ................
  405ac8:	0000 0000 fc00 c07f 0000 0000 7c00 c07f     .............|..
  405ad8:	0000 0000 7c00 c07f 0000 0000 3c00 c07f     .....|.......<..
  405ae8:	0000 0000 1c00 c07f 0000 0000 0c00 c07f     ................
  405af8:	0000 0000 0400 c07f 0000 0000 0000 c07f     ................
  405b08:	0000 0000 0000 c07f 0000 0000 0000 c07f     ................
  405b18:	0000 0000 0000 c07f 0000 0000 0000 c03f     ..............?.
  405b28:	0000 0000 0000 c01f 0000 0000 0000 c00f     ................
  405b38:	0000 0000 0000 c007 0000 0000 0000 c003     ................
  405b48:	0000 0000 0000 c001 0000 0000 0000 c000     ................
	...

00405b88 <eink_ShippingBarcode>:
	...
  405b90:	0000 ffff ffff ffff ffff ffff ffff ffff     ................
  405ba0:	ffff ffff ffff 0000 0000 0000 0000 0000     ................
  405bb0:	ffff ffff ffff ffff ffff 0000 0000 0000     ................
	...
  405bcc:	0000 ffff ffff ffff ffff ffff 0000 0000     ................
	...
  405c00:	ffff ffff ffff ffff ffff 0000 0000 0000     ................
	...
  405c30:	0000 ffff ffff ffff ffff ffff ffff ffff     ................
  405c40:	ffff ffff ffff 0000 0000 0000 0000 0000     ................
	...
  405c58:	0000 ffff ffff ffff ffff ffff 0000 0000     ................
  405c68:	0000 0000 0000 ffff ffff ffff ffff ffff     ................
	...
  405ca0:	ffff ffff ffff ffff ffff ffff ffff ffff     ................
  405cb0:	ffff ffff 0000 0000 0000 0000 0000 0000     ................
	...
  405cc8:	ffff ffff ffff ffff ffff 0000 0000 0000     ................
  405cd8:	0000 0000 ffff ffff ffff ffff ffff 0000     ................
	...
  405d0c:	0000 ffff ffff ffff ffff ffff 0000 0000     ................
	...
  405d2c:	ffff ffff ffff ffff ffff ffff ffff ffff     ................
  405d3c:	ffff ffff 0000 0000 0000 0000 0000 ffff     ................
  405d4c:	ffff ffff ffff ffff 0000 0000 0000 0000     ................
	...
  405d68:	ffff ffff ffff ffff ffff ffff ffff ffff     ................
  405d78:	ffff ffff ffff ffff ffff ffff ffff 0000     ................
	...
  405d90:	ffff ffff ffff ffff ffff ffff ffff ffff     ................
  405da0:	ffff ffff 0000 0000 0000 0000 0000 0000     ................
	...
  405db8:	ffff ffff ffff ffff ffff 0000 0000 0000     ................
	...
  405dd4:	0000 ffff ffff ffff ffff ffff ffff ffff     ................
  405de4:	ffff ffff ffff ffff ffff ffff ffff ffff     ................
	...
  405e08:	ffff ffff ffff ffff ffff ffff ffff ffff     ................
  405e18:	ffff ffff 0000 0000 0000 0000 0000 ffff     ................
  405e28:	ffff ffff ffff ffff ffff ffff ffff ffff     ................
  405e38:	ffff 0000 0000 0000 0000 0000 0000 0000     ................
  405e48:	0000 0000 0000 ffff ffff ffff ffff ffff     ................
	...
  405e6c:	ffff ffff ffff ffff ffff ffff ffff ffff     ................
  405e7c:	ffff ffff ffff ffff ffff ffff ffff 0000     ................
	...
  405e94:	ffff ffff ffff ffff ffff ffff ffff ffff     ................
  405ea4:	ffff ffff 0000 0000 0000 0000 0000 0000     ................
	...
  405ebc:	ffff ffff ffff ffff ffff ffff ffff ffff     ................
  405ecc:	ffff ffff ffff ffff ffff ffff ffff 0000     ................
	...
  405ee4:	ffff ffff ffff ffff ffff 0000 0000 0000     ................
	...
  405f00:	0000 ffff ffff ffff ffff ffff 0000 0000     ................
	...
  405f20:	ffff ffff ffff ffff ffff ffff ffff ffff     ................
  405f30:	ffff ffff ffff ffff ffff ffff ffff 0000     ................
	...
  405f48:	ffff ffff ffff ffff ffff ffff ffff ffff     ................
  405f58:	ffff ffff 0000 0000 0000 0000 0000 0000     ................
	...
  405f70:	ffff ffff ffff ffff ffff 0000 0000 0000     ................
	...
  405f8c:	0000 ffff ffff ffff ffff ffff ffff ffff     ................
  405f9c:	ffff ffff ffff ffff ffff ffff ffff ffff     ................
	...
  405fb4:	0000 ffff ffff ffff ffff ffff ffff ffff     ................
  405fc4:	ffff ffff ffff 0000 0000 0000 0000 0000     ................
	...
  405fdc:	0000 ffff ffff ffff ffff ffff 0000 0000     ................
	...
  405ffc:	ffff ffff ffff ffff ffff ffff ffff ffff     ................
  40600c:	ffff ffff ffff ffff ffff ffff ffff 0000     ................
	...
  406024:	ffff ffff ffff ffff ffff ffff ffff ffff     ................
  406034:	ffff ffff 0000 0000 0000 0000 0000 0000     ................
	...
  40604c:	ffff ffff ffff ffff ffff 0000 0000 0000     ................
	...
  406068:	0000 ffff ffff ffff ffff ffff ffff ffff     ................
  406078:	ffff ffff ffff ffff ffff ffff ffff ffff     ................
	...
  406090:	0000 ffff ffff ffff ffff ffff ffff ffff     ................
  4060a0:	ffff ffff ffff 0000 0000 0000 0000 0000     ................
	...
  4060b8:	0000 ffff ffff ffff ffff ffff ffff ffff     ................
  4060c8:	ffff ffff ffff 0000 0000 0000 0000 0000     ................
	...
  4060e0:	0000 ffff ffff ffff ffff ffff ffff ffff     ................
  4060f0:	ffff ffff ffff ffff ffff ffff ffff ffff     ................
	...
  406114:	ffff ffff ffff ffff ffff 0000 0000 0000     ................
  406124:	0000 0000 ffff ffff ffff ffff ffff ffff     ................
  406134:	ffff ffff ffff ffff 0000 0000 0000 0000     ................
	...
  406150:	ffff ffff ffff ffff ffff 0000 0000 0000     ................
	...
  40616c:	0000 ffff ffff ffff ffff ffff ffff ffff     ................
  40617c:	ffff ffff ffff ffff ffff ffff ffff ffff     ................
	...
  406194:	0000 ffff ffff ffff ffff ffff ffff ffff     ................
  4061a4:	ffff ffff ffff 0000 0000 0000 0000 0000     ................
	...
  4061bc:	0000 ffff ffff ffff ffff ffff 0000 0000     ................
  4061cc:	0000 0000 0000 ffff ffff ffff ffff ffff     ................
  4061dc:	ffff ffff ffff ffff ffff ffff ffff ffff     ................
  4061ec:	ffff ffff 0000 0000 0000 0000 0000 0000     ................
	...
  406204:	ffff ffff ffff ffff ffff ffff ffff ffff     ................
  406214:	ffff ffff 0000 0000 0000 0000 0000 0000     ................
	...
  40622c:	ffff ffff ffff ffff ffff 0000 0000 0000     ................
  40623c:	0000 0000 ffff ffff ffff ffff ffff ffff     ................
  40624c:	ffff ffff ffff ffff ffff ffff ffff ffff     ................
  40625c:	ffff 0000 0000 0000 0000 0000 0000 0000     ................
  40626c:	0000 0000 0000 ffff ffff ffff ffff ffff     ................
  40627c:	ffff ffff ffff ffff ffff ffff ffff ffff     ................
  40628c:	ffff ffff 0000 0000 0000 0000 0000 ffff     ................
  40629c:	ffff ffff ffff ffff ffff ffff ffff ffff     ................
  4062ac:	ffff 0000 0000 0000 0000 0000 ffff ffff     ................
  4062bc:	ffff ffff ffff ffff ffff ffff ffff ffff     ................
  4062cc:	ffff ffff ffff ffff ffff 0000 0000 0000     ................
  4062dc:	0000 0000 ffff ffff ffff ffff ffff ffff     ................
  4062ec:	ffff ffff ffff ffff 0000 0000 0000 0000     ................
	...
  406308:	ffff ffff ffff ffff ffff 0000 0000 0000     ................
  406318:	0000 0000 ffff ffff ffff ffff ffff ffff     ................
  406328:	ffff ffff ffff ffff ffff ffff ffff ffff     ................
  406338:	ffff 0000 0000 0000 0000 0000 0000 0000     ................
  406348:	0000 0000 0000 ffff ffff ffff ffff ffff     ................
  406358:	ffff ffff ffff ffff ffff 0000 0000 0000     ................
  406368:	0000 0000 ffff ffff ffff ffff ffff ffff     ................
  406378:	ffff ffff ffff ffff ffff ffff ffff ffff     ................
  406388:	ffff 0000 0000 0000 0000 0000 0000 0000     ................
  406398:	0000 0000 0000 ffff ffff ffff ffff ffff     ................
	...
  4063bc:	ffff ffff ffff ffff ffff ffff ffff ffff     ................
  4063cc:	ffff ffff ffff ffff ffff ffff ffff 0000     ................
	...
  4063e4:	ffff ffff ffff ffff ffff ffff ffff ffff     ................
  4063f4:	ffff ffff 0000 0000 0000 0000 0000 ffff     ................
  406404:	ffff ffff ffff ffff ffff ffff ffff ffff     ................
  406414:	ffff ffff ffff ffff ffff ffff 0000 0000     ................
  406424:	0000 0000 0000 ffff ffff ffff ffff ffff     ................
	...
  406448:	ffff ffff ffff ffff ffff ffff ffff ffff     ................
  406458:	ffff ffff ffff ffff ffff ffff ffff 0000     ................
	...
  406478:	0000 ffff ffff ffff ffff ffff ffff ffff     ................
  406488:	ffff ffff ffff 0000 0000 0000 0000 0000     ................
  406498:	ffff ffff ffff ffff ffff ffff ffff ffff     ................
  4064a8:	ffff ffff 0000 0000 0000 0000 0000 0000     ................
	...
  4064c0:	ffff ffff ffff ffff ffff 0000 0000 0000     ................
  4064d0:	0000 0000 ffff ffff ffff ffff ffff ffff     ................
  4064e0:	ffff ffff ffff ffff ffff ffff ffff ffff     ................
  4064f0:	ffff 0000 0000 0000 0000 0000 0000 0000     ................
  406500:	0000 0000 0000 ffff ffff ffff ffff ffff     ................
	...
  406518:	0000 ffff ffff ffff ffff ffff ffff ffff     ................
  406528:	ffff ffff ffff ffff ffff ffff ffff ffff     ................
  406538:	ffff ffff ffff ffff ffff 0000 0000 0000     ................
  406548:	0000 0000 ffff ffff ffff ffff ffff 0000     ................
	...
  406574:	ffff ffff ffff ffff ffff ffff ffff ffff     ................
  406584:	ffff ffff 0000 0000 0000 0000 0000 0000     ................
	...
  4065a4:	0000 ffff ffff ffff ffff ffff ffff ffff     ................
  4065b4:	ffff ffff ffff ffff ffff ffff ffff ffff     ................
	...
  4065cc:	0000 ffff ffff ffff ffff ffff 0000 0000     ................
  4065dc:	0000 0000 0000 ffff ffff ffff ffff ffff     ................
  4065ec:	ffff ffff ffff ffff ffff 0000               ............

004065f8 <eink_Kanban3>:
  4065f8:	ff01 ffff ffff ffff ffff ffff ffff ffff     ................
  406608:	ffff ffff ff01 ffff ffff ffff ffff ffff     ................
  406618:	ffff ffff ffff ffff ff01 ffff ffff ffff     ................
  406628:	ffff ffff ffff ffff ffff ffff ff01 ffff     ................
  406638:	ffff ffff ffff ffff ffff ffff ffff ffff     ................
  406648:	ff01 ffff ffff ffff ffff ffff ffff ffff     ................
  406658:	ffff ffff ff01 c183 78f0 003e 3e00 ff0f     .........x>..>..
  406668:	1fc0 c1ff f8e0 0000 ff01 c183 78f0 003e     .............x>.
  406678:	3e00 ff0f 1fc0 c1ff f8e0 0000 ff01 c183     .>..............
  406688:	78f0 003e 3e00 ff0f 1fc0 c1ff f8e0 0000     .x>..>..........
  406698:	ff01 c183 78f0 003e 3e00 ff0f 1fc0 c1ff     .....x>..>......
  4066a8:	f8e0 0000 ff01 c183 78f0 003e 3e00 ff0f     .........x>..>..
  4066b8:	1fc0 c1ff f8e0 0000 f001 c003 0000 ff01     ................
  4066c8:	c187 f8ff e001 fe07 ff00 1fc0 f001 c003     ................
  4066d8:	0000 ff01 c187 f8ff e001 fe07 ff00 1fc0     ................
  4066e8:	f001 c003 0000 ff01 c187 f8ff e001 fe07     ................
  4066f8:	ff00 1fc0 f001 c003 0000 ff01 c187 f8ff     ................
  406708:	e001 fe07 ff00 1fc0 f001 3e00 f80f 0f3e     ...........>..>.
  406718:	3e80 000f 1f3e c107 f8ff e03f f001 3e00     .>..>.....?....>
  406728:	f80f 0f3e 3e80 000f 1f3e c107 f8ff e03f     ..>..>..>.....?.
  406738:	f001 3e00 f80f 0f3e 3e80 000f 1f3e c107     ...>..>..>..>...
  406748:	f8ff e03f f001 3e00 f80f 0f3e 3e80 000f     ..?....>..>..>..
  406758:	1f3e c107 f8ff e03f f001 3e00 f80f 0f3e     >.....?....>..>.
  406768:	3e80 000f 1f3e c107 f8ff e03f ff01 fe83     .>..>.....?.....
  406778:	800f f001 c17f 07ff 00fe c1ff ffe0 ffff     ................
  406788:	ff01 fe83 800f f001 c17f 07ff 00fe c1ff     ................
  406798:	ffe0 ffff ff01 fe83 800f f001 c17f 07ff     ................
  4067a8:	00fe c1ff ffe0 ffff ff01 fe83 800f f001     ................
  4067b8:	c17f 07ff 00fe c1ff ffe0 ffff ff01 fe83     ................
  4067c8:	800f f001 c17f 07ff 00fe c1ff ffe0 ffff     ................
  4067d8:	ff01 c083 800f f001 3e78 000f 003e feff     ........x>..>...
  4067e8:	ff1f 00fc ff01 c083 800f f001 3e78 000f     ............x>..
  4067f8:	003e feff ff1f 00fc ff01 c083 800f f001     >...............
  406808:	3e78 000f 003e feff ff1f 00fc ff01 c083     x>..>...........
  406818:	800f f001 3e78 000f 003e feff ff1f 00fc     ....x>..>.......
  406828:	ff01 c083 800f f001 3e78 000f 003e feff     ........x>..>...
  406838:	ff1f 00fc ff01 c0ff 7f00 ffc1 ff87 00ff     ................
  406848:	1f3e ff07 f8ff ff03 ff01 c0ff 7f00 ffc1     >...............
  406858:	ff87 00ff 1f3e ff07 f8ff ff03 ff01 c0ff     ....>...........
  406868:	7f00 ffc1 ff87 00ff 1f3e ff07 f8ff ff03     ........>.......
  406878:	ff01 c0ff 7f00 ffc1 ff87 00ff 1f3e ff07     ............>...
  406888:	f8ff ff03 ff01 c183 f8ff ff3f 3e80 f80f     ..........?..>..
  406898:	003e 0100 ffff 00c0 ff01 c183 f8ff ff3f     >.............?.
  4068a8:	3e80 f80f 003e 0100 ffff 00c0 ff01 c183     .>..>...........
  4068b8:	f8ff ff3f 3e80 f80f 003e 0100 ffff 00c0     ..?..>..>.......
  4068c8:	ff01 c183 f8ff ff3f 3e80 f80f 003e 0100     ......?..>..>...
  4068d8:	ffff 00c0 ff01 c183 f8ff ff3f 3e80 f80f     ..........?..>..
  4068e8:	003e 0100 ffff 00c0 f001 c07f ff0f f0ff     >...............
  4068f8:	c17f ffff 00fe 00f8 ff1f ffc3 f001 c07f     ................
  406908:	ff0f f0ff c17f ffff 00fe 00f8 ff1f ffc3     ................
  406918:	f001 c07f ff0f f0ff c17f ffff 00fe 00f8     ................
  406928:	ff1f ffc3 f001 c07f ff0f f0ff c17f ffff     ................
  406938:	00fe 00f8 ff1f ffc3 f001 c07f ff0f f0ff     ................
  406948:	c17f ffff 00fe 00f8 ff1f ffc3 ff01 0180     ................
  406958:	7ff0 00c0 c07f 000f 003e c1ff f8e0 e03f     ........>.....?.
  406968:	ff01 0180 7ff0 00c0 c07f 000f 003e c1ff     ............>...
  406978:	f8e0 e03f ff01 0180 7ff0 00c0 c07f 000f     ..?.............
  406988:	003e c1ff f8e0 e03f ff01 0180 7ff0 00c0     >.....?.........
  406998:	c07f 000f 003e c1ff f8e0 e03f ff01 0180     ....>.....?.....
  4069a8:	7ff0 00c0 c07f 000f 003e c1ff f8e0 e03f     ........>.....?.
  4069b8:	ff01 c0ff 7f00 f0ff 0100 f8ff ff3f 3f00     ............?..?
  4069c8:	00e0 ff3f ff01 c0ff 7f00 f0ff 0100 f8ff     ..?.............
  4069d8:	ff3f 3f00 00e0 ff3f ff01 c0ff 7f00 f0ff     ?..?..?.........
  4069e8:	0100 f8ff ff3f 3f00 00e0 ff3f ff01 c0ff     ....?..?..?.....
  4069f8:	7f00 f0ff 0100 f8ff ff3f 3f00 00e0 ff3f     ........?..?..?.
  406a08:	ff01 c0ff 7f00 f0ff 0100 f8ff ff3f 3f00     ............?..?
  406a18:	00e0 ff3f f001 3e7c 870f ffff c087 070f     ..?...|>........
  406a28:	e0ff c0ff f81f e003 f001 3e7c 870f ffff     ..........|>....
  406a38:	c087 070f e0ff c0ff f81f e003 f001 3e7c     ..............|>
  406a48:	870f ffff c087 070f e0ff c0ff f81f e003     ................
  406a58:	f001 3e7c 870f ffff c087 070f e0ff c0ff     ..|>............
  406a68:	f81f e003 ff01 c0ff 7f00 ffc1 01f8 07ff     ................
  406a78:	e0c1 c107 f8e0 1f00 ff01 c0ff 7f00 ffc1     ................
  406a88:	01f8 07ff e0c1 c107 f8e0 1f00 ff01 c0ff     ................
  406a98:	7f00 ffc1 01f8 07ff e0c1 c107 f8e0 1f00     ................
  406aa8:	ff01 c0ff 7f00 ffc1 01f8 07ff e0c1 c107     ................
  406ab8:	f8e0 1f00 ff01 c0ff 7f00 ffc1 01f8 07ff     ................
  406ac8:	e0c1 c107 f8e0 1f00 ff01 3ffc ffff 0fc0     ...........?....
  406ad8:	0080 ff0f 00fe 0000 001f 003c ff01 3ffc     ..........<....?
  406ae8:	ffff 0fc0 0080 ff0f 00fe 0000 001f 003c     ..............<.
  406af8:	ff01 3ffc ffff 0fc0 0080 ff0f 00fe 0000     ...?............
  406b08:	001f 003c ff01 3ffc ffff 0fc0 0080 ff0f     ..<....?........
  406b18:	00fe 0000 001f 003c ff01 3ffc ffff 0fc0     ......<....?....
  406b28:	0080 ff0f 00fe 0000 001f 003c f001 007c     ..........<...|.
  406b38:	ff0f 00fe 0100 f8ff ff3f 01f8 ffe0 ffc3     ........?.......
  406b48:	f001 007c ff0f 00fe 0100 f8ff ff3f 01f8     ..|.........?...
  406b58:	ffe0 ffc3 f001 007c ff0f 00fe 0100 f8ff     ......|.........
  406b68:	ff3f 01f8 ffe0 ffc3 f001 007c ff0f 00fe     ?.........|.....
  406b78:	0100 f8ff ff3f 01f8 ffe0 ffc3 f001 007c     ....?.........|.
  406b88:	ff0f 00fe 0100 f8ff ff3f 01f8 ffe0 ffc3     ........?.......
  406b98:	f001 3e7c 870f f0c1 3e78 070f e0c1 3ef8     ..|>....x>.....>
  406ba8:	071f e0c3 f001 3e7c 870f f0c1 3e78 070f     ......|>....x>..
  406bb8:	e0c1 3ef8 071f e0c3 f001 3e7c 870f f0c1     ...>......|>....
  406bc8:	3e78 070f e0c1 3ef8 071f e0c3 f001 3e7c     x>.....>......|>
  406bd8:	870f f0c1 3e78 070f e0c1 3ef8 071f e0c3     ....x>.....>....
  406be8:	ff01 ffff ffff ffff ffff ffff ffff ffff     ................
  406bf8:	ffff ffff ff01 ffff ffff ffff ffff ffff     ................
  406c08:	ffff ffff ffff ffff ff01 ffff ffff ffff     ................
  406c18:	ffff ffff ffff ffff ffff ffff ff01 ffff     ................
  406c28:	ffff ffff ffff ffff ffff ffff ffff ffff     ................
  406c38:	ff01 ffff ffff ffff ffff ffff ffff ffff     ................
  406c48:	ffff ffff ff01 3ffc f8ff 0f00 c087 ff0f     .......?........
  406c58:	00c0 c0ff 0700 00fc ff01 3ffc f8ff 0f00     ...........?....
  406c68:	c087 ff0f 00c0 c0ff 0700 00fc ff01 3ffc     ...............?
  406c78:	f8ff 0f00 c087 ff0f 00c0 c0ff 0700 00fc     ................
  406c88:	ff01 3ffc f8ff 0f00 c087 ff0f 00c0 c0ff     ...?............
  406c98:	0700 00fc ff01 3ffc f8ff 0f00 c087 ff0f     .......?........
  406ca8:	00c0 c0ff 0700 00fc f001 ff7f 00f0 f001     ................
  406cb8:	c107 ffff e0c1 c0ff ff1f ffff f001 ff7f     ................
  406cc8:	00f0 f001 c107 ffff e0c1 c0ff ff1f ffff     ................
  406cd8:	f001 ff7f 00f0 f001 c107 ffff e0c1 c0ff     ................
  406ce8:	ff1f ffff f001 ff7f 00f0 f001 c107 ffff     ................
  406cf8:	e0c1 c0ff ff1f ffff f001 ff7f 00f0 f001     ................
  406d08:	c107 ffff e0c1 c0ff ff1f ffff f001 3e00     ...............>
  406d18:	7f00 0ffe fe87 070f ffff 01f8 07e0 00fc     ................
  406d28:	f001 3e00 7f00 0ffe fe87 070f ffff 01f8     ...>............
  406d38:	07e0 00fc f001 3e00 7f00 0ffe fe87 070f     .......>........
  406d48:	ffff 01f8 07e0 00fc f001 3e00 7f00 0ffe     ...........>....
  406d58:	fe87 070f ffff 01f8 07e0 00fc f001 c103     ................
  406d68:	78f0 0f00 ffff f8ff 0000 00f8 f81f 1f3c     .x............<.
  406d78:	f001 c103 78f0 0f00 ffff f8ff 0000 00f8     .....x..........
  406d88:	f81f 1f3c f001 c103 78f0 0f00 ffff f8ff     ..<......x......
  406d98:	0000 00f8 f81f 1f3c f001 c103 78f0 0f00     ......<......x..
  406da8:	ffff f8ff 0000 00f8 f81f 1f3c f001 c103     ..........<.....
  406db8:	78f0 0f00 ffff f8ff 0000 00f8 f81f 1f3c     .x............<.
  406dc8:	f001 007c 870f ffc1 00f8 ff0f e0ff c1ff     ..|.............
  406dd8:	00e0 003c f001 007c 870f ffc1 00f8 ff0f     ..<...|.........
  406de8:	e0ff c1ff 00e0 003c f001 007c 870f ffc1     ......<...|.....
  406df8:	00f8 ff0f e0ff c1ff 00e0 003c f001 007c     ..........<...|.
  406e08:	870f ffc1 00f8 ff0f e0ff c1ff 00e0 003c     ..............<.
  406e18:	f001 007c 870f ffc1 00f8 ff0f e0ff c1ff     ..|.............
  406e28:	00e0 003c ff01 3f80 87ff 0fc0 0180 ffff     ..<....?........
  406e38:	e0c1 fe07 0000 ff03 ff01 3f80 87ff 0fc0     ...........?....
  406e48:	0180 ffff e0c1 fe07 0000 ff03 ff01 3f80     ...............?
  406e58:	87ff 0fc0 0180 ffff e0c1 fe07 0000 ff03     ................
  406e68:	ff01 3f80 87ff 0fc0 0180 ffff e0c1 fe07     ...?............
  406e78:	0000 ff03 ff01 3f80 87ff 0fc0 0180 ffff     .......?........
  406e88:	e0c1 fe07 0000 ff03 ff01 c183 7ff0 00c0     ................
  406e98:	fe07 070f ffff fe07 f800 003c ff01 c183     ..........<.....
  406ea8:	7ff0 00c0 fe07 070f ffff fe07 f800 003c     ..............<.
  406eb8:	ff01 c183 7ff0 00c0 fe07 070f ffff fe07     ................
  406ec8:	f800 003c ff01 c183 7ff0 00c0 fe07 070f     ..<.............
  406ed8:	ffff fe07 f800 003c ff01 c183 7ff0 00c0     ......<.........
  406ee8:	fe07 070f ffff fe07 f800 003c f001 fe7f     ..........<.....
  406ef8:	f80f 0000 ff7f 07ff ffc1 0100 00e0 1f00     ................
  406f08:	f001 fe7f f80f 0000 ff7f 07ff ffc1 0100     ................
  406f18:	00e0 1f00 f001 fe7f f80f 0000 ff7f 07ff     ................
  406f28:	ffc1 0100 00e0 1f00 f001 fe7f f80f 0000     ................
  406f38:	ff7f 07ff ffc1 0100 00e0 1f00 ff01 0080     ................
  406f48:	7800 ff01 c087 f80f 1f00 0000 ff00 00c0     .x..............
  406f58:	ff01 0080 7800 ff01 c087 f80f 1f00 0000     .....x..........
  406f68:	ff00 00c0 ff01 0080 7800 ff01 c087 f80f     .........x......
  406f78:	1f00 0000 ff00 00c0 ff01 0080 7800 ff01     .............x..
  406f88:	c087 f80f 1f00 0000 ff00 00c0 ff01 0080     ................
  406f98:	7800 ff01 c087 f80f 1f00 0000 ff00 00c0     .x..............
  406fa8:	ff01 3f80 78f0 ff3f c1ff f8ff 003e fe07     ...?.x?.....>...
  406fb8:	001f ff3f ff01 3f80 78f0 ff3f c1ff f8ff     ..?....?.x?.....
  406fc8:	003e fe07 001f ff3f ff01 3f80 78f0 ff3f     >.....?....?.x?.
  406fd8:	c1ff f8ff 003e fe07 001f ff3f ff01 3f80     ....>.....?....?
  406fe8:	78f0 ff3f c1ff f8ff 003e fe07 001f ff3f     .x?.....>.....?.
  406ff8:	ff01 3f80 78f0 ff3f c1ff f8ff 003e fe07     ...?.x?.....>...
  407008:	001f ff3f f001 fe03 7800 0f00 00f8 000f     ..?......x......
  407018:	ff3f c1ff f8e0 0000 f001 fe03 7800 0f00     ?............x..
  407028:	00f8 000f ff3f c1ff f8e0 0000 f001 fe03     ....?...........
  407038:	7800 0f00 00f8 000f ff3f c1ff f8e0 0000     .x......?.......
  407048:	f001 fe03 7800 0f00 00f8 000f ff3f c1ff     .....x......?...
  407058:	f8e0 0000 f001 fe03 7800 0f00 00f8 000f     .........x......
  407068:	ff3f c1ff f8e0 0000 f001 c07f 7f00 f0ff     ?...............
  407078:	3f00 00ff 1f00 3ff8 f8e0 ff03 f001 c07f     .?.....?........
  407088:	7f00 f0ff 3f00 00ff 1f00 3ff8 f8e0 ff03     .....?.....?....
  407098:	f001 c07f 7f00 f0ff 3f00 00ff 1f00 3ff8     .........?.....?
  4070a8:	f8e0 ff03 f001 c07f 7f00 f0ff 3f00 00ff     .............?..
  4070b8:	1f00 3ff8 f8e0 ff03 f001 3e00 0000 0f00     ...?.......>....
  4070c8:	feff ff0f e0c1 ffff ffff 00c0 f001 3e00     ...............>
  4070d8:	0000 0f00 feff ff0f e0c1 ffff ffff 00c0     ................
  4070e8:	f001 3e00 0000 0f00 feff ff0f e0c1 ffff     ...>............
  4070f8:	ffff 00c0 f001 3e00 0000 0f00 feff ff0f     .......>........
  407108:	e0c1 ffff ffff 00c0 f001 3e00 0000 0f00     ...........>....
  407118:	feff ff0f e0c1 ffff ffff 00c0 f001 0100     ................
  407128:	7ff0 f0c1 0100 ffff 00fe 3ff8 f8e0 1f00     ...........?....
  407138:	f001 0100 7ff0 f0c1 0100 ffff 00fe 3ff8     ...............?
  407148:	f8e0 1f00 f001 0100 7ff0 f0c1 0100 ffff     ................
  407158:	00fe 3ff8 f8e0 1f00 f001 0100 7ff0 f0c1     ...?............
  407168:	0100 ffff 00fe 3ff8 f8e0 1f00 f001 0100     .......?........
  407178:	7ff0 f0c1 0100 ffff 00fe 3ff8 f8e0 1f00     ...........?....
  407188:	f001 3e7c 870f f0c1 3e78 070f e0c1 3ef8     ..|>....x>.....>
  407198:	071f e0c3 f001 3e7c 870f f0c1 3e78 070f     ......|>....x>..
  4071a8:	e0c1 3ef8 071f e0c3 f001 3e7c 870f f0c1     ...>......|>....
  4071b8:	3e78 070f e0c1 3ef8 071f e0c3 f001 3e7c     x>.....>......|>
  4071c8:	870f f0c1 3e78 070f e0c1 3ef8 071f e0c3     ....x>.....>....
  4071d8:	f001 3e7c 870f f0c1 3e78 070f e0c1 3ef8     ..|>....x>.....>
  4071e8:	071f e0c3                                   ....

004071ec <eink_Kanban2>:
  4071ec:	ffff ffff ffff ffff 0000 0000 ffff ffff     ................
	...
  407204:	ffff ffff 0000 0000 0000 0000 0000 0000     ................
  407214:	0000 0000 ffff ffff 0000 0000 ffff ffff     ................
	...
  407230:	ffff ffff ffff ffff 0000 0000 0000 0000     ................
  407240:	0000 0000 ffff ffff ffff ffff 0000 0000     ................
  407250:	ffff ffff ffff ffff ffff ffff 0000 0000     ................
	...
  407268:	ffff ffff 0000 0000 ffff ffff ffff ffff     ................
  407278:	0000 0000 ffff ffff ffff ffff ffff ffff     ................
  407288:	0000 0000 ffff ffff 0000 0000 0000 0000     ................
  407298:	0000 0000 ffff ffff 0000 0000 ffff ffff     ................
	...
  4072b4:	ffff ffff ffff ffff 0000 0000 0000 0000     ................
  4072c4:	0000 0000 ffff ffff 0000 0000 ffff ffff     ................
  4072d4:	ffff ffff ffff ffff 0000 0000 ffff ffff     ................
  4072e4:	ffff ffff 0000 0000 0000 0000 0000 0000     ................
  4072f4:	ffff ffff ffff ffff 0000 0000 ffff ffff     ................
	...
  407310:	ffff ffff 0000 0000 0000 0000 0000 0000     ................
  407320:	ffff ffff ffff ffff 0000 0000 ffff ffff     ................
  407330:	ffff ffff ffff ffff 0000 0000 0000 0000     ................
  407340:	ffff ffff 0000 0000 0000 0000 ffff ffff     ................
  407350:	ffff ffff 0000 0000 ffff ffff ffff ffff     ................
  407360:	ffff ffff 0000 0000 0000 0000 ffff ffff     ................
	...
  407378:	ffff ffff 0000 0000 ffff ffff ffff ffff     ................
  407388:	0000 0000 ffff ffff ffff ffff ffff ffff     ................
	...
  4073a4:	ffff ffff 0000 0000 0000 0000 ffff ffff     ................
  4073b4:	ffff ffff ffff ffff 0000 0000 0000 0000     ................
  4073c4:	ffff ffff ffff ffff 0000 0000 ffff ffff     ................
  4073d4:	ffff ffff ffff ffff 0000 0000 0000 0000     ................
  4073e4:	ffff ffff 0000 0000 ffff ffff ffff ffff     ................
	...
  4073fc:	ffff ffff 0000 0000 0000 0000 0000 0000     ................
  40740c:	ffff ffff 0000 0000 ffff ffff ffff ffff     ................
	...
  407428:	ffff ffff 0000 0000 0000 0000 ffff ffff     ................
  407438:	ffff ffff 0000 0000 ffff ffff ffff ffff     ................
  407448:	ffff ffff 0000 0000 0000 0000 ffff ffff     ................
  407458:	0000 0000 ffff ffff ffff ffff ffff ffff     ................
  407468:	0000 0000 ffff ffff ffff ffff 0000 0000     ................
	...
  407480:	ffff ffff ffff ffff 0000 0000 ffff ffff     ................
  407490:	ffff ffff ffff ffff 0000 0000 ffff ffff     ................
  4074a0:	ffff ffff ffff ffff 0000 0000 ffff ffff     ................
  4074b0:	ffff ffff 0000 0000 ffff ffff ffff ffff     ................
  4074c0:	ffff ffff 0000 0000 0000 0000 0000 0000     ................
  4074d0:	ffff ffff 0000 0000 ffff ffff 0000 0000     ................
  4074e0:	0000 0000 ffff ffff ffff ffff 0000 0000     ................
  4074f0:	ffff ffff ffff ffff ffff ffff 0000 0000     ................
  407500:	0000 0000 ffff ffff ffff ffff 0000 0000     ................
	...
  407518:	ffff ffff ffff ffff ffff ffff 0000 0000     ................
  407528:	ffff ffff 0000 0000 ffff ffff ffff ffff     ................
  407538:	0000 0000                                   ....

0040753c <eink_Kanban1>:
  40753c:	ff1f ffff 00fe ff01 0ffc ffff ffff ff1f     ................
  40754c:	ffff 00fe ff01 0ffc ffff ffff ff1f ffff     ................
  40755c:	00fe ff01 0ffc ffff ffff ff1f ffff 00fe     ................
  40756c:	ff01 0ffc ffff ffff ff1f ffff 00fe ff01     ................
  40757c:	0ffc ffff ffff 001f 0000 0f3e f0c1 0f7c     ..........>...|.
  40758c:	0080 1f00 001f 0000 0f3e f0c1 0f7c 0080     ........>...|...
  40759c:	1f00 001f 0000 0f3e f0c1 0f7c 0080 1f00     ......>...|.....
  4075ac:	001f 0000 0f3e f0c1 0f7c 0080 1f00 001f     ....>...|.......
  4075bc:	0000 0f3e f0c1 0f7c 0080 1f00 071f f8ff     ..>...|.........
  4075cc:	003e 0000 0f00 ff83 1ffc 071f f8ff 003e     >.............>.
  4075dc:	0000 0f00 ff83 1ffc 071f f8ff 003e 0000     ............>...
  4075ec:	0f00 ff83 1ffc 071f f8ff 003e 0000 0f00     ..........>.....
  4075fc:	ff83 1ffc 071f f8ff 003e 0000 0f00 ff83     ........>.......
  40760c:	1ffc 071f f8ff 003e 0000 0f00 ff83 1ffc     ......>.........
  40761c:	071f f8ff 0f3e f0ff 0f00 ff83 1ffc 071f     ....>...........
  40762c:	f8ff 0f3e f0ff 0f00 ff83 1ffc 071f f8ff     ..>.............
  40763c:	0f3e f0ff 0f00 ff83 1ffc 071f f8ff 0f3e     >.............>.
  40764c:	f0ff 0f00 ff83 1ffc 071f f8ff 0f3e f0ff     ............>...
  40765c:	0f00 ff83 1ffc 071f f8ff 0f3e ffff 0f80     ..........>.....
  40766c:	ff83 1ffc 071f f8ff 0f3e ffff 0f80 ff83     ........>.......
  40767c:	1ffc 071f f8ff 0f3e ffff 0f80 ff83 1ffc     ......>.........
  40768c:	071f f8ff 0f3e ffff 0f80 ff83 1ffc 071f     ....>...........
  40769c:	f8ff 0f3e ffff 0f80 ff83 1ffc 001f 0000     ..>.............
  4076ac:	003e 003e 0f7c 0080 1f00 001f 0000 003e     >.>.|.........>.
  4076bc:	003e 0f7c 0080 1f00 001f 0000 003e 003e     >.|.........>.>.
  4076cc:	0f7c 0080 1f00 001f 0000 003e 003e 0f7c     |.........>.>.|.
  4076dc:	0080 1f00 001f 0000 003e 003e 0f7c 0080     ........>.>.|...
  4076ec:	1f00 ff1f ffff 0ffe f0c1 0f7c ffff ffff     ..........|.....
  4076fc:	ff1f ffff 0ffe f0c1 0f7c ffff ffff ff1f     ........|.......
  40770c:	ffff 0ffe f0c1 0f7c ffff ffff ff1f ffff     ......|.........
  40771c:	0ffe f0c1 0f7c ffff ffff ff1f ffff 0ffe     ....|...........
  40772c:	f0c1 0f7c ffff ffff 0000 0000 0000 ff01     ..|.............
  40773c:	00fc 0000 0000 0000 0000 0000 ff01 00fc     ................
	...
  407754:	0000 ff01 00fc 0000 0000 0000 0000 0000     ................
  407764:	ff01 00fc 0000 0000 0000 0000 0000 ff01     ................
  407774:	00fc 0000 0000 0000 0000 0000 ff01 00fc     ................
  407784:	0000 0000 f81f 0700 ffff 00c0 0f00 ff83     ................
  407794:	0000 f81f 0700 ffff 00c0 0f00 ff83 0000     ................
  4077a4:	f81f 0700 ffff 00c0 0f00 ff83 0000 f81f     ................
  4077b4:	0700 ffff 00c0 0f00 ff83 0000 f81f 0700     ................
  4077c4:	ffff 00c0 0f00 ff83 0000 f81f 073f f0ff     ............?...
  4077d4:	ff01 f0ff 1f00 ffff f81f 073f f0ff ff01     ..........?.....
  4077e4:	f0ff 1f00 ffff f81f 073f f0ff ff01 f0ff     ........?.......
  4077f4:	1f00 ffff f81f 073f f0ff ff01 f0ff 1f00     ......?.........
  407804:	ffff f81f 073f f0ff ff01 f0ff 1f00 ffff     ....?...........
  407814:	ff1f 07ff ffc1 f0ff ff03 ffff 1f00 ff1f     ................
  407824:	07ff ffc1 f0ff ff03 ffff 1f00 ff1f 07ff     ................
  407834:	ffc1 f0ff ff03 ffff 1f00 ff1f 07ff ffc1     ................
  407844:	f0ff ff03 ffff 1f00 ff1f 07ff ffc1 f0ff     ................
  407854:	ff03 ffff 1f00 001f f800 ff3f 00c0 0000     ..........?.....
  407864:	1f00 ff03 001f f800 ff3f 00c0 0000 1f00     ........?.......
  407874:	ff03 001f f800 ff3f 00c0 0000 1f00 ff03     ......?.........
  407884:	001f f800 ff3f 00c0 0000 1f00 ff03 001f     ....?...........
  407894:	f800 ff3f 00c0 0000 1f00 ff03 0000 073f     ..?...........?.
  4078a4:	0ffe ffff ffff e0ff 1f00 0000 073f 0ffe     ............?...
  4078b4:	ffff ffff e0ff 1f00 0000 073f 0ffe ffff     ..........?.....
  4078c4:	ffff e0ff 1f00 0000 073f 0ffe ffff ffff     ........?.......
  4078d4:	e0ff 1f00 0000 073f 0ffe ffff ffff e0ff     ......?.........
  4078e4:	1f00 0000 073f 0ffe ffff ffff e0ff 1f00     ....?...........
  4078f4:	0700 00ff 0f3e ffc1 0080 0000 0000 0700     ....>...........
  407904:	00ff 0f3e ffc1 0080 0000 0000 0700 00ff     ..>.............
  407914:	0f3e ffc1 0080 0000 0000 0700 00ff 0f3e     >.............>.
  407924:	ffc1 0080 0000 0000 0700 00ff 0f3e ffc1     ............>...
  407934:	0080 0000 0000 0700 00c0 0f3e 00c0 0f00     ..........>.....
  407944:	ffff ffff 0700 00c0 0f3e 00c0 0f00 ffff     ........>.......
  407954:	ffff 0700 00c0 0f3e 00c0 0f00 ffff ffff     ......>.........
  407964:	0700 00c0 0f3e 00c0 0f00 ffff ffff 0700     ....>...........
  407974:	00c0 0f3e 00c0 0f00 ffff ffff ff1f f8ff     ..>.............
  407984:	0000 f03f 0f00 0080 1f00 ff1f f8ff 0000     ..?.............
  407994:	f03f 0f00 0080 1f00 ff1f f8ff 0000 f03f     ?.............?.
  4079a4:	0f00 0080 1f00 ff1f f8ff 0000 f03f 0f00     ............?...
  4079b4:	0080 1f00 ff1f f8ff 0000 f03f 0f00 0080     ..........?.....
  4079c4:	1f00 0000 f83f f001 ff3f 0ffc ff83 1ffc     ....?...?.......
  4079d4:	0000 f83f f001 ff3f 0ffc ff83 1ffc 0000     ..?...?.........
  4079e4:	f83f f001 ff3f 0ffc ff83 1ffc 0000 f83f     ?...?.........?.
  4079f4:	f001 ff3f 0ffc ff83 1ffc 0000 f83f f001     ..?.........?...
  407a04:	ff3f 0ffc ff83 1ffc ff1f 00c0 0000 0000     ?...............
  407a14:	0f7c ff83 1ffc ff1f 00c0 0000 0000 0f7c     |.............|.
  407a24:	ff83 1ffc ff1f 00c0 0000 0000 0f7c ff83     ............|...
  407a34:	1ffc ff1f 00c0 0000 0000 0f7c ff83 1ffc     ..........|.....
  407a44:	ff1f 00c0 0000 0000 0f7c ff83 1ffc ff1f     ........|.......
  407a54:	00c0 0000 0000 0f7c ff83 1ffc f81f ff3f     ......|.......?.
  407a64:	ffc1 ffff 0f80 ff83 1ffc f81f ff3f ffc1     ............?...
  407a74:	ffff 0f80 ff83 1ffc f81f ff3f ffc1 ffff     ..........?.....
  407a84:	0f80 ff83 1ffc f81f ff3f ffc1 ffff 0f80     ........?.......
  407a94:	ff83 1ffc f81f ff3f ffc1 ffff 0f80 ff83     ......?.........
  407aa4:	1ffc 0700 00c0 0f3e 00fe 0f00 0080 1f00     ......>.........
  407ab4:	0700 00c0 0f3e 00fe 0f00 0080 1f00 0700     ....>...........
  407ac4:	00c0 0f3e 00fe 0f00 0080 1f00 0700 00c0     ..>.............
  407ad4:	0f3e 00fe 0f00 0080 1f00 0700 00c0 0f3e     >.............>.
  407ae4:	00fe 0f00 0080 1f00 ff00 f8c0 f001 f03f     ..............?.
  407af4:	0f00 ffff ffff ff00 f8c0 f001 f03f 0f00     ............?...
  407b04:	ffff ffff ff00 f8c0 f001 f03f 0f00 ffff     ..........?.....
  407b14:	ffff ff00 f8c0 f001 f03f 0f00 ffff ffff     ........?.......
  407b24:	ff00 f8c0 f001 f03f 0f00 ffff ffff 0000     ......?.........
	...

00407b40 <RobotoMedium_14pt_CharCount>:
  407b40:	0505 0c06 0e0b 030c 0707 0b08 0604 0805     ................
  407b50:	0b0b 0b0b 0b0b 0b0b 0b0b 0505 0b0a 090a     ................
  407b60:	0d11 0c0c 0b0c 0d0a 050e 0c0b 110a 0d0d     ................
  407b70:	0d0c 0b0c 0c0c 110c 0c0c 050b 0508 0908     ................
  407b80:	0a06 0a0b 0a0b 0b07 050b 0a05 1105 0b0b     ................
  407b90:	0b0b 0a07 0b06 0e09 090a 060a 0605 000d     ................

00407ba0 <RobotoMedium_14pt_Table>:
	...
  407bb0:	0000 0fe0 e006 067f 7fe0 0006 0000 0000     ................
  407bc0:	e000 0003 0060 0000 0000 03e0 6000 0000     ....`........`..
  407bd0:	0000 0000 0040 4400 0007 07fc 7fe0 e000     ....@..D........
  407be0:	0045 4400 0007 07fc 7fe0 e000 0045 4400     E..D........E..D
	...
  407bf8:	0180 87c0 e003 070f 1c60 7806 1e18 1878     ........`..x..x.
  407c08:	e01e 0730 f1c0 8003 01e1 0000 0000 0000     ..0.............
  407c18:	03c0 e000 0007 0420 2002 0384 c7e0 8000     ...... .. ......
  407c28:	0071 9c00 0001 03c6 2380 8004 0420 6000     q........#.. ..`
  407c38:	0006 03c0 0000 0000 0000 e000 c001 03f3     ................
  407c48:	3fe0 6007 061c 3c60 6006 0676 c7c0 8007     .?.`..`<.`v.....
  407c58:	0381 f000 0007 06f0 0000 0004 0000 03e0     ................
	...
  407c70:	0070 ff00 c007 1f8f 00e0 3038 6000 0000     p.........80.`..
  407c80:	0000 0000 0030 e060 3800 8fc0 001f 07ff     ....0.`..8......
  407c90:	f800 0000 0000 0180 8000 0009 1d00 6000     ...............`
  407ca0:	0007 07e0 0000 001d 0900 8000 0001 0000     ................
  407cb0:	0000 0030 3000 0000 0030 ff00 0003 03ff     ..0..0..0.......
  407cc0:	3000 0000 0030 3000 0000 0030 0000 0000     .0..0..0..0.....
  407cd0:	2000 0000 003e 1e00 0000 0000 0000 3000     . ..>..........0
  407ce0:	0000 0030 3000 0000 0030 3000 0000 0000     ..0..0..0..0....
  407cf0:	0000 0006 0600 0000 0006 0000 0000 0008     ................
  407d00:	0f00 e000 0003 007c 0f80 e000 0003 0060     ......|.......`.
	...
  407d18:	00ff ffc0 e003 0781 0060 6006 0600 0060     ........`..`..`.
  407d28:	e006 0781 ffc0 0003 00ff 0000 0000 0000     ................
  407d38:	0000 8000 0001 00c0 c000 0000 ffc0 e007     ................
  407d48:	07ff 0000 0000 0000 0000 0000 0000 0000     ................
  407d58:	8000 0603 03c0 e007 0780 c060 6006 0660     ..........`..``.
  407d68:	3860 e006 061f 0fc0 0006 0603 0000 0000     `8..............
  407d78:	0000 8180 c001 0381 00e0 6007 0618 1860     ...........`..`.
  407d88:	6006 0618 7fe0 c007 03f7 c300 0001 0000     .`..............
  407d98:	0000 0000 00e0 f800 0000 00dc c700 c000     ................
  407da8:	00c3 ffe0 e007 07ff ffe0 0007 00c0 0000     ................
  407db8:	0000 0000 8000 e000 039f 9fe0 6007 060c     .............`..
  407dc8:	0c60 6006 060c 1c60 6007 03f8 f060 0001     `..`..`..`..`...
  407dd8:	0000 0000 0000 00fc ff00 c003 039f 0cc0     ................
  407de8:	e006 060c 0c60 6006 071c f800 0003 01f0     ....`..`........
  407df8:	0000 0000 0000 0060 6000 0400 0060 6007     ......`..`..`..`
  407e08:	07c0 f060 6001 007c 0fe0 e000 0003 00e0     ..`..`|.........
	...
  407e20:	01e3 f7c0 e003 073f 1860 6006 0618 1860     ......?.`..`..`.
  407e30:	e006 073f f7c0 0003 01c3 0000 0000 0000     ..?.............
  407e40:	0f80 c000 001f 38e0 6006 0630 3060 6006     .......8.`0.`0.`
  407e50:	0330 f9c0 c003 00ff 3f00 0000 0000 0000     0........?......
  407e60:	0000 0606 0600 0006 0606 0000 0000 2000     ............... 
  407e70:	0600 003e 1e06 0600 0000 0000 0000 0000     ..>.............
  407e80:	0070 7000 0000 0058 d800 0000 00cc 8c00     p..p..X.........
  407e90:	0001 038e 0000 0000 0000 0000 0000 00cc     ................
  407ea0:	cc00 0000 00cc cc00 0000 00cc cc00 0000     ................
  407eb0:	00cc cc00 0000 0000 0000 0000 0000 8600     ................
  407ec0:	0003 018c 8c00 0001 00cc d800 0000 0058     ..............X.
  407ed0:	7000 0000 0070 0000 0000 0000 01c0 e000     .p..p...........
  407ee0:	0001 6060 6006 0678 3c60 e000 000f 07c0     ..``.`x.`<......
	...
  407ef8:	07f0 fe00 001f 3807 0180 8020 63e0 f840     .......8.. ..c@.
  407f08:	4047 440c 0440 4044 4204 fc40 4063 64f8     G@.D@.D@.B@.c@.d
  407f18:	0080 8004 0401 0700 0003 01fc 0000 0000     ................
  407f28:	0000 8000 0007 07e0 fc00 8001 00ff c3e0     ................
  407f38:	e000 00c1 cfe0 0000 00ff f800 0001 07e0     ................
  407f48:	8000 0007 0000 0000 e000 07ff ffe0 e007     ................
  407f58:	07ff 1860 6006 0618 1860 6006 0618 3ce0     ..`..`..`..`...<
  407f68:	c007 03f7 e380 0001 0000 0000 0000 00ff     ................
  407f78:	ffc0 c003 0381 00e0 6006 0600 0060 6006     .........`..`..`
  407f88:	0600 00e0 c007 03c3 c380 0001 0000 0000     ................
  407f98:	e000 07ff ffe0 e007 07ff 0060 6006 0600     ..........`..`..
  407fa8:	0060 e006 0700 81c0 8003 01ff ff00 0000     `...............
  407fb8:	0000 0000 e000 07ff ffe0 e007 07ff 1860     ..............`.
  407fc8:	6006 0618 1860 6006 0618 1860 6006 0600     .`..`..`..`..`..
  407fd8:	0000 0000 0000 ffe0 e007 07ff ffe0 6007     ...............`
  407fe8:	0018 1860 6000 0018 1860 6000 0018 0060     ..`..`..`..`..`.
  407ff8:	0000 0000 7f00 8000 01ff c3c0 e003 0700     ................
  408008:	0060 6006 0600 3060 e006 0630 f1c0 8007     `..`..`0..0.....
  408018:	03f1 f100 0001 0000 0000 e000 07ff ffe0     ................
  408028:	e007 07ff 1800 0000 0018 1800 0000 0018     ................
  408038:	1800 0000 0018 ffe0 e007 07ff ffe0 0007     ................
	...
  408050:	ffe0 e007 07ff 0000 0000 0000 8000 0003     ................
  408060:	0380 0000 0007 0600 0000 0006 0700 ffe0     ................
  408070:	e003 03ff 0000 0000 0000 0000 e000 07ff     ................
  408080:	ffe0 e007 07ff 3800 0000 001e 7f00 8000     .......8........
  408090:	00f3 c1c0 e003 0780 0060 2006 0400 0000     ........`.. ....
  4080a0:	e000 07ff ffe0 e007 07ff 0000 0006 0600     ................
  4080b0:	0000 0006 0600 0000 0006 0600 0000 e000     ................
  4080c0:	07ff ffe0 e007 07ff 07e0 0000 003f f800     ............?...
  4080d0:	0000 03e0 8000 0003 03f0 7c00 8000 001f     ...........|....
  4080e0:	03e0 e000 07ff ffe0 0007 0000 0000 0000     ................
  4080f0:	0000 ffe0 e007 07ff 01e0 8000 0007 1e00     ................
  408100:	0000 003c f000 0000 03e0 ffe0 e007 07ff     ..<.............
  408110:	ffe0 0007 0000 0000 0000 00ff ff80 c001     ................
  408120:	03c3 00e0 6007 0600 0060 6006 0600 00e0     .....`..`..`....
  408130:	c007 0381 ff80 0001 00ff 0000 0000 0000     ................
  408140:	ffe0 e007 07ff ffe0 6007 0030 3060 6000     .........`0.`0.`
  408150:	0030 3060 e000 0038 1fc0 8000 000f 0000     0.`0..8.........
  408160:	0000 0000 ff00 8000 01ff 81c0 e003 0700     ................
  408170:	0060 6006 0600 0060 e006 0f00 c3c0 800f     `..`..`.........
  408180:	19ff ff00 0018 0000 0000 e000 07ff ffe0     ................
  408190:	e007 07ff 3060 6000 0030 3060 6000 00f0     ....`0.`0.`0.`..
  4081a0:	f8e0 c003 079f 0f80 0006 0400 0000 8000     ................
  4081b0:	0187 8fc0 e003 070c 1c60 6006 0618 1860     ........`..`..`.
  4081c0:	e006 0638 f1c0 c003 03e1 0000 6000 0000     ..8..........`..
  4081d0:	0060 6000 0000 0060 6000 0000 ffe0 e007     `..`..`..`......
  4081e0:	07ff 0060 6000 0000 0060 6000 0000 0000     ..`..`..`..`....
  4081f0:	0000 0000 ffe0 e001 03ff 8000 0007 0600     ................
  408200:	0000 0006 0600 0000 0006 0700 ffe0 e003     ................
  408210:	01ff 0000 2000 0000 01e0 e000 000f 7f00     ..... ..........
  408220:	0000 03f8 c000 0007 07c0 f800 0003 007f     ................
  408230:	0fe0 e000 0001 0020 0000 0000 01e0 e000     ...... .........
  408240:	003f ff00 0003 07e0 c000 0007 01fe 1fe0     ?...............
  408250:	e000 0001 0fe0 0000 00fe e000 0007 07c0     ................
  408260:	ff00 e007 003f 03e0 2000 0000 0020 6004     ....?.... .. ..`
  408270:	0600 80e0 c007 03c3 ff80 0001 007e 7e00     ............~..~
  408280:	8000 00ff c3c0 e003 0781 0060 2006 0400     ..........`.. ..
  408290:	0020 e000 0000 03e0 8000 000f 3e00 0000      ............>..
  4082a0:	07f8 fc00 0007 001f 07c0 e000 0001 0060     ..............`.
  4082b0:	0000 0000 0000 6000 0700 8060 6007 07e0     .......`..`..`..
  4082c0:	f060 6006 063c 1e60 e006 0607 03e0 e006     `..`<.`.........
  4082d0:	0600 0060 0006 0000 fff8 f83f 3fff 0018     ..`.......?..?..
  4082e0:	1830 3000 0020 e000 0000 07e0 0000 003f     0..0 .........?.
  4082f0:	f800 0000 07e0 0000 000f 0800 0018 1830     ..............0.
  408300:	3000 fff8 f83f 3fff 0000 0000 0008 0e00     .0..?..?........
  408310:	8000 000f 01e0 e000 0001 0f80 0000 000e     ................
  408320:	0800 0000 1800 0000 0018 1800 0000 0018     ................
  408330:	1800 0000 0018 1800 0000 0018 1800 0020     .............. .
  408340:	2000 0000 0060 c000 0000 0080 0000 0000     . ..`...........
  408350:	0000 0000 03c8 ec00 0007 0666 6600 0006     ..........f..f..
  408360:	0666 6e00 0003 07fc f800 0007 0000 0000     f..n............
  408370:	e000 07ff ffe0 e007 03ff 0600 0006 0606     ................
  408380:	0600 0006 070e fc00 0003 01f8 0000 0000     ................
  408390:	0000 f800 0001 03fc 0e00 0007 0606 0600     ................
  4083a0:	0006 0606 1e00 0003 031c 0000 0000 0000     ................
  4083b0:	f800 0001 03fc 0e00 0007 0606 0600 0006     ................
  4083c0:	0606 ffe0 e003 07ff ffe0 0007 0000 0000     ................
  4083d0:	0000 01f8 fc00 0003 076e 6600 0006 0666     ........n..f..f.
  4083e0:	6600 0006 067c 7c00 0003 0000 0000 0000     .f..|..|........
  4083f0:	0006 ffc0 e007 07ff 06e0 6000 0006 0060     ...........`..`.
  408400:	0000 0000 f800 0031 73fc 0e00 0067 6606     ......1..s..g..f
  408410:	0600 0066 6606 fc00 007f 3ffe fe00 000f     ..f..f.....?....
  408420:	0000 0000 e000 07ff ffe0 e007 07ff 0400     ................
  408430:	0000 0006 0600 0000 07fe fc00 0007 07f8     ................
  408440:	0000 0000 0000 fec0 c007 07fe fec0 0007     ................
  408450:	0000 0000 c060 7ffe fec0 c03f 1ffe 0000     ....`.....?.....
  408460:	0000 0000 ffe0 e007 07ff e000 0000 0070     ..............p.
  408470:	f800 0000 03ce 8600 0007 0602 0000 0004     ................
  408480:	0000 ffe0 e007 07ff ffe0 0007 0000 0000     ................
  408490:	0000 07fe fe00 0007 07fe 0600 0000 0006     ................
  4084a0:	0600 0000 07fe fc00 0007 07fc 0600 0000     ................
  4084b0:	0006 0600 0000 07fe fc00 0007 07f8 0000     ................
  4084c0:	0000 0000 fe00 0007 07fe fc00 0007 0006     ................
  4084d0:	0600 0000 0006 fe00 0007 07fc f800 0007     ................
  4084e0:	0000 0000 0000 01f8 fc00 0003 070e 0600     ................
  4084f0:	0006 0606 0600 0006 070e fc00 0003 01f8     ................
  408500:	0000 0000 0000 fe00 007f 7ffe fc00 007f     ................
  408510:	0606 0600 0006 0606 0e00 0007 03fc f800     ................
  408520:	0001 0000 0000 0000 01f8 fc00 0003 070e     ................
  408530:	0600 0006 0606 0600 0006 7ffc fe00 007f     ................
  408540:	7ffe 0000 0000 0000 fe00 0007 07fe fc00     ................
  408550:	0007 0006 0600 0000 0006 0000 0000 0318     ................
  408560:	3c00 0003 063e 6600 0006 0666 6e00 0006     .<..>..f..f..n..
  408570:	03cc c800 0003 0000 0600 0000 0006 ff80     ................
  408580:	8007 07ff 0600 0006 0606 0000 0000 01fe     ................
  408590:	fe00 0003 07fe 0000 0006 0600 0000 0006     ................
  4085a0:	07fe fe00 0007 07fe 0000 0000 0002 1e00     ................
  4085b0:	0000 00fe e000 0007 0700 e000 0007 00fe     ................
  4085c0:	1e00 0000 0002 0200 0000 003e fe00 0001     ..........>.....
  4085d0:	07e0 c000 0007 01f8 3e00 0000 003e f800     .........>..>...
  4085e0:	0001 0780 e000 0007 01fe 1e00 0000 0002     ................
  4085f0:	0200 0004 0606 8e00 0007 03fc f000 0000     ................
  408600:	01f8 9e00 0003 070e 0200 0004 0000 0200     ................
  408610:	0000 601e fe00 0060 7ff0 0000 003f 07e0     ...`..`.....?...
  408620:	fe00 0000 001e 0200 0000 0000 0600 0007     ................
  408630:	0786 c600 0007 06e6 7e00 0006 061e 0e00     .........~......
  408640:	0006 0606 0000 0000 0030 3000 c000 0fff     ........0..0....
  408650:	cfe0 701f 3800 0010 0020 0000 0000 e000     ...p.8.. .......
  408660:	3fff 0000 0000 0000 0010 7030 3800 cfe0     .?........0p.8..
  408670:	c01f 0fff 3000 0000 0030 0000 0000 0060     .....0..0.....`.
  408680:	7000 0000 0018 1800 0000 0018 3000 0000     .p...........0..
  408690:	0060 6000 0000 0060 3800 0000 0018 0000     `..`..`..8......
  4086a0:	0000 0000                                   ....

004086a4 <RobotoLight_24pt_CharCount>:
  4086a4:	0708 1309 1812 0514 0a0a 120e 0906 0d08     ................
  4086b4:	1212 1212 1212 1212 1212 0607 1210 0f11     ................
  4086c4:	141d 1514 1215 1612 0917 1412 1c11 1617     ................
  4086d4:	1614 1314 1513 1d14 1314 0813 080d 0e0d     ................
  4086e4:	1109 1012 1112 120b 0712 1007 1c07 1212     ................
  4086f4:	1212 100b 120a 180f 0f10 0b10 0b07 0016     ................

00408704 <RobotoLight_24pt_Table>:
	...
  408738:	4000 0000 fffc 00e1 0000 4000 0000 0000     .@.........@....
	...
  408758:	0000 007c 0000 7c00 0000 0000 0000 0000     ..|....|........
  408768:	0000 0000 0000 007c 0000 7c00 0000 0000     ......|....|....
	...
  408784:	0003 0000 0300 0000 0300 0003 0000 c303     ................
  408794:	0000 0300 00ff 0000 0ff3 0000 3fc0 0003     .............?..
  4087a4:	fc00 0303 0000 0304 0003 0000 0303 0000     ................
  4087b4:	0300 00fb 0000 3fc3 0000 ff00 0003 f800     .......?........
  4087c4:	030f 0000 033c 0003 0000 0303 0000 0300     ....<...........
  4087d4:	0003 0000 0003 0000 0000 0000 0000 0000     ................
  4087e4:	0000 0000 000e f000 3e03 0000 07f8 0070     .........>....p.
  4087f4:	0c00 600e 0000 0c0c 00e0 0400 c018 0000     ...`............
  408804:	1804 00c0 0400 c018 0007 3004 00c0 0400     ...........0....
  408814:	c030 0000 600c 0060 3c00 70e0 0000 c0f8     0....``..<.p....
  408824:	003f e000 1f80 0000 0000 0000 0000 0000     ?...............
	...
  408840:	03f8 0000 1c00 0007 0000 0c04 0000 0400     ................
  408850:	000c 0000 0c04 0030 0400 1c0c 0000 060c     ......0.........
  408860:	0006 f800 0383 0000 c0e0 0000 0000 0070     ..............p.
  408870:	0000 1800 0000 0000 1f0e 0000 c380 007f     ................
  408880:	c000 60c0 0000 6070 00c0 1000 c060 0000     ...`..p`....`...
  408890:	6000 00c0 0000 e0e0 0000 c000 0071 0000     .`..........q...
  4088a0:	3f80 0000 0000 0000 0000 0000 0000 0000     .?..............
	...
  4088b8:	0000 001f 0000 3fc0 0000 e1f8 0070 fc00     .......?....p...
  4088c8:	6033 0000 3e0c 00c0 0400 c01c 0000 3c04     3`...>.........<
  4088d8:	00c0 0400 c066 0000 c604 00c0 0c00 c183     ....f...........
  4088e8:	0000 01fc 0063 7800 7600 0000 0000 003c     ....c..x.v....<.
  4088f8:	0000 3c00 0000 8000 006f 0000 c3c0 0000     ...<....o.......
  408908:	0000 0080 0000 0000 0000 0000 0000 0000     ................
  408918:	0000 0000 007c 0000 0400 0000 0000 0000     ....|...........
	...
  408934:	0000 07fc 0000 ffc0 007f f000 f001 0001     ................
  408944:	001c 0700 0400 0000 001c 0000 3000 0000     .............0..
  408954:	0000 0060 0000 4000 0000 0000 0040 0000     ..`....@....@...
  408964:	6000 0000 0000 0038 0004 1c00 3c00 8000     .`....8......<..
  408974:	0007 01f0 01f0 c000 7fff 0000 fc00 0007     ................
	...
  408994:	0060 0000 6000 0000 0000 38c0 0000 c000     `....`.....8....
  4089a4:	001c 0000 0680 0000 fc00 0003 0000 03fc     ................
  4089b4:	0000 8000 000e 0000 18c0 0000 c000 0030     ..............0.
  4089c4:	0000 0060 0000 6000 0000 0000 0000 0000     ..`....`........
  4089d4:	0000 0000 0000 3000 0000 0000 0030 0000     .......0....0...
  4089e4:	3000 0000 0000 0030 0000 3000 0000 0000     .0....0....0....
  4089f4:	0030 0000 3000 0000 e000 3fff 0000 ffe0     0....0.....?....
  408a04:	003f 0000 0030 0000 3000 0000 0000 0030     ?...0....0....0.
  408a14:	0000 3000 0000 0000 0030 0000 3000 0000     ...0....0....0..
  408a24:	0000 0030 0000 0000 0000 0000 0000 0000     ..0.............
  408a34:	0000 0800 0000 e000 000f 0000 03e0 0000     ................
	...
  408a50:	0000 6000 0000 0000 0060 0000 6000 0000     ...`....`....`..
  408a60:	0000 0060 0000 6000 0000 0000 0060 0000     ..`....`....`...
  408a70:	6000 0000 0000 0000 0000 0000 0000 0000     .`..............
  408a80:	0000 0000 0000 0040 0000 e000 0000 0000     ......@.........
  408a90:	00e0 0000 0000 0000 0000 0000 0000 0000     ................
  408aa0:	0000 0000 0200 0000 8000 0003 0000 01e0     ................
  408ab0:	0000 3c00 0000 8000 000f 0000 01e0 0000     ...<............
  408ac0:	7c00 0000 8000 000f 0000 01e0 0000 7c00     .|.............|
  408ad0:	0000 0000 000c 0000 0000 0000 0000 0000     ................
	...
  408aec:	c000 07ff 0000 fff0 001f 3800 3800 0000     ...........8.8..
  408afc:	000c 0070 0c00 e000 0000 0004 00c0 0400     ..p.............
  408b0c:	c000 0000 0004 00c0 0400 c000 0000 000c     ................
  408b1c:	00e0 0c00 6000 0000 0038 0038 f000 1fff     .....`..8.8.....
  408b2c:	0000 ffc0 0007 0000 0000 0000 0000 0000     ................
	...
  408b4c:	0030 0000 1800 0000 0000 0018 0000 1800     0...............
  408b5c:	0000 0000 000c 0000 0c00 0000 0000 fffc     ................
  408b6c:	00ff fc00 ffff 0000 0000 0000 0000 0000     ................
	...
  408ba0:	e000 c000 0000 00f0 00e0 1800 f000 0000     ................
  408bb0:	000c 00d8 0400 cc00 0000 0004 00c7 0400     ................
  408bc0:	c380 0000 c004 00c1 0400 c0e0 0000 700c     ...............p
  408bd0:	00c0 0c00 c018 0000 0ff8 00c0 f000 c003     ................
  408be0:	0000 0000 00c0 0000 c000 0000 0000 0000     ................
	...
  408bf8:	0000 6000 1c00 0000 0078 003c 1c00 7000     ...`....x.<....p
  408c08:	0000 000c 0060 0400 c018 0000 1804 00c0     ....`...........
  408c18:	0400 c018 0000 1804 00c0 0400 c018 0000     ................
  408c28:	3c04 00c0 0c00 603c 0000 673c 0070 f800     .<....<`..<gp...
  408c38:	3fc3 0000 80e0 000f 0000 0000 0000 0000     .?..............
	...
  408c50:	0000 0006 0000 0780 0000 c000 0007 0000     ................
  408c60:	0670 0000 3800 0006 0000 060e 0000 0380     p....8..........
  408c70:	0006 c000 0601 0000 0070 0006 3800 0600     ........p....8..
  408c80:	0000 000c 0006 fc00 ffff 0000 fffc 00ff     ................
  408c90:	0000 0600 0000 0000 0006 0000 0600 0000     ................
	...
  408cb4:	0000 001c f800 3c0f 0000 0ffc 0070 0400     .......<....p...
  408cc4:	600c 0000 0604 00c0 0400 c006 0000 0604     .`..............
  408cd4:	00c0 0400 c006 0000 0604 00c0 0400 e00e     ................
  408ce4:	0000 1c04 0070 0400 3c78 0000 f004 001f     ....p...x<......
  408cf4:	0000 07c0 0000 0000 0000 0000 0000 0000     ................
  408d04:	0000 0000 0000 03fc 0000 ff80 001f e000     ................
  408d14:	3819 0000 0c70 0070 1800 600c 0000 061c     .8..p.p....`....
  408d24:	00c0 0c00 c006 0000 060c 00c0 0400 c006     ................
  408d34:	0000 0604 00c0 0400 600c 0000 1c00 0070     .........`....p.
  408d44:	0000 3ff8 0000 e000 000f 0000 0000 0000     ...?............
	...
  408d5c:	0000 0004 0000 0400 0000 0000 0004 0000     ................
  408d6c:	0400 8000 0000 0004 00c0 0400 f000 0000     ................
  408d7c:	0004 003e 0400 0780 0000 e004 0001 0400     ..>.............
  408d8c:	0078 0000 1e04 0000 8400 0007 0000 00f4     x...............
  408d9c:	0000 3c00 0000 0000 000c 0000 0000 0000     ...<............
	...
  408dbc:	c000 1f80 0000 c3f8 003f 3c00 7067 0000     ........?..<gp..
  408dcc:	3c0c 0060 0c00 c01c 0000 1804 00c0 0400     .<`.............
  408ddc:	c018 0000 1804 00c0 0400 c018 0000 180c     ................
  408dec:	00c0 0c00 603c 0000 663c 0070 f800 3fc3     ....<`..<fp....?
  408dfc:	0000 80e0 001f 0000 0000 0000 0000 0000     ................
	...
  408e14:	0000 e000 000f 0000 3ff8 0000 1c00 0070     .........?....p.
  408e24:	0000 600c 00c0 0400 c0c0 0000 c004 00c0     ...`............
  408e34:	0400 c0c0 0000 c004 0060 0400 60c0 0000     ........`....`..
  408e44:	600c 0030 1c00 3830 0000 3838 001f f000     .`0...08..88....
  408e54:	07ff 0000 ff80 0000 0000 0000 0000 0000     ................
	...
  408e70:	0000 4001 0000 0380 00e0 8000 e003 0000     ...@............
	...
  408e90:	0000 0008 0100 0fe0 8000 e003 0003 0380     ................
	...
  408eac:	0000 0020 0000 7000 0000 0000 0050 0000     .. ....p....P...
  408ebc:	d800 0000 0000 00d8 0000 8c00 0001 0000     ................
  408ecc:	018c 0000 0600 0003 0000 0306 0000 0200     ................
  408edc:	0002 0000 0603 0000 0300 0006 8000 0c01     ................
	...
  408f00:	0000 0c00 0003 0000 030c 0000 0c00 0003     ................
  408f10:	0000 030c 0000 0c00 0003 0000 030c 0000     ................
  408f20:	0c00 0003 0000 030c 0000 0c00 0003 0000     ................
  408f30:	030c 0000 0c00 0003 0000 030c 0000 0c00     ................
  408f40:	0003 0000 0000 0000 0000 0000 0000 0000     ................
	...
  408f5c:	0180 000c 0000 0603 0000 0300 0006 0000     ................
  408f6c:	0202 0000 0600 0003 0000 0306 0000 8c00     ................
  408f7c:	0001 0000 018c 0000 8800 0000 0000 00d8     ................
  408f8c:	0000 5000 0000 0000 0070 0000 7000 0000     ...P....p....p..
	...
  408fb0:	7000 0000 0000 003c 0000 0c00 0000 0000     .p....<.........
  408fc0:	0004 0000 0400 e180 0000 e004 00e1 0400     ................
  408fd0:	0030 0000 1804 0000 0c00 000c 0000 073c     0.............<.
  408fe0:	0000 f800 0003 0000 0000 0000 0000 0000     ................
	...
  408ffc:	f000 007f 0000 f07e 0001 0700 0780 c000     ......~.........
  40900c:	0001 000e 00e0 1c00 7000 0000 0018 0030     .........p....0.
  40901c:	3000 1800 3fc0 0030 f018 6071 1800 e038     .0...?0...q`..8.
  40902c:	0060 0c0c 60c0 0c00 c00e 0060 060c 60c0     `....`....`....`
  40903c:	0c00 6006 0060 060c 6030 0c00 1c06 0030     ...``...0`....0.
  40904c:	fc0c 307f 1800 e01c 0020 0018 00c0 1800     ...0.... .......
  40905c:	c000 0000 0030 00c0 6000 4000 0000 00c0     ....0....`.@....
  40906c:	0070 8000 3c07 0000 fe00 000f 0000 0000     p....<..........
	...
  409084:	8000 0000 0000 00e0 0000 f800 0000 0000     ................
  409094:	001f 0000 07e0 0000 f800 0003 0000 031f     ................
  4090a4:	0000 03e0 0003 7800 0300 0000 001c 0003     .......x........
  4090b4:	1c00 0300 0000 00f8 0003 e000 0303 0000     ................
  4090c4:	1f00 0003 0000 03f8 0000 e000 0007 0000     ................
  4090d4:	1f00 0000 0000 00f8 0000 e000 0000 0000     ................
  4090e4:	0080 0000 0000 0000 0000 0000 0000 0000     ................
  4090f4:	0000 fffc 00ff fc00 ffff 0000 1804 00c0     ................
  409104:	0400 c018 0000 1804 00c0 0400 c018 0000     ................
  409114:	1804 00c0 0400 c018 0000 1804 00c0 0400     ................
  409124:	c018 0000 1c0c 00e0 1c00 6036 0000 67f8     ..........6`...g
  409134:	0070 f000 3fe3 0000 8000 000f 0000 0000     p....?..........
	...
  409154:	0000 01ff 0000 ffe0 000f f000 1e00 0000     ................
  409164:	0038 0038 1c00 7000 0000 000c 0060 0400     8.8....p....`...
  409174:	c000 0000 0004 00c0 0400 c000 0000 0004     ................
  409184:	00c0 0400 c000 0000 0004 00c0 0c00 6000     ...............`
  409194:	0000 001c 0070 3800 3800 0000 01f0 001f     ....p..8.8......
  4091a4:	c000 0701 0000 0000 0000 0000 0000 0000     ................
	...
  4091c0:	0000 fc00 ffff 0000 fffc 00ff 0400 c000     ................
  4091d0:	0000 0004 00c0 0400 c000 0000 0004 00c0     ................
  4091e0:	0400 c000 0000 0004 00c0 0400 c000 0000     ................
  4091f0:	000c 0060 0c00 6000 0000 001c 0070 3800     ..`....`....p..8
  409200:	3800 0000 00f0 001e c000 07ff 0000 ff00     .8..............
  409210:	0001 0000 0000 0000 0000 0000 0000 0000     ................
	...
  40922c:	fffc 00ff fc00 ffff 0000 1804 00c0 0400     ................
  40923c:	c018 0000 1804 00c0 0400 c018 0000 1804     ................
  40924c:	00c0 0400 c018 0000 1804 00c0 0400 c018     ................
  40925c:	0000 1804 00c0 0400 c018 0000 0004 00c0     ................
  40926c:	0400 c000 0000 0000 0000 0000 0000 0000     ................
	...
  409284:	0000 fffc 00ff fc00 ffff 0000 1804 0000     ................
  409294:	0400 0018 0000 1804 0000 0400 0018 0000     ................
  4092a4:	1804 0000 0400 0018 0000 1804 0000 0400     ................
  4092b4:	0018 0000 1804 0000 0400 0018 0000 0004     ................
  4092c4:	0000 0400 0000 0000 0000 0000 0000 0000     ................
	...
  4092dc:	00fe 0000 ffe0 0007 f000 1f01 0000 0038     ..............8.
  4092ec:	0038 1c00 7000 0000 000c 0060 0400 e000     8....p....`.....
  4092fc:	0000 0004 00c0 0400 c000 0000 6004 00c0     .............`..
  40930c:	0400 c060 0000 6004 00c0 0c00 c060 0000     ..`....`....`...
  40931c:	600c 0060 1800 6060 0000 e0f8 007f e000     .``...``........
  40932c:	3fe0 0000 0000 0000 0000 0000 0000 0000     .?..............
	...
  40934c:	0000 fffc 00ff fc00 ffff 0000 1800 0000     ................
  40935c:	0000 0018 0000 1800 0000 0000 0018 0000     ................
  40936c:	1800 0000 0000 0018 0000 1800 0000 0000     ................
  40937c:	0018 0000 1800 0000 0000 0018 0000 1800     ................
  40938c:	0000 0000 0018 0000 1800 0000 fc00 ffff     ................
  40939c:	0000 fffc 00ff 0000 0000 0000 0000 0000     ................
	...
  4093c0:	fc00 ffff 0000 fffc 00ff 0000 0000 0000     ................
	...
  4093e4:	0000 0006 0000 1e00 0000 0000 0078 0000     ............x...
  4093f4:	6000 0000 0000 00e0 0000 c000 0000 0000     .`..............
  409404:	00c0 0000 c000 0000 0000 00c0 0000 e000     ................
  409414:	0000 0000 0060 0000 7800 0000 fffc 003f     ....`....x....?.
  409424:	fc00 0fff 0000 0000 0000 0000 0000 0000     ................
	...
  409448:	fffc 00ff fc00 ffff 0000 6000 0000 0000     ...........`....
  409458:	0038 0000 1c00 0000 0000 001e 0000 7700     8..............w
  409468:	0000 8000 00e3 0000 c1c0 0001 e000 0380     ................
  409478:	0000 0070 0006 3800 1c00 0000 001c 0038     ..p....8......8.
  409488:	0400 7000 0000 0000 00e0 0000 8000 0000     ...p............
  409498:	0000 0080 0000 0000 0000 0000 0000 0000     ................
  4094a8:	0000 0000 fffc 00ff fc00 ffff 0000 0000     ................
  4094b8:	00c0 0000 c000 0000 0000 00c0 0000 c000     ................
  4094c8:	0000 0000 00c0 0000 c000 0000 0000 00c0     ................
  4094d8:	0000 c000 0000 0000 00c0 0000 c000 0000     ................
  4094e8:	0000 00c0 0000 0000 0000 0000 0000 0000     ................
	...
  409500:	fc00 ffff 0000 fffc 00ff 3c00 0000 0000     ...........<....
  409510:	00f0 0000 c000 0007 0000 1f00 0000 0000     ................
  409520:	0078 0000 e000 0003 0000 0f00 0000 0000     x...............
  409530:	007c 0000 e000 0000 0000 00f0 0000 3e00     |..............>
  409540:	0000 8000 0007 0000 01f0 0000 7c00 0000     .............|..
  409550:	0000 000f 0000 03e0 0000 7800 0000 0000     ...........x....
  409560:	001c 0000 fc00 ffff 0000 fffc 00ff 0000     ................
	...
  40958c:	fc00 ffff 0000 fffc 00ff 1c00 0000 0000     ................
  40959c:	0078 0000 e000 0000 0000 03c0 0000 0000     x...............
  4095ac:	0007 0000 1e00 0000 0000 0038 0000 f000     ..........8.....
  4095bc:	0000 0000 01c0 0000 8000 0007 0000 0e00     ................
  4095cc:	0000 0000 003c 0000 7000 0000 fffc 00ff     ....<....p......
  4095dc:	fc00 ffff 0000 0000 0000 0000 0000 0000     ................
	...
  4095fc:	01ff 0000 ffe0 000f f000 1e00 0000 0038     ..............8.
  40960c:	0038 1c00 7000 0000 000c 0060 0400 c000     8....p....`.....
  40961c:	0000 0004 00c0 0400 c000 0000 0004 00c0     ................
  40962c:	0400 c000 0000 0004 00c0 0c00 6000 0000     .............`..
  40963c:	001c 0070 3800 3800 0000 00f0 001e e000     ..p..8.8........
  40964c:	0fff 0000 ff00 0001 0000 0000 0000 0000     ................
	...
  40966c:	0000 fffc 00ff fc00 ffff 0000 6004 0000     .............`..
  40967c:	0400 0060 0000 6004 0000 0400 0060 0000     ..`....`....`...
  40968c:	6004 0000 0400 0060 0000 6004 0000 0400     .`....`....`....
  40969c:	0060 0000 6004 0000 0c00 0030 0000 381c     `....`....0....8
  4096ac:	0000 f800 001e 0000 0ff0 0000 0000 0000     ................
	...
  4096cc:	0000 01ff 0000 ffe0 000f f000 1e00 0000     ................
  4096dc:	0038 0038 1c00 7000 0000 000c 0060 0400     8.8....p....`...
  4096ec:	c000 0000 0004 00c0 0400 c000 0000 0004     ................
  4096fc:	00c0 0400 c000 0000 0004 00c0 0c00 e000     ................
  40970c:	0000 001c 01f0 3800 3800 0003 00f0 0e1e     .......8.8......
  40971c:	e000 0fff 0004 ff00 0401 0000 0000 0000     ................
	...
  409740:	fffc 00ff fc00 ffff 0000 6004 0000 0400     ...........`....
  409750:	0060 0000 6004 0000 0400 0060 0000 6004     `....`....`....`
  409760:	0000 0400 0060 0000 6004 0000 0400 01e0     ....`....`......
  409770:	0000 b00c 0007 0c00 0e30 0000 1c38 0038     ........0...8.8.
  409780:	f000 f00f 0000 03c0 00c0 0000 8000 0000     ................
	...
  40979c:	0006 e000 1e01 0000 03f8 0038 1c00 7006     ..........8....p
  4097ac:	0000 0c0c 0060 0c00 e00c 0000 1804 00c0     ....`...........
  4097bc:	0400 c018 0000 1804 00c0 0400 c010 0000     ................
  4097cc:	3004 00c0 0400 c030 0000 600c 0060 1c00     .0....0....``...
  4097dc:	6060 0000 c078 0039 f000 3f80 0000 00c0     ``..x.9....?....
  4097ec:	000f 0000 0000 0000 0000 0000 0400 0000     ................
  4097fc:	0000 0004 0000 0400 0000 0000 0004 0000     ................
  40980c:	0400 0000 0000 0004 0000 0400 0000 0000     ................
  40981c:	0004 0000 fc00 ffff 0000 fffc 00ff 0400     ................
  40982c:	0000 0000 0004 0000 0400 0000 0000 0004     ................
  40983c:	0000 0400 0000 0000 0004 0000 0400 0000     ................
	...
  40985c:	fc00 03ff 0000 fffc 000f 0000 3e00 0000     .............>..
  40986c:	0000 0070 0000 6000 0000 0000 00e0 0000     ..p....`........
  40987c:	c000 0000 0000 00c0 0000 c000 0000 0000     ................
  40988c:	00c0 0000 c000 0000 0000 00e0 0000 6000     ...............`
  40989c:	0000 0000 0070 0000 3e00 0000 fffc 000f     ....p....>......
  4098ac:	fc00 01ff 0000 0000 0000 0000 0000 0000     ................
  4098bc:	0000 0000 0c00 0000 0000 003c 0000 f000     ..........<.....
  4098cc:	0001 0000 0fc0 0000 0000 007e 0000 f000     ..........~.....
  4098dc:	0001 0000 0f80 0000 0000 007c 0000 f000     ..........|.....
  4098ec:	0000 0000 00f0 0000 3e00 0000 c000 0007     .........>......
  4098fc:	0000 01f8 0000 3f00 0000 c000 0007 0000     .......?........
  40990c:	01f8 0000 3c00 0000 0000 0004 0000 0000     .....<..........
	...
  409924:	0400 0000 0000 007c 0000 f800 0007 0000     ......|.........
  409934:	7f80 0000 0000 07f8 0000 8000 007f 0000     ................
  409944:	f000 0000 0000 00f8 0000 1f80 0000 f000     ................
  409954:	0003 0000 003f 0000 07e0 0000 7c00 0000     ....?........|..
  409964:	0000 000c 0000 fc00 0000 0000 07e0 0000     ................
  409974:	0000 007e 0000 f000 0003 0000 3f00 0000     ..~..........?..
  409984:	0000 00f8 0000 f800 0000 8000 003f 0000     ............?...
  409994:	03f8 0000 3f80 0000 f800 0003 0000 003c     .....?........<.
	...
  4099b8:	0080 0400 c000 0000 001c 0070 3800 3800     ..........p..8.8
  4099c8:	0000 00f0 000e c000 0701 0000 c780 0001     ................
  4099d8:	0000 00ee 0000 3c00 0000 0000 007c 0000     .......<....|...
  4099e8:	ef00 0001 8000 0383 0000 01e0 000f 7000     ...............p
  4099f8:	1c00 0000 003c 0078 0c00 e000 0000 0004     ....<.x.........
  409a08:	00c0 0000 8000 0000 0000 0000 0000 0000     ................
  409a18:	0000 0004 0000 1c00 0000 0000 0038 0000     ............8...
  409a28:	f000 0000 0000 03c0 0000 0000 000f 0000     ................
  409a38:	1c00 0000 0000 0070 0000 e000 00ff 0000     ......p.........
  409a48:	fff0 0000 3c00 0000 0000 000f 0000 03c0     .....<..........
  409a58:	0000 e000 0000 0000 0078 0000 1c00 0000     ........x.......
  409a68:	0000 0004 0000 0000 0000 0000 0000 0000     ................
  409a78:	0000 c000 0000 0004 00e0 0400 f800 0000     ................
  409a88:	0004 00dc 0400 c700 0000 8004 00c3 0400     ................
  409a98:	c1c0 0000 7004 00c0 0400 c038 0000 0e04     .....p....8.....
  409aa8:	00c0 0400 c007 0000 01c4 00c0 e400 c000     ................
  409ab8:	0000 0074 00c0 1c00 c000 0000 000c 00c0     ..t.............
  409ac8:	0000 c000 0000 0000 0000 0000 0000 0000     ................
	...
  409ae0:	0000 fffc 1fff 0000 0000 0018 0000 1800     ................
  409af0:	0000 0000 0018 0000 1800 0000 0000 0000     ................
  409b00:	0004 0000 3c00 0000 0000 00f8 0000 c000     .....<..........
  409b10:	0007 0000 3e00 0000 0000 00f8 0000 c000     .....>..........
  409b20:	0007 0000 1e00 0000 0000 00f8 0000 c000     ................
  409b30:	0003 0000 0300 0000 0000 0000 0000 1800     ................
  409b40:	0000 0000 0018 0000 1800 fc00 ffff 001f     ................
  409b50:	fffc 1fff 0000 0000 0000 0000 0000 0000     ................
	...
  409b68:	0000 0008 0000 0e00 0000 c000 0003 0000     ................
  409b78:	00f0 0000 3c00 0000 0000 000c 0000 3c00     .....<.........<
  409b88:	0000 0000 00f0 0000 8000 0007 0000 0e00     ................
  409b98:	0000 0000 0008 0000 0000 0000 0000 0000     ................
  409ba8:	0003 0000 0300 0000 0000 0003 0000 0300     ................
  409bb8:	0000 0000 0003 0000 0300 0000 0000 0003     ................
  409bc8:	0000 0300 0000 0000 0003 0000 0300 0000     ................
  409bd8:	0000 0003 0000 0300 0000 0000 0003 0000     ................
  409be8:	0300 0000 0000 0000 0000 0000 0000 0000     ................
  409bf8:	0000 0000 0000 0400 0000 0000 000c 0000     ................
  409c08:	0800 0000 0000 0000 0000 0000 0000 0000     ................
  409c18:	0000 0000 0000 1c00 0000 0600 003f 0000     ............?...
  409c28:	7387 0000 8300 00e1 8000 c1c1 0000 c180     .s..............
  409c38:	00c0 8000 c0c1 0000 c180 00c0 8000 c0c1     ................
  409c48:	0000 c180 0060 0000 60c3 0000 c700 0038     ....`....`....8.
  409c58:	0000 fffe 0000 f000 00ff 0000 0000 0000     ................
	...
  409c74:	0000 fc00 ffff 0000 fffc 00ff 0000 380c     ...............8
  409c84:	0000 0300 0060 0000 6003 0000 0180 00c0     ....`....`......
  409c94:	8000 c001 0000 0180 00c0 8000 c001 0000     ................
  409ca4:	0180 00c0 0000 6003 0000 0700 0070 0000     .......`....p...
  409cb4:	3ffe 0000 f800 000f 0000 0000 0000 0000     .?..............
	...
  409ccc:	e000 0003 0000 1ffc 0000 0e00 0038 0000     ............8...
  409cdc:	7007 0000 0300 0060 8000 c001 0000 0180     .p....`.........
  409cec:	00c0 8000 c001 0000 0180 00c0 8000 c001     ................
  409cfc:	0000 0300 0060 0000 7007 0000 1e00 0038     ....`....p....8.
  409d0c:	0000 0818 0000 0000 0000 0000 0000 0000     ................
  409d1c:	0000 0000 0000 0ff8 0000 fe00 003f 0000     ............?...
  409d2c:	7007 0000 0300 0060 8000 c001 0000 0180     .p....`.........
  409d3c:	00c0 8000 c001 0000 0180 00c0 8000 c001     ................
  409d4c:	0000 0300 0060 0000 6003 0000 0c00 0038     ....`....`....8.
  409d5c:	fc00 ffff 0000 fffc 00ff 0000 0000 0000     ................
	...
  409d7c:	0ff8 0000 fc00 001f 0000 30c6 0000 c300     ...........0....
  409d8c:	0060 8000 e0c3 0000 c180 00c0 8000 c0c1     `...............
  409d9c:	0000 c180 00c0 8000 c0c1 0000 c380 00c0     ................
  409dac:	0000 60c7 0000 ce00 0070 0000 20fc 0000     ...`....p.... ..
  409dbc:	e000 0000 0000 0000 0000 0000 0000 8000     ................
  409dcc:	0001 0000 0180 0000 8000 0001 0000 fffc     ................
  409ddc:	00ff fc00 ffff 0000 0184 0000 8000 0001     ................
  409dec:	0000 0180 0000 8000 0001 0000 0000 0000     ................
	...
  409e08:	0ff8 0000 fe00 183f 0000 700f 0038 0300     ......?....p8...
  409e18:	3060 8000 c001 0060 0180 60c0 8000 c001     `0....`....`....
  409e28:	0060 0180 60c0 8000 c001 0060 0300 3060     `....`....`...`0
  409e38:	0000 6003 0038 fe00 1f3f 8000 ffff 000f     ...`8...?.......
	...
  409e64:	0000 fffc 00ff fc00 ffff 0000 0600 0000     ................
  409e74:	0000 0003 0000 0100 0000 8000 0001 0000     ................
  409e84:	0180 0000 8000 0001 0000 0180 0000 8000     ................
  409e94:	0003 0000 0f00 0000 0000 fffe 0000 fc00     ................
  409ea4:	00ff 0000 0000 0000 0000 0000 0000 0000     ................
	...
  409ec0:	ff84 00ff 8400 ffff 0000 0000 0000 0000     ................
  409ed0:	0000 0000 0000 6000 0000 0000 0070 ff84     .......`....p...
  409ee0:	3fff 8400 ffff 001f 0000 0000 0000 0000     .?..............
	...
  409f00:	fc00 ffff 0000 fffc 00ff 0000 0180 0000     ................
  409f10:	c000 0000 0000 0060 0000 f000 0001 0000     ......`.........
  409f20:	0398 0000 0c00 0007 0000 1c06 0000 0300     ................
  409f30:	0038 8000 7001 0000 0080 00e0 8000 c000     8....p..........
  409f40:	0000 0000 0080 0000 0000 0000 0000 0000     ................
  409f50:	0000 0000 0000 fffc 00ff fc00 ffff 0000     ................
	...
  409f74:	ff80 00ff 8000 ffff 0000 0e00 0000 0000     ................
  409f84:	0003 0000 0300 0000 8000 0001 0000 0180     ................
  409f94:	0000 8000 0001 0000 0180 0000 8000 0003     ................
  409fa4:	0000 0700 0000 0000 ffff 0000 fc00 00ff     ................
  409fb4:	0000 0006 0000 0300 0000 0000 0003 0000     ................
  409fc4:	0180 0000 8000 0001 0000 0180 0000 8000     ................
  409fd4:	0001 0000 0380 0000 0000 0007 0000 fe00     ................
  409fe4:	00ff 0000 fffc 0000 0000 0000 0000 0000     ................
	...
  40a004:	8000 ffff 0000 fc00 00ff 0000 0006 0000     ................
  40a014:	0300 0000 8000 0001 0000 0180 0000 8000     ................
  40a024:	0001 0000 0180 0000 8000 0001 0000 0380     ................
  40a034:	0000 0000 ffff 0000 fe00 00ff 0000 0000     ................
	...
  40a054:	0000 01c0 0000 f800 000f 0000 3c3e 0000     ............><..
  40a064:	0700 0070 0000 6003 0000 0380 00e0 8000     ..p....`........
  40a074:	c001 0000 0180 00c0 8000 c001 0000 0180     ................
  40a084:	00c0 8000 e003 0000 0300 0060 0000 7007     ..........`....p
  40a094:	0000 3e00 003e 0000 0ff8 0000 c000 0001     ...>>...........
	...
  40a0b4:	ff80 7fff 8000 ffff 007f 0e00 0038 0000     ............8...
  40a0c4:	6003 0000 0300 0060 8000 c001 0000 0180     .`....`.........
  40a0d4:	00c0 8000 c001 0000 0180 00c0 8000 c001     ................
  40a0e4:	0000 0300 0060 0000 780f 0000 fe00 003f     ....`....x....?.
  40a0f4:	0000 0ff8 0000 0000 0000 0000 0000 0000     ................
	...
  40a10c:	0000 f800 000f 0000 3ffe 0000 0700 0070     .........?....p.
  40a11c:	0000 6003 0000 0180 00c0 8000 c001 0000     ...`............
  40a12c:	0180 00c0 8000 c001 0000 0180 00c0 0000     ................
  40a13c:	6003 0000 0300 0060 8000 ffff 007f ff80     .`....`.........
  40a14c:	7fff 0000 0000 0000 0000 0000 0000 0000     ................
	...
  40a168:	ff80 00ff 8000 ffff 0000 0c00 0000 0000     ................
  40a178:	0007 0000 0300 0000 8000 0001 0000 0180     ................
  40a188:	0000 8000 0001 0000 0000 0000 0000 0000     ................
  40a198:	0000 0000 0008 0000 381c 0000 3f00 0070     .........8...?p.
  40a1a8:	0000 6063 0000 6180 00c0 8000 c0c1 0000     ..c`...a........
  40a1b8:	c180 00c0 8000 c0c1 0000 c180 00c0 8000     ................
  40a1c8:	c181 0000 8300 0061 0000 7f0f 0000 0e00     ......a.........
  40a1d8:	003f 0000 0000 0000 0000 0000 8000 0001     ?...............
  40a1e8:	0000 0180 0000 8000 0001 0000 fff8 001f     ................
  40a1f8:	f800 7fff 0000 0180 00e0 8000 c001 0000     ................
  40a208:	0180 00c0 8000 c001 0000 0000 0000 0000     ................
	...
  40a224:	0000 ff80 003f 8000 7fff 0000 0000 00e0     ....?...........
  40a234:	0000 c000 0000 0000 00c0 0000 c000 0000     ................
  40a244:	0000 00c0 0000 c000 0000 0000 0060 0000     ............`...
  40a254:	7000 0000 ff80 003f 8000 ffff 0000 0000     .p....?.........
	...
  40a270:	8000 0000 0000 0380 0000 0000 001f 0000     ................
  40a280:	7c00 0000 0000 03e0 0000 0000 001f 0000     .|..............
  40a290:	7800 0000 0000 00e0 0000 7800 0000 0000     .x.........x....
  40a2a0:	001f 0000 03e0 0000 7c00 0000 8000 001f     .........|......
  40a2b0:	0000 0380 0000 8000 0000 0000 0000 0000     ................
  40a2c0:	8000 0001 0000 0f80 0000 0000 00fe 0000     ................
  40a2d0:	e000 0007 0000 7f00 0000 0000 00f0 0000     ................
  40a2e0:	f800 0000 0000 001f 0000 03f0 0000 3e00     ...............>
  40a2f0:	0000 8000 0007 0000 0f80 0000 0000 007e     ..............~.
  40a300:	0000 f000 0003 0000 1f00 0000 0000 00f8     ................
  40a310:	0000 e000 0000 0000 007e 0000 07e0 0000     ........~.......
  40a320:	fe00 0000 8000 000f 0000 0180 0000 0000     ................
	...
  40a338:	8000 8000 0000 0180 00e0 8000 7007 0000     .............p..
  40a348:	0e00 0038 0000 0e3c 0000 7000 0007 0000     ..8...<....p....
  40a358:	01c0 0000 e000 0003 0000 0738 0000 1c00     ..........8.....
  40a368:	001c 0000 3807 0000 0380 00e0 8000 c000     .....8..........
  40a378:	0000 0080 0080 0000 0000 0000 0080 0000     ................
  40a388:	8000 0003 0060 0f80 6000 0000 007c 0060     ....`....`..|.`.
  40a398:	e000 7003 0000 0f80 0038 0000 1f7c 0000     ...p....8...|...
  40a3a8:	e000 0007 0000 00f8 0000 1f00 0000 e000     ................
  40a3b8:	0007 0000 00fc 0000 1f80 0000 8000 0003     ................
  40a3c8:	0000 0080 0000 0000 0000 0000 0000 00c0     ................
  40a3d8:	8000 e001 0000 0180 00f8 8000 dc01 0000     ................
  40a3e8:	0180 00ce 8000 c301 0000 c180 00c1 8000     ................
  40a3f8:	c0e1 0000 3180 00c0 8000 c01d 0000 0f80     .....1..........
  40a408:	00c0 8000 c007 0000 0180 00c0 0000 c000     ................
	...
  40a424:	c000 0000 0000 00c0 0000 e000 0001 0000     ................
  40a434:	03f0 0000 3ff8 03ff fc00 fc0f 000f 0004     .....?..........
  40a444:	1c00 0000 0000 0010 0000 3000 0000 0000     ...........0....
  40a454:	0020 0000 0000 0000 0000 0000 0000 0000      ...............
  40a464:	fc00 ffff 000f 0000 0000 0000 0000 0000     ................
	...
  40a47c:	0020 0000 3000 0000 0000 0010 0004 1c00      ....0..........
  40a48c:	fc00 fc0f 000f 3ff8 03ff 0000 03f0 0000     .......?........
  40a49c:	e000 0001 0000 00c0 0000 c000 0000 0000     ................
	...
  40a4bc:	0003 0000 03c0 0000 6000 0000 0000 0030     .........`....0.
  40a4cc:	0000 3000 0000 0000 0030 0000 3000 0000     ...0....0....0..
  40a4dc:	0000 0060 0000 e000 0000 0000 01c0 0000     ..`.............
  40a4ec:	8000 0001 0000 0300 0000 0000 0003 0000     ................
  40a4fc:	0300 0000 0000 0003 0000 0180 0000 f000     ................
  40a50c:	0000 0000 0030 0000 0000 0000 0000 0000     ....0...........
  40a51c:	0000 0000                                   ....

0040a520 <RobotoBold_18pt_CharCount>:
  40a520:	0706 0e08 120e 0410 0808 0d0b 0906 0907     ................
  40a530:	0e0e 0e0e 0e0e 0e0e 0e0e 0607 0e0c 0c0c     ................
  40a540:	1015 100f 0e10 100d 0711 0f0d 150d 1111     ................
  40a550:	110f 0f0f 100f 1510 0f0f 070f 070a 0b0a     ................
  40a560:	0d08 0d0e 0d0e 0e09 060d 0d06 1506 0e0d     ................
  40a570:	0e0e 0c09 0d08 120c 0c0c 080c 0806 0010     ................

0040a580 <RobotoBold_18pt_Table>:
	...
  40a5a0:	fe00 03cf fe00 03cf fe00 03cf 0000 0000     ................
	...
  40a5b8:	3f00 0000 3f00 0000 0000 0000 0000 0000     .?...?..........
  40a5c8:	3f00 0000 3f00 0000 0000 0000 0000 0000     .?...?..........
  40a5d8:	c000 0018 c000 0218 c000 03f8 c000 03ff     ................
  40a5e8:	fe00 001f fe00 0018 c200 03d8 c000 03fe     ................
  40a5f8:	f800 007f fe00 0019 ce00 0018 c000 0018     ................
  40a608:	c000 0000 0000 0000 0000 0060 f800 00e0     ..........`.....
  40a618:	fc00 01e1 fe00 03e3 9e00 0383 8fc0 0f87     ................
  40a628:	0fc0 0f87 0e00 038f 3e00 03fe 3c00 01fe     .........>...<..
  40a638:	3800 01fc 3000 0070 0000 0000 0000 0000     .8...0p.........
  40a648:	7800 0000 fc00 0000 fe00 0001 8600 0081     .x..............
  40a658:	8600 01c1 fe00 00f1 fc00 003c 7800 000e     ..........<..x..
  40a668:	8000 0067 e000 01f9 7800 03fc 3c00 030c     ..g......x...<..
  40a678:	0800 030c 0000 039c 0000 01f8 0000 00f0     ................
	...
  40a690:	0000 00f8 3000 01fc fc00 01fe fc00 03cf     .....0..........
  40a6a0:	de00 0387 0e00 038f 8e00 039f de00 03bd     ................
  40a6b0:	fc00 03f8 7c00 01f0 0000 03f8 0000 03fc     .....|..........
  40a6c0:	0000 033c 0000 0204 0000 0200 0000 0000     ..<.............
  40a6d0:	3f00 0000 3f00 0000 0000 0000 0000 0000     .?...?..........
  40a6e0:	0000 003f f000 03ff fc00 0fff 7e00 1f80     ..?..........~..
  40a6f0:	0f00 3c00 0380 7000 0100 2000 0100 2000     ...<...p... ... 
  40a700:	0380 7000 0f00 3c00 7e00 1f80 fc00 0fff     ...p...<.~......
  40a710:	f000 03ff 8000 007f 0000 0000 0000 0000     ................
  40a720:	2000 0000 3000 0003 b000 0003 f200 0001     . ...0..........
  40a730:	fe00 0000 fe00 0001 b000 0003 3000 0003     .............0..
  40a740:	2000 0000 0000 0000 0000 0000 0000 0007     . ..............
  40a750:	0000 0007 0000 0007 0000 0007 f800 00ff     ................
  40a760:	f800 00ff f800 00ff 0000 0007 0000 0007     ................
  40a770:	0000 0007 0000 0007 0000 0000 0000 2000     ............... 
  40a780:	0000 3800 0000 3f80 0000 1f80 0000 0380     ...8...?........
	...
  40a798:	0000 000e 0000 000e 0000 000e 0000 000e     ................
  40a7a8:	0000 000e 0000 000e 0000 000e 0000 0000     ................
  40a7b8:	0000 0000 0000 0100 0000 03c0 0000 03c0     ................
  40a7c8:	0000 03c0 0000 0100 0000 0000 0000 0600     ................
  40a7d8:	0000 07c0 0000 07f8 0000 00fe c000 001f     ................
  40a7e8:	f800 0003 7e00 0000 0e00 0000 0200 0000     .....~..........
  40a7f8:	0000 0000 e000 003f f800 00ff fc00 01ff     ......?.........
  40a808:	fe00 03ff 1e00 03c0 0e00 0380 0e00 0380     ................
  40a818:	1e00 03c0 fe00 03ff fc00 01ff f800 00ff     ................
  40a828:	e000 001f 0000 0000 0000 0000 0000 0000     ................
  40a838:	7000 0000 7800 0000 3800 0000 3c00 0000     .p...x...8...<..
  40a848:	fc00 03ff fe00 03ff fe00 03ff 0000 0000     ................
	...
  40a86c:	7000 0380 7800 03c0 7c00 03e0 1e00 03f0     .p...x...|......
  40a87c:	0e00 03f8 0e00 03bc 0e00 039e 1e00 038f     ................
  40a88c:	fe00 0387 fc00 0383 f800 0381 0000 0380     ................
	...
  40a8a4:	3000 00e0 3c00 01e0 3c00 01e0 1e00 03c0     .0...<...<......
  40a8b4:	0e00 0387 0e00 0387 0e00 0387 9e00 0387     ................
  40a8c4:	fe00 03ff fc00 01fd f800 00fc 0000 0070     ..............p.
	...
  40a8dc:	0000 0078 0000 007c 0000 007f c000 0077     ..x...|.......w.
  40a8ec:	e000 0073 f800 0070 3e00 0070 fe00 03ff     ..s...p..>p.....
  40a8fc:	fe00 03ff fe00 03ff 0000 0070 0000 0070     ..........p...p.
	...
  40a918:	f800 00e3 fe00 01e7 fe00 01e7 0e00 0383     ................
  40a928:	8e00 0383 8e00 0383 8e00 0383 8e00 03ff     ................
  40a938:	0e00 01ff 0e00 00ff 0000 007c 0000 0000     ..........|.....
  40a948:	0000 0000 0000 001f e000 00ff f000 01ff     ................
  40a958:	f800 01ff 3c00 03c3 9c00 0383 9e00 0383     .....<..........
  40a968:	8e00 0383 8e00 03ef 0000 01ff 0000 00ff     ................
  40a978:	0000 007c 0000 0000 0000 0000 0e00 0000     ..|.............
  40a988:	0e00 0000 0e00 0300 0e00 03c0 0e00 03f0     ................
  40a998:	0e00 01fc 0e00 007f ee00 001f fe00 0003     ................
  40a9a8:	fe00 0000 3e00 0000 0e00 0000 0000 0000     .....>..........
  40a9b8:	0000 0000 0000 0070 f800 00fc fc00 01fd     ......p.........
  40a9c8:	fe00 03ff 9e00 0387 0e00 0387 0e00 0387     ................
  40a9d8:	9e00 0387 fe00 03ff fc00 01fd f800 01fc     ................
  40a9e8:	0000 0070 0000 0000 0000 0000 e000 0001     ..p.............
  40a9f8:	f800 0007 fc00 0007 fe00 038f 0e00 038e     ................
  40aa08:	0e00 038e 0e00 01ce 1e00 01e6 fc00 00ff     ................
  40aa18:	fc00 007f f800 003f c000 0007 0000 0000     ......?.........
  40aa28:	0000 0000 4000 0100 f000 03c0 f000 03c0     .....@..........
  40aa38:	f000 03c0 0000 0000 0000 0000 0000 2000     ............... 
  40aa48:	4000 3800 f000 3f80 f000 1f80 f000 0380     .@.8...?........
	...
  40aa60:	0000 000e 0000 001f 0000 001f 0000 001b     ................
  40aa70:	8000 003b 8000 003b c000 0071 c000 0071     ..;...;...q...q.
  40aa80:	c000 0071 e000 00e0 0000 0000 0000 0000     ..q.............
  40aa90:	0000 0000 8000 0073 8000 0073 8000 0073     ......s...s...s.
  40aaa0:	8000 0073 8000 0073 8000 0073 8000 0073     ..s...s...s...s.
  40aab0:	8000 0073 8000 0073 8000 0073 0000 0000     ..s...s...s.....
	...
  40aac8:	e000 00e0 e000 00f1 c000 0071 c000 0071     ..........q...q.
  40aad8:	8000 003b 8000 003b 8000 003b 0000 001f     ..;...;...;.....
  40aae8:	0000 001f 0000 000e 0000 000e 0000 0000     ................
  40aaf8:	1800 0000 1c00 0000 1e00 0180 0e00 03cc     ................
  40ab08:	0e00 03cf 8e00 03cf de00 0183 fe00 0001     ................
  40ab18:	fc00 0000 7800 0000 0000 0000 0000 0000     .....x..........
  40ab28:	0000 03ff c000 07ff f000 1f01 7800 1c00     .............x..
  40ab38:	1800 3000 1c00 30fc 0c00 63ff 8600 63cf     ...0...0...c...c
  40ab48:	c600 6301 c600 6300 c600 6180 c600 61ff     ...c...c...a...a
  40ab58:	c600 73ff 8c00 730f 0c00 0300 1c00 0300     ...s...s........
  40ab68:	7800 0180 f000 01ff c000 007f 0000 0000     .x..............
  40ab78:	0000 0200 0000 03c0 0000 03f0 0000 03fe     ................
  40ab88:	c000 00ff f000 007f fe00 0073 7e00 0070     ..........s..~p.
  40ab98:	7e00 0070 fe00 0073 f800 007f c000 00ff     .~p...s.........
  40aba8:	0000 03ff 0000 03f8 0000 03c0 0000 0300     ................
  40abb8:	0000 0000 fe00 03ff fe00 03ff fe00 03ff     ................
  40abc8:	fe00 03ff 0e00 0387 0e00 0387 0e00 0387     ................
  40abd8:	0e00 0387 8e00 0387 fe00 03ff fc00 01ff     ................
  40abe8:	f800 01fd 7000 00f8 0000 0000 0000 0000     .....p..........
  40abf8:	c000 001f f000 007f f800 00ff fc00 01ff     ................
  40ac08:	1e00 03c0 0e00 0380 0e00 0380 0e00 0380     ................
  40ac18:	0e00 0380 1e00 03c0 7c00 01f0 7c00 01f0     .........|...|..
  40ac28:	7800 00f0 6000 0030 0000 0000 0000 0000     .x...`0.........
  40ac38:	0000 0000 fe00 03ff fe00 03ff fe00 03ff     ................
  40ac48:	0e00 0380 0e00 0380 0e00 0380 0e00 0380     ................
  40ac58:	1e00 03c0 3c00 01e0 fc00 01ff f800 00ff     .....<..........
  40ac68:	e000 003f 0000 0007 0000 0000 0000 0000     ..?.............
  40ac78:	0000 0000 fe00 03ff fe00 03ff fe00 03ff     ................
  40ac88:	0e00 0387 0e00 0387 0e00 0387 0e00 0387     ................
  40ac98:	0e00 0387 0e00 0387 0e00 0387 0e00 0380     ................
	...
  40acb4:	fe00 03ff fe00 03ff fe00 03ff 0e00 0007     ................
  40acc4:	0e00 0007 0e00 0007 0e00 0007 0e00 0007     ................
  40acd4:	0e00 0007 0e00 0007 0e00 0000 0000 0000     ................
  40ace4:	e000 003f f000 007f f800 00ff fc00 01ff     ..?.............
  40acf4:	1e00 03c0 0e00 0380 0e00 0380 0e00 038e     ................
  40ad04:	0e00 038e 1e00 038e 3c00 03fe 3c00 01fe     .........<...<..
  40ad14:	3800 01fe 2000 00fe 0000 0000 0000 0000     .8... ..........
  40ad24:	0000 0000 fe00 03ff fe00 03ff fe00 03ff     ................
  40ad34:	0000 0007 0000 0007 0000 0007 0000 0007     ................
  40ad44:	0000 0007 0000 0007 0000 0007 fe00 03ff     ................
  40ad54:	fe00 03ff fe00 03ff 0000 0000 0000 0000     ................
	...
  40ad6c:	fe00 03ff fe00 03ff fe00 03ff 0000 0000     ................
  40ad7c:	0000 0000 0000 0020 0000 00e0 0000 01e0     ...... .........
  40ad8c:	0000 03e0 0000 0380 0000 0380 0000 0380     ................
  40ad9c:	0000 03c0 fe00 03ff fe00 01ff fe00 00ff     ................
  40adac:	fe00 003f 0000 0000 0000 0000 fe00 03ff     ..?.............
  40adbc:	fe00 03ff fe00 03ff fe00 03ff 0000 001f     ................
  40adcc:	8000 0007 e000 000f f000 003f f800 007e     ..........?...~.
  40addc:	7e00 01f8 3e00 03f0 0e00 03c0 0600 0380     .~...>..........
  40adec:	0200 0200 0000 0000 0000 0000 fe00 03ff     ................
  40adfc:	fe00 03ff fe00 03ff 0000 0380 0000 0380     ................
  40ae0c:	0000 0380 0000 0380 0000 0380 0000 0380     ................
  40ae1c:	0000 0380 0000 0380 0000 0000 0000 0000     ................
  40ae2c:	fe00 03ff fe00 03ff fe00 03ff fe00 0000     ................
  40ae3c:	fc00 0003 e000 001f 0000 00ff 0000 03f8     ................
  40ae4c:	0000 03e0 0000 03f8 0000 00ff e000 001f     ................
  40ae5c:	fc00 0003 fe00 0000 fe00 03ff fe00 03ff     ................
  40ae6c:	fe00 03ff 0000 0000 0000 0000 0000 0000     ................
  40ae7c:	0000 0000 fe00 03ff fe00 03ff fe00 03ff     ................
  40ae8c:	fc00 0000 f800 0001 e000 0007 8000 000f     ................
  40ae9c:	0000 003f 0000 00fc 0000 01f0 fe00 03ff     ..?.............
  40aeac:	fe00 03ff fe00 03ff 0000 0000 0000 0000     ................
  40aebc:	0000 0000 8000 000f f000 007f f800 00ff     ................
  40aecc:	fc00 01ff 3c00 01e0 1e00 03c0 0e00 0380     .....<..........
  40aedc:	0e00 0380 0e00 0380 1e00 03c0 3c00 01e0     .............<..
  40aeec:	fc00 01ff f800 00ff f000 007f 8000 000f     ................
	...
  40af04:	fe00 03ff fe00 03ff fe00 03ff fe00 03ff     ................
  40af14:	0e00 000e 0e00 000e 0e00 000e 0e00 000e     ................
  40af24:	0e00 000e 1e00 000f fc00 0007 fc00 0007     ................
  40af34:	f000 0003 0000 0000 0000 0000 c000 001f     ................
  40af44:	f000 007f f800 00ff fc00 01ff 3c00 01e0     .............<..
  40af54:	1e00 03c0 0e00 0380 0e00 0380 0e00 0380     ................
  40af64:	1e00 03c0 3c00 07e0 fc00 0fff f800 1eff     .....<..........
  40af74:	f000 0c7f 8000 080f 0000 0000 0000 0000     ................
  40af84:	fe00 03ff fe00 03ff fe00 03ff fe00 03ff     ................
  40af94:	0e00 000e 0e00 000e 0e00 000e 0e00 003e     ..............>.
  40afa4:	0e00 007e fe00 01ff fc00 03f7 fc00 03c3     ..~.............
  40afb4:	f000 0301 0000 0200 0000 0000 0000 0060     ..............`.
  40afc4:	f800 00e0 fc00 01e1 fc00 01e3 9e00 0383     ................
  40afd4:	8e00 0387 0e00 0387 0e00 0387 0e00 038f     ................
  40afe4:	3e00 03fe 3c00 01fe 3800 01fc 3000 0078     .>...<...8...0x.
	...
  40affc:	0e00 0000 0e00 0000 0e00 0000 0e00 0000     ................
  40b00c:	0e00 0000 fe00 03ff fe00 03ff fe00 03ff     ................
  40b01c:	0e00 0000 0e00 0000 0e00 0000 0e00 0000     ................
  40b02c:	0e00 0000 0000 0000 0000 0000 fe00 001f     ................
  40b03c:	fe00 00ff fe00 01ff fe00 01ff 0000 03c0     ................
  40b04c:	0000 0380 0000 0380 0000 0380 0000 0380     ................
  40b05c:	0000 03c0 fe00 01ff fe00 01ff fe00 00ff     ................
  40b06c:	fe00 001f 0000 0000 0200 0000 1e00 0000     ................
  40b07c:	fe00 0000 fe00 0003 fc00 001f c000 00ff     ................
  40b08c:	0000 03fe 0000 03f0 0000 03f0 0000 03fe     ................
  40b09c:	e000 00ff fc00 001f fe00 0003 7e00 0000     .............~..
  40b0ac:	1e00 0000 0200 0000 0200 0000 3e00 0000     .............>..
  40b0bc:	fe00 0003 fe00 007f f000 03ff 0000 03fe     ................
  40b0cc:	0000 03f0 0000 03ff f800 007f fe00 0007     ................
  40b0dc:	7e00 0000 fe00 0007 f800 007f 8000 03ff     .~..............
  40b0ec:	0000 03f0 0000 03fe f000 03ff fe00 007f     ................
  40b0fc:	fe00 0003 3e00 0000 0200 0000 0200 0200     .....>..........
  40b10c:	0600 0300 1e00 03c0 3e00 03e0 fe00 03f8     .........>......
  40b11c:	f800 00ff e000 003f 8000 000f e000 003f     ......?.......?.
  40b12c:	f800 007f fc00 01fc 7e00 03f0 1e00 03c0     .........~......
  40b13c:	0600 0380 0200 0200 0200 0000 0e00 0000     ................
  40b14c:	3e00 0000 fe00 0000 fc00 0003 e000 000f     .>..............
  40b15c:	8000 03ff 0000 03ff c000 03ff f000 0007     ................
  40b16c:	fc00 0001 7e00 0000 1e00 0000 0e00 0000     .....~..........
  40b17c:	0200 0000 0000 0000 0e00 0380 0e00 03c0     ................
  40b18c:	0e00 03f0 0e00 03f8 0e00 03fe 0e00 039f     ................
  40b19c:	8e00 038f ee00 0383 fe00 0381 fe00 0380     ................
  40b1ac:	3e00 0380 1e00 0380 0600 0380 0000 0000     .>..............
  40b1bc:	0000 0000 ffc0 3fff ffc0 3fff ffc0 3fff     .......?...?...?
  40b1cc:	ffc0 3fff 01c0 3800 0000 0000 0200 0000     ...?...8........
  40b1dc:	1e00 0000 7e00 0000 fe00 0003 f000 000f     .....~..........
  40b1ec:	c000 007f 0000 01fe 0000 07f8 0000 07c0     ................
  40b1fc:	0000 0700 01c0 3800 01c0 3800 ffc0 3fff     .......8...8...?
  40b20c:	ffc0 3fff ffc0 3fff 0000 0000 0000 0000     ...?...?........
  40b21c:	0000 0001 c000 0001 f000 0001 fc00 0000     ................
  40b22c:	1e00 0000 1e00 0000 fc00 0000 f000 0001     ................
  40b23c:	c000 0001 0000 0001 0000 1c00 0000 1c00     ................
  40b24c:	0000 1c00 0000 1c00 0000 1c00 0000 1c00     ................
  40b25c:	0000 1c00 0000 1c00 0000 1c00 0000 1c00     ................
  40b26c:	0000 1c00 0000 0000 0100 0000 0300 0000     ................
  40b27c:	0f00 0000 0f00 0000 0c00 0000 0800 0000     ................
	...
  40b294:	8000 00f0 c000 01f8 e000 03fc e000 03bc     ................
  40b2a4:	e000 039c e000 039c e000 019c e000 03ff     ................
  40b2b4:	c000 03ff c000 03ff 0000 03fe 0000 0000     ................
	...
  40b2cc:	ff00 03ff ff00 03ff ff00 03ff c000 01c0     ................
  40b2dc:	e000 0380 e000 0380 e000 0380 e000 03e3     ................
  40b2ec:	c000 01ff c000 01ff 0000 007f 0000 0000     ................
  40b2fc:	0000 0000 0000 003e 8000 00ff c000 01ff     ......>.........
  40b30c:	e000 03e3 e000 0380 e000 0380 e000 0380     ................
  40b31c:	e000 03c1 c000 01e3 c000 01e3 8000 00e3     ................
	...
  40b334:	0000 007f 8000 00ff c000 01ff e000 03e3     ................
  40b344:	e000 0380 e000 0380 e000 0380 c000 01c1     ................
  40b354:	ff00 03ff ff00 03ff ff00 03ff 0000 0000     ................
	...
  40b36c:	0000 007f 8000 00ff c000 01ff e000 03dd     ................
  40b37c:	e000 039c e000 039c e000 039c e000 039d     ................
  40b38c:	c000 039f c000 019f 0000 019f 0000 0000     ................
  40b39c:	0000 0000 e000 0000 f800 03ff fe00 03ff     ................
  40b3ac:	fe00 03ff ff00 03ff e700 0000 e700 0000     ................
  40b3bc:	0700 0000 0000 0000 0000 007f 8000 38ff     ...............8
  40b3cc:	c000 39ff e000 73e3 e000 7380 e000 7380     ...9...s...s...s
  40b3dc:	e000 7380 c000 7980 e000 3fff e000 3fff     ...s...y...?...?
  40b3ec:	e000 1fff e000 03ff 0000 0000 0000 0000     ................
  40b3fc:	ff00 03ff ff00 03ff ff00 03ff c000 0001     ................
  40b40c:	c000 0000 e000 0000 e000 0000 e000 0001     ................
  40b41c:	e000 03ff c000 03ff 8000 03ff 0000 0000     ................
  40b42c:	0000 0000 e300 03ff e780 03ff e780 03ff     ................
  40b43c:	e300 03ff 0000 0000 0000 7000 e300 7fff     ...........p....
  40b44c:	e780 7fff e780 3fff e300 0fff 0000 0000     .......?........
  40b45c:	0000 0000 ff00 03ff ff00 03ff ff00 03ff     ................
  40b46c:	ff00 03ff 0000 001e 0000 003f c000 007f     ..........?.....
  40b47c:	e000 01fb e000 03e1 e000 03c0 2000 0300     ............. ..
  40b48c:	2000 0200 0000 0000 ff00 03ff ff00 03ff     . ..............
  40b49c:	ff00 03ff ff00 03ff 0000 0000 0000 0000     ................
  40b4ac:	e000 03ff e000 03ff e000 03ff e000 03ff     ................
  40b4bc:	c000 0000 e000 0000 e000 0000 e000 0001     ................
  40b4cc:	e000 03ff c000 03ff 8000 03ff c000 0001     ................
  40b4dc:	e000 0000 e000 0000 e000 0000 e000 03ff     ................
  40b4ec:	e000 03ff c000 03ff 0000 03ff 0000 0000     ................
  40b4fc:	0000 0000 e000 03ff e000 03ff e000 03ff     ................
  40b50c:	c000 0001 c000 0000 e000 0000 e000 0000     ................
  40b51c:	e000 0001 e000 03ff c000 03ff 8000 03ff     ................
	...
  40b534:	0000 003e 8000 00ff c000 01ff e000 03e3     ..>.............
  40b544:	e000 0380 e000 0380 e000 0380 e000 0380     ................
  40b554:	e000 03e3 c000 01ff 8000 00ff 0000 003e     ..............>.
	...
  40b570:	e000 7fff e000 7fff e000 7fff c000 0180     ................
  40b580:	e000 0380 e000 0380 e000 0380 e000 03e3     ................
  40b590:	c000 01ff c000 00ff 0000 007f 0000 0000     ................
  40b5a0:	0000 0000 0000 007f 8000 00ff c000 01ff     ................
  40b5b0:	e000 03e3 e000 0380 e000 0380 e000 0380     ................
  40b5c0:	c000 01c0 e000 7fff e000 7fff e000 7fff     ................
	...
  40b5dc:	e000 03ff e000 03ff e000 03ff e000 03ff     ................
  40b5ec:	c000 0000 e000 0000 e000 0000 e000 0000     ................
  40b5fc:	0000 0000 8000 00c7 c000 01cf e000 03cf     ................
  40b60c:	e000 038c e000 039c e000 039c e000 039c     ................
  40b61c:	e000 03f9 c000 01f9 8000 00f1 0000 0000     ................
  40b62c:	e000 0000 e000 0000 fc00 01ff fc00 03ff     ................
  40b63c:	fc00 03ff e000 0380 e000 0380 0000 0380     ................
  40b64c:	0000 0000 e000 00ff e000 01ff e000 03ff     ................
  40b65c:	0000 03c0 0000 0380 0000 0380 0000 0180     ................
  40b66c:	0000 01c0 e000 03ff e000 03ff e000 03ff     ................
  40b67c:	0000 0000 2000 0000 e000 0001 e000 000f     ..... ..........
  40b68c:	e000 007f 0000 03ff 0000 03f0 0000 03f0     ................
  40b69c:	0000 03ff e000 007f e000 000f e000 0001     ................
  40b6ac:	2000 0000 2000 0000 e000 0001 e000 001f     . ... ..........
  40b6bc:	e000 01ff 0000 03fe 0000 03e0 0000 03fe     ................
  40b6cc:	c000 007f e000 0007 e000 000f c000 007f     ................
  40b6dc:	0000 03fc 0000 03e0 0000 03ff e000 01ff     ................
  40b6ec:	e000 001f e000 0001 0000 0000 2000 0200     ............. ..
  40b6fc:	6000 0300 e000 03c1 e000 03f3 c000 01ff     .`..............
  40b70c:	0000 007f 0000 007f c000 00ff e000 03f7     ................
  40b71c:	e000 03c1 6000 0380 2000 0200 2000 0000     .....`... ... ..
  40b72c:	e000 7001 e000 700f e000 707f 0000 7fff     ...p...p...p....
  40b73c:	0000 3ff8 0000 1ff8 0000 03ff e000 007f     ...?............
  40b74c:	e000 000f e000 0001 2000 0000 0000 0000     ......... ......
  40b75c:	e000 0380 e000 03c0 e000 03f0 e000 03f8     ................
  40b76c:	e000 03fc e000 039f e000 038f e000 0387     ................
  40b77c:	e000 0381 e000 0380 0000 0000 0000 0000     ................
  40b78c:	0000 000e 0000 001f fe00 0fff ff00 1ffb     ................
  40b79c:	ff00 1fe0 0380 3800 0200 1000 0000 0000     .......8........
  40b7ac:	0000 0000 fe00 1fff fe00 1fff 0000 0000     ................
  40b7bc:	0000 0000 0200 1000 0380 3800 ff00 1fe0     ...........8....
  40b7cc:	ff00 1ffb fe00 0fff 0000 001f 0000 000e     ................
	...
  40b7e4:	0000 0038 0000 003e 0000 003f 0000 0007     ..8...>...?.....
  40b7f4:	0000 0007 0000 000f 0000 001e 0000 001c     ................
  40b804:	0000 0038 0000 0038 0000 003c 0000 001f     ..8...8...<.....
  40b814:	0000 000f 0000 0000 0000 0000               ............

0040b820 <Roboto_8pt_CharCount>:
  40b820:	0303 0704 0806 0207 0404 0605 0302 0503     ................
  40b830:	0606 0606 0606 0606 0606 0203 0606 0506     ................
  40b840:	070a 0707 0607 0806 0308 0706 0a06 0808     ................
  40b850:	0807 0707 0707 0a07 0707 0307 0305 0505     ................
  40b860:	0603 0606 0606 0604 0306 0603 0a03 0606     ................
  40b870:	0606 0604 0604 0805 0506 0405 0403 0007     ................

0040b880 <Roboto_8pt_Table>:
	...
  40b888:	17e0 0000 0000 00e0 0000 00e0 0400 1c80     ................
  40b898:	07e0 0480 1f80 04e0 0080 0000 19c0 1120     .............. .
  40b8a8:	3330 1a60 0c80 00c0 0120 0d20 02c0 0d80     03`..... . .....
  40b8b8:	1240 1200 0c00 0000 1ec0 1120 1320 1ce0     @......... . ...
  40b8c8:	0a00 1000 0000 0060 0000 1f80 6060 8010     ......`.....``..
  40b8d8:	8010 6060 1f80 0000 0040 0180 00e0 0180     ..``....@.......
  40b8e8:	0040 0000 0200 0200 0f80 0200 0200 4000     @..............@
  40b8f8:	3000 0200 0200 0200 0000 1000 0000 3000     .0.............0
  40b908:	0c00 0380 0060 0000 0000 0fc0 1020 1020     ....`....... . .
  40b918:	1020 0fc0 0000 0040 0020 1fe0 0000 0000      .....@. .......
  40b928:	0000 1860 1420 1220 11e0 1000 0000 1860     ..`. . .......`.
  40b938:	1120 1120 1ee0 0000 0400 0700 0480 0460      . ...........`.
  40b948:	1fe0 0400 0000 09e0 1120 1120 1120 0e20     ........ . . . .
  40b958:	0000 0fc0 1160 1120 1120 0e00 0020 1020     ....`. . ... . .
  40b968:	1820 0720 00e0 0000 0000 1ee0 1120 1120      . ......... . .
  40b978:	1ee0 0000 0000 03e0 1220 1220 0fc0 0000     ........ . .....
  40b988:	0000 1080 0000 4000 3080 0200 0200 0500     .......@.0......
  40b998:	0500 0880 0000 0000 0500 0500 0500 0500     ................
  40b9a8:	0000 0000 0880 0500 0500 0200 0000 0040     ..............@.
  40b9b8:	0020 1620 0120 00c0 0000 1f80 2040 5f20      . . .......@  _
  40b9c8:	50a0 48a0 5fa0 1040 0f80 0000 1000 0e00     .P.H._@.........
  40b9d8:	05c0 0420 05c0 0e00 1000 0000 1fe0 1120     .. ........... .
  40b9e8:	1120 1120 0ec0 0000 0000 0fc0 1020 1020      . ......... . .
  40b9f8:	1020 1860 0480 0000 1fe0 1020 1020 1020      .`....... . . .
  40ba08:	0cc0 0300 0000 1fe0 1120 1120 1120 1020     ........ . . . .
  40ba18:	0000 1fe0 0220 0220 0220 0020 0000 0fc0     .... . . . .....
  40ba28:	1820 1020 1220 1260 0e80 0000 0000 1fe0      . . .`.........
  40ba38:	0100 0100 0100 0100 1fe0 0000 0000 1fe0     ................
  40ba48:	0000 0800 1800 1000 1000 0fe0 0000 0000     ................
  40ba58:	1fe0 0300 0380 0440 1820 1020 0000 1fe0     ......@. . .....
  40ba68:	1000 1000 1000 1000 0000 1fe0 0060 0380     ............`...
  40ba78:	0c00 0c00 0380 0060 1fe0 0000 0000 1fe0     ......`.........
  40ba88:	00c0 0180 0600 0c00 1fe0 0000 0000 0fc0     ................
  40ba98:	1020 1020 1020 1020 0fc0 0000 0000 1fe0      . . . .........
  40baa8:	0220 0220 0220 0220 01c0 0000 0fc0 1860      . . . .......`.
  40bab8:	1020 1020 1860 2fc0 0000 0000 1fe0 0220      . .`../...... .
  40bac8:	0220 0620 19c0 1000 0000 08c0 1120 1120      . ......... . .
  40bad8:	1220 0e40 0000 0000 0020 0020 1fe0 0020      .@..... . ... .
  40bae8:	0020 0000 0000 0fe0 1000 1000 1000 0fe0      ...............
  40baf8:	0000 0020 01c0 0e00 1000 0e00 01c0 0020     .. ........... .
  40bb08:	0020 03c0 1c00 0f00 01e0 01e0 0f00 1c00      ...............
  40bb18:	03c0 0020 1020 1860 0480 0300 0cc0 1860     .. . .`.......`.
  40bb28:	1020 0020 00e0 0180 1e00 0180 00e0 0020      . ........... .
  40bb38:	0000 1c20 1a20 1120 10e0 1060 0000 0000     .. . . ...`.....
  40bb48:	7ff0 4010 0020 01c0 0600 3800 0000 4010     ...@ ......8...@
  40bb58:	7ff0 0000 0000 01c0 0060 01c0 0000 2000     ........`...... 
  40bb68:	2000 2000 2000 2000 0010 0030 0020 0000     . . . . ..0. ...
  40bb78:	1e80 1280 1280 1f80 0000 0000 1fe0 1080     ................
  40bb88:	1080 1980 0600 0000 0f00 1080 1080 1880     ................
  40bb98:	0900 0600 1980 1080 1080 1fe0 0000 0000     ................
  40bba8:	0f00 1280 1280 1a80 0b00 0080 1fe0 0090     ................
  40bbb8:	0090 0600 5980 5080 5080 7f80 0000 0000     .....Y.P.P......
  40bbc8:	1fe0 0080 0080 1f80 0000 0000 1fa0 0000     ................
  40bbd8:	4000 7fa0 0000 0000 1ff0 0200 0d00 1080     .@..............
  40bbe8:	1000 0000 1ff0 0000 0000 1f80 0100 0080     ................
  40bbf8:	1f80 0100 0080 0080 1f80 0000 0000 1f80     ................
  40bc08:	0080 0080 1f80 0000 0600 1980 1080 1080     ................
  40bc18:	1980 0600 0000 7f80 1080 1080 1980 0600     ................
  40bc28:	0600 1980 1080 1080 7f80 0000 0000 1f80     ................
  40bc38:	0080 0080 0000 1b80 1280 1280 1d80 0000     ................
  40bc48:	0080 0fc0 1080 0000 0000 1f80 1000 1000     ................
  40bc58:	1f80 0000 0180 0e00 1800 0e00 0180 0180     ................
  40bc68:	0e00 1c00 0780 0780 1c00 0e00 0180 1080     ................
  40bc78:	1980 0600 0600 1980 1080 4080 4700 3800     ...........@.G.8
  40bc88:	0700 0080 0000 1880 1680 1280 1180 0200     ................
  40bc98:	0700 78f0 4010 0000 3fe0 0000 4010 3df0     ...x.@...?...@.=
  40bca8:	0700 0200 0400 0200 0200 0600 0400 0400     ................
  40bcb8:	0200 0000                                   ....

0040bcbc <IBMPlexSans_18pt_CharCount>:
  40bcbc:	0706 110a 160e 0611 0808 0e0b 0a07 0907     ................
  40bccc:	0e0e 0e0e 0e0e 0e0e 0e0e 0707 0e0e 0b0e     ................
  40bcdc:	0f15 0f10 0e10 110d 0a11 0f0c 130c 1111     ................
  40bcec:	110f 0e0f 100e 150f 0e0f 080e 0809 0e0e     ................
  40bcfc:	0d0e 0c0e 0d0e 0d08 060e 0d06 1507 0d0e     ................
  40bd0c:	0e0e 0c09 0e08 120c 0c0c 080b 0808 000e     ................

0040bd1c <IBMPlexSans_18pt_Table>:
	...
  40bd3c:	3f00 0080 ff00 01cf 3f00 0080 0000 0000     .?.......?......
	...
  40bd58:	3f80 0000 3f80 0000 0000 0000 0000 0000     .?...?..........
  40bd68:	3f80 0000 3f80 0000 0000 0000 0000 0000     .?...?..........
  40bd78:	0000 0000 0000 000c 6000 000c 6000 000c     .........`...`..
  40bd88:	6000 01fc e000 007f ff00 000d 6700 000c     .`...........g..
  40bd98:	6000 000c 6000 01ec e000 00ff fe00 000f     .`...`..........
  40bda8:	6f00 000c 6000 000c 6000 000c 0000 0000     .o...`...`......
	...
  40bdc0:	0000 0020 7c00 0060 ee00 00c0 c700 01c1     .. ..|`.........
  40bdd0:	8300 0181 ffc0 07ff ffc0 07ff 8300 0183     ................
  40bde0:	0700 01c3 0600 00c7 0c00 007e 0800 003c     ..........~...<.
	...
  40bdf8:	3800 0000 fe00 0000 c700 0001 8300 0101     .8..............
  40be08:	8300 0181 8300 00c1 fe00 0070 7c00 0038     ..........p..|8.
  40be18:	0000 000e 0000 0007 c000 0001 e000 0000     ................
  40be28:	3000 007c 1c00 00fe 0600 0183 0300 0183     .0|.............
  40be38:	0100 0183 0000 01c7 0000 00fe 0000 0038     ..............8.
	...
  40be54:	0000 007c 1800 00fe 7e00 01c3 e600 0183     ..|......~......
  40be64:	c300 0181 8300 0183 c300 0186 6700 018c     .............g..
  40be74:	3e00 00d8 1c00 0070 0000 00ff 0000 01cf     .>....p.........
  40be84:	0000 0183 0000 0103 0000 0000 0000 0000     ................
  40be94:	0000 0000 3f80 0000 3f80 0000 0000 0000     .....?...?......
	...
  40beb0:	e000 003f f800 00ff 1e00 03c0 0300 0600     ..?.............
  40bec0:	0180 0c00 0080 0800 0080 0800 0180 0c00     ................
  40bed0:	0300 0600 1e00 03c0 f800 00ff e000 003f     ..............?.
	...
  40beec:	0600 0000 4400 0000 ec00 0000 3e00 0000     .....D.......>..
  40befc:	1f80 0000 3e00 0000 ec00 0000 4400 0000     .....>.......D..
  40bf0c:	0600 0000 0000 0000 0000 0000 0000 0006     ................
  40bf1c:	0000 0006 0000 0006 0000 0006 0000 0006     ................
  40bf2c:	f000 00ff f000 00ff 0000 0006 0000 0006     ................
  40bf3c:	0000 0006 0000 0006 0000 0006 0000 0000     ................
  40bf4c:	0000 0000 0000 0800 0000 0dc0 0000 07c0     ................
  40bf5c:	0000 03c0 0000 0000 0000 0000 0000 0000     ................
  40bf6c:	0000 0000 0000 0006 0000 0006 0000 0006     ................
  40bf7c:	0000 0006 0000 0006 0000 0006 0000 0000     ................
	...
  40bf98:	0000 01c0 0000 01c0 0000 01c0 0000 0000     ................
  40bfa8:	0000 0000 0000 1000 0000 1f00 0000 07f0     ................
  40bfb8:	0000 007e e000 000f fc00 0000 0f80 0000     ..~.............
  40bfc8:	0180 0000 0000 0000 0000 0000 e000 000f     ................
  40bfd8:	fc00 007f 1e00 00f0 0600 00c0 0300 0180     ................
  40bfe8:	0300 0180 0300 0180 0300 0180 0600 00c0     ................
  40bff8:	1e00 00f0 fc00 007f e000 000f 0000 0000     ................
  40c008:	0000 0000 1000 0000 3800 0180 1c00 0180     .........8......
  40c018:	0e00 0180 0700 0180 0300 0180 ff00 01ff     ................
  40c028:	ff00 01ff 0000 0180 0000 0180 0000 0180     ................
  40c038:	0000 0180 0000 0000 0000 0000 1000 0000     ................
  40c048:	1c00 01c0 0e00 01e0 0700 01b0 0300 01b8     ................
  40c058:	0300 019c 0300 018e 0300 0187 8600 0183     ................
  40c068:	fe00 0181 7800 0180 0000 0180 0000 0000     .....x..........
  40c078:	0000 0000 1800 0060 1c00 00e0 0600 00c0     ......`.........
  40c088:	8300 0181 8300 0181 8300 0181 8300 0181     ................
  40c098:	c300 0181 7e00 00c3 7e00 00fe 1800 003c     .....~...~....<.
	...
  40c0b4:	0000 0038 0000 003e 8000 0033 c000 0031     ..8...>...3...1.
  40c0c4:	7000 0030 1c00 0030 0f00 0030 0300 0030     .p0...0...0...0.
  40c0d4:	ff00 01ff ff00 01ff 0000 0030 0000 0030     ..........0...0.
	...
  40c0f0:	fe00 0061 ff00 00e1 0300 01c1 8300 0180     ..a.............
  40c100:	c300 0180 c300 0180 c300 0180 c300 00c1     ................
  40c110:	8300 00ff 0300 007f 0000 0000 0000 0000     ................
  40c120:	0000 0000 0000 000e c000 007f f000 00ff     ................
  40c130:	b800 00c1 8c00 0180 c600 0180 c300 0180     ................
  40c140:	c100 0180 c100 00c1 8000 00ff 0000 007f     ................
  40c150:	0000 001c 0000 0000 0000 0000 3f00 0000     .............?..
  40c160:	3f00 0000 0300 0000 0300 0100 0300 01c0     .?..............
  40c170:	0300 00f8 0300 003e 8300 0007 f300 0001     ......>.........
  40c180:	7f00 0000 0f00 0000 0000 0000 0000 0000     ................
  40c190:	0000 0000 0000 003c 3c00 007e 7e00 00e7     ......<..<~..~..
  40c1a0:	c700 01c3 8300 0181 8300 0181 8300 0181     ................
  40c1b0:	8300 0181 c700 01c3 7e00 00e7 3c00 007e     .........~...<~.
  40c1c0:	0000 003c 0000 0000 0000 0000 6000 0000     ..<..........`..
  40c1d0:	fc00 0001 fe00 0003 0600 0107 0300 0106     ................
  40c1e0:	0300 0186 0300 00c6 0300 0062 0600 003b     ..........b...;.
  40c1f0:	fe00 001f fc00 0007 e000 0000 0000 0000     ................
	...
  40c208:	7000 01c0 7000 01c0 7000 01c0 0000 0000     .p...p...p......
	...
  40c220:	0000 0800 7000 0dc0 7000 07c0 7000 03c0     .....p...p...p..
	...
  40c240:	0000 0006 0000 000f 0000 000f 8000 0019     ................
  40c250:	c000 0030 c000 0030 6000 0060 6000 0060     ..0...0..``..``.
  40c260:	3000 00c0 1800 0180 0000 0000 0000 0000     .0..............
	...
  40c278:	c000 0018 c000 0018 c000 0018 c000 0018     ................
  40c288:	c000 0018 c000 0018 c000 0018 c000 0018     ................
  40c298:	c000 0018 c000 0018 c000 0018 0000 0000     ................
	...
  40c2b0:	1800 0180 3000 00c0 6000 0060 6000 0060     .....0...``..``.
  40c2c0:	c000 0030 c000 0030 8000 0019 0000 000f     ..0...0.........
  40c2d0:	0000 000f 0000 0006 0000 0000 0000 0000     ................
  40c2e0:	0000 0000 1c00 0000 0e00 0000 0700 0000     ................
  40c2f0:	0300 01cf 8300 01cf 8300 0001 8700 0001     ................
  40c300:	fe00 0000 7c00 0000 0000 0000 0000 0000     .....|..........
  40c310:	0000 000f e000 007f 7800 01c0 1c00 0380     .........x......
  40c320:	0e00 0700 8600 061f c600 0e3f e300 0c70     ..........?...p.
  40c330:	6300 0c60 6300 0c60 6300 0c60 8300 0c10     .c`..c`..c`.....
  40c340:	e300 0c3f 0600 0c70 0600 0c60 0c00 0060     ..?...p...`...`.
  40c350:	3800 0030 f000 001f 8000 0007 0000 0000     .80.............
  40c360:	0000 0100 0000 01c0 0000 01f8 0000 003f     ..............?.
  40c370:	e000 000f 7c00 000c 0f00 000c 0300 000c     .....|..........
  40c380:	1f00 000c fc00 000c e000 000f 0000 003f     ..............?.
  40c390:	0000 01f8 0000 01c0 0000 0100 0000 0000     ................
  40c3a0:	0000 0000 ff00 01ff ff00 01ff 8300 0181     ................
  40c3b0:	8300 0181 8300 0181 8300 0181 8300 0181     ................
  40c3c0:	8300 0181 8300 0181 c700 01c3 7e00 00ff     .............~..
  40c3d0:	3800 007e 0000 0000 0000 0000 0000 0000     .8~.............
  40c3e0:	8000 0003 f800 003f fc00 007f 0e00 00e0     ......?.........
  40c3f0:	0700 01c0 0300 0180 0300 0180 0300 0180     ................
  40c400:	0300 0180 0700 01c0 0600 00c0 1c00 0070     ..............p.
  40c410:	1800 0030 0000 0000 0000 0000 0000 0000     ..0.............
  40c420:	ff00 01ff ff00 01ff 0300 0180 0300 0180     ................
  40c430:	0300 0180 0300 0180 0300 0180 0300 0180     ................
  40c440:	0700 01c0 0e00 00e0 fc00 007f f800 003f     ..............?.
  40c450:	c000 0007 0000 0000 0000 0000 0000 0000     ................
  40c460:	ff00 01ff ff00 01ff 8300 0181 8300 0181     ................
  40c470:	8300 0181 8300 0181 8300 0181 8300 0181     ................
  40c480:	8300 0181 8300 0181 0000 0000 0000 0000     ................
	...
  40c498:	ff00 01ff ff00 01ff 8300 0001 8300 0001     ................
  40c4a8:	8300 0001 8300 0001 8300 0001 8300 0001     ................
  40c4b8:	8300 0001 0300 0000 0000 0000 0000 0000     ................
  40c4c8:	0000 0000 f000 001f fc00 007f 0e00 00e0     ................
  40c4d8:	0600 00c0 0300 0180 0300 0180 0300 0180     ................
  40c4e8:	0300 0183 0300 0183 0600 00c3 0e00 0043     ..............C.
  40c4f8:	1c00 01ff 1800 01ff 0000 0000 0000 0000     ................
	...
  40c510:	ff00 01ff ff00 01ff 8000 0001 8000 0001     ................
  40c520:	8000 0001 8000 0001 8000 0001 8000 0001     ................
  40c530:	8000 0001 8000 0001 8000 0001 ff00 01ff     ................
  40c540:	ff00 01ff 0000 0000 0000 0000 0000 0000     ................
  40c550:	0000 0000 0300 0180 0300 0180 ff00 01ff     ................
  40c560:	ff00 01ff 0300 0180 0300 0180 0000 0000     ................
	...
  40c578:	0000 0060 0300 00e0 0300 01c0 0300 0180     ..`.............
  40c588:	0300 0180 0300 0180 0300 01c0 ff00 00ff     ................
  40c598:	ff00 007f 0000 0000 0000 0000 0000 0000     ................
  40c5a8:	0000 0000 ff00 01ff ff00 01ff 0000 0007     ................
  40c5b8:	8000 0003 c000 0003 e000 0007 7000 000e     .............p..
  40c5c8:	1800 001c 0c00 0038 0600 0070 0300 00e0     ......8...p.....
  40c5d8:	0100 01c0 0000 0180 0000 0000 0000 0000     ................
  40c5e8:	ff00 01ff ff00 01ff 0000 0180 0000 0180     ................
  40c5f8:	0000 0180 0000 0180 0000 0180 0000 0180     ................
  40c608:	0000 0180 0000 0000 0000 0000 0000 0000     ................
  40c618:	ff00 01ff ff00 01ff 0f00 0000 3c00 0000     .............<..
  40c628:	7000 0000 e000 0001 8000 0007 0000 000e     .p..............
  40c638:	0000 0007 c000 0001 7000 0000 3c00 0000     .........p...<..
  40c648:	0700 0000 ff00 01ff ff00 01ff 0000 0000     ................
	...
  40c664:	ff00 01ff ff00 01ff 0700 0000 1c00 0000     ................
  40c674:	7800 0000 e000 0001 8000 0003 0000 000f     .x..............
  40c684:	0000 003c 0000 0070 0000 00c0 ff00 01ff     ..<...p.........
  40c694:	ff00 01ff 0000 0000 0000 0000 0000 0000     ................
  40c6a4:	8000 0003 f800 003f fc00 007f 0e00 00e0     ......?.........
  40c6b4:	0600 00c0 0300 0180 0300 0180 0300 0180     ................
  40c6c4:	0300 0180 0300 0180 0600 00c0 0e00 00e0     ................
  40c6d4:	fc00 007f f800 003f 8000 0003 0000 0000     ......?.........
	...
  40c6f0:	ff00 01ff ff00 01ff 0300 0003 0300 0003     ................
  40c700:	0300 0003 0300 0003 0300 0003 0300 0003     ................
  40c710:	8700 0003 fe00 0001 7800 0000 0000 0000     .........x......
  40c720:	0000 0000 8000 0003 f800 003f fc00 007f     ..........?.....
  40c730:	0e00 00e0 0600 00c0 0300 0180 0300 0180     ................
  40c740:	0300 1f80 0300 1f80 0300 1980 0600 18c0     ................
  40c750:	0e00 00e0 fc00 007f f800 003f 8000 0003     ..........?.....
	...
  40c76c:	ff00 01ff ff00 01ff 0300 0003 0300 0003     ................
  40c77c:	0300 0003 0300 0003 0300 0007 0300 001f     ................
  40c78c:	8700 007b fe00 01e1 fc00 01c0 0000 0100     ..{.............
	...
  40c7a4:	0000 0060 7c00 0060 fe00 00c0 c700 01c1     ..`..|`.........
  40c7b4:	8300 0181 8300 0181 8300 0181 8300 0183     ................
  40c7c4:	0700 01c3 0600 00e7 1c00 007e 1800 003c     ..........~...<.
	...
  40c7dc:	0300 0000 0300 0000 0300 0000 0300 0000     ................
  40c7ec:	0300 0000 ff00 01ff ff00 01ff 0300 0000     ................
  40c7fc:	0300 0000 0300 0000 0300 0000 0300 0000     ................
	...
  40c818:	ff00 003f ff00 00ff 0000 00e0 0000 01c0     ..?.............
  40c828:	0000 0180 0000 0180 0000 0180 0000 0180     ................
  40c838:	0000 01c0 0000 00e0 ff00 007f ff00 003f     ..............?.
	...
  40c854:	0700 0000 3f00 0000 fc00 0001 e000 000f     .....?..........
  40c864:	0000 007f 0000 01f0 0000 0180 0000 01f0     ................
  40c874:	0000 007f e000 000f fc00 0001 3f00 0000     .............?..
  40c884:	0300 0000 0000 0000 0100 0000 1f00 0000     ................
  40c894:	ff00 0001 e000 001f 0000 01fe 0000 01c0     ................
  40c8a4:	0000 01f8 8000 003f f800 0003 3f00 0000     ......?......?..
  40c8b4:	0300 0000 3f00 0000 f800 0003 8000 003f     .....?........?.
  40c8c4:	0000 01f0 0000 01c0 0000 01fe e000 001f     ................
  40c8d4:	fe00 0001 1f00 0000 0100 0000 0000 0000     ................
  40c8e4:	0100 0100 0700 01c0 0f00 00e0 3c00 0078     .............<x.
  40c8f4:	7000 001e e000 0007 8000 0003 e000 000f     .p..............
  40c904:	7000 001e 3c00 0078 0e00 00e0 0700 01c0     .p...<x.........
  40c914:	0100 0100 0000 0000 0100 0000 0300 0000     ................
  40c924:	0f00 0000 3c00 0000 7000 0000 e000 0001     .....<...p......
  40c934:	8000 01ff 8000 01ff e000 0001 7000 0000     .............p..
  40c944:	3c00 0000 0f00 0000 0300 0000 0100 0000     .<..............
  40c954:	0000 0000 0300 01c0 0300 01e0 0300 01b0     ................
  40c964:	0300 019c 0300 018e 0300 0183 c300 0181     ................
  40c974:	e300 0180 3b00 0180 1f00 0180 0f00 0180     .....;..........
  40c984:	0300 0180 0000 0000 0000 0000 0000 0000     ................
  40c994:	ff80 0fff ff80 0fff 0180 0c00 0180 0c00     ................
	...
  40c9b0:	0180 0000 1f80 0000 fc00 0000 c000 000f     ................
  40c9c0:	0000 007e 0000 07e0 0000 1f00 0000 1000     ..~.............
	...
  40c9d8:	0180 0c00 0180 0c00 ff80 0fff ff80 0fff     ................
	...
  40c9f4:	0000 0001 c000 0003 f000 0000 3800 0000     .............8..
  40ca04:	0e00 0000 0700 0000 0700 0000 0e00 0000     ................
  40ca14:	3800 0000 f000 0000 c000 0003 0000 0001     .8..............
	...
  40ca2c:	0000 1800 0000 1800 0000 1800 0000 1800     ................
  40ca3c:	0000 1800 0000 1800 0000 1800 0000 1800     ................
  40ca4c:	0000 1800 0000 1800 0000 1800 0000 1800     ................
	...
  40ca70:	0080 0000 01c0 0000 0380 0000 0600 0000     ................
	...
  40ca9c:	0000 0070 c000 00f8 c000 01dc 6000 018c     ..p..........`..
  40caac:	6000 018c 6000 018c 6000 008c e000 004c     .`...`...`....L.
  40cabc:	c000 00ff 8000 01ff 0000 0180 0000 0000     ................
	...
  40cad4:	ff80 01ff ff80 01ff 8000 0040 4000 0080     ..........@..@..
  40cae4:	6000 0180 6000 0180 6000 0180 e000 01c0     .`...`...`......
  40caf4:	c000 00e1 8000 007f 0000 001e 0000 0000     ................
  40cb04:	0000 0000 0000 003f 8000 007f c000 00e1     ......?.........
  40cb14:	e000 01c0 6000 0180 6000 0180 6000 0180     .....`...`...`..
  40cb24:	e000 0180 c000 00c1 8000 0061 0000 0000     ..........a.....
  40cb34:	0000 0000 0000 001e 8000 007f c000 00e1     ................
  40cb44:	e000 01c0 6000 0180 6000 0180 6000 0180     .....`...`...`..
  40cb54:	4000 0080 8000 0040 ff80 01ff ff80 01ff     .@....@.........
	...
  40cb70:	0000 003f 8000 007f c000 00cc 6000 018c     ..?..........`..
  40cb80:	6000 018c 6000 018c 6000 018c 6000 018c     .`...`...`...`..
  40cb90:	c000 00cc 8000 00cf 0000 004f 0000 0000     ..........O.....
  40cba0:	0000 0000 6000 0000 6000 0000 ff00 01ff     .....`...`......
  40cbb0:	ff80 01ff 6180 0000 6180 0000 0000 0000     .....a...a......
  40cbc0:	0000 0000 0000 0c00 8000 1ee7 c000 39ef     ...............9
  40cbd0:	6000 319c 6000 3198 6000 3198 6000 3198     .`.1.`.1.`.1.`.1
  40cbe0:	6000 3198 f800 318f 9800 1b87 1800 1f00     .`.1...1........
  40cbf0:	0000 0600 0000 0000 0000 0000 ff80 01ff     ................
  40cc00:	ff80 01ff 8000 0000 4000 0000 6000 0000     .........@...`..
  40cc10:	6000 0000 6000 0000 e000 0000 c000 01ff     .`...`..........
  40cc20:	8000 01ff 0000 0000 0000 0000 0000 0000     ................
  40cc30:	0000 0000 e180 01ff e180 01ff 0000 0000     ................
  40cc40:	0000 0000 0000 3000 0000 3000 e180 3fff     .......0...0...?
  40cc50:	e180 1fff 0000 0000 0000 0000 0000 0000     ................
  40cc60:	0000 0000 ff80 01ff ff80 01ff 0000 000c     ................
  40cc70:	0000 0006 0000 000f 8000 001f c000 0079     ..............y.
  40cc80:	e000 00f0 6000 01c0 2000 0180 0000 0100     .....`... ......
	...
  40cc98:	ff80 00ff ff80 01ff 0000 0180 0000 0180     ................
	...
  40ccb4:	e000 01ff e000 01ff 8000 0000 4000 0000     .............@..
  40ccc4:	6000 0000 6000 0000 6000 0000 c000 0001     .`...`...`......
  40ccd4:	c000 01ff 8000 01ff 4000 0000 6000 0000     .........@...`..
  40cce4:	6000 0000 6000 0000 e000 0000 c000 01ff     .`...`..........
  40ccf4:	8000 01ff 0000 0000 0000 0000 0000 0000     ................
  40cd04:	0000 0000 e000 01ff e000 01ff 8000 0000     ................
  40cd14:	4000 0000 6000 0000 6000 0000 6000 0000     .@...`...`...`..
  40cd24:	e000 0000 c000 01ff 8000 01ff 0000 0000     ................
	...
  40cd3c:	0000 003f 8000 007f c000 00c0 6000 0180     ..?..........`..
  40cd4c:	6000 0180 6000 0180 6000 0180 6000 0180     .`...`...`...`..
  40cd5c:	c000 00c0 8000 007f 0000 003f 0000 0000     ..........?.....
	...
  40cd74:	e000 3fff e000 3fff 8000 0040 4000 0080     ...?...?..@..@..
  40cd84:	6000 0180 6000 0180 6000 0180 e000 01c0     .`...`...`......
  40cd94:	c000 00e1 8000 007f 0000 001e 0000 0000     ................
  40cda4:	0000 0000 0000 001e 8000 007f c000 00e1     ................
  40cdb4:	e000 01c0 6000 0180 6000 0180 6000 0180     .....`...`...`..
  40cdc4:	4000 0080 8000 0040 e000 3fff e000 3fff     .@....@....?...?
	...
  40cde4:	e000 01ff e000 01ff 8000 0000 4000 0000     .............@..
  40cdf4:	6000 0000 6000 0000 6000 0000 0000 0000     .`...`...`......
  40ce04:	0000 0060 c000 00e7 e000 00c6 6000 018c     ..`..........`..
  40ce14:	6000 018c 6000 018c 6000 018c c000 00dd     .`...`...`......
  40ce24:	c000 00f9 0000 0000 0000 0000 6000 0000     .............`..
  40ce34:	6000 0000 e000 007f fc00 01ff 6000 0180     .`...........`..
  40ce44:	6000 0180 6000 0180 0000 0000 0000 0000     .`...`..........
  40ce54:	0000 0000 e000 007f e000 00ff 0000 01c0     ................
  40ce64:	0000 0180 0000 0180 0000 0180 0000 0080     ................
  40ce74:	0000 0040 e000 01ff e000 01ff 0000 0000     ..@.............
	...
  40ce8c:	e000 0000 e000 0003 0000 001f 0000 00f8     ................
  40ce9c:	0000 01c0 0000 01c0 0000 00f8 0000 001f     ................
  40ceac:	e000 0003 e000 0000 0000 0000 0000 0000     ................
  40cebc:	e000 0001 e000 000f 0000 00fe 0000 01e0     ................
  40cecc:	0000 01c0 0000 00fc 8000 001f e000 0001     ................
  40cedc:	e000 0001 8000 001f 0000 00fc 0000 01c0     ................
  40ceec:	0000 01c0 0000 00fe c000 000f e000 0001     ................
	...
  40cf04:	2000 0100 e000 01c0 c000 00e1 8000 0033     . ............3.
  40cf14:	0000 001e 0000 001e 0000 003b c000 00e1     ..........;.....
  40cf24:	e000 01c0 2000 0100 0000 0000 2000 0000     ..... ....... ..
  40cf34:	e000 0000 e000 3007 0000 301f 0000 38f8     .......0...0...8
  40cf44:	0000 1fc0 0000 07c0 0000 00f8 0000 001f     ................
  40cf54:	c000 0007 e000 0000 2000 0000 0000 0000     ......... ......
  40cf64:	6000 01c0 6000 01e0 6000 01b0 6000 0198     .`...`...`...`..
  40cf74:	6000 018c 6000 0186 e000 0183 e000 0181     .`...`..........
  40cf84:	6000 0180 0000 0000 0000 0002 0000 0007     .`..............
  40cf94:	0000 0005 ff80 0ffd 0180 0c00 0180 0c00     ................
  40cfa4:	0180 0c00 0000 0000 0000 0000 0000 0000     ................
  40cfb4:	0000 0000 ff80 0fff ff80 0fff 0000 0000     ................
	...
  40cfd0:	0180 0c00 0180 0c00 0180 0c00 ff80 0ffd     ................
  40cfe0:	0000 0005 0000 0007 0000 0002 0000 0000     ................
  40cff0:	0000 0002 0000 0007 0000 0003 0000 0003     ................
  40d000:	0000 0003 0000 0006 0000 0006 0000 000c     ................
  40d010:	0000 000c 0000 000c 0000 000e 0000 0004     ................
  40d020:	0000 0000                                   ....

0040d024 <ArvoBold_40pt_CharCount>:
  40d024:	130b 2811 2f20 0923 1313 201a 140d 150e     ...( /#.... ....
  40d034:	1522 1c1e 1f20 1f1e 1e1f 0c0e 1a16 1f15     "... ...........
  40d044:	273b 2824 2426 2a21 1531 2b13 3d23 2a2c     ;'$(&$!*1..+#=,*
  40d054:	2a24 2028 2825 3d28 2829 1121 1214 1b20     $*( %((=)(!... .
  40d064:	2114 1f22 1f24 2215 1424 2610 3814 2026     .!".$.."$..&.8& 
  40d074:	2323 1d1d 2414 3121 2020 171e 1712 0017     ##...$!1  ......

0040d084 <ArvoBold_40pt_Table>:
	...
  40d0fc:	fc00 01ff c000 0001 fc00 ffff f03f 0007     ............?...
  40d10c:	fc00 ffff f03f 0007 fc00 ffff f83f 000f     ....?.......?...
  40d11c:	fc00 ffff f83f 000f fc00 ffff f83f 000f     ....?.......?...
  40d12c:	fc00 ffff f83f 000f fc00 ffff f03f 0007     ....?.......?...
  40d13c:	fc00 ffff f03f 0007 fc00 01ff c000 0001     ....?...........
	...
  40d17c:	fc00 0001 0000 0000 fc00 007f 0000 0000     ................
  40d18c:	fc00 007f 0000 0000 fc00 007f 0000 0000     ................
  40d19c:	fc00 007f 0000 0000 fc00 007f 0000 0000     ................
  40d1ac:	fc00 007f 0000 0000 0000 0000 0000 0000     ................
	...
  40d1c4:	fc00 007f 0000 0000 fc00 007f 0000 0000     ................
  40d1d4:	fc00 007f 0000 0000 fc00 007f 0000 0000     ................
  40d1e4:	fc00 007f 0000 0000 fc00 0000 0000 0000     ................
	...
  40d200:	0400 0000 0000 0000 07c0 0000 0000 0000     ................
  40d210:	07f0 0000 0000 0380 07f0 0007 0000 03f8     ................
  40d220:	fff0 0007 0000 03f8 fff0 0007 0000 03f8     ................
  40d230:	fffe 0007 0000 f3f8 ffff 0007 0000 fff8     ................
  40d240:	ffff 0007 0000 fffc ffff 0007 e000 ffff     ................
  40d250:	ffff 0007 fc00 ffff ffff 0007 fc00 ffff     ................
  40d260:	ffff 0001 fc00 ffff 0fff 0000 fc00 ffff     ................
  40d270:	07ff 0000 fc00 ffff 07f3 0000 fc00 1fff     ................
  40d280:	07f0 0000 fc00 03ff 07f0 0000 fc00 03fb     ................
  40d290:	07f0 0000 1c00 03f8 07f0 0000 0000 03f8     ................
  40d2a0:	07f0 0006 0000 03f8 f7f0 0007 0000 03f8     ................
  40d2b0:	fff0 0007 0000 03f8 fffe 0007 0000 f3f8     ................
  40d2c0:	ffff 0007 0000 fff8 ffff 0007 0000 fffc     ................
  40d2d0:	ffff 0007 e000 ffff ffff 0007 fc00 ffff     ................
  40d2e0:	ffff 0007 fc00 ffff ffff 0003 fc00 ffff     ................
  40d2f0:	0fff 0000 fc00 ffff 07ff 0000 fc00 ffff     ................
  40d300:	07f3 0000 fc00 1fff 07f0 0000 fc00 03ff     ................
  40d310:	07f0 0000 fc00 03ff 07f0 0000 1c00 03f8     ................
  40d320:	0070 0000 0000 03f8 0000 0000 0000 00f8     p...............
  40d330:	0000 0000 0000 0008 0000 0000 0000 0000     ................
	...
  40d350:	1ff0 0000 0000 0000 1ff0 0000 0000 1f80     ................
  40d360:	1ff0 0000 0000 7fc0 1ff0 0000 0000 fff0     ................
  40d370:	1ff0 0000 0000 fff0 1ff1 0000 0000 fff8     ................
  40d380:	3ff1 0000 0000 fff8 7ff3 0000 0000 fffc     .?..............
  40d390:	7ff3 0000 0000 fffc ffc3 0000 fc00 e7ff     ................
  40d3a0:	ff87 00ff fc00 e3ff ff87 00ff fc00 c3ff     ................
  40d3b0:	ff07 00ff fc00 c3ff ff0f 00ff fc00 c3ff     ................
  40d3c0:	ff0f 00ff fc00 83ff ff0f 00ff fc00 87ff     ................
  40d3d0:	ff0f 00ff fc00 8fff ff9f 00ff fc00 bfff     ................
  40d3e0:	ffff 00ff 0000 3ffc ffff 0000 0000 3ff8     .......?.......?
  40d3f0:	7fff 0000 0000 3ff0 7ffe 0000 0000 3fe0     .......?.......?
  40d400:	3ffe 0000 0000 3fe0 1ffc 0000 0000 3fe0     .?.....?.......?
  40d410:	0ff8 0000 0000 3fe0 03f0 0000 0000 3fe0     .......?.......?
	...
  40d464:	0000 01fc 0000 0000 0000 07ff 0000 0000     ................
  40d474:	8000 0fff 0000 0000 c000 1fff 0000 0000     ................
  40d484:	c000 3fff 0000 0004 e000 3fff 0000 0006     ...?.......?....
  40d494:	e000 3f8f 8000 0007 f000 7f07 e000 0007     ...?............
  40d4a4:	f000 7e03 f000 0007 f000 7e03 fc00 0007     ...~.......~....
  40d4b4:	f000 7e03 fe00 0007 f000 7e03 ff80 0007     ...~.......~....
  40d4c4:	f000 7f07 ffc0 0007 e000 3f8f fff0 0007     ...........?....
  40d4d4:	e000 3fff fffc 0001 e000 3fff fffe 0000     ...?.......?....
  40d4e4:	c000 9fff 3fff 0000 8000 cfff 0fff 0000     .....?..........
  40d4f4:	0000 f7ff 07ff 0000 0000 f9fc 01ff 0000     ................
  40d504:	0000 fe00 00ff 0000 0000 ff80 1fff 0000     ................
  40d514:	0000 ffc0 7fff 0000 0000 fff0 ffff 0000     ................
  40d524:	0000 fff8 fffd 0001 0000 fffe fffc 0003     ................
  40d534:	0000 3fff fffe 0003 c000 1fff f8fe 0003     ...?............
  40d544:	f000 07ff f07f 0007 f800 01ff e03f 0007     ............?...
  40d554:	fc00 00ff e03f 0007 fc00 003f e03f 0007     ....?.....?.?...
  40d564:	fc00 001f e03f 0007 fc00 0007 f07f 0007     ....?...........
  40d574:	fc00 0003 f8fe 0003 fc00 0000 fffe 0003     ................
  40d584:	3c00 0000 fffe 0003 1c00 0000 fffc 0001     .<..............
  40d594:	0400 0000 fff8 0000 0000 0000 7ff0 0000     ................
  40d5a4:	0000 0000 1fc0 0000 0000 0000 0000 0000     ................
	...
  40d5c8:	07e0 0000 0000 0000 3ffc 0000 0000 01fc     .........?......
  40d5d8:	7ffe 0000 0000 07ff ffff 0000 8000 8fff     ................
  40d5e8:	ffff 0001 c000 dfff ffff 0003 e000 ffff     ................
  40d5f8:	ffff 0007 e000 ffff ffff 0007 f000 ffff     ................
  40d608:	ffff 0007 f000 ffff fe0f 000f f800 ffff     ................
  40d618:	fc07 000f f800 fe1f f803 000f f800 fc0f     ................
  40d628:	f803 000f f800 f80f f80f 000f f800 fc0f     ................
  40d638:	f81f 000f f800 fe1f f83f 000f f800 ffff     ........?.......
  40d648:	f87f 000f f000 bfff fcff 0007 f000 1fff     ................
  40d658:	fdff 0007 f000 0fff fffe 0003 e000 07ff     ................
  40d668:	fffc 0003 c000 03ff fffe 0001 8000 c1ff     ................
  40d678:	ffff 0000 0000 c0ff 7fff 0000 0000 c07c     ..............|.
  40d688:	ffff 0000 0000 c000 ffff 0001 0000 c000     ................
  40d698:	ffff 0003 0000 c000 ffff 0007 0000 c000     ................
  40d6a8:	feff 001f 0000 c000 fc1f 000f 0000 c000     ................
  40d6b8:	f803 0007 0000 0000 f000 0003 0000 0000     ................
  40d6c8:	e000 0003 0000 0000 0000 0000 fc00 007f     ................
  40d6d8:	0000 0000 fc00 007f 0000 0000 fc00 007f     ................
  40d6e8:	0000 0000 fc00 007f 0000 0000 fc00 007f     ................
  40d6f8:	0000 0000 fc00 003f 0000 0000 3c00 0000     ......?......<..
	...
  40d72c:	0000 f800 01ff 0000 0000 ffc0 3fff 0000     .............?..
  40d73c:	0000 fff8 ffff 0001 0000 ffff ffff 000f     ................
  40d74c:	c000 ffff ffff 003f f000 ffff ffff 00ff     ......?.........
  40d75c:	fc00 ffff ffff 03ff fe00 ffff ffff 0fff     ................
  40d76c:	ff80 0fff ff00 1fff ffc0 007f e000 3fff     ...............?
  40d77c:	ffe0 000f 0000 7fff ffc0 0003 0000 3ffc     ...............?
  40d78c:	ff80 0000 0000 1fe0 3f80 0000 0000 1fc0     .........?......
  40d79c:	0f00 0000 0000 0f00 0600 0000 0000 0400     ................
	...
  40d7b4:	0200 0000 0000 0600 0f00 0000 0000 0f00     ................
  40d7c4:	3f80 0000 0000 1fc0 7f80 0000 0000 1ff0     .?..............
  40d7d4:	ffc0 0003 0000 3ffc ffe0 000f 0000 7fff     .......?........
  40d7e4:	ffc0 007f e000 3fff ff80 0fff ff00 1fff     .......?........
  40d7f4:	ff00 ffff ffff 07ff fc00 ffff ffff 03ff     ................
  40d804:	f000 ffff ffff 00ff c000 ffff ffff 003f     ..............?.
  40d814:	0000 ffff ffff 000f 0000 fff8 ffff 0001     ................
  40d824:	0000 ffc0 3fff 0000 0000 f800 01ff 0000     .....?..........
	...
  40d854:	0000 000e 0000 0000 c000 000f 0000 0000     ................
  40d864:	c000 0c1f 0000 0000 c000 0e1f 0000 0000     ................
  40d874:	8000 1f1f 0000 0000 8000 3fff 0000 0000     ...........?....
  40d884:	8000 3fff 0000 0000 0000 3fff 0000 0000     ...?.......?....
  40d894:	fe00 1fff 0000 0000 fe00 0fff 0000 0000     ................
  40d8a4:	fe00 03ff 0000 0000 fe00 03ff 0000 0000     ................
  40d8b4:	fe00 0fff 0000 0000 fe00 1fff 0000 0000     ................
  40d8c4:	0000 3fff 0000 0000 8000 3fff 0000 0000     ...?.......?....
  40d8d4:	8000 3fff 0000 0000 8000 1f1f 0000 0000     ...?............
  40d8e4:	c000 0e1f 0000 0000 c000 0c1f 0000 0000     ................
  40d8f4:	c000 000f 0000 0000 0000 000e 0000 0000     ................
	...
  40d930:	007f 0000 0000 0000 007f 0000 0000 0000     ................
  40d940:	007f 0000 0000 0000 007f 0000 0000 0000     ................
  40d950:	007f 0000 0000 0000 007f 0000 0000 0000     ................
  40d960:	007f 0000 0000 0000 007f 0000 0000 0000     ................
  40d970:	007f 0000 0000 ff80 ffff 0000 0000 ff80     ................
  40d980:	ffff 0000 0000 ff80 ffff 0000 0000 ff80     ................
  40d990:	ffff 0000 0000 ff80 ffff 0000 0000 ff80     ................
  40d9a0:	ffff 0000 0000 ff80 ffff 0000 0000 ff80     ................
  40d9b0:	ffff 0000 0000 0000 007f 0000 0000 0000     ................
  40d9c0:	007f 0000 0000 0000 007f 0000 0000 0000     ................
  40d9d0:	007f 0000 0000 0000 007f 0000 0000 0000     ................
  40d9e0:	007f 0000 0000 0000 007f 0000 0000 0000     ................
  40d9f0:	007f 0000 0000 0000 007f 0000 0000 0000     ................
	...
  40da20:	0000 0600 0000 0000 0000 0fc0 0000 0000     ................
  40da30:	0000 0ffc 0000 0000 c000 1fff 0000 0000     ................
  40da40:	f000 1fff 0000 0000 e000 07ff 0000 0000     ................
  40da50:	e000 01ff 0000 0000 e000 007f 0000 0000     ................
  40da60:	c000 000f 0000 0000 c000 0003 0000 0000     ................
  40da70:	8000 0000 0000 0000 0000 0000 0000 0000     ................
	...
  40da90:	007f 0000 0000 0000 007f 0000 0000 0000     ................
  40daa0:	007f 0000 0000 0000 007f 0000 0000 0000     ................
  40dab0:	007f 0000 0000 0000 007f 0000 0000 0000     ................
  40dac0:	007f 0000 0000 0000 007f 0000 0000 0000     ................
  40dad0:	007f 0000 0000 0000 007f 0000 0000 0000     ................
  40dae0:	007f 0000 0000 0000 007f 0000 0000 0000     ................
  40daf0:	007f 0000 0000 0000 007f 0000 0000 0000     ................
  40db00:	007f 0000 0000 0000 007f 0000 0000 0000     ................
	...
  40db30:	e000 0001 0000 0000 f800 0007 0000 0000     ................
  40db40:	f800 0007 0000 0000 fc00 000f 0000 0000     ................
  40db50:	fc00 000f 0000 0000 fc00 000f 0000 0000     ................
  40db60:	fc00 000f 0000 0000 f800 0007 0000 0000     ................
  40db70:	f800 0007 0000 0000 e000 0001 0000 0000     ................
	...
  40db98:	0000 0004 0000 0000 8000 0007 0000 0000     ................
  40dba8:	f000 0007 0000 0000 fe00 0007 0000 0000     ................
  40dbb8:	ff80 0007 0000 0000 fff0 0007 0000 0000     ................
  40dbc8:	fffe 0007 0000 c000 ffff 0007 0000 f000     ................
  40dbd8:	ffff 0007 0000 fe00 ffff 0000 0000 ffc0     ................
  40dbe8:	1fff 0000 0000 fff0 07ff 0000 0000 fffe     ................
  40dbf8:	00ff 0000 c000 ffff 001f 0000 f800 ffff     ................
  40dc08:	0003 0000 fc00 ffff 0000 0000 fc00 1fff     ................
  40dc18:	0000 0000 fc00 03ff 0000 0000 fc00 00ff     ................
  40dc28:	0000 0000 fc00 001f 0000 0000 0000 0000     ................
	...
  40dc44:	0000 fe00 003f 0000 0000 ffe0 03ff 0000     ....?...........
  40dc54:	0000 fff8 0fff 0000 0000 fffe 3fff 0000     .............?..
  40dc64:	0000 ffff 7fff 0000 8000 ffff ffff 0000     ................
  40dc74:	c000 ffff ffff 0001 e000 ffff ffff 0003     ................
  40dc84:	e000 ffff ffff 0007 f000 01ff ffc0 0007     ................
  40dc94:	f000 007f fe00 0007 f800 001f fc00 000f     ................
  40dca4:	f800 001f fc00 000f f800 000f f800 000f     ................
  40dcb4:	f800 000f f800 000f f800 000f f800 000f     ................
  40dcc4:	f800 000f f800 000f f800 000f f800 000f     ................
  40dcd4:	f800 001f fc00 000f f800 001f fc00 000f     ................
  40dce4:	f000 003f fe00 0007 f000 01ff ffc0 0007     ..?.............
  40dcf4:	f000 ffff ffff 0003 e000 ffff ffff 0003     ................
  40dd04:	c000 ffff ffff 0001 8000 ffff ffff 0000     ................
  40dd14:	0000 ffff 7fff 0000 0000 fffe 3fff 0000     .............?..
  40dd24:	0000 fff8 0fff 0000 0000 ffe0 03ff 0000     ................
  40dd34:	0000 fe00 003f 0000 0000 0000 0000 0000     ....?...........
	...
  40dd4c:	0000 07fc 0000 0000 0000 03fe 0000 0000     ................
  40dd5c:	0000 03fe f000 0007 0000 01ff f000 0007     ................
  40dd6c:	0000 01ff f000 0007 8000 00ff f000 0007     ................
  40dd7c:	8000 ffff ffff 0007 c000 ffff ffff 0007     ................
  40dd8c:	e000 ffff ffff 0007 e000 ffff ffff 0007     ................
  40dd9c:	f000 ffff ffff 0007 f000 ffff ffff 0007     ................
  40ddac:	f000 ffff ffff 0007 f000 ffff ffff 0007     ................
  40ddbc:	f000 ffff ffff 0007 0000 0000 f000 0007     ................
  40ddcc:	0000 0000 f000 0007 0000 0000 f000 0007     ................
  40dddc:	0000 0000 f000 0007 0000 0000 0000 0000     ................
	...
  40de04:	0000 00f0 e000 0007 0000 00fe f000 0007     ................
  40de14:	0000 00ff f800 0007 8000 00ff fc00 0007     ................
  40de24:	c000 00ff fe00 0007 e000 00ff ff80 0007     ................
  40de34:	f000 00ff ffc0 0007 f000 00ff ffe0 0007     ................
  40de44:	f000 00ff fff0 0007 f800 003f fff8 0007     ..........?.....
  40de54:	f800 001f fffc 0007 f800 000f f7fe 0007     ................
  40de64:	f800 000f f3ff 0007 f800 800f f1ff 0007     ................
  40de74:	f800 c01f f0ff 0007 f800 f03f f07f 0007     ..........?.....
  40de84:	f000 ffff f03f 0007 f000 ffff f01f 0007     ....?...........
  40de94:	f000 ffff f00f 0007 e000 ffff f007 0007     ................
  40dea4:	c000 ffff f003 0007 c000 ffff f001 0007     ................
  40deb4:	0000 ffff f000 0007 0000 3ffe f000 0007     ...........?....
  40dec4:	0000 0ff0 f000 0007 0000 0000 f000 0007     ................
	...
  40dee0:	03c0 0000 0000 01e0 0fc0 0000 0000 01f8     ................
  40def0:	3fc0 0000 0000 01fe 7fc0 0000 8000 01ff     .?..............
  40df00:	ffc0 0000 c000 01ff ffc0 0001 e000 01ff     ................
  40df10:	ffc0 0003 e000 01ff ffc0 0007 f000 01ff     ................
  40df20:	ffc0 0007 f000 01ff fe00 0007 f800 f03f     ..............?.
  40df30:	fc07 000f f800 f01f f807 000f f800 f00f     ................
  40df40:	f807 000f f800 f00f f807 000f f800 f00f     ................
  40df50:	f807 000f f800 f00f f807 000f f800 f81f     ................
  40df60:	fc0f 000f f800 fc3f fe1f 0007 f000 ffff     ......?.........
  40df70:	ffff 0007 f000 ffff ffff 0007 e000 ffff     ................
  40df80:	ffff 0003 e000 ffff ffff 0003 c000 ffff     ................
  40df90:	ffff 0001 8000 ffff ffff 0000 0000 3fff     ...............?
  40dfa0:	7fff 0000 0000 1ffe 1ffe 0000 0000 03f0     ................
  40dfb0:	07f8 0000 0000 0000 0000 0000 0000 0000     ................
  40dfc0:	01fe 0000 0000 0000 01ff 0000 0000 c000     ................
  40dfd0:	01ff 0000 0000 f000 01ff 0000 0000 f800     ................
  40dfe0:	01ff 0000 0000 fe00 01ff 0000 0000 ff00     ................
  40dff0:	01ff 0000 0000 ffc0 01ff 0000 0000 ffe0     ................
  40e000:	01ff 0000 0000 fff8 01ff 0000 0000 fffe     ................
  40e010:	01ff 0000 0000 ffff 01fc 0000 c000 7fff     ................
  40e020:	01fc 0000 e000 1fff f1fc 0007 f000 0fff     ................
  40e030:	f1fc 0007 f000 03ff f1fc 0007 f000 00ff     ................
  40e040:	f1fc 0007 f000 fc7f ffff 0007 f000 fc1f     ................
  40e050:	ffff 0007 f000 fc0f ffff 0007 f000 fc03     ................
  40e060:	ffff 0007 f000 fc01 ffff 0007 7000 fc00     .............p..
  40e070:	ffff 0007 1000 fc00 ffff 0007 0000 fc00     ................
  40e080:	ffff 0007 0000 fc00 ffff 0007 0000 0000     ................
  40e090:	f1fc 0007 0000 0000 f1fc 0007 0000 0000     ................
  40e0a0:	f1fc 0007 0000 0000 f1fc 0007 0000 0000     ................
  40e0b0:	01fc 0000 0000 0000 0000 0000 0000 0000     ................
	...
  40e0d8:	0300 0000 f000 ffff 0f01 0000 f000 ffff     ................
  40e0e8:	3f81 0000 f000 ffff ff81 0000 f000 ffff     .?..............
  40e0f8:	ff83 0001 f000 ffff ff83 0001 f000 ffff     ................
  40e108:	ffc3 0003 f000 ffff ffc3 0007 f000 ffff     ................
  40e118:	ffc3 0007 f000 ffff ff01 0007 f000 fe07     ................
  40e128:	fc01 000f f000 fe07 fc01 000f f000 ff07     ................
  40e138:	f801 000f f000 ff07 f801 000f f000 ff07     ................
  40e148:	f801 000f f000 ff07 f803 000f f000 ff07     ................
  40e158:	fc03 000f f000 ff07 ff0f 0007 f000 ff07     ................
  40e168:	ffff 0007 f000 fe07 ffff 0007 f000 fe07     ................
  40e178:	ffff 0003 f000 fc07 ffff 0001 f000 f807     ................
  40e188:	ffff 0001 f000 f007 ffff 0000 f000 e007     ................
  40e198:	3fff 0000 f000 c007 1fff 0000 0000 0000     .?..............
  40e1a8:	03fe 0000 0000 0000 0000 0000 0000 0000     ................
	...
  40e1c8:	03fc 0000 0000 8000 0fff 0000 0000 e000     ................
  40e1d8:	3fff 0000 0000 f000 7fff 0000 0000 fc00     .?..............
  40e1e8:	ffff 0000 0000 ff00 ffff 0001 0000 ff80     ................
  40e1f8:	ffff 0003 0000 ffe0 ffff 0007 0000 fff8     ................
  40e208:	ffff 0007 0000 fffc ff07 0007 0000 ffff     ................
  40e218:	fc03 000f c000 ffff f801 000f e000 ffff     ................
  40e228:	f801 000f f000 ffff f801 000f f000 ffff     ................
  40e238:	f801 000f f000 ffff fc03 000f f000 ff7f     ................
  40e248:	fc03 000f f000 ff3f ff0f 0007 f000 ff0f     ......?.........
  40e258:	ffff 0007 f000 fe03 ffff 0007 f000 fe01     ................
  40e268:	ffff 0003 7000 fc00 ffff 0001 1000 f800     .....p..........
  40e278:	ffff 0000 0000 f000 7fff 0000 0000 e000     ................
  40e288:	3fff 0000 0000 8000 0fff 0000 0000 0000     .?..............
  40e298:	03fe 0000 0000 0000 0000 0000 0000 0000     ................
  40e2a8:	0000 0000 f000 007f 0000 0000 f000 007f     ................
  40e2b8:	0000 0000 f000 007f 0000 0000 f000 007f     ................
  40e2c8:	0000 0000 f000 007f 0000 0000 f000 007f     ................
  40e2d8:	f000 0007 f000 007f f000 0007 f000 007f     ................
  40e2e8:	f000 0007 f000 007f fc00 0007 f000 0007     ................
  40e2f8:	ff80 0007 f000 0007 ffe0 0007 f000 0007     ................
  40e308:	fff8 0007 f000 0007 ffff 0007 f000 c007     ................
  40e318:	ffff 0007 f000 f807 ffff 0007 f000 fe07     ................
  40e328:	ffff 0007 f000 ff87 ffff 0007 f000 fff7     ................
  40e338:	ffff 0007 f000 ffff f1ff 0007 f000 ffff     ................
  40e348:	f07f 0007 f000 ffff f00f 0007 f000 ffff     ................
  40e358:	0003 0000 f000 7fff 0000 0000 f000 1fff     ................
  40e368:	0000 0000 f000 03ff 0000 0000 f000 00ff     ................
  40e378:	0000 0000 f000 003f 0000 0000 f000 0007     ......?.........
  40e388:	0000 0000 f000 0000 0000 0000 0000 0000     ................
	...
  40e3b8:	07e0 0000 0000 03f0 1ff8 0000 0000 0ffe     ................
  40e3c8:	7ffe 0000 0000 3fff ffff 0000 8000 ffff     .......?........
  40e3d8:	ffff 0001 c000 ffff ffff 0003 e000 ffff     ................
  40e3e8:	ffff 0003 e000 ffff ffff 0007 f000 ffff     ................
  40e3f8:	ffff 0007 f000 ffff fe1f 0007 f800 fc3f     ..............?.
  40e408:	fc0f 000f f800 f81f f807 000f f800 f00f     ................
  40e418:	f807 000f f800 f00f f807 000f f800 f00f     ................
  40e428:	f807 000f f800 f81f f807 000f f800 fc3f     ..............?.
  40e438:	fc0f 000f f000 ffff fe1f 0007 f000 ffff     ................
  40e448:	ffff 0007 e000 ffff ffff 0007 e000 ffff     ................
  40e458:	ffff 0003 c000 ffff ffff 0003 8000 7fff     ................
  40e468:	ffff 0001 0000 3fff ffff 0000 0000 0ffe     .......?........
  40e478:	7ffe 0000 0000 03f0 1ff8 0000 0000 0000     ................
  40e488:	07e0 0000 0000 0000 0000 0000 0000 0000     ................
	...
  40e4ac:	0000 0fe0 0000 0000 0000 3ffc 0000 0000     ...........?....
  40e4bc:	0000 fffe 0000 0000 8000 ffff 0001 0000     ................
  40e4cc:	c000 ffff 0003 0000 c000 ffff 0007 0004     ................
  40e4dc:	e000 ffff 0007 0006 f000 ffff 800f 0007     ................
  40e4ec:	f000 ffff e00f 0007 f000 fc3f f81f 0007     ..........?.....
  40e4fc:	f800 f81f fc1f 0007 f800 f00f ff1f 0007     ................
  40e50c:	f800 f00f ffdf 0007 f800 f00f ffff 0007     ................
  40e51c:	f800 f00f ffff 0003 f800 f00f ffff 0001     ................
  40e52c:	f800 f81f 7fff 0000 f000 fc3f 1fff 0000     ..........?.....
  40e53c:	f000 ffff 07ff 0000 f000 ffff 01ff 0000     ................
  40e54c:	e000 ffff 007f 0000 c000 ffff 003f 0000     ............?...
  40e55c:	c000 ffff 000f 0000 8000 ffff 0003 0000     ................
  40e56c:	0000 ffff 0000 0000 0000 3ffc 0000 0000     ...........?....
  40e57c:	0000 07f0 0000 0000 0000 0000 0000 0000     ................
	...
  40e594:	0000 7800 f000 0000 0000 fe00 f800 0003     ...x............
  40e5a4:	0000 fe00 fc01 0003 0000 ff00 fc01 0007     ................
  40e5b4:	0000 ff00 fc01 0007 0000 ff00 fc01 0007     ................
  40e5c4:	0000 ff00 fc01 0007 0000 fe00 fc01 0003     ................
  40e5d4:	0000 fe00 f800 0003 0000 7800 f000 0000     ...........x....
	...
  40e5f8:	0000 0ffc 0000 0000 c000 0fff 0000 3c00     ...............<
  40e608:	e000 0fff 0000 7f00 e000 07ff 0000 ff00     ................
  40e618:	e000 00ff 0000 ff80 e000 003f 0000 ff80     ..........?.....
  40e628:	c000 000f 0000 ff80 c000 0003 0000 ff80     ................
  40e638:	c000 0000 0000 ff00 0000 0000 0000 7f00     ................
  40e648:	0000 0000 0000 3c00 0000 0000 0000 0000     .......<........
  40e658:	0000 0000 0000 8000 001f 0000 0000 8000     ................
  40e668:	003f 0000 0000 8000 003f 0000 0000 c000     ?.......?.......
  40e678:	007f 0000 0000 c000 007f 0000 0000 e000     ................
  40e688:	00ff 0000 0000 e000 00ff 0000 0000 e000     ................
  40e698:	01ff 0000 0000 f000 01ff 0000 0000 f000     ................
  40e6a8:	03f3 0000 0000 f800 03f3 0000 0000 f800     ................
  40e6b8:	07e3 0000 0000 f800 07e1 0000 0000 fc00     ................
  40e6c8:	07e1 0000 0000 fc00 0fc1 0000 0000 fe00     ................
  40e6d8:	0fc0 0000 0000 fe00 1f80 0000 0000 7e00     ...............~
  40e6e8:	1f80 0000 0000 7f00 3f80 0000 0000 0000     .........?......
	...
  40e714:	0000 7f00 07f0 0000 0000 7f00 07f0 0000     ................
  40e724:	0000 7f00 07f0 0000 0000 7f00 07f0 0000     ................
  40e734:	0000 7f00 07f0 0000 0000 7f00 07f0 0000     ................
  40e744:	0000 7f00 07f0 0000 0000 7f00 07f0 0000     ................
  40e754:	0000 7f00 07f0 0000 0000 7f00 07f0 0000     ................
  40e764:	0000 7f00 07f0 0000 0000 7f00 07f0 0000     ................
  40e774:	0000 7f00 07f0 0000 0000 7f00 07f0 0000     ................
  40e784:	0000 7f00 07f0 0000 0000 7f00 07f0 0000     ................
  40e794:	0000 7f00 07f0 0000 0000 7f00 07f0 0000     ................
  40e7a4:	0000 7f00 07f0 0000 0000 7f00 07f0 0000     ................
  40e7b4:	0000 7f00 07f0 0000 0000 7f00 07f0 0000     ................
	...
  40e7dc:	0000 7f00 3f80 0000 0000 7e00 1f80 0000     .....?.....~....
  40e7ec:	0000 fe00 1f80 0000 0000 fe00 0fc0 0000     ................
  40e7fc:	0000 fc00 0fc1 0000 0000 fc00 07e1 0000     ................
  40e80c:	0000 f800 07e1 0000 0000 f800 07e3 0000     ................
  40e81c:	0000 f800 03f3 0000 0000 f000 03f3 0000     ................
  40e82c:	0000 f000 01ff 0000 0000 e000 01ff 0000     ................
  40e83c:	0000 e000 00ff 0000 0000 e000 00ff 0000     ................
  40e84c:	0000 c000 007f 0000 0000 c000 007f 0000     ................
  40e85c:	0000 8000 003f 0000 0000 8000 003f 0000     ....?.......?...
  40e86c:	0000 8000 001f 0000 0000 0000 0000 0000     ................
	...
  40e88c:	0000 00f0 0000 0000 0000 00fe 0000 0000     ................
  40e89c:	0000 00ff 0000 0000 c000 00ff 0000 0000     ................
  40e8ac:	c000 00ff 0000 0000 e000 00ff c000 0003     ................
  40e8bc:	f000 00ff f1f8 0007 f000 00ff f1fe 000f     ................
  40e8cc:	f000 00ff f9ff 000f f800 803f f9ff 000f     ..........?.....
  40e8dc:	f800 c01f f9ff 000f f800 c00f f9ff 000f     ................
  40e8ec:	f800 e00f f1ff 000f f800 f00f f1ff 0007     ................
  40e8fc:	f800 f80f c1ff 0003 f800 fc1f 000f 0000     ................
  40e90c:	f800 ffff 0003 0000 f000 ffff 0001 0000     ................
  40e91c:	f000 ffff 0000 0000 e000 ffff 0000 0000     ................
  40e92c:	e000 7fff 0000 0000 c000 3fff 0000 0000     ...........?....
  40e93c:	8000 1fff 0000 0000 0000 0fff 0000 0000     ................
  40e94c:	0000 01f8 0000 0000 0000 0000 0000 0000     ................
	...
  40e9a0:	07fc 0000 0000 c000 7fff 0000 0000 f000     ................
  40e9b0:	ffff 0001 0000 fc00 ffff 0007 0000 ff00     ................
  40e9c0:	ffff 001f 0000 ff80 ffff 003f 0000 ffc0     ..........?.....
  40e9d0:	ffff 007f 0000 ffe0 ffff 00ff 0000 fff0     ................
  40e9e0:	f803 01ff 0000 fff8 e000 03ff 0000 3ff8     ...............?
  40e9f0:	8000 03ff 0000 0ffc 0000 07fe 0000 07fe     ................
  40ea00:	03f8 0ffc 0000 03fe 0ffe 0ff8 0000 81ff     ................
  40ea10:	1fff 1ff8 0000 c1ff 3fff 1ff0 8000 e0ff     .........?......
  40ea20:	7fff 3fe0 8000 e0ff ffff 3fe0 8000 f07f     ...?.......?....
  40ea30:	ffff 3fc1 8000 f07f ffff 3fc1 c000 f87f     ...?.......?....
  40ea40:	ff1f 7fc1 c000 f83f fe0f 7f83 c000 f83f     ......?.......?.
  40ea50:	fc07 7f83 c000 f83f fc07 7f83 c000 f83f     ......?.......?.
  40ea60:	fc07 7f83 c000 f83f fc07 7f83 c000 f83f     ......?.......?.
  40ea70:	fe0f 7f83 c000 f83f fe1f 7f83 c000 f03f     ......?.......?.
  40ea80:	ffff 7f81 c000 f83f ffff 3fc1 8000 f87f     ......?....?....
  40ea90:	ffff 3fc0 8000 f87f 7fff 3fc0 8000 f87f     ...?.......?....
  40eaa0:	ffff 3fe0 8000 f8ff ffff 1fe1 0000 f8ff     ...?............
  40eab0:	ffff 1ff1 0000 f9ff ffff 0fe3 0000 03fe     ................
  40eac0:	fc00 0fc3 0000 03fe fc00 0703 0000 07fc     ................
  40ead0:	fc00 0003 0000 0ffc fc00 0003 0000 3ff8     ...............?
  40eae0:	fe00 0003 0000 fff0 ff80 0003 0000 fff0     ................
  40eaf0:	ffff 0001 0000 ffe0 ffff 0001 0000 ffc0     ................
  40eb00:	ffff 0000 0000 ff00 7fff 0000 0000 fe00     ................
  40eb10:	3fff 0000 0000 f800 1fff 0000 0000 e000     .?..............
  40eb20:	07ff 0000 0000 0000 00ff 0000 0000 0000     ................
	...
  40eb58:	f000 0007 0000 0000 f000 0007 0000 0000     ................
  40eb68:	f000 0007 0000 0000 fc00 0007 0000 0000     ................
  40eb78:	ff80 0007 0000 0000 fff0 0007 0000 0000     ................
  40eb88:	ffff 0007 0000 e000 ffff 0007 0000 fc00     ................
  40eb98:	ffff 0007 0000 ffc0 ffff 0007 0000 fff8     ................
  40eba8:	ffff 0007 0000 ffff f7ff 0007 f000 ffff     ................
  40ebb8:	f0ff 0007 f000 ffff f03f 0007 f000 ffff     ........?.......
  40ebc8:	f03f 0007 f000 bfff 003f 0000 f000 87ff     ?.......?.......
  40ebd8:	003f 0000 f000 807f 003f 0000 f000 800f     ?.......?.......
  40ebe8:	003f 0000 f000 803f 003f 0000 f000 81ff     ?.....?.?.......
  40ebf8:	003f 0000 f000 9fff 003f 0000 f000 ffff     ?.......?.......
  40ec08:	f03f 0007 f000 ffff f03f 0007 f000 ffff     ?.......?.......
  40ec18:	f0ff 0007 f000 ffff ffff 0007 f000 ffff     ................
  40ec28:	ffff 0007 0000 ffff ffff 0007 0000 fff0     ................
  40ec38:	ffff 0007 0000 ff00 ffff 0007 0000 f800     ................
  40ec48:	ffff 0007 0000 8000 ffff 0007 0000 0000     ................
  40ec58:	fff8 0007 0000 0000 ffc0 0007 0000 0000     ................
  40ec68:	fc00 0007 0000 0000 f000 0007 0000 0000     ................
  40ec78:	f000 0007 0000 0000 f000 0007 0000 0000     ................
	...
  40ec9c:	f000 0007 f000 0007 f000 0007 f000 0007     ................
  40ecac:	f000 0007 f000 0007 f000 0007 f000 0007     ................
  40ecbc:	f000 ffff ffff 0007 f000 ffff ffff 0007     ................
  40eccc:	f000 ffff ffff 0007 f000 ffff ffff 0007     ................
  40ecdc:	f000 ffff ffff 0007 f000 ffff ffff 0007     ................
  40ecec:	f000 ffff ffff 0007 f000 ffff ffff 0007     ................
  40ecfc:	f000 ffff ffff 0007 f000 f007 f007 0007     ................
  40ed0c:	f000 f007 f007 0007 f000 f007 f007 0007     ................
  40ed1c:	f000 f007 f007 0007 f000 f007 f007 0007     ................
  40ed2c:	f000 f007 f007 0007 f000 f007 f007 0007     ................
  40ed3c:	f000 f007 f007 0007 f000 f80f f80f 0007     ................
  40ed4c:	f000 fc1f fc1f 0007 e000 ffff ffff 0007     ................
  40ed5c:	e000 ffff ffff 0003 e000 ffff ffff 0003     ................
  40ed6c:	c000 ffff ffff 0001 8000 ffff ffff 0001     ................
  40ed7c:	0000 7fff ffff 0000 0000 3ffe 7ffe 0000     ...........?....
  40ed8c:	0000 1ffc 1ffc 0000 0000 07f0 07f0 0000     ................
	...
  40edb4:	0000 f800 000f 0000 0000 ff80 00ff 0000     ................
  40edc4:	0000 ffe0 03ff 0000 0000 fff0 07ff 0000     ................
  40edd4:	0000 fffc 1fff 0000 0000 fffe 3fff 0000     .............?..
  40ede4:	0000 ffff 7fff 0000 8000 ffff ffff 0000     ................
  40edf4:	c000 ffff ffff 0001 c000 0fff fff8 0001     ................
  40ee04:	e000 01ff ffc0 0003 e000 00ff ff80 0003     ................
  40ee14:	f000 007f ff00 0007 f000 003f fe00 0007     ..........?.....
  40ee24:	f000 001f fc00 0007 f800 001f fc00 000f     ................
  40ee34:	f800 000f f800 000f f800 000f f800 000f     ................
  40ee44:	f800 000f f800 000f f800 000f f800 000f     ................
  40ee54:	f800 000f f800 000f f800 000f f800 000f     ................
  40ee64:	f800 001f fc00 000f f800 001f fc00 0007     ................
  40ee74:	f000 003f fe00 0007 f000 003f ff00 0007     ..?.......?.....
  40ee84:	e000 007f ff80 0003 e000 00ff ffc0 0003     ................
  40ee94:	c000 00ff ffc0 0001 8000 00ff ff80 0001     ................
  40eea4:	0000 00ff ff80 0000 0000 00fe 7f80 0000     ................
  40eeb4:	0000 00fe 3f80 0000 0000 00fe 0f00 0000     .....?..........
  40eec4:	0000 00fe 0300 0000 0000 00fe 0000 0000     ................
  40eed4:	0000 00fe 0000 0000 0000 0000 0000 0000     ................
	...
  40eeec:	f000 0007 f000 0007 f000 0007 f000 0007     ................
  40eefc:	f000 0007 f000 0007 f000 0007 f000 0007     ................
  40ef0c:	f000 ffff ffff 0007 f000 ffff ffff 0007     ................
  40ef1c:	f000 ffff ffff 0007 f000 ffff ffff 0007     ................
  40ef2c:	f000 ffff ffff 0007 f000 ffff ffff 0007     ................
  40ef3c:	f000 ffff ffff 0007 f000 ffff ffff 0007     ................
  40ef4c:	f000 ffff ffff 0007 f000 0007 f000 0007     ................
  40ef5c:	f000 0007 f000 0007 f000 0007 f000 0007     ................
  40ef6c:	f000 0007 f000 0007 f000 0007 f000 0007     ................
  40ef7c:	f000 0007 f000 0007 f000 000f f800 0007     ................
  40ef8c:	e000 000f f800 0003 e000 001f fc00 0003     ................
  40ef9c:	e000 003f fe00 0003 c000 007f ff00 0001     ..?.............
  40efac:	c000 01ff ffc0 0001 8000 07ff fff8 0000     ................
  40efbc:	8000 ffff ffff 0000 0000 ffff 7fff 0000     ................
  40efcc:	0000 fffe 3fff 0000 0000 fffc 1fff 0000     .....?..........
  40efdc:	0000 fff8 0fff 0000 0000 fff0 07ff 0000     ................
  40efec:	0000 ffc0 01ff 0000 0000 ff00 007f 0000     ................
  40effc:	0000 f800 000f 0000 0000 0000 0000 0000     ................
	...
  40f02c:	f000 0007 f000 0007 f000 0007 f000 0007     ................
  40f03c:	f000 0007 f000 0007 f000 0007 f000 0007     ................
  40f04c:	f000 ffff ffff 0007 f000 ffff ffff 0007     ................
  40f05c:	f000 ffff ffff 0007 f000 ffff ffff 0007     ................
  40f06c:	f000 ffff ffff 0007 f000 ffff ffff 0007     ................
  40f07c:	f000 ffff ffff 0007 f000 ffff ffff 0007     ................
  40f08c:	f000 ffff ffff 0007 f000 f807 f003 0007     ................
  40f09c:	f000 f807 f003 0007 f000 f807 f003 0007     ................
  40f0ac:	f000 f807 f003 0007 f000 f807 f003 0007     ................
  40f0bc:	f000 f807 f003 0007 f000 f807 f003 0007     ................
  40f0cc:	f000 0007 f000 0007 f000 0007 f000 0007     ................
  40f0dc:	f000 01ff ffe0 0007 f000 01ff ffe0 0007     ................
  40f0ec:	f000 01ff ffe0 0007 f000 01ff ffe0 0007     ................
  40f0fc:	f000 01ff ffe0 0007 f000 01ff ffe0 0007     ................
  40f10c:	f000 01ff ffe0 0007 f000 01ff ffe0 0007     ................
  40f11c:	f000 01ff ffe0 0007 0000 0000 0000 0000     ................
	...
  40f14c:	f000 0007 f000 0007 f000 0007 f000 0007     ................
  40f15c:	f000 0007 f000 0007 f000 0007 f000 0007     ................
  40f16c:	f000 ffff ffff 0007 f000 ffff ffff 0007     ................
  40f17c:	f000 ffff ffff 0007 f000 ffff ffff 0007     ................
  40f18c:	f000 ffff ffff 0007 f000 ffff ffff 0007     ................
  40f19c:	f000 ffff ffff 0007 f000 ffff ffff 0007     ................
  40f1ac:	f000 ffff ffff 0007 f000 f007 f00f 0007     ................
  40f1bc:	f000 f007 f00f 0007 f000 f007 f00f 0007     ................
  40f1cc:	f000 f007 f00f 0007 f000 f007 000f 0000     ................
  40f1dc:	f000 f007 000f 0000 f000 f007 000f 0000     ................
  40f1ec:	f000 0007 0000 0000 f000 01ff 0000 0000     ................
  40f1fc:	f000 01ff 0000 0000 f000 01ff 0000 0000     ................
  40f20c:	f000 01ff 0000 0000 f000 01ff 0000 0000     ................
  40f21c:	f000 01ff 0000 0000 f000 01ff 0000 0000     ................
  40f22c:	f000 01ff 0000 0000 f000 01ff 0000 0000     ................
	...
  40f24c:	0000 f800 001f 0000 0000 ff00 00ff 0000     ................
  40f25c:	0000 ffe0 03ff 0000 0000 fff0 0fff 0000     ................
  40f26c:	0000 fffc 1fff 0000 0000 fffe 3fff 0000     .............?..
  40f27c:	0000 ffff 7fff 0000 8000 ffff ffff 0000     ................
  40f28c:	c000 ffff ffff 0001 c000 0fff fff8 0003     ................
  40f29c:	e000 01ff ffc0 0003 e000 00ff ff80 0007     ................
  40f2ac:	f000 007f ff00 0007 f000 003f fe00 0007     ..........?.....
  40f2bc:	f000 001f fc00 000f f800 001f fc00 000f     ................
  40f2cc:	f800 000f f800 000f f800 000f f800 000f     ................
  40f2dc:	f800 000f f800 000f f800 c00f f81f 000f     ................
  40f2ec:	f800 c00f f81f 000f f800 c00f fc1f 0007     ................
  40f2fc:	f800 c01f fc1f 0007 f000 c01f ff1f 0003     ................
  40f30c:	f000 c03f ff9f 0001 f000 c07f ffff 0000     ..?.............
  40f31c:	e000 c0ff 7fff 0000 c000 c0ff 1fff 0000     ................
  40f32c:	c000 c0ff ffff 0007 8000 c0ff ffff 0007     ................
  40f33c:	0000 c0ff ffff 0007 0000 c0fe ffff 0007     ................
  40f34c:	0000 c0fe ffff 0007 0000 c0fe ffff 0007     ................
  40f35c:	0000 c0fe ffff 0007 0000 c0fe ffff 0007     ................
  40f36c:	0000 c0fe ffff 0007 0000 0000 0000 0000     ................
	...
  40f3a4:	f000 0007 f000 0007 f000 0007 f000 0007     ................
  40f3b4:	f000 0007 f000 0007 f000 0007 f000 0007     ................
  40f3c4:	f000 ffff ffff 0007 f000 ffff ffff 0007     ................
  40f3d4:	f000 ffff ffff 0007 f000 ffff ffff 0007     ................
  40f3e4:	f000 ffff ffff 0007 f000 ffff ffff 0007     ................
  40f3f4:	f000 ffff ffff 0007 f000 ffff ffff 0007     ................
  40f404:	f000 ffff ffff 0007 f000 f807 f003 0007     ................
  40f414:	f000 f807 f003 0007 f000 f807 f003 0007     ................
  40f424:	f000 f807 f003 0007 0000 f800 0003 0000     ................
  40f434:	0000 f800 0003 0000 0000 f800 0003 0000     ................
  40f444:	0000 f800 0003 0000 0000 f800 0003 0000     ................
  40f454:	0000 f800 0003 0000 0000 f800 0003 0000     ................
  40f464:	0000 f800 0003 0000 0000 f800 0003 0000     ................
  40f474:	f000 f807 f003 0007 f000 f807 f003 0007     ................
  40f484:	f000 f807 f003 0007 f000 f807 f003 0007     ................
  40f494:	f000 ffff ffff 0007 f000 ffff ffff 0007     ................
  40f4a4:	f000 ffff ffff 0007 f000 ffff ffff 0007     ................
  40f4b4:	f000 ffff ffff 0007 f000 ffff ffff 0007     ................
  40f4c4:	f000 ffff ffff 0007 f000 ffff ffff 0007     ................
  40f4d4:	f000 ffff ffff 0007 f000 0007 f000 0007     ................
  40f4e4:	f000 0007 f000 0007 f000 0007 f000 0007     ................
  40f4f4:	f000 0007 f000 0007 0000 0000 0000 0000     ................
	...
  40f52c:	f000 0007 f000 0007 f000 0007 f000 0007     ................
  40f53c:	f000 0007 f000 0007 f000 0007 f000 0007     ................
  40f54c:	f000 ffff ffff 0007 f000 ffff ffff 0007     ................
  40f55c:	f000 ffff ffff 0007 f000 ffff ffff 0007     ................
  40f56c:	f000 ffff ffff 0007 f000 ffff ffff 0007     ................
  40f57c:	f000 ffff ffff 0007 f000 ffff ffff 0007     ................
  40f58c:	f000 ffff ffff 0007 f000 0007 f000 0007     ................
  40f59c:	f000 0007 f000 0007 f000 0007 f000 0007     ................
  40f5ac:	f000 0007 f000 0007 0000 0000 0000 0000     ................
	...
  40f5c8:	0000 0080 f000 0007 0000 00e0 f000 0007     ................
  40f5d8:	0000 00f8 f000 0007 0000 00fe f000 0007     ................
  40f5e8:	8000 00ff f000 ffff ffff 00ff f000 ffff     ................
  40f5f8:	ffff 00ff f000 ffff ffff 00ff f000 ffff     ................
  40f608:	ffff 007f f000 ffff ffff 003f f000 ffff     ..........?.....
  40f618:	ffff 000f f000 ffff ffff 0007 f000 ffff     ................
  40f628:	ffff 0001 f000 ffff 7fff 0000 f000 0007     ................
  40f638:	0000 0000 f000 0007 0000 0000 f000 0007     ................
  40f648:	0000 0000 f000 0007 0000 0000 0000 0000     ................
	...
  40f66c:	f000 0007 f000 0007 f000 0007 f000 0007     ................
  40f67c:	f000 0007 f000 0007 f000 0007 f000 0007     ................
  40f68c:	f000 ffff ffff 0007 f000 ffff ffff 0007     ................
  40f69c:	f000 ffff ffff 0007 f000 ffff ffff 0007     ................
  40f6ac:	f000 ffff ffff 0007 f000 ffff ffff 0007     ................
  40f6bc:	f000 ffff ffff 0007 f000 ffff ffff 0007     ................
  40f6cc:	f000 ffff ffff 0007 f000 4007 f000 0007     ...........@....
  40f6dc:	f000 e007 f000 0007 f000 f007 f003 0007     ................
  40f6ec:	f000 f807 f007 0007 0000 fc00 000f 0000     ................
  40f6fc:	0000 fe00 003f 0000 0000 ff00 007f 0000     ....?...........
  40f70c:	0000 ff80 00ff 0000 0000 ffc0 03ff 0000     ................
  40f71c:	0000 ffe0 07ff 0000 0000 fff0 1fff 0000     ................
  40f72c:	0000 fff8 3fff 0000 f000 9fff ffff 0007     .....?..........
  40f73c:	f000 0fff fffe 0007 f000 07ff fffc 0007     ................
  40f74c:	f000 03ff fff8 0007 f000 01ff ffe0 0007     ................
  40f75c:	f000 00ff ffc0 0007 f000 00ff ff80 0007     ................
  40f76c:	f000 007f fe00 0007 f000 003f fc00 0007     ..........?.....
  40f77c:	f000 001f f800 0007 f000 000f f000 0007     ................
  40f78c:	f000 0007 f000 0007 f000 0007 f000 0007     ................
	...
  40f7c4:	f000 0007 f000 0007 f000 0007 f000 0007     ................
  40f7d4:	f000 0007 f000 0007 f000 0007 f000 0007     ................
  40f7e4:	f000 ffff ffff 0007 f000 ffff ffff 0007     ................
  40f7f4:	f000 ffff ffff 0007 f000 ffff ffff 0007     ................
  40f804:	f000 ffff ffff 0007 f000 ffff ffff 0007     ................
  40f814:	f000 ffff ffff 0007 f000 ffff ffff 0007     ................
  40f824:	f000 ffff ffff 0007 f000 0007 f000 0007     ................
  40f834:	f000 0007 f000 0007 f000 0007 f000 0007     ................
  40f844:	f000 0007 f000 0007 0000 0000 f000 0007     ................
  40f854:	0000 0000 f000 0007 0000 0000 f000 0007     ................
  40f864:	0000 0000 f000 0007 0000 0000 f800 0007     ................
  40f874:	0000 0000 ffe0 0007 0000 0000 ffe0 0007     ................
  40f884:	0000 0000 ffe0 0007 0000 0000 ffe0 0007     ................
  40f894:	0000 0000 ffe0 0007 0000 0000 ffe0 0007     ................
  40f8a4:	0000 0000 ffe0 0007 0000 0000 ffe0 0007     ................
  40f8b4:	0000 0000 ffe0 0007 0000 0000 0000 0000     ................
	...
  40f8dc:	f000 0007 f000 0007 f000 0007 f000 0007     ................
  40f8ec:	f000 0007 f000 0007 f000 0007 f000 0007     ................
  40f8fc:	f000 ffff ffff 0007 f000 ffff ffff 0007     ................
  40f90c:	f000 ffff ffff 0007 f000 ffff ffff 0007     ................
  40f91c:	f000 ffff ffff 0007 f000 ffff ffff 0007     ................
  40f92c:	f000 ffff ffff 0007 f000 ffff ffff 0007     ................
  40f93c:	f000 ffff ffff 0007 f000 00ff f000 0007     ................
  40f94c:	f000 07ff f000 0007 f000 3fff f000 0007     ...........?....
  40f95c:	f000 ffff 0001 0000 f000 ffff 000f 0000     ................
  40f96c:	f000 ffff 007f 0000 c000 ffff 03ff 0000     ................
  40f97c:	0000 fffe 1fff 0000 0000 fff0 ffff 0000     ................
  40f98c:	0000 ff80 ffff 0007 0000 fc00 ffff 0007     ................
  40f99c:	0000 c000 ffff 0007 0000 0000 fffe 0007     ................
  40f9ac:	0000 0000 fff0 0007 0000 0000 ff80 0007     ................
  40f9bc:	0000 0000 ffc0 0007 0000 0000 fff8 0007     ................
  40f9cc:	0000 0000 ffff 0007 0000 e000 ffff 0007     ................
  40f9dc:	0000 fc00 ffff 0007 0000 ffc0 7fff 0000     ................
  40f9ec:	0000 fff8 0fff 0000 0000 ffff 01ff 0000     ................
  40f9fc:	e000 ffff 003f 0000 f000 ffff 0007 0000     ....?...........
  40fa0c:	f000 ffff 0000 0000 f000 1fff f000 0007     ................
  40fa1c:	f000 03ff f000 0007 f000 007f f000 0007     ................
  40fa2c:	f000 ffff ffff 0007 f000 ffff ffff 0007     ................
  40fa3c:	f000 ffff ffff 0007 f000 ffff ffff 0007     ................
  40fa4c:	f000 ffff ffff 0007 f000 ffff ffff 0007     ................
  40fa5c:	f000 ffff ffff 0007 f000 ffff ffff 0007     ................
  40fa6c:	f000 ffff ffff 0007 f000 0007 f000 0007     ................
  40fa7c:	f000 0007 f000 0007 f000 0007 f000 0007     ................
  40fa8c:	f000 0007 f000 0007 0000 0000 0000 0000     ................
	...
  40fabc:	f000 0007 f000 0007 f000 0007 f000 0007     ................
  40facc:	f000 0007 f000 0007 f000 0007 f000 0007     ................
  40fadc:	f000 ffff ffff 0007 f000 ffff ffff 0007     ................
  40faec:	f000 ffff ffff 0007 f000 ffff ffff 0007     ................
  40fafc:	f000 ffff ffff 0007 f000 ffff ffff 0007     ................
  40fb0c:	f000 ffff ffff 0007 f000 ffff ffff 0007     ................
  40fb1c:	f000 ffff ffff 0007 f000 07ff f000 0007     ................
  40fb2c:	f000 0fff f000 0007 c000 3fff f000 0007     ...........?....
  40fb3c:	8000 7fff f000 0007 0000 fffe 0001 0000     ................
  40fb4c:	0000 fffc 0007 0000 0000 fff0 000f 0000     ................
  40fb5c:	0000 ffe0 003f 0000 0000 ff80 007f 0000     ....?...........
  40fb6c:	0000 ff00 01ff 0000 0000 fc00 03ff 0000     ................
  40fb7c:	0000 f000 0fff 0000 0000 e000 3fff 0000     .............?..
  40fb8c:	f000 8007 7fff 0000 f000 0007 ffff 0001     ................
  40fb9c:	f000 0007 fffc 0003 f000 ffff ffff 0007     ................
  40fbac:	f000 ffff ffff 0007 f000 ffff ffff 0007     ................
  40fbbc:	f000 ffff ffff 0007 f000 ffff ffff 0007     ................
  40fbcc:	f000 ffff ffff 0007 f000 ffff ffff 0007     ................
  40fbdc:	f000 ffff ffff 0007 f000 ffff ffff 0007     ................
  40fbec:	f000 0007 0000 0000 f000 0007 0000 0000     ................
  40fbfc:	f000 0007 0000 0000 f000 0007 0000 0000     ................
	...
  40fc1c:	0000 f800 000f 0000 0000 ff80 00ff 0000     ................
  40fc2c:	0000 ffe0 03ff 0000 0000 fff0 07ff 0000     ................
  40fc3c:	0000 fffc 1fff 0000 0000 fffe 3fff 0000     .............?..
  40fc4c:	0000 ffff 7fff 0000 8000 ffff ffff 0000     ................
  40fc5c:	c000 ffff ffff 0001 c000 0fff fff8 0001     ................
  40fc6c:	e000 01ff ffc0 0003 e000 00ff ff80 0003     ................
  40fc7c:	f000 007f ff00 0007 f000 003f fe00 0007     ..........?.....
  40fc8c:	f000 001f fc00 0007 f800 001f fc00 000f     ................
  40fc9c:	f800 000f f800 000f f800 000f f800 000f     ................
  40fcac:	f800 000f f800 000f f800 000f f800 000f     ................
  40fcbc:	f800 000f f800 000f f800 000f f800 000f     ................
  40fccc:	f800 001f fc00 000f f000 001f fc00 0007     ................
  40fcdc:	f000 003f fe00 0007 f000 007f ff00 0007     ..?.............
  40fcec:	e000 00ff ff80 0003 e000 01ff ffc0 0003     ................
  40fcfc:	c000 0fff fff8 0001 c000 ffff ffff 0001     ................
  40fd0c:	8000 ffff ffff 0000 0000 ffff 7fff 0000     ................
  40fd1c:	0000 fffe 3fff 0000 0000 fffc 1fff 0000     .....?..........
  40fd2c:	0000 fff0 07ff 0000 0000 ffe0 03ff 0000     ................
  40fd3c:	0000 ff80 00ff 0000 0000 f800 000f 0000     ................
	...
  40fd74:	f000 0007 f000 0007 f000 0007 f000 0007     ................
  40fd84:	f000 0007 f000 0007 f000 0007 f000 0007     ................
  40fd94:	f000 ffff ffff 0007 f000 ffff ffff 0007     ................
  40fda4:	f000 ffff ffff 0007 f000 ffff ffff 0007     ................
  40fdb4:	f000 ffff ffff 0007 f000 ffff ffff 0007     ................
  40fdc4:	f000 ffff ffff 0007 f000 ffff ffff 0007     ................
  40fdd4:	f000 ffff ffff 0007 f000 c007 f01f 0007     ................
  40fde4:	f000 c007 f01f 0007 f000 c007 f01f 0007     ................
  40fdf4:	f000 c007 f01f 0007 f000 c007 001f 0000     ................
  40fe04:	f000 c007 001f 0000 f000 c007 001f 0000     ................
  40fe14:	f000 e00f 001f 0000 f000 e01f 001f 0000     ................
  40fe24:	e000 f83f 001f 0000 e000 ffff 000f 0000     ..?.............
  40fe34:	e000 ffff 000f 0000 c000 ffff 0007 0000     ................
  40fe44:	c000 ffff 0007 0000 8000 ffff 0003 0000     ................
  40fe54:	0000 ffff 0001 0000 0000 fffe 0000 0000     ................
  40fe64:	0000 7ffc 0000 0000 0000 0fe0 0000 0000     ................
	...
  40fe8c:	0000 fc00 000f 0000 0000 ff80 007f 0000     ................
  40fe9c:	0000 ffe0 01ff 0000 0000 fff8 07ff 0000     ................
  40feac:	0000 fffc 0fff 0000 0000 fffe 3fff 0000     .............?..
  40febc:	0000 ffff 7fff 0000 8000 ffff 7fff 0000     ................
  40fecc:	c000 ffff ffff 0000 e000 07ff fff8 0001     ................
  40fedc:	e000 01ff ffe0 0001 f000 007f ff80 0003     ................
  40feec:	f000 003f ff00 0003 f000 003f ff00 0007     ..?.......?.....
  40fefc:	f800 001f fe00 0007 f800 001f fe00 07ff     ................
  40ff0c:	f800 000f fc00 03ff f800 000f fc00 07ff     ................
  40ff1c:	f800 000f fc00 07ff f800 000f fc00 07ff     ................
  40ff2c:	f800 000f fc00 0fff f800 001f fe00 0fff     ................
  40ff3c:	f800 001f fe00 1ff7 f000 003f ff00 1ff7     ..........?.....
  40ff4c:	f000 003f ff00 3fe3 f000 007f ff80 3fe3     ..?....?.......?
  40ff5c:	e000 01ff ffe0 7fc1 c000 07ff fff8 7fc1     ................
  40ff6c:	c000 ffff ffff 7fc0 8000 ffff 7fff 7fc0     ................
  40ff7c:	0000 ffff 7fff 7fe0 0000 fffe 3fff 3ff0     .............?.?
  40ff8c:	0000 fffc 0fff 3ffc 0000 fff8 07ff 1ff8     .......?........
  40ff9c:	0000 ffe0 01ff 1ff8 0000 ff80 007f 0ff0     ................
  40ffac:	0000 fc00 000f 03f0 0000 0000 0000 00e0     ................
	...
  40ffe4:	f000 0007 f000 0007 f000 0007 f000 0007     ................
  40fff4:	f000 0007 f000 0007 f000 0007 f000 0007     ................
  410004:	f000 ffff ffff 0007 f000 ffff ffff 0007     ................
  410014:	f000 ffff ffff 0007 f000 ffff ffff 0007     ................
  410024:	f000 ffff ffff 0007 f000 ffff ffff 0007     ................
  410034:	f000 ffff ffff 0007 f000 ffff ffff 0007     ................
  410044:	f000 ffff ffff 0007 f000 f007 f007 0007     ................
  410054:	f000 f007 f007 0007 f000 f007 f007 0007     ................
  410064:	f000 f007 f007 0007 f000 f007 0007 0000     ................
  410074:	f000 f007 0007 0000 f000 f007 000f 0000     ................
  410084:	f000 f007 000f 0000 f000 f007 003f 0000     ............?...
  410094:	f000 f80f 01ff 0000 f000 f80f ffff 0000     ................
  4100a4:	f000 fc1f ffff 0007 e000 ffff ffff 0007     ................
  4100b4:	e000 ffff ffff 0007 e000 ffff ffff 0007     ................
  4100c4:	c000 ffff fffe 0007 c000 7fff fffc 0007     ................
  4100d4:	8000 7fff fff8 0007 0000 3fff ffc0 0007     ...........?....
  4100e4:	0000 1ffe fc00 0007 0000 07f0 f000 0007     ................
  4100f4:	0000 0000 f000 0007 0000 0000 f000 0007     ................
	...
  410118:	1fe0 0000 0000 03f8 1fe0 0000 0000 0ffe     ................
  410128:	1fe0 0000 8000 3fff 3fe0 0000 c000 7fff     .......?.?......
  410138:	ffe0 0000 c000 ffff ffe0 0001 e000 ffff     ................
  410148:	ffe0 0001 f000 ffff ffe1 0003 f000 ffff     ................
  410158:	ffe1 0007 f000 ffff ff03 0007 f800 fe3f     ..............?.
  410168:	fc03 0007 f800 fc1f fc03 000f f800 fc0f     ................
  410178:	f807 000f f800 f80f f807 000f f800 f80f     ................
  410188:	f807 000f f800 f80f f807 000f f800 f80f     ................
  410198:	f80f 000f f800 f00f f80f 000f f800 f01f     ................
  4101a8:	f80f 000f f000 f01f fc1f 000f f000 e03f     ..............?.
  4101b8:	fe3f 0007 f000 e1ff ffff 0007 e000 e1ff     ?...............
  4101c8:	ffff 0007 e000 c1ff ffff 0003 c000 c1ff     ................
  4101d8:	ffff 0003 8000 81ff ffff 0001 0000 81ff     ................
  4101e8:	ffff 0000 0000 01fe 7fff 0000 0000 01fe     ................
  4101f8:	1ffc 0000 0000 01fe 07f0 0000 0000 0000     ................
	...
  410214:	f000 00ff 0000 0000 f000 00ff 0000 0000     ................
  410224:	f000 00ff 0000 0000 f000 00ff 0000 0000     ................
  410234:	f000 00ff 0000 0000 f000 00ff 0000 0000     ................
  410244:	f000 00ff 0000 0000 f000 00ff 0000 0000     ................
  410254:	f000 00ff 0000 0000 f000 0007 f000 0007     ................
  410264:	f000 0007 f000 0007 f000 0007 f000 0007     ................
  410274:	f000 0007 f000 0007 f000 ffff ffff 0007     ................
  410284:	f000 ffff ffff 0007 f000 ffff ffff 0007     ................
  410294:	f000 ffff ffff 0007 f000 ffff ffff 0007     ................
  4102a4:	f000 ffff ffff 0007 f000 ffff ffff 0007     ................
  4102b4:	f000 ffff ffff 0007 f000 ffff ffff 0007     ................
  4102c4:	f000 0007 f000 0007 f000 0007 f000 0007     ................
  4102d4:	f000 0007 f000 0007 f000 0007 f000 0007     ................
  4102e4:	f000 00ff 0000 0000 f000 00ff 0000 0000     ................
  4102f4:	f000 00ff 0000 0000 f000 00ff 0000 0000     ................
  410304:	f000 00ff 0000 0000 f000 00ff 0000 0000     ................
  410314:	f000 00ff 0000 0000 f000 00ff 0000 0000     ................
  410324:	f000 00ff 0000 0000 0000 0000 0000 0000     ................
	...
  41033c:	f000 0007 0000 0000 f000 0007 0000 0000     ................
  41034c:	f000 0007 0000 0000 f000 0007 0000 0000     ................
  41035c:	f000 ffff 00ff 0000 f000 ffff 07ff 0000     ................
  41036c:	f000 ffff 1fff 0000 f000 ffff 3fff 0000     .............?..
  41037c:	f000 ffff ffff 0000 f000 ffff ffff 0001     ................
  41038c:	f000 ffff ffff 0001 f000 ffff ffff 0003     ................
  41039c:	f000 ffff ffff 0007 f000 0007 ff80 0007     ................
  4103ac:	f000 0007 fe00 0007 f000 0007 fc00 000f     ................
  4103bc:	f000 0007 f800 000f 0000 0000 f800 000f     ................
  4103cc:	0000 0000 f800 000f 0000 0000 f800 000f     ................
  4103dc:	0000 0000 f800 000f f000 0007 f800 000f     ................
  4103ec:	f000 0007 fc00 000f f000 0007 fe00 0007     ................
  4103fc:	f000 0007 ff80 0007 f000 ffff ffff 0007     ................
  41040c:	f000 ffff ffff 0003 f000 ffff ffff 0001     ................
  41041c:	f000 ffff ffff 0000 f000 ffff ffff 0000     ................
  41042c:	f000 ffff 3fff 0000 f000 ffff 1fff 0000     .....?..........
  41043c:	f000 ffff 07ff 0000 f000 ffff 00ff 0000     ................
  41044c:	f000 0007 0000 0000 f000 0007 0000 0000     ................
  41045c:	f000 0007 0000 0000 f000 0007 0000 0000     ................
	...
  410474:	f000 0007 0000 0000 f000 0007 0000 0000     ................
  410484:	f000 0007 0000 0000 f000 0007 0000 0000     ................
  410494:	f000 001f 0000 0000 f000 00ff 0000 0000     ................
  4104a4:	f000 07ff 0000 0000 f000 7fff 0000 0000     ................
  4104b4:	f000 ffff 0003 0000 f000 ffff 001f 0000     ................
  4104c4:	f000 ffff 01ff 0000 f000 ffff 0fff 0000     ................
  4104d4:	f000 ffff 7fff 0000 f000 ffff ffff 0007     ................
  4104e4:	f000 ff87 ffff 0007 f000 fc07 ffff 0007     ................
  4104f4:	f000 e007 ffff 0007 f000 0007 fffe 0007     ................
  410504:	0000 0000 fff0 0007 0000 0000 ff80 0007     ................
  410514:	0000 0000 ff00 0007 0000 0000 fff0 0007     ................
  410524:	f000 0007 fffe 0007 f000 e007 ffff 0007     ................
  410534:	f000 fc07 ffff 0007 f000 ff87 ffff 0007     ................
  410544:	f000 ffff ffff 0007 f000 ffff ffff 0000     ................
  410554:	f000 ffff 1fff 0000 f000 ffff 01ff 0000     ................
  410564:	f000 ffff 003f 0000 f000 ffff 0003 0000     ....?...........
  410574:	f000 7fff 0000 0000 f000 0fff 0000 0000     ................
  410584:	f000 00ff 0000 0000 f000 001f 0000 0000     ................
  410594:	f000 0007 0000 0000 f000 0007 0000 0000     ................
  4105a4:	f000 0007 0000 0000 0000 0000 0000 0000     ................
  4105b4:	f000 0007 0000 0000 f000 0007 0000 0000     ................
  4105c4:	f000 0007 0000 0000 f000 0007 0000 0000     ................
  4105d4:	f000 001f 0000 0000 f000 03ff 0000 0000     ................
  4105e4:	f000 3fff 0000 0000 f000 ffff 0007 0000     ...?............
  4105f4:	f000 ffff 007f 0000 f000 ffff 0fff 0000     ................
  410604:	f000 ffff ffff 0000 f000 ffff ffff 0007     ................
  410614:	f000 ffff ffff 0007 f000 fff7 ffff 0007     ................
  410624:	f000 ff07 ffff 0007 f000 e007 ffff 0007     ................
  410634:	f000 0007 fffe 0007 0000 0000 ffc0 0007     ................
  410644:	0000 0000 ffc0 0007 0000 0000 fffc 0007     ................
  410654:	0000 c000 ffff 0007 0000 fc00 ffff 0007     ................
  410664:	0000 ffc0 ffff 0007 0000 fffc ffff 0007     ................
  410674:	8000 ffff ffff 0007 f000 ffff 7fff 0000     ................
  410684:	f000 ffff 07ff 0000 f000 ffff 007f 0000     ................
  410694:	f000 ffff 0007 0000 f000 7fff 0000 0000     ................
  4106a4:	f000 07ff 0000 0000 f000 7fff 0000 0000     ................
  4106b4:	f000 ffff 0007 0000 f000 ffff 007f 0000     ................
  4106c4:	f000 ffff 07ff 0000 f000 ffff 7fff 0000     ................
  4106d4:	c000 ffff ffff 0007 0000 fffc ffff 0007     ................
  4106e4:	0000 ffc0 ffff 0007 0000 fc00 ffff 0007     ................
  4106f4:	0000 c000 ffff 0007 0000 0000 fffc 0007     ................
  410704:	0000 0000 ffc0 0007 f000 0007 ffc0 0007     ................
  410714:	f000 0007 fffc 0007 f000 e007 ffff 0007     ................
  410724:	f000 ff07 ffff 0007 f000 fff7 ffff 0007     ................
  410734:	f000 ffff ffff 0007 f000 ffff ffff 0007     ................
  410744:	f000 ffff ffff 0001 f000 ffff 0fff 0000     ................
  410754:	f000 ffff 007f 0000 f000 ffff 0007 0000     ................
  410764:	f000 3fff 0000 0000 f000 03ff 0000 0000     ...?............
  410774:	f000 001f 0000 0000 f000 0007 0000 0000     ................
  410784:	f000 0007 0000 0000 f000 0007 0000 0000     ................
  410794:	f000 0007 0000 0000 0000 0000 0000 0000     ................
  4107a4:	f000 0007 f000 0007 f000 0007 f000 0007     ................
  4107b4:	f000 000f f800 0007 f000 001f fc00 0007     ................
  4107c4:	f000 003f fe00 0007 f000 007f ff00 0007     ..?.............
  4107d4:	f000 00ff ff80 0007 f000 01ff ffc0 0007     ................
  4107e4:	f000 03ff ffe0 0007 f000 07ff fff0 0007     ................
  4107f4:	f000 0fff fff8 0007 f000 1fff fffc 0007     ................
  410804:	f000 3fff fffe 0007 f000 7fff ffff 0007     ...?............
  410814:	f000 ffe7 f7ff 0007 f000 ffc7 f3ff 0007     ................
  410824:	f000 ff87 f1ff 0007 0000 ff00 00ff 0000     ................
  410834:	0000 fe00 007f 0000 0000 fe00 003f 0000     ............?...
  410844:	0000 ff00 007f 0000 f000 ff87 f0ff 0007     ................
  410854:	f000 ffc7 f1ff 0007 f000 ffe7 f3ff 0007     ................
  410864:	f000 fff7 f7ff 0007 f000 7fff ffff 0007     ................
  410874:	f000 3fff fffe 0007 f000 1fff fffc 0007     ...?............
  410884:	f000 0fff fff8 0007 f000 07ff fff0 0007     ................
  410894:	f000 03ff ffe0 0007 f000 01ff ffc0 0007     ................
  4108a4:	f000 00ff ff80 0007 f000 007f ff00 0007     ................
  4108b4:	f000 003f fe00 0007 f000 000f fc00 0007     ..?.............
  4108c4:	f000 0007 f800 0007 f000 0007 f000 0007     ................
	...
  4108f4:	f000 0007 0000 0000 f000 0007 0000 0000     ................
  410904:	f000 0007 0000 0000 f000 000f 0000 0000     ................
  410914:	f000 003f 0000 0000 f000 007f 0000 0000     ..?.............
  410924:	f000 01ff 0000 0000 f000 07ff 0000 0000     ................
  410934:	f000 1fff 0000 0000 f000 3fff 0000 0000     ...........?....
  410944:	f000 ffff f000 0007 f000 ffff f003 0007     ................
  410954:	f000 ffff f007 0007 f000 ffff f01f 0007     ................
  410964:	f000 ffe7 ffff 0007 f000 ff87 ffff 0007     ................
  410974:	f000 ff07 ffff 0007 0000 fc00 ffff 0007     ................
  410984:	0000 f000 ffff 0007 f000 fc07 ffff 0007     ................
  410994:	f000 ff07 ffff 0007 f000 ffc7 ffff 0007     ................
  4109a4:	f000 fff7 ff7f 0007 f000 ffff f01f 0007     ................
  4109b4:	f000 ffff f00f 0007 f000 ffff f003 0007     ................
  4109c4:	f000 ffff f000 0007 f000 3fff 0000 0000     ...........?....
  4109d4:	f000 1fff 0000 0000 f000 07ff 0000 0000     ................
  4109e4:	f000 01ff 0000 0000 f000 007f 0000 0000     ................
  4109f4:	f000 003f 0000 0000 f000 000f 0000 0000     ..?.............
  410a04:	f000 0007 0000 0000 f000 0007 0000 0000     ................
  410a14:	f000 0007 0000 0000 0000 0000 0000 0000     ................
	...
  410a34:	f000 03ff fc00 0007 f000 03ff fe00 0007     ................
  410a44:	f000 03ff ff00 0007 f000 03ff ff80 0007     ................
  410a54:	f000 03ff ffc0 0007 f000 03ff fff0 0007     ................
  410a64:	f000 03ff fff8 0007 f000 03ff fffc 0007     ................
  410a74:	f000 03ff fffe 0007 f000 800f ffff 0007     ................
  410a84:	f000 c00f ffff 0007 f000 e00f ffff 0007     ................
  410a94:	f000 f00f fbff 0007 f000 f80f f8ff 0007     ................
  410aa4:	f000 fe0f f87f 0007 f000 ff0f f83f 0007     ............?...
  410ab4:	f000 ff8f f81f 0007 f000 ffcf f80f 0007     ................
  410ac4:	f000 ffef f803 0007 f000 ffff f801 0007     ................
  410ad4:	f000 ffff ffe0 0007 f000 7fff ffe0 0007     ................
  410ae4:	f000 3fff ffe0 0007 f000 0fff ffe0 0007     ...?............
  410af4:	f000 07ff ffe0 0007 f000 03ff ffe0 0007     ................
  410b04:	f000 01ff ffe0 0007 f000 007f ffe0 0007     ................
  410b14:	f000 003f ffe0 0007 0000 001c 0000 0000     ..?.............
	...
  410b3c:	fe00 ffff ffff ffff fe00 ffff ffff ffff     ................
  410b4c:	fe00 ffff ffff ffff fe00 ffff ffff ffff     ................
  410b5c:	fe00 ffff ffff ffff fe00 ffff ffff ffff     ................
  410b6c:	fe00 ffff ffff ffff fe00 0000 0000 fe00     ................
  410b7c:	fe00 0000 0000 fe00 fe00 0000 0000 fe00     ................
  410b8c:	fe00 0000 0000 fe00 0000 0000 0000 0000     ................
	...
  410bb4:	8000 0000 0000 0000 8000 0007 0000 0000     ................
  410bc4:	8000 003f 0000 0000 8000 01ff 0000 0000     ..?.............
  410bd4:	8000 0fff 0000 0000 8000 7fff 0000 0000     ................
  410be4:	8000 ffff 0003 0000 8000 ffff 001f 0000     ................
  410bf4:	8000 ffff 00ff 0000 0000 fffc 07ff 0000     ................
  410c04:	0000 ffe0 3fff 0000 0000 ff00 ffff 0001     .....?..........
  410c14:	0000 f800 ffff 000f 0000 c000 ffff 007f     ................
  410c24:	0000 0000 fffe 03ff 0000 0000 fff0 07ff     ................
  410c34:	0000 0000 ff80 07ff 0000 0000 fc00 07ff     ................
  410c44:	0000 0000 e000 07ff 0000 0000 0000 07ff     ................
	...
  410c6c:	fe00 0000 0000 fe00 fe00 0000 0000 fe00     ................
  410c7c:	fe00 0000 0000 fe00 fe00 0000 0000 fe00     ................
  410c8c:	fe00 ffff ffff ffff fe00 ffff ffff ffff     ................
  410c9c:	fe00 ffff ffff ffff fe00 ffff ffff ffff     ................
  410cac:	fe00 ffff ffff ffff fe00 ffff ffff ffff     ................
  410cbc:	fe00 ffff ffff ffff fe00 ffff ffff ffff     ................
  410ccc:	fe00 ffff ffff ffff 0000 0000 0000 0000     ................
	...
  410cec:	0000 8000 0000 0000 0000 e000 0000 0000     ................
  410cfc:	0000 f800 0000 0000 0000 fc00 0000 0000     ................
  410d0c:	0000 ff00 0000 0000 0000 ffc0 0000 0000     ................
  410d1c:	0000 fff0 0000 0000 0000 7ffc 0000 0000     ................
  410d2c:	0000 1ffe 0000 0000 8000 07ff 0000 0000     ................
  410d3c:	e000 01ff 0000 0000 f000 007f 0000 0000     ................
  410d4c:	f000 003f 0000 0000 f000 000f 0000 0000     ..?.............
  410d5c:	f000 0007 0000 0000 f000 001f 0000 0000     ................
  410d6c:	e000 003f 0000 0000 c000 00ff 0000 0000     ..?.............
  410d7c:	0000 01ff 0000 0000 0000 07fe 0000 0000     ................
  410d8c:	0000 0ffc 0000 0000 0000 1ff0 0000 0000     ................
  410d9c:	0000 7fe0 0000 0000 0000 ff80 0000 0000     ................
  410dac:	0000 ff00 0000 0000 0000 fc00 0000 0000     ................
  410dbc:	0000 f800 0000 0000 0000 f000 0000 0000     ................
  410dcc:	0000 c000 0000 0000 0000 8000 0000 0000     ................
	...
  410de8:	0000 0fe0 0000 0000 0000 0fe0 0000 0000     ................
  410df8:	0000 0fe0 0000 0000 0000 0fe0 0000 0000     ................
  410e08:	0000 0fe0 0000 0000 0000 0fe0 0000 0000     ................
  410e18:	0000 0fe0 0000 0000 0000 0fe0 0000 0000     ................
  410e28:	0000 0fe0 0000 0000 0000 0fe0 0000 0000     ................
  410e38:	0000 0fe0 0000 0000 0000 0fe0 0000 0000     ................
  410e48:	0000 0fe0 0000 0000 0000 0fe0 0000 0000     ................
  410e58:	0000 0fe0 0000 0000 0000 0fe0 0000 0000     ................
  410e68:	0000 0fe0 0000 0000 0000 0fe0 0000 0000     ................
  410e78:	0000 0fe0 0000 0000 0000 0fe0 0000 0000     ................
  410e88:	0000 0fe0 0000 0000 0000 0fe0 0000 0000     ................
  410e98:	0000 0fe0 0000 0000 0000 0fe0 0000 0000     ................
  410ea8:	0000 0fe0 0000 0000 0000 0fe0 0000 0000     ................
  410eb8:	0000 0fe0 0000 0000 0000 0000 0000 0000     ................
	...
  410edc:	1000 0000 0000 0000 3000 0000 0000 0000     .........0......
  410eec:	7000 0000 0000 0000 f000 0000 0000 0000     .p..............
  410efc:	f000 0001 0000 0000 f000 0003 0000 0000     ................
  410f0c:	f000 0007 0000 0000 f000 000f 0000 0000     ................
  410f1c:	f000 000f 0000 0000 e000 000f 0000 0000     ................
  410f2c:	8000 000f 0000 0000 0000 000f 0000 0000     ................
  410f3c:	0000 000c 0000 0000 0000 0008 0000 0000     ................
	...
  410f70:	3f00 0000 0000 1c00 ffc0 0000 0000 fc00     .?..............
  410f80:	ffe0 0001 0000 fe00 fff0 0003 0000 fe00     ................
  410f90:	fff8 0007 0000 ff00 fff8 0007 0000 7f00     ................
  410fa0:	fffc 000f 0000 7f00 fffc 000f 0000 7f80     ................
  410fb0:	f1fc 000f 0000 7f80 f0fc 000f 0000 7f80     ................
  410fc0:	f0fc 000f 0000 7f80 f0fc 000f 0000 7f80     ................
  410fd0:	f0fc 0007 0000 7f80 f0fc 0007 0000 ff80     ................
  410fe0:	f0fc 0003 0000 ff80 f8f8 0003 0000 ff00     ................
  410ff0:	ffff 0007 0000 ff00 ffff 0007 0000 ff00     ................
  411000:	ffff 0007 0000 fe00 ffff 0007 0000 fe00     ................
  411010:	ffff 0007 0000 fc00 ffff 0007 0000 f000     ................
  411020:	ffff 0007 0000 c000 ffff 0007 0000 0000     ................
  411030:	f000 0007 0000 0000 f000 0007 0000 0000     ................
  411040:	f000 0007 0000 0000 f000 0007 0000 0000     ................
	...
  41106c:	fc00 0001 0000 0000 fc00 0001 0000 0000     ................
  41107c:	fc00 0001 0000 0000 fc00 0001 0000 0000     ................
  41108c:	fc00 ffff ffff 0007 fc00 ffff ffff 0007     ................
  41109c:	fc00 ffff ffff 0007 fc00 ffff ffff 0007     ................
  4110ac:	fc00 ffff ffff 0007 fc00 ffff ffff 0007     ................
  4110bc:	fc00 ffff ffff 0007 fc00 ffff ffff 0007     ................
  4110cc:	0000 ff00 fc01 0007 0000 ff00 f800 0007     ................
  4110dc:	0000 ff80 f000 0007 0000 7f80 f000 000f     ................
  4110ec:	0000 7f80 f000 000f 0000 7f80 f000 000f     ................
  4110fc:	0000 7f80 f000 000f 0000 ff80 f800 000f     ................
  41110c:	0000 ff80 f800 000f 0000 ff00 fc01 0007     ................
  41111c:	0000 ff00 ff07 0007 0000 ff00 ffff 0007     ................
  41112c:	0000 fe00 ffff 0003 0000 fc00 ffff 0001     ................
  41113c:	0000 f800 ffff 0001 0000 f000 7fff 0000     ................
  41114c:	0000 e000 3fff 0000 0000 8000 0fff 0000     .....?..........
  41115c:	0000 0000 03fe 0000 0000 0000 0000 0000     ................
	...
  411188:	01fe 0000 0000 8000 0fff 0000 0000 e000     ................
  411198:	3fff 0000 0000 f000 7fff 0000 0000 f800     .?..............
  4111a8:	ffff 0000 0000 fc00 ffff 0001 0000 fe00     ................
  4111b8:	ffff 0003 0000 fe00 ffff 0003 0000 ff00     ................
  4111c8:	ff07 0007 0000 ff00 fc01 0007 0000 ff80     ................
  4111d8:	f800 000f 0000 ff80 f800 000f 0000 7f80     ................
  4111e8:	f000 000f 0000 7f80 f000 000f 0000 7f80     ................
  4111f8:	f000 000f 0000 7f80 f000 000f 0000 7f80     ................
  411208:	f800 000f 0000 7f80 f800 000f 0000 ff80     ................
  411218:	fc00 0007 0000 ff00 fe01 0007 0000 ff00     ................
  411228:	ff01 0007 0000 fe00 fe01 0003 0000 fe00     ................
  411238:	fe01 0003 0000 fe00 fe01 0001 0000 fe00     ................
  411248:	fe01 0000 0000 fe00 7c01 0000 0000 fe00     .........|......
  411258:	3c01 0000 0000 fe00 0c01 0000 0000 0000     .<..............
	...
  411280:	03fe 0000 0000 8000 0fff 0000 0000 e000     ................
  411290:	3fff 0000 0000 f800 ffff 0000 0000 fc00     .?..............
  4112a0:	ffff 0001 0000 fc00 ffff 0001 0000 fe00     ................
  4112b0:	ffff 0003 0000 ff00 ffff 0007 0000 ff00     ................
  4112c0:	ff07 0007 0000 ff00 fc01 0007 0000 ff80     ................
  4112d0:	f800 000f 0000 ff80 f800 000f 0000 7f80     ................
  4112e0:	f000 000f 0000 7f80 f000 000f 0000 7f80     ................
  4112f0:	f000 000f fc00 7f81 f000 000f fc00 ff81     ................
  411300:	f800 0007 fc00 ff01 f800 0007 fc00 ff01     ................
  411310:	fc01 0003 fc00 ffff ffff 0007 fc00 ffff     ................
  411320:	ffff 0007 fc00 ffff ffff 0007 fc00 ffff     ................
  411330:	ffff 0007 fc00 ffff ffff 0007 fc00 ffff     ................
  411340:	ffff 0007 fc00 ffff ffff 0007 fc00 ffff     ................
  411350:	ffff 0007 0000 0000 f000 0007 0000 0000     ................
  411360:	f000 0007 0000 0000 f000 0007 0000 0000     ................
  411370:	f000 0007 0000 0000 0000 0000 0000 0000     ................
	...
  411398:	01fe 0000 0000 8000 0fff 0000 0000 e000     ................
  4113a8:	3fff 0000 0000 f000 7fff 0000 0000 f800     .?..............
  4113b8:	ffff 0000 0000 fc00 ffff 0001 0000 fe00     ................
  4113c8:	ffff 0003 0000 fe00 ffff 0003 0000 ff00     ................
  4113d8:	fefd 0007 0000 ff00 fcfc 0007 0000 7f80     ................
  4113e8:	f8fc 0007 0000 7f80 f8fc 000f 0000 7f80     ................
  4113f8:	f0fc 000f 0000 7f80 f0fc 000f 0000 7f80     ................
  411408:	f0fc 000f 0000 7f80 f0fc 000f 0000 7f80     ................
  411418:	f0fc 000f 0000 7f80 f0fc 000f 0000 ff00     ................
  411428:	f0fc 000f 0000 ff00 f8fd 0007 0000 ff00     ................
  411438:	f8ff 0007 0000 fe00 f8ff 0007 0000 fe00     ................
  411448:	fcff 0003 0000 fc00 f8ff 0003 0000 f800     ................
  411458:	e0ff 0001 0000 e000 80ff 0000 0000 8000     ................
  411468:	00ff 0000 0000 0000 00fc 0000 0000 0000     ................
	...
  411494:	0000 7f00 f000 0007 0000 7f00 f000 0007     ................
  4114a4:	0000 7f00 f000 0007 0000 7f00 f000 0007     ................
  4114b4:	0000 ffff ffff 0007 c000 ffff ffff 0007     ................
  4114c4:	e000 ffff ffff 0007 f000 ffff ffff 0007     ................
  4114d4:	f000 ffff ffff 0007 f800 ffff ffff 0007     ................
  4114e4:	f800 ffff ffff 0007 fc00 ffff ffff 0007     ................
  4114f4:	fc00 7f07 f000 0007 fc00 7f03 f000 0007     ................
  411504:	fc00 7f03 f000 0007 fc00 7f03 f000 0007     ................
  411514:	fc00 7f03 0000 0000 fc00 0003 0000 0000     ................
  411524:	f800 0007 0000 0000 0000 0000 0000 0000     ................
	...
  411540:	01fe 0000 0000 c000 07ff 0000 0000 e000     ................
  411550:	1fff 0c00 0000 f800 3fff 0f00 0000 fc00     .........?......
  411560:	7fff 1f80 0000 fc00 ffff 1fc0 0000 fe00     ................
  411570:	ffff 3fc1 0000 ff00 ffff 3fc1 0000 ff00     ...?.......?....
  411580:	ff87 3f83 0000 ff00 fe01 7f83 0000 ff80     ...?............
  411590:	fc00 7f87 0000 ff80 fc00 7f87 0000 7f80     ................
  4115a0:	f800 7f87 0000 7f80 f800 7f87 0000 7f80     ................
  4115b0:	f800 7f87 0000 7f80 f800 7f87 0000 7f80     ................
  4115c0:	f800 7f87 0000 ff00 fc00 7fc7 0000 ff00     ................
  4115d0:	fc00 3fc3 0000 ff00 fe01 3ff3 0000 ff00     ...?.......?....
  4115e0:	ffff 3fff 0000 ff00 ffff 1fff 0000 ff00     ...?............
  4115f0:	ffff 1fff 0000 ff00 ffff 0fff 0000 ff00     ................
  411600:	ffff 07ff 0000 ff00 ffff 03ff 0000 ff00     ................
  411610:	ffff 00ff 0000 ff00 ffff 003f 0000 0000     ..........?.....
	...
  41164c:	fc00 0001 f000 0007 fc00 0001 f000 0007     ................
  41165c:	fc00 0001 f000 0007 fc00 0001 f000 0007     ................
  41166c:	fc00 ffff ffff 0007 fc00 ffff ffff 0007     ................
  41167c:	fc00 ffff ffff 0007 fc00 ffff ffff 0007     ................
  41168c:	fc00 ffff ffff 0007 fc00 ffff ffff 0007     ................
  41169c:	fc00 ffff ffff 0007 fc00 ffff ffff 0007     ................
  4116ac:	0000 fc00 f001 0007 0000 fe00 f000 0007     ................
  4116bc:	0000 ff00 f000 0007 0000 7f00 f000 0007     ................
  4116cc:	0000 7f80 0000 0000 0000 7f80 0000 0000     ................
  4116dc:	0000 7f80 0000 0000 0000 ff80 0000 0000     ................
  4116ec:	0000 ff80 0001 0000 0000 ff80 ffff 0007     ................
  4116fc:	0000 ff80 ffff 0007 0000 ff00 ffff 0007     ................
  41170c:	0000 ff00 ffff 0007 0000 fe00 ffff 0007     ................
  41171c:	0000 fc00 ffff 0007 0000 f800 ffff 0007     ................
  41172c:	0000 c000 ffff 0007 0000 0000 f000 0007     ................
  41173c:	0000 0000 f000 0007 0000 0000 f000 0007     ................
  41174c:	0000 0000 f000 0007 0000 0000 0000 0000     ................
	...
  41176c:	0000 7f00 f000 0007 0000 7f00 f000 0007     ................
  41177c:	0000 7f00 f000 0007 0000 7f00 f000 0007     ................
  41178c:	e000 ff00 ffff 0007 f800 ff03 ffff 0007     ................
  41179c:	f800 ff03 ffff 0007 fc00 ff07 ffff 0007     ................
  4117ac:	fc00 ff07 ffff 0007 fc00 ff07 ffff 0007     ................
  4117bc:	fc00 ff07 ffff 0007 f800 ff03 ffff 0007     ................
  4117cc:	f800 0003 f000 0007 e000 0000 f000 0007     ................
  4117dc:	0000 0000 f000 0007 0000 0000 f000 0007     ................
	...
  411804:	0000 7f00 0000 7e00 0000 7f00 0000 7e00     .......~.......~
  411814:	0000 7f00 0000 7f00 0000 7f00 0000 7f80     ................
  411824:	f000 ff01 ffff 3fff f800 ff03 ffff 3fff     .......?.......?
  411834:	fc00 ff07 ffff 3fff fc00 ff07 ffff 1fff     .......?........
  411844:	fc00 ff07 ffff 1fff fc00 ff07 ffff 0fff     ................
  411854:	f800 ff03 ffff 03ff f800 ff03 ffff 00ff     ................
  411864:	e000 0000 0000 0000 0000 0000 0000 0000     ................
	...
  41188c:	fc00 0001 f000 0007 fc00 0001 f000 0007     ................
  41189c:	fc00 0001 f000 0007 fc00 0001 f000 0007     ................
  4118ac:	fc00 ffff ffff 0007 fc00 ffff ffff 0007     ................
  4118bc:	fc00 ffff ffff 0007 fc00 ffff ffff 0007     ................
  4118cc:	fc00 ffff ffff 0007 fc00 ffff ffff 0007     ................
  4118dc:	fc00 ffff ffff 0007 fc00 ffff ffff 0007     ................
  4118ec:	0000 0000 f07c 0007 0000 0000 f07c 0007     ....|.......|...
  4118fc:	0000 0000 f07c 0007 0000 0000 f07c 0007     ....|.......|...
  41190c:	0000 0000 00fc 0000 0000 0000 01ff 0000     ................
  41191c:	0000 ff00 07ff 0000 0000 ff00 0fff 0000     ................
  41192c:	0000 ff00 3fff 0000 0000 ff00 7fff 0000     .....?..........
  41193c:	0000 ff00 ffff 0001 0000 ff00 ffff 0003     ................
  41194c:	0000 ff00 ffcf 0007 0000 ff00 ff83 0007     ................
  41195c:	0000 ff00 fe01 0007 0000 ff00 fc00 0007     ................
  41196c:	0000 7f00 f800 0007 0000 7f00 f800 0007     ................
  41197c:	0000 7f00 f800 0007 0000 7f00 f800 0007     ................
	...
  4119bc:	fc00 0001 f000 0007 fc00 0001 f000 0007     ................
  4119cc:	fc00 0001 f000 0007 fc00 0001 f000 0007     ................
  4119dc:	fc00 ffff ffff 0007 fc00 ffff ffff 0007     ................
  4119ec:	fc00 ffff ffff 0007 fc00 ffff ffff 0007     ................
  4119fc:	fc00 ffff ffff 0007 fc00 ffff ffff 0007     ................
  411a0c:	fc00 ffff ffff 0007 fc00 ffff ffff 0007     ................
  411a1c:	0000 0000 f000 0007 0000 0000 f000 0007     ................
  411a2c:	0000 0000 f000 0007 0000 0000 f000 0007     ................
	...
  411a5c:	0000 7f00 f000 0007 0000 7f00 f000 0007     ................
  411a6c:	0000 7f00 f000 0007 0000 7f00 f000 0007     ................
  411a7c:	0000 ff00 ffff 0007 0000 ff00 ffff 0007     ................
  411a8c:	0000 ff00 ffff 0007 0000 ff00 ffff 0007     ................
  411a9c:	0000 ff00 ffff 0007 0000 ff00 ffff 0007     ................
  411aac:	0000 ff00 ffff 0007 0000 ff00 ffff 0007     ................
  411abc:	0000 fc00 f001 0007 0000 fe00 f000 0007     ................
  411acc:	0000 fe00 f000 0007 0000 7f00 f000 0007     ................
  411adc:	0000 7f00 0000 0000 0000 7f80 0000 0000     ................
  411aec:	0000 7f80 0000 0000 0000 7f80 0000 0000     ................
  411afc:	0000 ff80 0000 0000 0000 ff80 0001 0000     ................
  411b0c:	0000 ff80 ffff 0007 0000 ff80 ffff 0007     ................
  411b1c:	0000 ff00 ffff 0007 0000 ff00 ffff 0007     ................
  411b2c:	0000 fe00 ffff 0007 0000 fc00 ffff 0007     ................
  411b3c:	0000 f800 ffff 0007 0000 fc00 ffff 0007     ................
  411b4c:	0000 fc00 f001 0007 0000 fe00 f000 0007     ................
  411b5c:	0000 ff00 f000 0007 0000 7f00 f000 0007     ................
  411b6c:	0000 7f00 0000 0000 0000 7f80 0000 0000     ................
  411b7c:	0000 7f80 0000 0000 0000 7f80 0000 0000     ................
  411b8c:	0000 ff80 0000 0000 0000 ff80 0001 0000     ................
  411b9c:	0000 ff80 ffff 0007 0000 ff80 ffff 0007     ................
  411bac:	0000 ff00 ffff 0007 0000 ff00 ffff 0007     ................
  411bbc:	0000 fe00 ffff 0007 0000 fc00 ffff 0007     ................
  411bcc:	0000 f800 ffff 0007 0000 c000 ffff 0007     ................
  411bdc:	0000 0000 f000 0007 0000 0000 f000 0007     ................
  411bec:	0000 0000 f000 0007 0000 0000 f000 0007     ................
	...
  411c1c:	0000 7f00 f000 0007 0000 7f00 f000 0007     ................
  411c2c:	0000 7f00 f000 0007 0000 7f00 f000 0007     ................
  411c3c:	0000 ff00 ffff 0007 0000 ff00 ffff 0007     ................
  411c4c:	0000 ff00 ffff 0007 0000 ff00 ffff 0007     ................
  411c5c:	0000 ff00 ffff 0007 0000 ff00 ffff 0007     ................
  411c6c:	0000 ff00 ffff 0007 0000 ff00 ffff 0007     ................
  411c7c:	0000 fc00 f001 0007 0000 fe00 f000 0007     ................
  411c8c:	0000 fe00 f000 0007 0000 7f00 f000 0007     ................
  411c9c:	0000 7f00 0000 0000 0000 7f80 0000 0000     ................
  411cac:	0000 7f80 0000 0000 0000 7f80 0000 0000     ................
  411cbc:	0000 ff80 0000 0000 0000 ff80 0001 0000     ................
  411ccc:	0000 ff80 ffff 0007 0000 ff80 ffff 0007     ................
  411cdc:	0000 ff00 ffff 0007 0000 ff00 ffff 0007     ................
  411cec:	0000 fe00 ffff 0007 0000 fc00 ffff 0007     ................
  411cfc:	0000 f800 ffff 0007 0000 c000 ffff 0007     ................
  411d0c:	0000 0000 f000 0007 0000 0000 f000 0007     ................
  411d1c:	0000 0000 f000 0007 0000 0000 f000 0007     ................
	...
  411d50:	03fc 0000 0000 8000 0fff 0000 0000 e000     ................
  411d60:	3fff 0000 0000 f000 7fff 0000 0000 f800     .?..............
  411d70:	ffff 0000 0000 fc00 ffff 0001 0000 fe00     ................
  411d80:	ffff 0003 0000 fe00 ffff 0007 0000 ff00     ................
  411d90:	ff07 0007 0000 ff00 fc01 0007 0000 ff80     ................
  411da0:	f800 000f 0000 ff80 f800 000f 0000 7f80     ................
  411db0:	f000 000f 0000 7f80 f000 000f 0000 7f80     ................
  411dc0:	f000 000f 0000 7f80 f000 000f 0000 7f80     ................
  411dd0:	f800 000f 0000 ff80 f800 000f 0000 ff00     ................
  411de0:	fc01 0007 0000 ff00 ff07 0007 0000 fe00     ................
  411df0:	ffff 0003 0000 fe00 ffff 0003 0000 fc00     ................
  411e00:	ffff 0001 0000 f800 ffff 0000 0000 f000     ................
  411e10:	7fff 0000 0000 e000 3fff 0000 0000 8000     .........?......
  411e20:	0fff 0000 0000 0000 03fe 0000 0000 0000     ................
	...
  411e4c:	0000 7f00 0000 7f00 0000 7f00 0000 7f00     ................
  411e5c:	0000 7f00 0000 7f00 0000 7f00 0000 7f00     ................
  411e6c:	0000 ff00 ffff 7fff 0000 ff00 ffff 7fff     ................
  411e7c:	0000 ff00 ffff 7fff 0000 ff00 ffff 7fff     ................
  411e8c:	0000 ff00 ffff 7fff 0000 ff00 ffff 7fff     ................
  411e9c:	0000 ff00 ffff 7fff 0000 ff00 ffff 7fff     ................
  411eac:	0000 ff00 fc01 7f07 0000 ff00 f800 7f07     ................
  411ebc:	0000 ff00 f800 7f0f 0000 7f80 f000 7f0f     ................
  411ecc:	0000 7f80 f000 000f 0000 7f80 f000 000f     ................
  411edc:	0000 7f80 f000 000f 0000 ff80 f800 000f     ................
  411eec:	0000 ff80 f800 000f 0000 ff00 fc01 0007     ................
  411efc:	0000 ff00 ff07 0007 0000 ff00 ffff 0007     ................
  411f0c:	0000 fe00 ffff 0003 0000 fc00 ffff 0001     ................
  411f1c:	0000 fc00 ffff 0001 0000 f000 ffff 0000     ................
  411f2c:	0000 e000 3fff 0000 0000 8000 0fff 0000     .....?..........
  411f3c:	0000 0000 03fe 0000 0000 0000 0000 0000     ................
	...
  411f68:	01fe 0000 0000 8000 0fff 0000 0000 e000     ................
  411f78:	3fff 0000 0000 f000 7fff 0000 0000 f800     .?..............
  411f88:	ffff 0000 0000 fc00 ffff 0001 0000 fe00     ................
  411f98:	ffff 0003 0000 fe00 ffff 0003 0000 ff00     ................
  411fa8:	ff07 0007 0000 ff00 fc01 0007 0000 ff80     ................
  411fb8:	f800 000f 0000 ff80 f800 000f 0000 7f80     ................
  411fc8:	f000 000f 0000 7f80 f000 000f 0000 7f80     ................
  411fd8:	f000 000f 0000 7f80 f000 000f 0000 7f80     ................
  411fe8:	f000 7f0f 0000 ff80 f800 7f0f 0000 ff00     ................
  411ff8:	f800 7f07 0000 ff00 fc01 7f07 0000 ff80     ................
  412008:	ffff 7fff 0000 ff80 ffff 7fff 0000 ff80     ................
  412018:	ffff 7fff 0000 ff80 ffff 7fff 0000 ff80     ................
  412028:	ffff 7fff 0000 ff80 ffff 7fff 0000 ff80     ................
  412038:	ffff 7fff 0000 ff80 ffff 7fff 0000 0000     ................
  412048:	0000 7f00 0000 0000 0000 7f00 0000 0000     ................
  412058:	0000 7f00 0000 0000 0000 7f00 0000 0000     ................
	...
  41207c:	0000 7f00 f000 0007 0000 7f00 f000 0007     ................
  41208c:	0000 7f00 f000 0007 0000 7f00 f000 0007     ................
  41209c:	0000 ff00 ffff 0007 0000 ff00 ffff 0007     ................
  4120ac:	0000 ff00 ffff 0007 0000 ff00 ffff 0007     ................
  4120bc:	0000 ff00 ffff 0007 0000 ff00 ffff 0007     ................
  4120cc:	0000 ff00 ffff 0007 0000 ff00 ffff 0007     ................
  4120dc:	0000 fc00 f003 0007 0000 fe00 f001 0007     ................
  4120ec:	0000 fe00 f000 0007 0000 ff00 f000 0007     ................
  4120fc:	0000 ff00 0000 0000 0000 ff00 0007 0000     ................
  41210c:	0000 ff00 0007 0000 0000 ff00 0007 0000     ................
  41211c:	0000 ff00 0007 0000 0000 ff00 0007 0000     ................
  41212c:	0000 ff00 0007 0000 0000 ff00 0007 0000     ................
  41213c:	0000 ff00 0007 0000 0000 0000 0000 0000     ................
	...
  412164:	0000 e000 fe03 0001 0000 f800 fe0f 0001     ................
  412174:	0000 fc00 fe1f 0001 0000 fe00 fe1f 0001     ................
  412184:	0000 fe00 fe3f 0001 0000 ff00 fe7f 0003     ....?...........
  412194:	0000 ff00 fe7f 0007 0000 ff00 fc7f 0007     ................
  4121a4:	0000 ff80 f87c 0007 0000 7f80 f8fc 000f     ....|...........
  4121b4:	0000 7f80 f0fc 000f 0000 7f80 f0fc 000f     ................
  4121c4:	0000 7f80 f0f8 000f 0000 7f80 f0f8 000f     ................
  4121d4:	0000 7f80 f0f8 000f 0000 ff80 f1f8 000f     ................
  4121e4:	0000 ff00 f9f8 000f 0000 ff00 fff1 0007     ................
  4121f4:	0000 fe00 fff3 0007 0000 fe00 fff3 0007     ................
  412204:	0000 fc00 ffe3 0003 0000 fc00 ffe3 0001     ................
  412214:	0000 fc00 ffc3 0001 0000 fc00 ff83 0000     ................
  412224:	0000 fc00 3f03 0000 0000 0000 0000 0000     .....?..........
	...
  41223c:	0000 7f00 0000 0000 0000 7f00 0000 0000     ................
  41224c:	0000 7f00 0000 0000 0000 7f00 0000 0000     ................
  41225c:	0000 fffe 7fff 0000 0000 fffe ffff 0001     ................
  41226c:	0000 ffff ffff 0003 0000 ffff ffff 0007     ................
  41227c:	8000 ffff ffff 0007 8000 ffff ffff 000f     ................
  41228c:	c000 ffff ffff 000f c000 ffff ffff 000f     ................
  41229c:	0000 7f00 f800 000f 0000 7f00 f000 000f     ................
  4122ac:	0000 7f00 f000 000f 0000 7f00 f000 0007     ................
  4122bc:	0000 7f00 f000 0007 0000 0000 f000 0003     ................
	...
  4122e4:	0000 7f00 0000 0000 0000 7f00 0000 0000     ................
  4122f4:	0000 7f00 0000 0000 0000 7f00 0000 0000     ................
  412304:	0000 ff00 0fff 0000 0000 ff00 7fff 0000     ................
  412314:	0000 ff00 ffff 0000 0000 ff00 ffff 0001     ................
  412324:	0000 ff00 ffff 0003 0000 ff00 ffff 0007     ................
  412334:	0000 ff00 ffff 0007 0000 ff00 ffff 000f     ................
  412344:	0000 0000 fe00 000f 0000 0000 f800 000f     ................
  412354:	0000 0000 f800 000f 0000 0000 f000 000f     ................
  412364:	0000 0000 f000 000f 0000 0000 f000 000f     ................
  412374:	0000 7f00 f000 0007 0000 7f00 f800 0007     ................
  412384:	0000 7f00 f800 0003 0000 7f00 fc00 0003     ................
  412394:	0000 ff00 ffff 0007 0000 ff00 ffff 0007     ................
  4123a4:	0000 ff00 ffff 0007 0000 ff00 ffff 0007     ................
  4123b4:	0000 ff00 ffff 0007 0000 ff00 ffff 0007     ................
  4123c4:	0000 ff00 ffff 0007 0000 ff00 ffff 0007     ................
  4123d4:	0000 0000 f000 0007 0000 0000 f000 0007     ................
  4123e4:	0000 0000 f000 0007 0000 0000 f000 0007     ................
	...
  4123fc:	0000 7f00 0000 0000 0000 7f00 0000 0000     ................
  41240c:	0000 7f00 0000 0000 0000 7f00 0000 0000     ................
  41241c:	0000 ff00 0001 0000 0000 ff00 000f 0000     ................
  41242c:	0000 ff00 007f 0000 0000 ff00 03ff 0000     ................
  41243c:	0000 ff00 1fff 0000 0000 ff00 ffff 0000     ................
  41244c:	0000 ff00 ffff 0007 0000 ff00 ffff 0007     ................
  41245c:	0000 ff00 ffff 0007 0000 7f00 fffc 0007     ................
  41246c:	0000 7f00 ffe0 0007 0000 7f00 ff00 0007     ................
  41247c:	0000 7f00 f800 0007 0000 0000 ff80 0007     ................
  41248c:	0000 7f00 fff0 0007 0000 7f00 ffff 0007     ................
  41249c:	0000 ff00 ffff 0007 0000 ff00 ffff 0007     ................
  4124ac:	0000 ff00 ffff 0007 0000 ff00 ffff 0000     ................
  4124bc:	0000 ff00 1fff 0000 0000 ff00 01ff 0000     ................
  4124cc:	0000 ff00 003f 0000 0000 ff00 0003 0000     ....?...........
  4124dc:	0000 7f00 0000 0000 0000 7f00 0000 0000     ................
  4124ec:	0000 7f00 0000 0000 0000 7f00 0000 0000     ................
	...
  412504:	0000 7f00 0000 0000 0000 7f00 0000 0000     ................
  412514:	0000 7f00 0000 0000 0000 7f00 0000 0000     ................
  412524:	0000 ff00 001f 0000 0000 ff00 ffff 0007     ................
  412534:	0000 ff00 ffff 0007 0000 ff00 ffff 0007     ................
  412544:	0000 ff00 ffff 0007 0000 ff00 ffff 0007     ................
  412554:	0000 ff00 ffff 0007 0000 ff00 ffff 0007     ................
  412564:	0000 7f00 ffff 0007 0000 7f00 ff00 0007     ................
  412574:	0000 7f00 ffe0 0007 0000 7f00 fffc 0007     ................
  412584:	0000 8000 ffff 0007 0000 f000 ffff 0007     ................
  412594:	0000 fe00 ffff 0003 0000 ff00 7fff 0000     ................
  4125a4:	0000 ff00 0fff 0000 0000 ff00 01ff 0000     ................
  4125b4:	0000 ff00 003f 0000 0000 ff00 0007 0000     ....?...........
  4125c4:	0000 ff00 000f 0000 0000 ff00 007f 0000     ................
  4125d4:	0000 ff00 07ff 0000 0000 ff00 3fff 0000     .............?..
  4125e4:	0000 ff00 ffff 0001 0000 fc00 ffff 0007     ................
  4125f4:	0000 e000 ffff 0007 0000 0000 ffff 0007     ................
  412604:	0000 7f00 fff8 0007 0000 7f00 ffc0 0007     ................
  412614:	0000 7f00 fe00 0007 0000 7f00 fffe 0007     ................
  412624:	0000 ff00 ffff 0007 0000 ff00 ffff 0007     ................
  412634:	0000 ff00 ffff 0007 0000 ff00 ffff 0007     ................
  412644:	0000 ff00 ffff 0007 0000 ff00 ffff 0007     ................
  412654:	0000 ff00 ffff 0000 0000 ff00 001f 0000     ................
  412664:	0000 7f00 0000 0000 0000 7f00 0000 0000     ................
  412674:	0000 7f00 0000 0000 0000 7f00 0000 0000     ................
	...
  41268c:	0000 7f00 f000 0007 0000 7f00 f000 0007     ................
  41269c:	0000 7f00 f000 0007 0000 7f00 f000 0007     ................
  4126ac:	0000 ff00 f000 0007 0000 ff00 f801 0007     ................
  4126bc:	0000 ff00 fc03 0007 0000 ff00 fe07 0007     ................
  4126cc:	0000 ff00 ff0f 0007 0000 ff00 ff9f 0007     ................
  4126dc:	0000 ff00 ffff 0007 0000 ff00 ffff 0007     ................
  4126ec:	0000 ff00 ffff 0007 0000 ff00 ffff 0007     ................
  4126fc:	0000 8000 0fff 0000 0000 8000 0fff 0000     ................
  41270c:	0000 8000 0fff 0000 0000 8000 0fff 0000     ................
  41271c:	0000 ff00 ffff 0007 0000 ff00 ffff 0007     ................
  41272c:	0000 ff00 ffff 0007 0000 ff00 ffff 0007     ................
  41273c:	0000 ff00 ff9f 0007 0000 ff00 ff0f 0007     ................
  41274c:	0000 ff00 fe07 0007 0000 ff00 fc03 0007     ................
  41275c:	0000 ff00 f801 0007 0000 ff00 f000 0007     ................
  41276c:	0000 7f00 f000 0007 0000 7f00 f000 0007     ................
  41277c:	0000 7f00 f000 0007 0000 7f00 f000 0007     ................
  41278c:	0000 7f00 0000 0000 0000 7f00 0000 0000     ................
  41279c:	0000 7f00 0000 0000 0000 7f00 0000 0000     ................
  4127ac:	0000 ff00 0000 0000 0000 ff00 0007 7f00     ................
  4127bc:	0000 ff00 001f 7f00 0000 ff00 00ff 7f00     ................
  4127cc:	0000 ff00 03ff 7f00 0000 ff00 1fff 7f00     ................
  4127dc:	0000 ff00 7fff 7f80 0000 ff00 ffff 7ff3     ................
  4127ec:	0000 ff00 ffff 7fff 0000 7f00 fffe 7fff     ................
  4127fc:	0000 0000 fff0 7fff 0000 0000 ff80 7fff     ................
  41280c:	0000 0000 ff80 7fff 0000 7f00 fff0 7fff     ................
  41281c:	0000 7f00 fffe 7fff 0000 ff00 ffff 7f3f     ..............?.
  41282c:	0000 ff00 ffff 7f07 0000 ff00 ffff 7f00     ................
  41283c:	0000 ff00 3fff 7f00 0000 ff00 07ff 0000     .....?..........
  41284c:	0000 ff00 00ff 0000 0000 ff00 003f 0000     ............?...
  41285c:	0000 ff00 0007 0000 0000 ff00 0000 0000     ................
  41286c:	0000 7f00 0000 0000 0000 7f00 0000 0000     ................
  41287c:	0000 7f00 0000 0000 0000 7f00 0000 0000     ................
	...
  41289c:	0000 ff00 0007 0000 0000 ff00 c007 0007     ................
  4128ac:	0000 ff00 e007 0007 0000 ff00 f807 0007     ................
  4128bc:	0000 ff00 fc07 0007 0000 ff00 fe07 0007     ................
  4128cc:	0000 ff00 ff87 0007 0000 7f00 ffc0 0007     ................
  4128dc:	0000 7f00 fff0 0007 0000 7f00 fff8 0007     ................
  4128ec:	0000 7f00 fffe 0007 0000 7f00 ffff 0007     ................
  4128fc:	0000 ff00 ffff 0007 0000 ff00 f7ff 0007     ................
  41290c:	0000 ff00 f1ff 0007 0000 ff00 f0ff 0007     ................
  41291c:	0000 ff00 f03f 0007 0000 ff00 f01f 0007     ....?...........
  41292c:	0000 ff00 ff8f 0007 0000 ff00 ff83 0007     ................
  41293c:	0000 ff00 ff81 0007 0000 7f00 ff80 0007     ................
  41294c:	0000 3f00 ff80 0007 0000 0f00 ff80 0007     ...?............
  41295c:	0000 0000 ff80 0007 0000 0000 0000 0000     ................
	...
  412994:	0000 c000 000f 0000 0000 c000 000f 0000     ................
  4129a4:	0000 c000 000f 0000 0000 c000 000f 0000     ................
  4129b4:	0000 c000 000f 0000 0000 f000 001f 0000     ................
  4129c4:	fc00 ffff ffff 00ff ff00 ffff ffff 03ff     ................
  4129d4:	ff80 ffff ffff 07ff ffc0 ffff ffff 0fff     ................
  4129e4:	ffe0 ffff ffff 1fff ffe0 ffff ffff 1fff     ................
  4129f4:	ffe0 ffff ffff 1fff ffe0 ffff fffc 1fff     ................
  412a04:	ffe0 7fff fff0 1fff 1fe0 0000 0000 1fe0     ................
  412a14:	0fe0 0000 0000 1fc0 0fe0 0000 0000 1fc0     ................
  412a24:	0fe0 0000 0000 1fc0 0000 0000 0000 0000     ................
	...
  412a4c:	ffe0 ffff ffff 03ff ffe0 ffff ffff 03ff     ................
  412a5c:	ffe0 ffff ffff 03ff ffe0 ffff ffff 03ff     ................
  412a6c:	ffe0 ffff ffff 03ff ffe0 ffff ffff 03ff     ................
  412a7c:	ffe0 ffff ffff 03ff ffe0 ffff ffff 03ff     ................
  412a8c:	ffe0 ffff ffff 03ff 0000 0000 0000 0000     ................
	...
  412acc:	0fe0 0000 0000 1fc0 0fe0 0000 0000 1fc0     ................
  412adc:	0fe0 0000 0000 1fc0 1fe0 0000 0000 1fe0     ................
  412aec:	ffe0 7fff fff0 1fff ffe0 ffff fffc 1fff     ................
  412afc:	ffe0 ffff ffff 1fff ffe0 ffff ffff 1fff     ................
  412b0c:	ffe0 ffff ffff 1fff ffc0 ffff ffff 0fff     ................
  412b1c:	ff80 ffff ffff 07ff ff00 ffff ffff 03ff     ................
  412b2c:	fc00 ffff ffff 00ff 0000 f000 001f 0000     ................
  412b3c:	0000 c000 000f 0000 0000 c000 000f 0000     ................
  412b4c:	0000 c000 000f 0000 0000 c000 000f 0000     ................
  412b5c:	0000 c000 000f 0000 0000 0000 0000 0000     ................
	...
  412b80:	001c 0000 0000 0000 003f 0000 0000 8000     ........?.......
  412b90:	003f 0000 0000 c000 003f 0000 0000 e000     ?.......?.......
  412ba0:	000f 0000 0000 e000 0007 0000 0000 e000     ................
  412bb0:	0007 0000 0000 e000 0007 0000 0000 e000     ................
  412bc0:	000f 0000 0000 c000 000f 0000 0000 c000     ................
  412bd0:	001f 0000 0000 8000 001f 0000 0000 8000     ................
  412be0:	003f 0000 0000 0000 003f 0000 0000 0000     ?.......?.......
  412bf0:	007f 0000 0000 0000 007e 0000 0000 0000     ........~.......
  412c00:	007e 0000 0000 0000 007e 0000 0000 0000     ~.......~.......
  412c10:	007f 0000 0000 c000 003f 0000 0000 c000     ........?.......
  412c20:	003f 0000 0000 c000 001f 0000 0000 8000     ?...............
  412c30:	000f 0000                                   ....

00412c34 <ArvoBold_32pt_CharCount>:
  412c34:	0f09 200e 261a 081c 0f0f 1a15 100a 110a     ... .&..........
  412c44:	111b 1719 191a 1918 1819 0a0b 1512 1911     ................
  412c54:	1f30 211d 1d1f 221b 1128 230f 311c 2224     0..!..."(..#.1$"
  412c64:	221d 1a20 211e 3120 2021 0e1b 0f10 161a     ." ..! 1! ......
  412c74:	1b11 191b 191d 1b12 111d 1e0d 2d11 1a1f     .............-..
  412c84:	1c1d 1717 1e11 281a 1a1a 1318 130f 0013     .......(........

00412c94 <ArvoBold_32pt_Table>:
	...
  412ce8:	f000 01ff 0f00 0000 fff0 83ff 001f f000     ................
  412cf8:	ffff 3fc3 0000 fff0 c3ff 003f f000 ffff     ...?......?.....
  412d08:	3fc3 0000 fff0 c3ff 003f f000 ffff 1f83     .?......?.......
  412d18:	0000 fff0 0001 000f 0000 0000 0000 0000     ................
	...
  412d44:	01f0 0000 0000 f000 007f 0000 0000 7ff0     ................
  412d54:	0000 0000 f000 007f 0000 0000 7ff0 0000     ................
  412d64:	0000 f000 007f 0000 0000 0000 0000 0000     ................
	...
  412d7c:	7ff0 0000 0000 f000 007f 0000 0000 7ff0     ................
  412d8c:	0000 0000 f000 007f 0000 0000 03f0 0000     ................
  412d9c:	0000 0000 0000 0070 0000 0000 7f00 0000     ......p.........
  412dac:	0000 0380 187f 0000 f800 ff03 001f 0000     ................
  412dbc:	03f8 1fff 0000 f800 ffe3 001f 0000 fff8     ................
  412dcc:	1fff 0000 f800 ffff 001f c000 ffff 1fff     ................
  412ddc:	0000 fff0 ffff 0007 f000 ffff 007f 0000     ................
  412dec:	fff0 7fff 0000 f000 1fff 007e 0000 fff0     ..........~.....
  412dfc:	7e03 0000 f000 03ff 007f 0000 f870 7f03     .~..........p...
  412e0c:	0000 0000 03f8 187f 0000 f800 ff03 001f     ................
  412e1c:	0000 03f8 1fff 0000 f800 ffff 001f 0000     ................
  412e2c:	fff8 1fff 0000 ff80 ffff 001f f000 ffff     ................
  412e3c:	1fff 0000 fff0 ffff 0007 f000 ffff 007f     ................
  412e4c:	0000 fff0 7fff 0000 f000 07ff 007f 0000     ................
  412e5c:	fff0 7f03 0000 7000 03f8 000f 0000 f800     .......p........
  412e6c:	0003 0000 0000 0038 0000 0000 0000 0000     ......8.........
	...
  412e90:	007e 0000 8000 7e0f 0000 0000 1fc0 007e     ~......~......~.
  412ea0:	0000 e000 7e3f 0000 0000 7ff0 00fe 0000     ....?~..........
  412eb0:	f000 fe7f 0001 0000 7ff8 01fe 0000 f800     ................
  412ec0:	fcf9 0003 f000 f1ff fff8 0001 fff0 f0f1     ................
  412ed0:	01ff f000 f1ff fff0 0001 fff0 f1f1 01ff     ................
  412ee0:	f000 e3ff fff1 0001 fff0 f1e7 01ff f000     ................
  412ef0:	efff fffb 0001 f800 ffef 0003 0000 cff0     ................
  412f00:	01ff 0000 e000 ffcf 0001 0000 8fe0 00ff     ................
  412f10:	0000 e000 7f0f 0000 0000 0fe0 003e 0000     ............>...
	...
  412f50:	0000 007c 0000 0000 ff00 0001 0000 8000     ..|.............
  412f60:	03ff 0000 0000 ffc0 0007 0010 c000 07ff     ................
  412f70:	1800 0000 c7e0 000f 001e e000 0f83 1f00     ................
  412f80:	0000 83e0 c00f 001f e000 0f83 1fe0 0000     ................
  412f90:	83e0 f80f 001f e000 0fc7 0ffc 0000 ffc0     ................
  412fa0:	ff07 0007 c000 87ff 01ff 0000 ff80 ffe3     ................
  412fb0:	0000 0000 f1ff 003f 0000 7c00 1ffc 0000     ......?....|....
  412fc0:	0000 fe00 0007 0000 8000 fbff 0000 0000     ................
  412fd0:	ffc0 03fe 0000 f000 ff7f 0007 0000 9ff8     ................
  412fe0:	0fff 0000 fe00 ff8f 000f 0000 c3ff 1f8f     ................
  412ff0:	0000 ffc0 07c1 001f e000 c07f 1f07 0000     ................
  413000:	3ff0 07c0 001f f000 c00f 1f07 0000 07f0     .?..............
  413010:	8fc0 001f f000 8001 0fff 0000 00f0 ff80     ................
  413020:	000f 3000 0000 07ff 0000 0010 fe00 0003     ...0............
  413030:	0000 0000 00f8 0000 0000 0000 0000 0000     ................
	...
  413050:	007e 0000 0000 ff80 0001 0000 c0fc 07ff     ~...............
  413060:	0000 ff00 ffe3 000f 8000 f7ff 0fff 0000     ................
  413070:	ffc0 ffff 001f e000 ffff 1fff 0000 ffe0     ................
  413080:	e3ff 003f f000 ffff 3fc1 0000 0ff0 80ff     ..?......?......
  413090:	003f f000 fe07 3f81 0000 07f0 83ff 003f     ?......?......?.
  4130a0:	f000 ff8f 3f87 0000 fff0 cfff 003f e000     .....?......?...
  4130b0:	efff 1fdf 0000 ffe0 ffc7 001f c000 83ff     ................
  4130c0:	0fff 0000 ffc0 ff81 000f 0000 f0ff 07ff     ................
  4130d0:	0000 3e00 fff0 0007 0000 f000 0fff 0000     ...>............
  4130e0:	0000 fff0 001f 0000 f000 3fff 0000 0000     ...........?....
  4130f0:	e7f0 007f 0000 f000 3f80 0000 0000 0000     .........?......
  413100:	001f 0000 0000 0000 0000 7ff0 0000 0000     ................
  413110:	f000 007f 0000 0000 7ff0 0000 0000 f000     ................
  413120:	007f 0000 0000 7ff0 0000 0000 f000 0000     ................
	...
  413148:	0000 fc00 003f 0000 e000 ffff 0003 0000     ....?...........
  413158:	fffc 1fff 0000 ff00 ffff 007f c000 ffff     ................
  413168:	ffff 0001 fff0 ffff 07ff f800 ffff ffff     ................
  413178:	000f fffe e003 3fff ff00 003f fe00 007f     .......?..?.....
  413188:	07fe 0000 3ff0 fe00 0001 c000 003f 007c     .....?......?.|.
  413198:	0000 1f00 3800 0000 0000 000c 0008 0000     .....8..........
  4131a8:	0800 1800 0000 0000 000c 007c 0000 1f00     ..........|.....
  4131b8:	fe00 0001 c000 003f 07fe 0000 3ff0 ff00     ......?......?..
  4131c8:	003f fe00 007f fffe e003 3fff f800 ffff     ?..........?....
  4131d8:	ffff 000f fff0 ffff 07ff c000 ffff ffff     ................
  4131e8:	0001 ff00 ffff 007f 0000 fffc 1fff 0000     ................
  4131f8:	e000 ffff 0003 0000 fe00 001f 0000 0000     ................
	...
  41321c:	000f 0000 0000 0f80 0002 0000 8000 071f     ................
  41322c:	0000 0000 9f00 0007 0000 0000 0fff 0000     ................
  41323c:	0000 ff00 000f 0000 f800 07ff 0000 0000     ................
  41324c:	fff8 0003 0000 f800 01ff 0000 0000 fff8     ................
  41325c:	0003 0000 f800 07ff 0000 0000 ff00 000f     ................
  41326c:	0000 0000 0fff 0000 0000 df00 0007 0000     ................
  41327c:	8000 071f 0000 0000 0f80 0002 0000 0000     ................
  41328c:	000f 0000 0000 0000 0000 0000 0000 0000     ................
	...
  4132b0:	0fc0 0000 0000 c000 000f 0000 0000 0fc0     ................
  4132c0:	0000 0000 c000 000f 0000 0000 0fc0 0000     ................
  4132d0:	0000 c000 000f 0000 0000 0fc0 0000 0000     ................
  4132e0:	c000 000f 0000 c000 ffff 000f 0000 ffc0     ................
  4132f0:	0fff 0000 c000 ffff 000f 0000 ffc0 0fff     ................
  413300:	0000 c000 ffff 000f 0000 ffc0 0fff 0000     ................
  413310:	c000 ffff 000f 0000 c000 000f 0000 0000     ................
  413320:	0fc0 0000 0000 c000 000f 0000 0000 0fc0     ................
  413330:	0000 0000 c000 000f 0000 0000 0fc0 0000     ................
  413340:	0000 c000 000f 0000 0000 0fc0 0000 0000     ................
	...
  413358:	0000 0600 0000 0000 c000 0007 0000 0000     ................
  413368:	0ffc 0000 0000 ff80 000f 0000 8000 07ff     ................
  413378:	0000 0000 ff00 0001 0000 0000 003f 0000     ............?...
  413388:	0000 0f00 0000 0000 0000 0002 0000 0000     ................
	...
  4133a4:	c000 000f 0000 0000 0fc0 0000 0000 c000     ................
  4133b4:	000f 0000 0000 0fc0 0000 0000 c000 000f     ................
  4133c4:	0000 0000 0fc0 0000 0000 c000 000f 0000     ................
  4133d4:	0000 0fc0 0000 0000 c000 000f 0000 0000     ................
  4133e4:	0fc0 0000 0000 c000 000f 0000 0000 0fc0     ................
  4133f4:	0000 0000 c000 000f 0000 0000 0000 0000     ................
	...
  413414:	0000 0780 0000 0000 c000 000f 0000 0000     ................
  413424:	1fe0 0000 0000 e000 001f 0000 0000 1fe0     ................
  413434:	0000 0000 e000 001f 0000 0000 0fc0 0000     ................
  413444:	0000 8000 0007 0000 0000 0000 0000 0000     ................
	...
  41345c:	1000 0000 0000 0000 001e 0000 0000 1fc0     ................
  41346c:	0000 0000 f800 001f 0000 0000 1ffe 0000     ................
  41347c:	0000 ffc0 001f 0000 f800 0fff 0000 0000     ................
  41348c:	ffff 0003 0000 ffc0 007f 0000 f800 0fff     ................
  41349c:	0000 0000 ffff 0001 0000 ffe0 007f 0000     ................
  4134ac:	f000 0fff 0000 0000 fff0 0001 0000 f000     ................
  4134bc:	003f 0000 0000 0ff0 0000 0000 0000 0000     ?...............
	...
  4134d8:	ff80 0007 0000 f000 7fff 0000 0000 fffe     ................
  4134e8:	01ff 0000 ff00 ffff 0003 8000 ffff 07ff     ................
  4134f8:	0000 ffc0 ffff 000f e000 ffff 1fff 0000     ................
  413508:	7fe0 f800 001f f000 001f 3fe0 0000 0ff0     ...........?....
  413518:	c000 003f f000 0007 3f80 0000 07f0 8000     ..?......?......
  413528:	003f f000 0007 3f80 0000 07f0 8000 003f     ?......?......?.
  413538:	f000 000f 3fc0 0000 1ff0 e000 003f e000     .....?......?...
  413548:	007f 1ff8 0000 ffe0 ffff 001f c000 ffff     ................
  413558:	0fff 0000 ff80 ffff 0007 0000 ffff 03ff     ................
  413568:	0000 fe00 ffff 0001 0000 fff8 003f 0000     ............?...
  413578:	8000 07ff 0000 0000 0000 0000 0000 0000     ................
  413588:	0000 0000 0000 01fc 0000 0000 fe00 0000     ................
  413598:	0000 0000 00fe 1fc0 0000 7f00 c000 001f     ................
  4135a8:	8000 003f 1fc0 0000 ff80 ffff 001f c000     ..?.............
  4135b8:	ffff 1fff 0000 ffc0 ffff 001f e000 ffff     ................
  4135c8:	1fff 0000 ffe0 ffff 001f e000 ffff 1fff     ................
  4135d8:	0000 ffe0 ffff 001f 0000 0000 1fc0 0000     ................
  4135e8:	0000 c000 001f 0000 0000 1fc0 0000 0000     ................
	...
  413610:	0000 7800 8000 001f 0000 007e 1fc0 0000     ...x......~.....
  413620:	7f80 e000 001f c000 007f 1ff0 0000 7fc0     ................
  413630:	f800 001f e000 007f 1ffe 0000 7fe0 ff00     ................
  413640:	001f f000 801f 1fff 0000 0ff0 ffc0 001f     ................
  413650:	f000 e007 1fff 0000 07f0 fff0 001f f000     ................
  413660:	f807 1fdf 0000 07f0 cffc 001f f000 fe0f     ................
  413670:	1fc7 0000 ffe0 c3ff 001f e000 ffff 1fc1     ................
  413680:	0000 ffc0 c0ff 001f c000 7fff 1fc0 0000     ................
  413690:	ff80 c03f 001f 0000 1fff 1fc0 0000 f800     ..?.............
  4136a0:	c00f 001f 0000 0000 1fc0 0000 7000 3800     .............p.8
  4136b0:	0000 0000 007c 00f8 0000 7f00 f800 0003     ....|...........
  4136c0:	8000 007f 07f8 0000 7fc0 f800 000f e000     ................
  4136d0:	007f 1ff8 0000 7fe0 f800 001f e000 001f     ................
  4136e0:	1fe0 0000 0ff0 c0fe 003f f000 fe07 3f80     ........?......?
  4136f0:	0000 07f0 80fe 003f f000 fe07 3f80 0000     ......?......?..
  413700:	07f0 80fe 003f f000 ff0f 3fc1 0000 1fe0     ....?......?....
  413710:	e1ff 001f e000 ffff 1fff 0000 ffe0 ffff     ................
  413720:	001f c000 ffff 0fff 0000 ff80 ffff 0007     ................
  413730:	0000 efff 03ff 0000 fe00 ffc7 0001 0000     ................
  413740:	81f8 007f 0000 0000 0000 0000 0000 e000     ................
  413750:	001f 0000 0000 1ff0 0000 0000 fc00 001f     ................
  413760:	0000 0000 1ffe 0000 0000 ff00 001f 0000     ................
  413770:	c000 1fff 0000 0000 ffe0 001f 0000 f800     ................
  413780:	1fff 0000 0000 fffc 001f 0000 fe00 1fcf     ................
  413790:	0000 8000 c7ff 001f 0000 ffc0 dfc3 001f     ................
  4137a0:	e000 c0ff 1fdf 0000 7fe0 dfc0 001f e000     ................
  4137b0:	ff1f 1fff 0000 0fe0 ffff 001f e000 ff03     ................
  4137c0:	1fff 0000 01e0 ffff 001f e000 ff00 1fff     ................
  4137d0:	0000 0020 ffff 001f 0000 ff00 1fff 0000     .. .............
  4137e0:	0000 dfc0 001f 0000 c000 1fdf 0000 0000     ................
  4137f0:	dfc0 001f 0000 c000 001f 0000 0000 0000     ................
	...
  413814:	0030 0000 ffe0 f03f 0000 e000 3fff 03f0     0.....?......?..
  413824:	0000 ffe0 f03f 0007 e000 7fff 0ff8 0000     ....?...........
  413834:	ffe0 f87f 001f e000 7fff 1ff8 0000 ffe0     ................
  413844:	f07f 001f e000 3f0f 3fc0 0000 8fe0 803f     .......?.?....?.
  413854:	003f e000 3f8f 3f80 0000 8fe0 803f 003f     ?....?.?....?.?.
  413864:	e000 3f8f 3f80 0000 8fe0 c07f 003f e000     ...?.?......?...
  413874:	ff8f 1fe0 0000 0fe0 ffff 001f e000 ff0f     ................
  413884:	1fff 0000 0fe0 fffe 000f e000 fe0f 07ff     ................
  413894:	0000 0fe0 fffc 0003 e000 f00f 00ff 0000     ................
  4138a4:	0000 3fc0 0000 0000 0000 0000 0000 0000     ...?............
  4138b4:	0000 0000 0000 8000 003f 0000 0000 fff0     ........?.......
  4138c4:	0000 0000 f800 03ff 0000 0000 fffe 0007     ................
  4138d4:	0000 ff00 0fff 0000 c000 ffff 000f 0000     ................
  4138e4:	fff0 1fff 0000 f800 e0ff 001f 0000 7ffe     ................
  4138f4:	3fc0 0000 ff80 803f 003f c000 3fff 3f80     .?....?.?....?.?
  413904:	0000 ffe0 803f 003f e000 3fff 3f80 0000     ....?.?....?.?..
  413914:	bfe0 c07f 003f e000 ff8f 1fe0 0000 87e0     ....?...........
  413924:	ffff 001f e000 ff01 0fff 0000 0060 ffff     ............`...
  413934:	000f 2000 fe00 07ff 0000 0000 fffc 0003     ... ............
  413944:	0000 f000 00ff 0000 0000 3fc0 0000 0000     ...........?....
	...
  413960:	e000 00ff 0000 0000 ffe0 0000 0000 e000     ................
  413970:	00ff 0000 0000 ffe0 0000 0000 e000 00ff     ................
  413980:	1fc0 0000 ffe0 c000 001f e000 00ff 1fe0     ................
  413990:	0000 0fe0 f800 001f e000 000f 1ffe 0000     ................
  4139a0:	0fe0 ff80 001f e000 e00f 1fff 0000 0fe0     ................
  4139b0:	fff8 001f e000 fe0f 1fff 0000 8fe0 ffff     ................
  4139c0:	001f e000 ffef 1fdf 0000 ffe0 c3ff 001f     ................
  4139d0:	e000 ffff 1fc0 0000 ffe0 003f 0000 e000     ..........?.....
  4139e0:	0fff 0000 0000 ffe0 0003 0000 e000 00ff     ................
  4139f0:	0000 0000 3fe0 0000 0000 e000 000f 0000     .....?..........
	...
  413a18:	0000 007e 0000 f800 ff01 0001 0000 87fe     ..~.............
  413a28:	03ff 0000 ff00 ffdf 0007 8000 ffff 0fff     ................
  413a38:	0000 ffc0 ffff 001f e000 ffff 1fff 0000     ................
  413a48:	ffe0 e7ff 001f f000 ff1f 3fc3 0000 0ff0     ...........?....
  413a58:	81fe 003f f000 fc07 3f81 0000 07f0 81fc     ..?......?......
  413a68:	003f f000 fe0f 3f81 0000 1ff0 c3ff 003f     ?......?......?.
  413a78:	e000 ffff 1fe7 0000 ffe0 ffff 001f c000     ................
  413a88:	ffff 1fff 0000 ff80 ffff 000f 0000 dfff     ................
  413a98:	07ff 0000 fe00 ff87 0003 0000 01f8 01ff     ................
  413aa8:	0000 0000 7c00 0000 0000 0000 0000 0000     .....|..........
	...
  413ac4:	0000 f800 0003 0000 0000 0ffe 0000 0000     ................
  413ad4:	ff00 001f 0000 8000 3fff 0000 0000 ffc0     .........?......
  413ae4:	007f 0010 e000 ffff 1800 0000 ffe0 00ff     ................
  413af4:	001e e000 ff1f 1f81 0000 0ff0 e1fe 001f     ................
  413b04:	f000 fc07 1ff9 0000 07f0 fffc 001f f000     ................
  413b14:	fc07 1fff 0000 07f0 fffc 0007 f000 fe0f     ................
  413b24:	01ff 0000 1fe0 7fff 0000 e000 ffff 003f     ..............?.
  413b34:	0000 ffe0 0fff 0000 c000 ffff 0003 0000     ................
  413b44:	ff80 00ff 0000 0000 3fff 0000 0000 fe00     .........?......
  413b54:	000f 0000 0000 03f8 0000 0000 0000 0000     ................
	...
  413b70:	000e 0007 0000 1f00 0f80 0000 8000 c03f     ..............?.
  413b80:	001f 0000 3f80 1fc0 0000 8000 c03f 001f     .....?......?...
  413b90:	0000 3f80 1fc0 0000 0000 c01f 000f 0000     ...?............
  413ba0:	0e00 0700 0000 0000 0000 0000 0000 0000     ................
  413bb0:	c000 000f 0000 0000 0ffc 0000 0f00 ff80     ................
  413bc0:	001f 8000 801f 07ff 0000 1fc0 ff00 0001     ................
  413bd0:	c000 001f 007f 0000 1fc0 1e00 0000 c000     ................
  413be0:	001f 0002 0000 1f80 0000 0000 0000 000f     ................
	...
  413bfc:	3ffe 0000 0000 fe00 007f 0000 0000 7ffe     .?..............
  413c0c:	0000 0000 fe00 007f 0000 0000 7fff 0000     ................
  413c1c:	0000 ff00 007f 0000 0000 7fff 0000 0000     ................
  413c2c:	ff00 00ff 0000 0000 ffff 0000 0000 7f00     ................
  413c3c:	00fe 0000 0000 fe7f 0000 0000 7f80 00fe     ................
  413c4c:	0000 8000 fe7f 0001 0000 7f80 01fe 0000     ................
  413c5c:	8000 fc7f 0001 0000 0000 0000 0000 0000     ................
	...
  413c78:	8000 3f1f 0000 0000 1f80 003f 0000 8000     ...?......?.....
  413c88:	3f1f 0000 0000 1f80 003f 0000 8000 3f1f     .?......?......?
  413c98:	0000 0000 1f80 003f 0000 8000 3f1f 0000     ......?......?..
  413ca8:	0000 1f80 003f 0000 8000 3f1f 0000 0000     ....?......?....
  413cb8:	1f80 003f 0000 8000 3f1f 0000 0000 1f80     ..?......?......
  413cc8:	003f 0000 8000 3f1f 0000 0000 1f80 003f     ?......?......?.
  413cd8:	0000 8000 3f1f 0000 0000 1f80 003f 0000     .....?......?...
  413ce8:	8000 3f1f 0000 0000 1f80 003f 0000 8000     ...?......?.....
  413cf8:	3f1f 0000 0000 0000 0000 0000 0000 0000     .?..............
  413d08:	0000 0000 7f80 01fc 0000 8000 fe7f 0001     ................
  413d18:	0000 7f80 01fe 0000 8000 fe7f 0000 0000     ................
  413d28:	7f00 00fe 0000 0000 fe7f 0000 0000 ff00     ................
  413d38:	00ff 0000 0000 ffff 0000 0000 ff00 007f     ................
  413d48:	0000 0000 7fff 0000 0000 ff00 007f 0000     ................
  413d58:	0000 7ffe 0000 0000 fe00 007f 0000 0000     ................
  413d68:	7ffe 0000 0000 fe00 003f 0000 0000 0000     ........?.......
	...
  413d88:	0000 0038 0000 0000 3f00 0000 0000 8000     ..8......?......
  413d98:	003f 0000 0000 3fc0 0000 0000 e000 003f     ?......?......?.
  413da8:	0000 0000 3fe0 1f80 000f f000 e03f 1f9f     .....?......?...
  413db8:	0000 0ff0 dff0 001f f000 f007 1fdf 0000     ................
  413dc8:	07f0 dff8 001f f000 fc07 1fdf 0000 0ff0     ................
  413dd8:	9fff 001f f000 ffff 0f00 0000 ffe0 007f     ................
  413de8:	0000 e000 3fff 0000 0000 ffc0 001f 0000     .....?..........
  413df8:	8000 0fff 0000 0000 ff00 0007 0000 0000     ................
  413e08:	00fc 0000 0000 0000 0000 0000 0000 0000     ................
	...
  413e48:	7f80 0000 0000 f800 07ff 0000 0000 fffe     ................
  413e58:	001f 0000 ff00 3fff 0000 c000 ffff 00ff     .......?........
  413e68:	0000 ffe0 ffff 0001 f000 807f 03ff 0000     ................
  413e78:	1ff0 fe00 0003 f800 0007 07f8 0000 03fc     ................
  413e88:	f000 000f fc00 3f01 0fe0 0000 c0fe c0ff     .......?........
  413e98:	001f 7e00 ffe0 1f83 0000 f07f 87ff 003f     ...~..........?.
  413ea8:	3f00 fff8 3f07 0000 f83f 0fff 003f 3f80     .?...?..?...?..?
  413eb8:	e3f8 7f0f 8000 fc1f 1fc1 007e 1f80 80fc     ..........~.....
  413ec8:	7e1f 8000 fc1f 1f80 007e 1f80 80fc 7e1f     .~......~......~
  413ed8:	8000 fc1f 1fc1 007e 1f80 c1fc 7e1f 8000     ......~......~..
  413ee8:	f81f 0fff 007e 1f80 fffc 7f0f 0000 fc3f     ....~.........?.
  413ef8:	07ff 003f 3f00 fffc 3f07 0000 fc7f 8fff     ..?..?...?......
  413f08:	003f 7f00 fffc 1f9f 0000 fcfe 1fff 001f     ?...............
  413f18:	fe00 8000 0c1f 0000 01fc 1f80 0000 f800     ................
  413f28:	8003 001f 0000 0ff8 1fc0 0000 f000 e03f     ..............?.
  413f38:	000f 0000 ffe0 0fff 0000 c000 ffff 0007     ................
  413f48:	0000 ff80 03ff 0000 0000 fffe 0001 0000     ................
  413f58:	f800 00ff 0000 0000 1fe0 0000 0000 0000     ................
	...
  413f84:	1fc0 0000 0000 c000 001f 0000 0000 1ff0     ................
  413f94:	0000 0000 fe00 001f 0000 c000 1fff 0000     ................
  413fa4:	0000 fff8 001f 0000 ff00 1fff 0000 e000     ................
  413fb4:	ffff 001f 0000 fffc 1fdf 0000 ffc0 c7ff     ................
  413fc4:	001f e000 ffff 1fc7 0000 ffe0 c7ef 001f     ................
  413fd4:	e000 e1ff 0007 0000 3fe0 07e0 0000 e000     .........?......
  413fe4:	e00f 0007 0000 7fe0 07e0 0000 e000 e7ff     ................
  413ff4:	0007 0000 ffe0 c7ff 001f e000 ffff 1fc7     ................
  414004:	0000 ffe0 dfff 001f 8000 ffff 1fff 0000     ................
  414014:	f800 ffff 001f 0000 ffc0 1fff 0000 0000     ................
  414024:	fffc 001f 0000 e000 1fff 0000 0000 fe00     ................
  414034:	001f 0000 0000 1ff0 0000 0000 c000 001f     ................
  414044:	0000 0000 1fc0 0000 0000 0000 0000 0000     ................
	...
  414068:	0fe0 c000 001f e000 000f 1fc0 0000 0fe0     ................
  414078:	c000 001f e000 ffff 1fff 0000 ffe0 ffff     ................
  414088:	001f e000 ffff 1fff 0000 ffe0 ffff 001f     ................
  414098:	e000 ffff 1fff 0000 ffe0 ffff 001f e000     ................
  4140a8:	ffff 1fff 0000 0fe0 c0fe 001f e000 fe0f     ................
  4140b8:	1fc0 0000 0fe0 c0fe 001f e000 fe0f 1fc0     ................
  4140c8:	0000 0fe0 c0fe 001f e000 fe0f 1fc0 0000     ................
  4140d8:	0fe0 c0fe 001f e000 ff1f 1fe1 0000 ffc0     ................
  4140e8:	ffff 001f c000 ffff 0fff 0000 ffc0 ffff     ................
  4140f8:	000f 8000 ffff 07ff 0000 ff00 ffff 0003     ................
  414108:	0000 cffe 01ff 0000 f000 3f03 0000 0000     ...........?....
	...
  414124:	0000 fe00 0001 0000 c000 0fff 0000 0000     ................
  414134:	fff0 003f 0000 fc00 ffff 0000 0000 fffe     ..?.............
  414144:	01ff 0000 ff00 ffff 0003 8000 ffff 07ff     ................
  414154:	0000 ffc0 ff03 000f c000 007f 0ff8 0000     ................
  414164:	3fe0 f000 001f e000 001f 1fe0 0000 0fe0     .?..............
  414174:	c000 001f f000 000f 3fc0 0000 07f0 8000     .........?......
  414184:	003f f000 0007 3f80 0000 07f0 8000 003f     ?......?......?.
  414194:	f000 0007 3f80 0000 07f0 8000 003f f000     .....?......?...
  4141a4:	0007 3f80 0000 0ff0 c000 003f e000 000f     ...?......?.....
  4141b4:	1fe0 0000 1fe0 e000 001f e000 003f 1ff8     ............?...
  4141c4:	0000 7fc0 f800 000f 8000 007f 07f8 0000     ................
  4141d4:	7f80 f800 0007 0000 007f 03f8 0000 7f00     ................
  4141e4:	f800 0001 0000 007f 0078 0000 7f00 1800     ........x.......
  4141f4:	0000 0000 007f 0000 0000 0000 0000 0000     ................
	...
  41420c:	0fe0 c000 001f e000 000f 1fc0 0000 0fe0     ................
  41421c:	c000 001f e000 ffff 1fff 0000 ffe0 ffff     ................
  41422c:	001f e000 ffff 1fff 0000 ffe0 ffff 001f     ................
  41423c:	e000 ffff 1fff 0000 ffe0 ffff 001f e000     ................
  41424c:	ffff 1fff 0000 0fe0 c000 001f e000 000f     ................
  41425c:	1fc0 0000 0fe0 c000 001f e000 000f 1fc0     ................
  41426c:	0000 0fe0 c000 001f e000 000f 1fc0 0000     ................
  41427c:	1fe0 e000 001f c000 001f 0fe0 0000 3fc0     ...............?
  41428c:	f000 000f c000 007f 0ff8 0000 ff80 fc00     ................
  41429c:	0007 8000 03ff 07ff 0000 ff00 ffff 0003     ................
  4142ac:	0000 fffe 01ff 0000 fc00 ffff 0000 0000     ................
  4142bc:	fff8 007f 0000 f000 3fff 0000 0000 ffc0     .........?......
  4142cc:	000f 0000 0000 01fe 0000 0000 0000 0000     ................
	...
  4142f0:	0000 e000 000f 1fc0 0000 0fe0 c000 001f     ................
  414300:	e000 000f 1fc0 0000 ffe0 ffff 001f e000     ................
  414310:	ffff 1fff 0000 ffe0 ffff 001f e000 ffff     ................
  414320:	1fff 0000 ffe0 ffff 001f e000 ffff 1fff     ................
  414330:	0000 ffe0 ffff 001f e000 fc0f 1fc1 0000     ................
  414340:	0fe0 c1fc 001f e000 fc0f 1fc1 0000 0fe0     ................
  414350:	c1fc 001f e000 fc0f 1fc1 0000 0fe0 c1fc     ................
  414360:	001f e000 000f 1fc0 0000 0fe0 c000 001f     ................
  414370:	e000 00ff 1ffc 0000 ffe0 fc00 001f e000     ................
  414380:	00ff 1ffc 0000 ffe0 fc00 001f e000 00ff     ................
  414390:	1ffc 0000 ffe0 fc00 001f e000 00ff 1ffc     ................
	...
  4143bc:	0000 0fe0 c000 001f e000 000f 1fc0 0000     ................
  4143cc:	0fe0 c000 001f e000 ffff 1fff 0000 ffe0     ................
  4143dc:	ffff 001f e000 ffff 1fff 0000 ffe0 ffff     ................
  4143ec:	001f e000 ffff 1fff 0000 ffe0 ffff 001f     ................
  4143fc:	e000 ffff 1fff 0000 0fe0 c0fc 001f e000     ................
  41440c:	fc0f 1fc0 0000 0fe0 c0fc 001f e000 fc0f     ................
  41441c:	0000 0000 0fe0 00fc 0000 e000 fc0f 0000     ................
  41442c:	0000 0fe0 0000 0000 e000 01ff 0000 0000     ................
  41443c:	ffe0 0001 0000 e000 01ff 0000 0000 ffe0     ................
  41444c:	0001 0000 e000 01ff 0000 0000 ffe0 0001     ................
  41445c:	0000 e000 01ff 0000 0000 0000 0000 0000     ................
  41446c:	0000 fe00 0003 0000 c000 1fff 0000 0000     ................
  41447c:	fff0 007f 0000 fc00 ffff 0000 0000 fffe     ................
  41448c:	01ff 0000 ff00 ffff 0003 8000 ffff 07ff     ................
  41449c:	0000 ffc0 fe03 000f c000 007f 0ff8 0000     ................
  4144ac:	3fe0 f000 001f e000 001f 1fe0 0000 0ff0     .?..............
  4144bc:	c000 003f f000 000f 3fc0 0000 07f0 8000     ..?......?......
  4144cc:	003f f000 0007 3f80 0000 07f0 87f0 003f     ?......?......?.
  4144dc:	f000 f007 3f87 0000 07f0 87f0 001f f000     .....?..........
  4144ec:	f00f 1fc7 0000 1ff0 e7f0 000f e000 f03f     ..............?.
  4144fc:	07f7 0000 7fe0 fff0 0003 c000 f07f 00ff     ................
  41450c:	0000 7fc0 fff0 001f 8000 f07f 1fff 0000     ................
  41451c:	7f00 fff0 001f 0000 f07f 1fff 0000 7f00     ................
  41452c:	fff0 001f 0000 f07f 1fff 0000 7f00 fff0     ................
  41453c:	001f 0000 0000 0000 0000 0000 0000 0000     ................
	...
  414568:	e000 000f 1fc0 0000 0fe0 c000 001f e000     ................
  414578:	000f 1fc0 0000 ffe0 ffff 001f e000 ffff     ................
  414588:	1fff 0000 ffe0 ffff 001f e000 ffff 1fff     ................
  414598:	0000 ffe0 ffff 001f e000 ffff 1fff 0000     ................
  4145a8:	ffe0 ffff 001f e000 fe0f 1fc0 0000 0fe0     ................
  4145b8:	c0fe 001f e000 fe0f 1fc0 0000 0000 00fe     ................
  4145c8:	0000 0000 fe00 0000 0000 0000 00fe 0000     ................
  4145d8:	0000 fe00 0000 0000 0000 00fe 0000 0000     ................
  4145e8:	fe00 0000 0000 0000 00fe 0000 0000 fe00     ................
  4145f8:	0000 0000 0fe0 c0fe 001f e000 fe0f 1fc0     ................
  414608:	0000 0fe0 c0fe 001f e000 ffff 1fff 0000     ................
  414618:	ffe0 ffff 001f e000 ffff 1fff 0000 ffe0     ................
  414628:	ffff 001f e000 ffff 1fff 0000 ffe0 ffff     ................
  414638:	001f e000 ffff 1fff 0000 0fe0 c000 001f     ................
  414648:	e000 000f 1fc0 0000 0fe0 c000 001f 0000     ................
	...
  414680:	e000 000f 1fc0 0000 0fe0 c000 001f e000     ................
  414690:	000f 1fc0 0000 ffe0 ffff 001f e000 ffff     ................
  4146a0:	1fff 0000 ffe0 ffff 001f e000 ffff 1fff     ................
  4146b0:	0000 ffe0 ffff 001f e000 ffff 1fff 0000     ................
  4146c0:	ffe0 ffff 001f e000 000f 1fc0 0000 0fe0     ................
  4146d0:	c000 001f e000 000f 1fc0 0000 0000 0000     ................
	...
  4146ec:	0000 0200 e000 000f 8000 0003 0fe0 0000     ................
  4146fc:	03e0 e000 000f f800 0003 ffe0 ffff 03ff     ................
  41470c:	e000 ffff ffff 0003 ffe0 ffff 01ff e000     ................
  41471c:	ffff ffff 0000 ffe0 ffff 007f e000 ffff     ................
  41472c:	1fff 0000 ffe0 ffff 0007 e000 000f 0000     ................
  41473c:	0000 0fe0 0000 0000 e000 000f 0000 0000     ................
	...
  414760:	e000 000f 1fc0 0000 0fe0 c000 001f e000     ................
  414770:	000f 1fc0 0000 ffe0 ffff 001f e000 ffff     ................
  414780:	1fff 0000 ffe0 ffff 001f e000 ffff 1fff     ................
  414790:	0000 ffe0 ffff 001f e000 ffff 1fff 0000     ................
  4147a0:	ffe0 ffff 001f e000 100f 1fc0 0000 0fe0     ................
  4147b0:	c038 001f e000 7c0f 1fc0 0000 0000 00fe     8......|........
  4147c0:	0000 0000 ff00 0001 0000 0000 03ff 0000     ................
  4147d0:	0000 ff80 0007 0000 c000 1fff 0000 0000     ................
  4147e0:	ffe0 003f 0000 f000 7fef 0000 e000 c7ff     ..?.............
  4147f0:	1fff 0000 ffe0 ff83 001f e000 01ff 1fff     ................
  414800:	0000 ffe0 fe01 001f e000 00ff 1ffc 0000     ................
  414810:	7fe0 f800 001f e000 003f 1ff0 0000 1fe0     ........?.......
  414820:	e000 001f e000 001f 1fc0 0000 0fe0 c000     ................
  414830:	001f e000 000f 1fc0 0000 0000 0000 0000     ................
	...
  414854:	0000 0fe0 c000 001f e000 000f 1fc0 0000     ................
  414864:	0fe0 c000 001f e000 ffff 1fff 0000 ffe0     ................
  414874:	ffff 001f e000 ffff 1fff 0000 ffe0 ffff     ................
  414884:	001f e000 ffff 1fff 0000 ffe0 ffff 001f     ................
  414894:	e000 ffff 1fff 0000 0fe0 c000 001f e000     ................
  4148a4:	000f 1fc0 0000 0fe0 c000 001f 0000 0000     ................
  4148b4:	1fc0 0000 0000 c000 001f 0000 0000 1fc0     ................
  4148c4:	0000 0000 c000 001f 0000 0000 1ffe 0000     ................
  4148d4:	0000 fe00 001f 0000 0000 1ffe 0000 0000     ................
  4148e4:	fe00 001f 0000 0000 1ffe 0000 0000 fe00     ................
  4148f4:	001f 0000 0000 1ffe 0000 0000 0000 0000     ................
	...
  414910:	0000 e000 000f 1fc0 0000 0fe0 c000 001f     ................
  414920:	e000 000f 1fc0 0000 ffe0 ffff 001f e000     ................
  414930:	ffff 1fff 0000 ffe0 ffff 001f e000 ffff     ................
  414940:	1fff 0000 ffe0 ffff 001f e000 ffff 1fff     ................
  414950:	0000 ffe0 ffff 001f e000 007f 1fc0 0000     ................
  414960:	ffe0 c003 001f e000 0fff 0000 0000 ffe0     ................
  414970:	007f 0000 8000 ffff 0001 0000 fc00 0fff     ................
  414980:	0000 0000 fff0 003f 0000 8000 ffff 0001     ......?.........
  414990:	0000 fe00 07ff 0000 0000 fff0 001f 0000     ................
  4149a0:	c000 1fff 0000 0000 fe00 001f 0000 0000     ................
  4149b0:	1ff8 0000 0000 fc00 001f 0000 0000 1fff     ................
  4149c0:	0000 0000 ffe0 001f 0000 f800 07ff 0000     ................
  4149d0:	0000 ffff 0000 0000 ffe0 003f 0000 f800     ..........?.....
  4149e0:	07ff 0000 0000 ffff 0001 0000 ffc0 003f     ..............?.
  4149f0:	0000 e000 07ff 0000 0000 ffe0 c001 001f     ................
  414a00:	e000 003f 1fc0 0000 ffe0 ffff 001f e000     ..?.............
  414a10:	ffff 1fff 0000 ffe0 ffff 001f e000 ffff     ................
  414a20:	1fff 0000 ffe0 ffff 001f e000 ffff 1fff     ................
  414a30:	0000 ffe0 ffff 001f e000 000f 1fc0 0000     ................
  414a40:	0fe0 c000 001f e000 000f 1fc0 0000 0000     ................
	...
  414a68:	0000 0fe0 c000 001f e000 000f 1fc0 0000     ................
  414a78:	0fe0 c000 001f e000 ffff 1fff 0000 ffe0     ................
  414a88:	ffff 001f e000 ffff 1fff 0000 ffe0 ffff     ................
  414a98:	001f e000 ffff 1fff 0000 ffe0 ffff 001f     ................
  414aa8:	e000 ffff 1fff 0000 ffe0 c001 001f e000     ................
  414ab8:	03ff 1fc0 0000 ff80 c00f 001f 0000 3ffe     ...............?
  414ac8:	0000 0000 fc00 007f 0000 0000 fff0 0001     ................
  414ad8:	0000 c000 07ff 0000 0000 ff80 000f 0000     ................
  414ae8:	0000 3ffe 0000 0000 fc00 007f 0000 0fe0     ...?............
  414af8:	fff0 0001 e000 c00f 07ff 0000 0fe0 ff80     ................
  414b08:	000f e000 ffff 1fff 0000 ffe0 ffff 001f     ................
  414b18:	e000 ffff 1fff 0000 ffe0 ffff 001f e000     ................
  414b28:	ffff 1fff 0000 ffe0 ffff 001f e000 ffff     ................
  414b38:	1fff 0000 0fe0 0000 0000 e000 000f 0000     ................
  414b48:	0000 0fe0 0000 0000 0000 0000 0000 0000     ................
	...
  414b60:	fe00 0001 0000 c000 0fff 0000 0000 fff0     ................
  414b70:	003f 0000 fc00 ffff 0000 0000 fffe 01ff     ?...............
  414b80:	0000 ff00 ffff 0003 8000 ffff 07ff 0000     ................
  414b90:	ffc0 ff03 000f c000 007f 0ff8 0000 3fe0     ...............?
  414ba0:	f000 001f e000 001f 1fe0 0000 0fe0 c000     ................
  414bb0:	001f f000 000f 3fc0 0000 07f0 8000 003f     .......?......?.
  414bc0:	f000 0007 3f80 0000 07f0 8000 003f f000     .....?......?...
  414bd0:	0007 3f80 0000 07f0 8000 003f f000 000f     ...?......?.....
  414be0:	3fc0 0000 0fe0 c000 001f e000 001f 1fe0     .?..............
  414bf0:	0000 3fe0 f000 001f c000 007f 0ff8 0000     ...?............
  414c00:	ffc0 fe03 000f 8000 ffff 07ff 0000 ff00     ................
  414c10:	ffff 0003 0000 fffe 01ff 0000 fc00 ffff     ................
  414c20:	0000 0000 fff0 003f 0000 c000 0fff 0000     ......?.........
  414c30:	0000 fe00 0001 0000 0000 0000 0000 0000     ................
	...
  414c58:	0000 e000 000f 1fc0 0000 0fe0 c000 001f     ................
  414c68:	e000 000f 1fc0 0000 ffe0 ffff 001f e000     ................
  414c78:	ffff 1fff 0000 ffe0 ffff 001f e000 ffff     ................
  414c88:	1fff 0000 ffe0 ffff 001f e000 ffff 1fff     ................
  414c98:	0000 ffe0 ffff 001f e000 fc0f 1fc1 0000     ................
  414ca8:	0fe0 c1fc 001f e000 fc0f 1fc1 0000 0fe0     ................
  414cb8:	01fc 0000 e000 fc0f 0001 0000 0fe0 01fc     ................
  414cc8:	0000 e000 fe1f 0001 0000 3fe0 01fe 0000     ...........?....
  414cd8:	c000 ffff 0000 0000 ffc0 00ff 0000 8000     ................
  414ce8:	7fff 0000 0000 ff80 007f 0000 0000 3fff     ...............?
  414cf8:	0000 0000 fc00 000f 0000 0000 03f0 0000     ................
	...
  414d18:	0000 01ff 0000 0000 ffe0 000f 0000 f000     ................
  414d28:	3fff 0000 0000 fffc 007f 0000 fe00 ffff     .?..............
  414d38:	0000 0000 ffff 01ff 0000 ff80 ffff 0003     ................
  414d48:	c000 01ff 07ff 0000 7fc0 fc00 000f e000     ................
  414d58:	003f 0ff8 0000 1fe0 f000 000f e000 000f     ?...............
  414d68:	1fe0 0000 0ff0 e000 0f1f f000 0007 ffc0     ................
  414d78:	0007 07f0 c000 07ff f000 0007 ffc0 0007     ................
  414d88:	07f0 c000 0fff f000 0007 ffc0 000f 0ff0     ................
  414d98:	e000 1fff e000 000f dfe0 001f 1fe0 f000     ................
  414da8:	3f8f e000 003f 8ff8 003f 7fc0 fc00 7f0f     .?..?...?.......
  414db8:	c000 01ff 07ff 007f ff80 ffff 7f03 0000     ................
  414dc8:	ffff 81ff 007f fe00 ffff 7f80 0000 fffc     ................
  414dd8:	e07f 003f f000 3fff 1fc0 0000 ffe0 c00f     ..?....?........
  414de8:	001f 0000 01ff 0780 0000 0000 8000 0001     ................
	...
  414e14:	0fe0 c000 001f e000 000f 1fc0 0000 0fe0     ................
  414e24:	c000 001f e000 ffff 1fff 0000 ffe0 ffff     ................
  414e34:	001f e000 ffff 1fff 0000 ffe0 ffff 001f     ................
  414e44:	e000 ffff 1fff 0000 ffe0 ffff 001f e000     ................
  414e54:	ffff 1fff 0000 0fe0 c3f8 001f e000 f80f     ................
  414e64:	1fc3 0000 0fe0 c3f8 001f e000 f80f 0003     ................
  414e74:	0000 0fe0 03f8 0000 e000 f80f 0007 0000     ................
  414e84:	0fe0 1ff8 0000 e000 fc1f 03ff 0000 3fe0     ...............?
  414e94:	fffe 001f e000 ffff 1fff 0000 ffc0 ffff     ................
  414ea4:	001f c000 7fff 1fff 0000 ff80 ff3f 001f     ............?...
  414eb4:	0000 1fff 1ffc 0000 fe00 f00f 001f 0000     ................
  414ec4:	03f8 1fc0 0000 0000 c000 001f 0000 0000     ................
  414ed4:	1fc0 0000 0000 0000 0000 0000 0000 0000     ................
  414ee4:	0000 0000 fc00 0000 0000 01fc 00fc 0000     ................
  414ef4:	ff00 fc07 0001 8000 0fff 03fc 0000 ffc0     ................
  414f04:	fc1f 0007 c000 3fff 0ffc 0000 ffe0 fc3f     .......?......?.
  414f14:	001f e000 7fff 1fe0 0000 8ff0 c07f 001f     ................
  414f24:	f000 7f0f 3fc0 0000 07f0 80fe 003f f000     .....?......?...
  414f34:	fe07 3f80 0000 07f0 80fe 003f f000 fc07     ...?......?.....
  414f44:	3f81 0000 07f0 81fc 003f f000 fc0f 3fc1     .?......?......?
  414f54:	0000 1fe0 c3fc 001f e000 f8ff 1fff 0000     ................
  414f64:	ffc0 fff8 001f c000 f0ff 0fff 0000 ff80     ................
  414f74:	fff0 0007 0000 e0ff 03ff 0000 fc00 ffc0     ................
  414f84:	0001 0000 00fc 007f 0000 0000 0000 0000     ................
  414f94:	e000 007f 0000 0000 7fe0 0000 0000 e000     ................
  414fa4:	007f 0000 0000 7fe0 0000 0000 e000 007f     ................
  414fb4:	0000 0000 7fe0 0000 0000 e000 007f 0000     ................
  414fc4:	0000 0fe0 0000 0000 e000 000f 1fc0 0000     ................
  414fd4:	0fe0 c000 001f e000 000f 1fc0 0000 ffe0     ................
  414fe4:	ffff 001f e000 ffff 1fff 0000 ffe0 ffff     ................
  414ff4:	001f e000 ffff 1fff 0000 ffe0 ffff 001f     ................
  415004:	e000 ffff 1fff 0000 ffe0 ffff 001f e000     ................
  415014:	000f 1fc0 0000 0fe0 c000 001f e000 000f     ................
  415024:	1fc0 0000 0fe0 0000 0000 e000 007f 0000     ................
  415034:	0000 7fe0 0000 0000 e000 007f 0000 0000     ................
  415044:	7fe0 0000 0000 e000 007f 0000 0000 7fe0     ................
  415054:	0000 0000 e000 007f 0000 0000 0000 0000     ................
	...
  41506c:	0000 0fe0 0000 0000 e000 000f 0000 0000     ................
  41507c:	0fe0 0000 0000 e000 ffff 001f 0000 ffe0     ................
  41508c:	7fff 0000 e000 ffff 01ff 0000 ffe0 ffff     ................
  41509c:	0003 e000 ffff 07ff 0000 ffe0 ffff 000f     ................
  4150ac:	e000 ffff 1fff 0000 0fe0 f000 001f e000     ................
  4150bc:	000f 1fe0 0000 0fe0 c000 003f 0000 0000     ..........?.....
  4150cc:	3f80 0000 0000 8000 003f 0000 0000 3f80     .?......?......?
  4150dc:	0000 0000 8000 003f 0000 0000 3f80 0000     ......?......?..
  4150ec:	0fe0 c000 003f e000 000f 1fc0 0000 0fe0     ....?...........
  4150fc:	f000 001f e000 ffff 1fff 0000 ffe0 ffff     ................
  41510c:	000f e000 ffff 07ff 0000 ffe0 ffff 0003     ................
  41511c:	e000 ffff 01ff 0000 ffe0 7fff 0000 e000     ................
  41512c:	ffff 001f 0000 0fe0 0000 0000 e000 000f     ................
  41513c:	0000 0000 0fe0 0000 0000 0000 0000 0000     ................
  41514c:	0000 0fe0 0000 0000 e000 000f 0000 0000     ................
  41515c:	0fe0 0000 0000 e000 003f 0000 0000 ffe0     ........?.......
  41516c:	0001 0000 e000 0fff 0000 0000 ffe0 007f     ................
  41517c:	0000 e000 ffff 0003 0000 ffe0 1fff 0000     ................
  41518c:	e000 ffff 00ff 0000 ffe0 ffff 0007 e000     ................
  41519c:	ff0f 1fff 0000 0fe0 fff8 001f e000 c00f     ................
  4151ac:	1fff 0000 0000 fe00 001f 0000 0000 1ff0     ................
  4151bc:	0000 0000 f000 001f 0000 0000 1ffe 0000     ................
  4151cc:	0fe0 ffc0 001f e000 f80f 1fff 0000 0fe0     ................
  4151dc:	ffff 001f e000 ffff 07ff 0000 ffe0 ffff     ................
  4151ec:	0000 e000 ffff 001f 0000 ffe0 03ff 0000     ................
  4151fc:	e000 7fff 0000 0000 ffe0 000f 0000 e000     ................
  41520c:	01ff 0000 0000 3fe0 0000 0000 e000 000f     .......?........
  41521c:	0000 0000 0fe0 0000 0000 e000 000f 0000     ................
	...
  415234:	e000 000f 0000 0000 0fe0 0000 0000 e000     ................
  415244:	000f 0000 0000 3fe0 0000 0000 e000 03ff     .......?........
  415254:	0000 0000 ffe0 003f 0000 e000 ffff 0003     ......?.........
  415264:	0000 ffe0 3fff 0000 e000 ffff 03ff 0000     .....?..........
  415274:	ffe0 ffff 001f e000 ffef 1fff 0000 0fe0     ................
  415284:	fffe 001f e000 e00f 1fff 0000 0fe0 fe00     ................
  415294:	001f 0000 0000 1ff8 0000 0000 ff80 001f     ................
  4152a4:	0000 f800 1fff 0000 8000 ffff 001f 0000     ................
  4152b4:	fffc 1fff 0000 ffc0 ffff 000f e000 ffff     ................
  4152c4:	00ff 0000 ffe0 0fff 0000 e000 7fff 0000     ................
  4152d4:	0000 ffe0 0007 0000 e000 07ff 0000 0000     ................
  4152e4:	ffe0 007f 0000 e000 ffff 0007 0000 ffe0     ................
  4152f4:	7fff 0000 e000 ffff 0fff 0000 fc00 ffff     ................
  415304:	001f 0000 ffc0 1fff 0000 0000 fffc 001f     ................
  415314:	0000 c000 1fff 0000 0000 f800 001f e000     ................
  415324:	000f 1ffc 0000 0fe0 ffe0 001f e000 fe0f     ................
  415334:	1fff 0000 efe0 ffff 001f e000 ffff 1fff     ................
  415344:	0000 ffe0 ffff 0007 e000 ffff 007f 0000     ................
  415354:	ffe0 03ff 0000 e000 3fff 0000 0000 ffe0     .........?......
  415364:	0003 0000 e000 003f 0000 0000 0fe0 0000     ......?.........
  415374:	0000 e000 000f 0000 0000 0fe0 0000 0000     ................
	...
  41538c:	07e0 8000 001f e000 000f 1fc0 0000 1fe0     ................
  41539c:	e000 001f e000 003f 1ff0 0000 7fe0 f800     ......?.........
  4153ac:	001f e000 00ff 1ffc 0000 ffe0 fe01 001f     ................
  4153bc:	e000 03ff 1fff 0000 ffe0 ff87 001f e000     ................
  4153cc:	cfff 1fff 0000 ffe0 ffff 001f e000 fff7     ................
  4153dc:	1fbf 0000 e7e0 9fff 001f e000 ff87 000f     ................
  4153ec:	0000 0000 03ff 0000 0000 ff00 0003 0000     ................
  4153fc:	8000 07ff 0000 e000 ffc7 1f8f 0000 e7e0     ................
  41540c:	9fff 001f e000 fff7 1fbf 0000 ffe0 ffcf     ................
  41541c:	001f e000 87ff 1fff 0000 ffe0 ff03 001f     ................
  41542c:	e000 01ff 1ffe 0000 ffe0 fc00 001f e000     ................
  41543c:	007f 1ff8 0000 3fe0 f000 001f e000 001f     .......?........
  41544c:	1fe0 0000 0fe0 c000 001f e000 0007 1f80     ................
	...
  415470:	0000 e000 000f 0000 0000 0fe0 0000 0000     ................
  415480:	e000 000f 0000 0000 1fe0 0000 0000 e000     ................
  415490:	003f 0000 0000 7fe0 0000 0000 e000 01ff     ?...............
  4154a0:	0000 0000 ffe0 0003 0000 e000 07ff 0000     ................
  4154b0:	0000 ffe0 c00f 001f e000 3fff 1fc0 0000     ...........?....
  4154c0:	ffe0 c07f 001f e000 ffcf 1fff 0000 8fe0     ................
  4154d0:	ffff 001f 0000 fe00 1fff 0000 0000 fffc     ................
  4154e0:	001f e000 ff0f 1fff 0000 8fe0 ffff 001f     ................
  4154f0:	e000 ffef 1fff 0000 ffe0 c0ff 001f e000     ................
  415500:	3fff 1fc0 0000 ffe0 c01f 001f e000 07ff     .?..............
  415510:	0000 0000 ffe0 0003 0000 e000 01ff 0000     ................
  415520:	0000 7fe0 0000 0000 e000 003f 0000 0000     ..........?.....
  415530:	1fe0 0000 0000 e000 000f 0000 0000 0fe0     ................
	...
  415550:	0000 e000 00ff 1fe0 0000 ffe0 f000 001f     ................
  415560:	e000 00ff 1ff8 0000 ffe0 fc00 001f e000     ................
  415570:	00ff 1ffe 0000 ffe0 ff80 001f e000 c0ff     ................
  415580:	1fff 0000 07e0 ffe0 001f e000 f007 1fff     ................
  415590:	0000 07e0 dff8 001f e000 fc07 1fcf 0000     ................
  4155a0:	07e0 87ff 001f e000 ff87 1f83 0000 c7e0     ................
  4155b0:	80ff 001f e000 7fe7 1f80 0000 f7e0 803f     ..............?.
  4155c0:	001f e000 1fff 1f80 0000 ffe0 fc0f 001f     ................
  4155d0:	e000 03ff 1ffc 0000 ffe0 fc01 001f e000     ................
  4155e0:	00ff 1ffc 0000 7fe0 fc00 001f e000 003f     ..............?.
  4155f0:	1ffc 0000 1fe0 fc00 001f 0000 0000 0000     ................
	...
  415614:	0000 f800 ffff ffff 00ff fff8 ffff ffff     ................
  415624:	f800 ffff ffff 00ff fff8 ffff ffff f800     ................
  415634:	ffff ffff 00ff fff8 ffff ffff f800 ffff     ................
  415644:	ffff 00ff 03f8 0000 fe00 f800 0003 0000     ................
  415654:	00fe 03f8 0000 fe00 0000 0000 0000 0000     ................
	...
  41566c:	0001 0000 0000 0f00 0000 0000 0000 007f     ................
  41567c:	0000 0000 ff00 0003 0000 0000 1fff 0000     ................
  41568c:	0000 ff00 00ff 0000 0000 ffff 0007 0000     ................
  41569c:	f800 3fff 0000 0000 ffc0 01ff 0000 0000     ...?............
  4156ac:	fffe 000f 0000 f000 7fff 0000 0000 ff80     ................
  4156bc:	03ff 0000 0000 fffc 0007 0000 e000 07ff     ................
  4156cc:	0000 0000 ff00 0007 0000 0000 07f8 0000     ................
	...
  4156f0:	03f8 0000 fe00 f800 0003 0000 00fe 03f8     ................
  415700:	0000 fe00 f800 ffff ffff 00ff fff8 ffff     ................
  415710:	ffff f800 ffff ffff 00ff fff8 ffff ffff     ................
  415720:	f800 ffff ffff 00ff fff8 ffff ffff f800     ................
  415730:	ffff ffff 00ff 0000 0000 0000 0000 0000     ................
	...
  41574c:	2000 0000 0000 0000 0038 0000 0000 3e00     . ......8......>
  41575c:	0000 0000 8000 003f 0000 0000 3fe0 0000     ......?......?..
  41576c:	0000 f800 003f 0000 0000 0ffc 0000 0000     ....?...........
  41577c:	ff00 0003 0000 c000 00ff 0000 0000 3fe0     ...............?
  41578c:	0000 0000 e000 000f 0000 0000 07e0 0000     ................
  41579c:	0000 e000 000f 0000 0000 3fe0 0000 0000     ...........?....
  4157ac:	c000 007f 0000 0000 ff00 0001 0000 0000     ................
  4157bc:	07fc 0000 0000 f800 000f 0000 0000 3fe0     ...............?
  4157cc:	0000 0000 8000 003f 0000 0000 3f00 0000     ......?......?..
  4157dc:	0000 0000 003c 0000 0000 3000 0000 0000     ....<......0....
  4157ec:	0000 0020 0000 0000 0000 0000 0000 0000     .. .............
  4157fc:	0000 1f80 0000 0000 8000 001f 0000 0000     ................
  41580c:	1f80 0000 0000 8000 001f 0000 0000 1f80     ................
  41581c:	0000 0000 8000 001f 0000 0000 1f80 0000     ................
  41582c:	0000 8000 001f 0000 0000 1f80 0000 0000     ................
  41583c:	8000 001f 0000 0000 1f80 0000 0000 8000     ................
  41584c:	001f 0000 0000 1f80 0000 0000 8000 001f     ................
  41585c:	0000 0000 1f80 0000 0000 8000 001f 0000     ................
  41586c:	0000 1f80 0000 0000 8000 001f 0000 0000     ................
  41587c:	1f80 0000 0000 8000 001f 0000 0000 1f80     ................
  41588c:	0000 0000 8000 001f 0000 0000 0000 0000     ................
	...
  4158b0:	0020 0000 0000 6000 0000 0000 0000 00e0      ......`........
  4158c0:	0000 0000 e000 0001 0000 0000 03e0 0000     ................
  4158d0:	0000 e000 0007 0000 0000 0fe0 0000 0000     ................
  4158e0:	c000 000f 0000 0000 0f00 0000 0000 0000     ................
  4158f0:	000e 0000 0000 0800 0000 0000 0000 0000     ................
	...
  41591c:	00f8 0000 0000 fe07 0003 0000 1f00 07ff     ................
  41592c:	0000 8000 ff9f 000f 0000 8f80 0fff 0000     ................
  41593c:	8000 ffcf 001f 0000 cfc0 1fcf 0000 c000     ................
  41594c:	87cf 001f 0000 cfc0 1f87 0000 c000 87cf     ................
  41595c:	001f 0000 cfc0 1f87 0000 c000 c7cf 001f     ................
  41596c:	0000 dfc0 0fe7 0000 c000 ffff 001f 0000     ................
  41597c:	ff80 1fff 0000 8000 ffff 001f 0000 ff00     ................
  41598c:	1fff 0000 0000 fffe 001f 0000 f800 1fff     ................
  41599c:	0000 0000 c000 001f 0000 0000 1fc0 0000     ................
  4159ac:	0000 c000 001f 0000 0000 0000 0000 0000     ................
	...
  4159cc:	0000 f000 0007 0000 0000 07f0 0000 0000     ................
  4159dc:	f000 0007 0000 0000 fff0 ffff 001f f000     ................
  4159ec:	ffff 1fff 0000 fff0 ffff 001f f000 ffff     ................
  4159fc:	1fff 0000 fff0 ffff 001f f000 ffff 1fff     ................
  415a0c:	0000 fff0 ffff 001f 0000 3f80 1fe0 0000     ...........?....
  415a1c:	8000 c01f 001f 0000 0fc0 1f80 0000 c000     ................
  415a2c:	800f 001f 0000 0fc0 1f80 0000 c000 800f     ................
  415a3c:	001f 0000 1fc0 1fc0 0000 c000 c01f 001f     ................
  415a4c:	0000 7f80 0ff0 0000 8000 ffff 000f 0000     ................
  415a5c:	ff00 07ff 0000 0000 fffe 0003 0000 fc00     ................
  415a6c:	01ff 0000 0000 fff0 0000 0000 c000 001f     ................
	...
  415a94:	c000 001f 0000 0000 7ff8 0000 0000 fc00     ................
  415aa4:	01ff 0000 0000 fffe 0003 0000 ff00 07ff     ................
  415ab4:	0000 8000 ffff 0007 0000 7f80 0ff0 0000     ................
  415ac4:	8000 c01f 000f 0000 1fc0 1fc0 0000 c000     ................
  415ad4:	800f 001f 0000 0fc0 1f80 0000 c000 800f     ................
  415ae4:	001f 0000 0fc0 1f80 0000 c000 c01f 001f     ................
  415af4:	0000 3fc0 1fe0 0000 8000 f03f 000f 0000     ...?......?.....
  415b04:	3f80 0ff0 0000 0000 f03f 0007 0000 3f00     .?......?......?
  415b14:	03f0 0000 0000 e03f 0003 0000 3f00 00e0     ......?......?..
  415b24:	0000 0000 603f 0000 0000 0000 0000 0000     ....?`..........
	...
  415b44:	1fc0 0000 0000 f800 00ff 0000 0000 fffc     ................
  415b54:	0001 0000 fe00 03ff 0000 0000 ffff 0007     ................
  415b64:	0000 ff80 0fff 0000 8000 f07f 000f 0000     ................
  415b74:	1fc0 1fc0 0000 c000 c01f 001f 0000 0fc0     ................
  415b84:	1f80 0000 c000 800f 001f 0000 0fc0 1f80     ................
  415b94:	0000 c7f0 800f 001f f000 1fc7 1fc0 0000     ................
  415ba4:	87f0 e03f 000f f000 ffff 1fff 0000 fff0     ..?.............
  415bb4:	ffff 001f f000 ffff 1fff 0000 fff0 ffff     ................
  415bc4:	001f f000 ffff 1fff 0000 fff0 ffff 001f     ................
  415bd4:	f000 ffff 1fff 0000 0000 c000 001f 0000     ................
  415be4:	0000 1fc0 0000 0000 c000 001f 0000 0000     ................
	...
  415c08:	1fc0 0000 0000 f000 007f 0000 0000 fffc     ................
  415c18:	0001 0000 fe00 03ff 0000 0000 ffff 0007     ................
  415c28:	0000 ff80 07ff 0000 8000 e7ff 000f 0000     ................
  415c38:	df80 0fc7 0000 c000 c7cf 001f 0000 cfc0     ................
  415c48:	1f87 0000 c000 87cf 001f 0000 cfc0 1f87     ................
  415c58:	0000 c000 87cf 001f 0000 cfc0 1f87 0000     ................
  415c68:	c000 87cf 001f 0000 df80 1f87 0000 8000     ................
  415c78:	c7ff 000f 0000 ff00 0fc7 0000 0000 c7fe     ................
  415c88:	0007 0000 fc00 0707 0000 0000 07f8 0000     ................
  415c98:	0000 c000 0007 0000 0000 0000 0000 0000     ................
	...
  415cbc:	8000 c03f 001f 0000 3f80 1fc0 0000 8000     ..?......?......
  415ccc:	c03f 001f 0000 fffe 1fff 0000 ff80 ffff     ?...............
  415cdc:	001f c000 ffff 1fff 0000 ffe0 ffff 001f     ................
  415cec:	e000 ffff 1fff 0000 ffe0 ffff 001f f000     ................
  415cfc:	ffff 1fff 0000 87f0 c03f 001f f000 3f83     ........?......?
  415d0c:	1fc0 0000 83f0 c03f 001f f000 3f83 0000     ......?......?..
  415d1c:	0000 03f0 0000 0000 e000 0003 0000 0000     ................
	...
  415d3c:	1fc0 0000 0000 f800 00ff 000c 0000 fffc     ................
  415d4c:	1e01 0000 fe00 03ff 001f 0000 ffff 3f07     ...............?
  415d5c:	0000 ff80 0fff 003f 8000 f07f 3f0f 0000     ......?......?..
  415d6c:	1fc0 1fc0 007e c000 c01f 7e1f 0000 0fc0     ....~......~....
  415d7c:	1f80 007e c000 800f 7e1f 0000 0fc0 1f80     ..~......~......
  415d8c:	007e c000 800f 7e1f 0000 1f80 0fc0 007f     ~......~........
  415d9c:	8000 e03f 3f8f 0000 ff80 ffff 003f 8000     ..?..?......?...
  415dac:	ffff 3fff 0000 ff80 ffff 001f 8000 ffff     ...?............
  415dbc:	0fff 0000 ff80 ffff 0007 8000 ffff 03ff     ................
  415dcc:	0000 ff80 ffff 0000 0000 0000 0000 0000     ................
	...
  415df4:	0000 f000 0007 1fc0 0000 07f0 c000 001f     ................
  415e04:	f000 0007 1fc0 0000 fff0 ffff 001f f000     ................
  415e14:	ffff 1fff 0000 fff0 ffff 001f f000 ffff     ................
  415e24:	1fff 0000 fff0 ffff 001f f000 ffff 1fff     ................
  415e34:	0000 fff0 ffff 001f 0000 3f00 1fc0 0000     ...........?....
  415e44:	8000 c01f 001f 0000 0f80 1fc0 0000 c000     ................
  415e54:	000f 0000 0000 0fc0 0000 0000 c000 003f     ..............?.
  415e64:	0000 0000 ffc0 1fff 0000 c000 ffff 001f     ................
  415e74:	0000 ffc0 1fff 0000 8000 ffff 001f 0000     ................
  415e84:	ff00 1fff 0000 0000 fffe 001f 0000 f800     ................
  415e94:	1fff 0000 0000 c000 001f 0000 0000 1fc0     ................
  415ea4:	0000 0000 c000 001f 0000 0000 0000 0000     ................
	...
  415ec0:	0000 8000 c03f 001f 0000 3f80 1fc0 0000     ....?......?....
  415ed0:	8000 c03f 001f c000 ff81 1fff 0000 83e0     ..?.............
  415ee0:	ffff 001f f000 ff87 1fff 0000 87f0 ffff     ................
  415ef0:	001f f000 ff87 1fff 0000 87f0 ffff 001f     ................
  415f00:	e000 ff83 1fff 0000 01c0 c000 001f 0000     ................
  415f10:	0000 1fc0 0000 0000 c000 001f 0000 0000     ................
	...
  415f30:	0000 8000 003f 7c00 0000 3f80 0000 007c     ....?..|...?..|.
  415f40:	8000 003f 7e00 e000 ff83 ffff 007f 83e0     ..?..~..........
  415f50:	ffff 3fff f000 ff87 ffff 003f 87f0 ffff     ...?......?.....
  415f60:	1fff f000 ff87 ffff 001f 83e0 ffff 07ff     ................
  415f70:	e000 ff83 ffff 0001 0000 0000 0000 0000     ................
	...
  415f94:	07f0 c000 001f f000 0007 1fc0 0000 07f0     ................
  415fa4:	c000 001f f000 ffff 1fff 0000 fff0 ffff     ................
  415fb4:	001f f000 ffff 1fff 0000 fff0 ffff 001f     ................
  415fc4:	f000 ffff 1fff 0000 fff0 ffff 001f f000     ................
  415fd4:	ffff 1fff 0000 0000 c780 001f 0000 8000     ................
  415fe4:	1fc7 0000 0000 c780 001f 0000 8000 000f     ................
  415ff4:	0000 0000 3fe0 0000 0000 ff80 007f 0000     .....?..........
  416004:	8000 ffff 0001 0000 ff80 07ff 0000 8000     ................
  416014:	ffff 000f 0000 ff80 1ffc 0000 8000 f07f     ................
  416024:	001f 0000 3f80 1fc0 0000 8000 803f 001f     .....?......?...
  416034:	0000 3f80 1f80 0000 8000 803f 001f 0000     ...?......?.....
	...
  416064:	0000 07f0 c000 001f f000 0007 1fc0 0000     ................
  416074:	07f0 c000 001f f000 ffff 1fff 0000 fff0     ................
  416084:	ffff 001f f000 ffff 1fff 0000 fff0 ffff     ................
  416094:	001f f000 ffff 1fff 0000 fff0 ffff 001f     ................
  4160a4:	f000 ffff 1fff 0000 0000 c000 001f 0000     ................
  4160b4:	0000 1fc0 0000 0000 c000 001f 0000 0000     ................
	...
  4160dc:	0000 3f80 1fc0 0000 8000 c03f 001f 0000     ...?......?.....
  4160ec:	3f80 1fc0 0000 8000 ffff 001f 0000 ff80     .?..............
  4160fc:	1fff 0000 8000 ffff 001f 0000 ff80 1fff     ................
  41610c:	0000 8000 ffff 001f 0000 ff80 1fff 0000     ................
  41611c:	8000 ffff 001f 0000 3f00 1fc0 0000 0000     .........?......
  41612c:	c01f 001f 0000 0f80 1fc0 0000 8000 000f     ................
  41613c:	0000 0000 0fc0 0000 0000 c000 001f 0000     ................
  41614c:	0000 3fc0 0000 0000 c000 ffff 001f 0000     ...?............
  41615c:	ffc0 1fff 0000 8000 ffff 001f 0000 ff80     ................
  41616c:	1fff 0000 0000 ffff 001f 0000 fe00 1fff     ................
  41617c:	0000 0000 fffe 001f 0000 3f00 1fc0 0000     ...........?....
  41618c:	8000 c01f 001f 0000 0f80 1fc0 0000 c000     ................
  41619c:	000f 0000 0000 0fc0 0000 0000 c000 000f     ................
  4161ac:	0000 0000 3fc0 0000 0000 c000 ffff 001f     .....?..........
  4161bc:	0000 ffc0 1fff 0000 8000 ffff 001f 0000     ................
  4161cc:	ff80 1fff 0000 0000 ffff 001f 0000 fe00     ................
  4161dc:	1fff 0000 0000 fff8 001f 0000 0000 1fc0     ................
  4161ec:	0000 0000 c000 001f 0000 0000 1fc0 0000     ................
	...
  416218:	8000 c03f 001f 0000 3f80 1fc0 0000 8000     ..?......?......
  416228:	c03f 001f 0000 ff80 1fff 0000 8000 ffff     ?...............
  416238:	001f 0000 ff80 1fff 0000 8000 ffff 001f     ................
  416248:	0000 ff80 1fff 0000 8000 ffff 001f 0000     ................
  416258:	ff80 1fff 0000 0000 c03f 001f 0000 1f00     ........?.......
  416268:	1fc0 0000 8000 c00f 001f 0000 0f80 0000     ................
  416278:	0000 c000 000f 0000 0000 0fc0 0000 0000     ................
  416288:	c000 003f 0000 0000 ffc0 1fff 0000 c000     ..?.............
  416298:	ffff 001f 0000 ff80 1fff 0000 8000 ffff     ................
  4162a8:	001f 0000 ff00 1fff 0000 0000 fffe 001f     ................
  4162b8:	0000 f800 1fff 0000 0000 c000 001f 0000     ................
  4162c8:	0000 1fc0 0000 0000 c000 001f 0000 0000     ................
	...
  4162f0:	0000 c000 001f 0000 0000 7ff0 0000 0000     ................
  416300:	fc00 01ff 0000 0000 fffe 0003 0000 ff00     ................
  416310:	07ff 0000 0000 ffff 0007 0000 7f80 0ff0     ................
  416320:	0000 8000 e03f 000f 0000 1fc0 1fc0 0000     ....?...........
  416330:	c000 800f 001f 0000 0fc0 1f80 0000 c000     ................
  416340:	800f 001f 0000 0fc0 1f80 0000 c000 800f     ................
  416350:	001f 0000 1fc0 1fc0 0000 8000 e03f 000f     ............?...
  416360:	0000 7f80 0ff0 0000 0000 ffff 0007 0000     ................
  416370:	ff00 07ff 0000 0000 fffe 0003 0000 fc00     ................
  416380:	01ff 0000 0000 7ff0 0000 0000 c000 001f     ................
	...
  4163a8:	3f80 0000 007f 8000 003f 7f00 0000 3f80     .?......?......?
  4163b8:	0000 007f 8000 ffff 7fff 0000 ff80 ffff     ................
  4163c8:	007f 8000 ffff 7fff 0000 ff80 ffff 007f     ................
  4163d8:	8000 ffff 7fff 0000 ff80 ffff 007f 8000     ................
  4163e8:	ffff 7fff 0000 3f80 0fe0 007f 8000 c01f     .......?........
  4163f8:	7f1f 0000 0f80 1f80 007f c000 800f 001f     ................
  416408:	0000 0fc0 1f80 0000 c000 800f 001f 0000     ................
  416418:	0fc0 1f80 0000 c000 c01f 001f 0000 3f80     ...............?
  416428:	0fe0 0000 8000 f07f 000f 0000 ff80 0fff     ................
  416438:	0000 0000 ffff 0007 0000 fe00 03ff 0000     ................
  416448:	0000 fffc 0001 0000 f000 007f 0000 0000     ................
  416458:	1fc0 0000 0000 0000 0000 0000 0000 0000     ................
  416468:	0000 0000 c000 001f 0000 0000 7ff0 0000     ................
  416478:	0000 fc00 01ff 0000 0000 fffe 0003 0000     ................
  416488:	ff00 07ff 0000 0000 ffff 0007 0000 7f80     ................
  416498:	0ff0 0000 8000 e03f 000f 0000 1fc0 1fc0     ......?.........
  4164a8:	0000 c000 800f 001f 0000 0fc0 1f80 0000     ................
  4164b8:	c000 800f 001f 0000 0fc0 1f80 0000 c000     ................
  4164c8:	800f 7f1f 0000 1fc0 0fc0 007f 8000 e03f     ..............?.
  4164d8:	7f0f 0000 ffc0 ffff 007f c000 ffff 7fff     ................
  4164e8:	0000 ffc0 ffff 007f c000 ffff 7fff 0000     ................
  4164f8:	ffc0 ffff 007f c000 ffff 7fff 0000 ffc0     ................
  416508:	ffff 007f 0000 0000 7f00 0000 0000 0000     ................
  416518:	007f 0000 0000 7f00 0000 0000 0000 0000     ................
	...
  416534:	0000 8000 c03f 001f 0000 3f80 1fc0 0000     ....?......?....
  416544:	8000 c03f 001f 0000 ff80 1fff 0000 8000     ..?.............
  416554:	ffff 001f 0000 ff80 1fff 0000 8000 ffff     ................
  416564:	001f 0000 ff80 1fff 0000 8000 ffff 001f     ................
  416574:	0000 ff00 1fff 0000 0000 c03f 001f 0000     ..........?.....
  416584:	1f80 1fc0 0000 8000 c07f 001f 0000 7f80     ................
  416594:	0000 0000 8000 007f 0000 0000 7f80 0000     ................
  4165a4:	0000 8000 007f 0000 0000 7f80 0000 0000     ................
  4165b4:	8000 007f 0000 0000 0000 0000 0000 0000     ................
	...
  4165d0:	0000 f07c 0007 0000 fe00 07f1 0000 0000     ..|.............
  4165e0:	f1ff 0007 0000 ff80 07f3 0000 8000 f3ff     ................
  4165f0:	0007 0000 ff80 0ff7 0000 c000 c7df 000f     ................
  416600:	0000 8fc0 1fc7 0000 c000 878f 001f 0000     ................
  416610:	8fc0 1f8f 0000 c000 8f8f 001f 0000 8fc0     ................
  416620:	1f8f 0000 c000 8f1f 001f 0000 1f80 1fdf     ................
  416630:	0000 8000 ff7f 000f 0000 7f00 0fff 0000     ................
  416640:	0000 fe7f 0007 0000 7f00 07fe 0000 0000     ................
  416650:	fc7f 0003 0000 7f00 00f8 0000 0000 0000     ................
	...
  416668:	0000 8000 001f 0000 0000 1f80 0000 0000     ................
  416678:	8000 001f 0000 0000 fffc 01ff 0000 fe00     ................
  416688:	ffff 0007 0000 fffe 0fff 0000 ff00 ffff     ................
  416698:	000f 0000 ffff 1fff 0000 ff80 ffff 001f     ................
  4166a8:	8000 ffff 1fff 0000 8000 801f 001f 0000     ................
  4166b8:	1f80 1f80 0000 8000 801f 001f 0000 1f80     ................
  4166c8:	0f80 0000 0000 8000 000f 0000 0000 0000     ................
	...
  4166e8:	8000 003f 0000 0000 3f80 0000 0000 8000     ..?......?......
  4166f8:	003f 0000 0000 ff80 00ff 0000 8000 ffff     ?...............
  416708:	0003 0000 ff80 07ff 0000 8000 ffff 000f     ................
  416718:	0000 ff80 0fff 0000 8000 ffff 000f 0000     ................
  416728:	ff80 1fff 0000 0000 e000 001f 0000 0000     ................
  416738:	1fc0 0000 0000 8000 001f 0000 0000 1f80     ................
  416748:	0000 0000 8000 001f 0000 3f80 1f80 0000     ...........?....
  416758:	8000 c03f 000f 0000 3f80 0fc0 0000 8000     ..?......?......
  416768:	ffff 001f 0000 ff80 1fff 0000 8000 ffff     ................
  416778:	001f 0000 ff80 1fff 0000 8000 ffff 001f     ................
  416788:	0000 ff80 1fff 0000 8000 ffff 001f 0000     ................
  416798:	0000 1fc0 0000 0000 c000 001f 0000 0000     ................
  4167a8:	1fc0 0000 0000 0000 0000 0000 3f80 0000     .............?..
  4167b8:	0000 8000 003f 0000 0000 3f80 0000 0000     ....?......?....
  4167c8:	8000 007f 0000 0000 ff80 0003 0000 8000     ................
  4167d8:	1fff 0000 0000 ff80 007f 0000 8000 ffff     ................
  4167e8:	0003 0000 ff80 1fff 0000 8000 ffff 001f     ................
  4167f8:	0000 3f80 1ffe 0000 8000 f83f 001f 0000     ...?......?.....
  416808:	3f80 1fc0 0000 0000 e000 001f 0000 3f80     .?.............?
  416818:	1ffc 0000 8000 ffbf 001f 0000 ff80 1fff     ................
  416828:	0000 8000 ffff 000f 0000 ff80 01ff 0000     ................
  416838:	8000 3fff 0000 0000 ff80 0007 0000 8000     ...?............
  416848:	00ff 0000 0000 3f80 0000 0000 8000 003f     .......?......?.
  416858:	0000 0000 3f80 0000 0000 8000 003f 0000     .....?......?...
  416868:	0000 3f80 0000 0000 8000 003f 0000 0000     ...?......?.....
  416878:	3f80 0000 0000 8000 007f 0000 0000 ff80     .?..............
  416888:	0007 0000 8000 7fff 0000 0000 ff80 07ff     ................
  416898:	0000 8000 ffff 001f 0000 ff80 1fff 0000     ................
  4168a8:	8000 ffff 001f 0000 3f80 1ffc 0000 8000     .........?......
  4168b8:	f03f 001f 0000 3f80 1ffe 0000 0000 ffc0     ?......?........
  4168c8:	001f 0000 f800 1fff 0000 0000 ffff 0007     ................
  4168d8:	0000 ff80 00ff 0000 8000 1fff 0000 0000     ................
  4168e8:	ff80 0003 0000 8000 007f 0000 0000 ff80     ................
  4168f8:	0003 0000 8000 1fff 0000 0000 ff80 01ff     ................
  416908:	0000 0000 ffff 000f 0000 f000 1fff 0000     ................
  416918:	0000 ff80 001f 0000 0000 1ffc 0000 8000     ................
  416928:	e03f 001f 0000 3f80 1ffc 0000 8000 ffbf     ?......?........
  416938:	001f 0000 ff80 1fff 0000 8000 ffff 001f     ................
  416948:	0000 ff80 03ff 0000 8000 3fff 0000 0000     ...........?....
  416958:	ff80 0007 0000 8000 00ff 0000 0000 3f80     ...............?
  416968:	0000 0000 8000 003f 0000 0000 3f80 0000     ......?......?..
	...
  416980:	0000 3f80 1fc0 0000 8000 c03f 001f 0000     ...?......?.....
  416990:	3f80 1fc0 0000 8000 c03f 001f 0000 7f80     .?......?.......
  4169a0:	1fe0 0000 8000 f0ff 001f 0000 ff80 1ff1     ................
  4169b0:	0000 8000 fbff 001f 0000 ff80 1fff 0000     ................
  4169c0:	8000 ffff 001f 0000 ff80 1fff 0000 0000     ................
  4169d0:	3fc0 0000 0000 c000 003f 0000 0000 3fc0     .?......?......?
  4169e0:	0000 0000 c000 003f 0000 8000 ffff 001f     ......?.........
  4169f0:	0000 ff80 1fff 0000 8000 ffff 001f 0000     ................
  416a00:	ff80 1ffb 0000 8000 f1ff 001f 0000 ff80     ................
  416a10:	1ff0 0000 8000 e07f 001f 0000 3f80 1fc0     .............?..
  416a20:	0000 8000 c03f 001f 0000 3f80 1fc0 0000     ....?......?....
  416a30:	8000 c03f 001f 0000 3f80 0000 0000 8000     ..?......?......
  416a40:	003f 0000 0000 3f80 0000 0000 8000 007f     ?......?........
  416a50:	0000 0000 ff80 0003 007f 8000 0fff 7f00     ................
  416a60:	0000 ff80 003f 007f 8000 ffff 7f01 0000     ....?...........
  416a70:	ff80 87ff 007f 8000 ffff 7fff 0000 3f80     ...............?
  416a80:	fffe 007f 0000 f800 7fff 0000 0000 ffe0     ................
  416a90:	007f 0000 f000 7fff 0000 0000 fffc 007f     ................
  416aa0:	8000 ff3f 7f3f 0000 ff80 0fff 007f 8000     ..?.?...........
  416ab0:	ffff 7f03 0000 ff80 007f 0000 8000 1fff     ................
  416ac0:	0000 0000 ff80 0007 0000 8000 01ff 0000     ................
  416ad0:	0000 7f80 0000 0000 8000 003f 0000 0000     ..........?.....
  416ae0:	3f80 0000 0000 8000 003f 0000 0000 0000     .?......?.......
  416af0:	0000 0000 8000 00ff 0000 0000 ff80 1e00     ................
  416b00:	0000 8000 00ff 001f 0000 ff80 1fc0 0000     ................
  416b10:	8000 e0ff 001f 0000 1f80 1ff8 0000 8000     ................
  416b20:	fc1f 001f 0000 1f80 1fff 0000 8000 ff9f     ................
  416b30:	001f 0000 ff80 1fff 0000 8000 bfff 001f     ................
  416b40:	0000 ff80 1f9f 0000 8000 87ff 001f 0000     ................
  416b50:	ff80 1f83 0000 8000 80ff 001f 0000 7f80     ................
  416b60:	1ff8 0000 8000 f81f 001f 0000 0f80 1ff8     ................
  416b70:	0000 8000 f803 001f 0000 0000 1ff8 0000     ................
	...
  416ba4:	f000 0001 0000 0000 01f0 0000 0000 f000     ................
  416bb4:	0001 0000 0000 01f0 0000 0000 f800 0003     ................
  416bc4:	0000 fff0 ffff 01ff fc00 ffff ffff 0007     ................
  416bd4:	fffe ffff 0fff ff00 ffff ffff 001f ffff     ................
  416be4:	ffff 1fff ff00 bfff ffff 001f ffff ff1f     ................
  416bf4:	1fff ff00 0000 e000 001f 007f 0000 1fc0     ................
  416c04:	7f00 0000 c000 001f 0000 0000 0000 0000     ................
	...
  416c2c:	0000 ff00 ffff ffff 0007 ffff ffff 07ff     ................
  416c3c:	ff00 ffff ffff 0007 ffff ffff 07ff ff00     ................
  416c4c:	ffff ffff 0007 ffff ffff 07ff ff00 ffff     ................
  416c5c:	ffff 0007 0000 0000 0000 0000 0000 0000     ................
	...
  416c88:	0000 007f 0000 1fc0 7f00 0000 c000 001f     ................
  416c98:	00ff 0000 1fe0 ff00 1fff ffff 001f ffff     ................
  416ca8:	ffbf 1fff ff00 ffff ffff 001f ffff ffff     ................
  416cb8:	1fff fe00 ffff ffff 000f fffc ffff 07ff     ................
  416cc8:	f800 ffff ffff 0003 0000 03f8 0000 0000     ................
  416cd8:	f000 0001 0000 0000 01f0 0000 0000 f000     ................
  416ce8:	0001 0000 0000 01f0 0000 0000 0000 0000     ................
	...
  416d08:	0000 0380 0000 0000 e000 0003 0000 0000     ................
  416d18:	03f0 0000 0000 f800 0003 0000 0000 01f8     ................
  416d28:	0000 0000 f800 0000 0000 0000 00f8 0000     ................
  416d38:	0000 f800 0000 0000 0000 01f0 0000 0000     ................
  416d48:	f000 0001 0000 0000 03e0 0000 0000 e000     ................
  416d58:	0003 0000 0000 07c0 0000 0000 c000 0007     ................
  416d68:	0000 0000 07c0 0000 0000 c000 0007 0000     ................
  416d78:	0000 07f0 0000 0000 f000 0003 0000 0000     ................
  416d88:	01f0 0000                                   ....

00416d8c <ArvoBold_28pt_CharCount>:
  416d8c:	0d07 1c0c 2117 0718 0d0d 1612 0e09 0f09     .....!..........
  416d9c:	0f17 1415 1616 1615 1515 090a 1210 160f     ................
  416dac:	1b29 1c19 191b 1e17 0f23 1e0c 2a18 1d1f     ).......#....*..
  416dbc:	1e19 171c 1c1a 2b1c 1c1c 0c17 0c0e 1316     .......+........
  416dcc:	170e 1518 1519 170f 0e19 1a0b 270f 171b     .............'..
  416ddc:	1819 1414 190f 2217 1616 1015 100c 0010     ......."........

00416dec <ArvoBold_28pt_Table>:
	...
  416e28:	f800 00ff 003c f800 3fff 003c f800 3fff     ....<....?<....?
  416e38:	007e f800 3fff 007e f800 3fff 007e f800     ~....?~....?~...
  416e48:	3fff 003c f800 00ff 003c 0000 0000 0000     .?<.....<.......
	...
  416e68:	0000 f800 000f 0000 f800 000f 0000 f800     ................
  416e78:	000f 0000 f800 0001 0000 0000 0000 0000     ................
  416e88:	0000 0000 0000 f800 000f 0000 f800 000f     ................
  416e98:	0000 f800 000f 0000 f800 0001 0000 0000     ................
	...
  416eb0:	0003 0000 f000 0003 0000 f078 0073 0000     ..........x.s...
  416ec0:	f07e 007f 0000 fe7e 007f 0000 fffe 007f     ~.....~.........
  416ed0:	c000 ffff 007f f800 ffff 007f f800 ffff     ................
  416ee0:	001f f800 ffff 0003 f800 e1ff 0003 f800     ................
  416ef0:	f07f 0003 3800 f07e 0003 0000 f07e 0003     .....8~.....~...
  416f00:	0000 f07e 0063 0000 f07e 007f 0000 fe7e     ..~.c...~.....~.
  416f10:	007f 0000 fffe 007f c000 ffff 007f f800     ................
  416f20:	ffff 007f f800 ffff 001f f800 ffff 0003     ................
  416f30:	f800 f3ff 0003 f800 f07f 0003 3800 707e     .............8~p
  416f40:	0000 0000 007e 0000 0000 0006 0000 0000     ....~...........
	...
  416f60:	0000 e000 0007 0000 e1f0 0007 0000 e3f8     ................
  416f70:	0007 0000 e7fc 0007 0000 e7fc 000f 0000     ................
  416f80:	effe 000f 0000 8f3e 001f f800 8f3f 03ff     ......>.....?...
  416f90:	f800 1e3f 03ff f800 1e3f 03ff f800 1e3f     ..?.....?.....?.
  416fa0:	03ff f800 1e7f 03ff f800 3dff 03ff 0000     ...........=....
  416fb0:	fdfe 001f 0000 fdfc 000f 0000 f9f8 000f     ................
  416fc0:	0000 f1f8 0007 0000 e1f8 0001 0000 0000     ................
	...
  416ff8:	001f 0000 c000 007f 0000 e000 00ff 0040     ..............@.
  417008:	e000 00ff 0060 f000 01fb 0078 f000 01f1     ....`.....x.....
  417018:	007c f000 01e0 007f f000 81e0 007f f000     |...............
  417028:	e1f1 003f f000 f1fb 001f e000 fcff 0007     ..?.............
  417038:	e000 feff 0003 c000 ff7f 0000 0000 7fdf     ................
  417048:	0000 0000 dfe0 0007 0000 fff8 001f 0000     ................
  417058:	fbfc 003f 0000 f9ff 003f 8000 fc7f 007e     ..?.....?.....~.
  417068:	e000 7c3f 007c f000 3c0f 0078 f800 3c07     ..?||....<x....<
  417078:	0078 f800 7c01 007c f800 fc00 007e 3800     x....||.....~..8
  417088:	f800 003f 1800 f800 003f 0000 f000 001f     ..?.....?.......
  417098:	0000 c000 0007 0000 0000 0000 0000 0000     ................
	...
  4170b0:	0000 e000 0003 0000 f83e 000f 8000 fcff     ........>.......
  4170c0:	001f c000 fdff 003f e000 ffff 003f e000     ......?.....?...
  4170d0:	ffff 007f f000 3fff 007f f000 1fc7 007e     .......?......~.
  4170e0:	f000 1f83 007e f000 3fc7 007e f000 7fff     ....~....?~.....
  4170f0:	007e e000 7fff 007e e000 fcff 003e c000     ~.....~.....>...
  417100:	f8ff 003f 8000 f07f 001f 0000 fe1f 000f     ..?.............
  417110:	0000 fe00 001f 0000 fe00 003f 0000 fe00     ..........?.....
  417120:	007f 0000 7e00 00ff 0000 0e00 007e 0000     .....~......~...
  417130:	0000 003c 0000 0000 0000 f800 000f 0000     ..<.............
  417140:	f800 000f 0000 f800 000f 0000 f800 000f     ................
  417150:	0000 7800 0000 0000 0000 0000 0000 0000     ...x............
	...
  41716c:	ffc0 0001 0000 fffc 001f 8000 ffff 00ff     ................
  41717c:	e000 ffff 03ff f800 ffff 0fff fc00 ffff     ................
  41718c:	1fff ff00 003f 7ffe ff80 0007 ffe0 ff00     ....?...........
  41719c:	0000 7f80 3f00 0000 7e00 0e00 0000 3800     .....?...~.....8
  4171ac:	0000 0000 1000 0e00 0000 3800 3f00 0000     ...........8.?..
  4171bc:	7e00 ff00 0000 7f80 ff80 0003 fff0 ff00     .~..............
  4171cc:	003f 7ffe fc00 ffff 1fff f800 ffff 0fff     ?...............
  4171dc:	e000 ffff 03ff 8000 ffff 00ff 0000 fffc     ................
  4171ec:	001f 0000 ffc0 0001 0000 0000 0000 0000     ................
  4171fc:	0000 0000 8000 0001 0000 e000 0003 0000     ................
  41720c:	e000 0063 0000 c000 00f3 0000 c000 00ff     ..c.............
  41721c:	0000 c000 00ff 0000 fc00 00ff 0000 fc00     ................
  41722c:	003f 0000 fc00 003f 0000 fc00 007f 0000     ?.....?.........
  41723c:	c000 00ff 0000 c000 00ff 0000 c000 00f3     ................
  41724c:	0000 e000 0063 0000 e000 0003 0000 8000     ....c...........
  41725c:	0001 0000 0000 0000 0000 0000 0000 0000     ................
  41726c:	0000 7c00 0000 0000 7c00 0000 0000 7c00     ...|.....|.....|
  41727c:	0000 0000 7c00 0000 0000 7c00 0000 0000     .....|.....|....
  41728c:	7c00 0000 0000 7c00 0000 0000 fff8 003f     .|.....|......?.
  41729c:	0000 fff8 003f 0000 fff8 003f 0000 fff8     ....?.....?.....
  4172ac:	003f 0000 fff8 003f 0000 fff8 003f 0000     ?.....?.....?...
  4172bc:	7c00 0000 0000 7c00 0000 0000 7c00 0000     .|.....|.....|..
  4172cc:	0000 7c00 0000 0000 7c00 0000 0000 7c00     ...|.....|.....|
  4172dc:	0000 0000 7c00 0000 0000 0000 0000 0000     .....|..........
  4172ec:	0000 1800 0000 0000 1f80 0000 0000 1ff0     ................
  4172fc:	0000 0000 1ffc 0000 0000 07fc 0000 0000     ................
  41730c:	01fc 0000 0000 007c 0000 0000 0038 0000     ......|.....8...
	...
  417328:	7c00 0000 0000 7c00 0000 0000 7c00 0000     .|.....|.....|..
  417338:	0000 7c00 0000 0000 7c00 0000 0000 7c00     ...|.....|.....|
  417348:	0000 0000 7c00 0000 0000 7c00 0000 0000     .....|.....|....
  417358:	7c00 0000 0000 7c00 0000 0000 7c00 0000     .|.....|.....|..
  417368:	0000 7c00 0000 0000 0000 0000 0000 0000     ...|............
  417378:	0000 0000 0000 003c 0000 0000 003c 0000     ......<.....<...
  417388:	0000 007e 0000 0000 007e 0000 0000 007e     ..~.....~.....~.
  417398:	0000 0000 003c 0000 0000 003c 0000 0000     ....<.....<.....
	...
  4173b4:	0040 0000 0000 0078 0000 0000 007f 0000     @.....x.........
  4173c4:	e000 007f 0000 fc00 007f 0000 ff00 003f     ..............?.
  4173d4:	0000 ffe0 0007 0000 fffc 0001 8000 3fff     ...............?
  4173e4:	0000 f000 07ff 0000 f800 00ff 0000 f800     ................
  4173f4:	001f 0000 f800 0007 0000 f800 0000 0000     ................
	...
  41740c:	7fe0 0000 0000 fffc 0003 0000 ffff 0007     ................
  41741c:	8000 ffff 000f c000 ffff 001f e000 ffff     ................
  41742c:	003f e000 c01f 003f f000 0007 007f f000     ?.....?.........
  41743c:	0003 007e f000 0003 007e f000 0003 007e     ..~.....~.....~.
  41744c:	f000 0003 007e f000 0003 007e f000 0007     ....~.....~.....
  41745c:	007f e000 c01f 003f e000 ffff 003f c000     ......?.....?...
  41746c:	ffff 001f 8000 ffff 000f 0000 ffff 0007     ................
  41747c:	0000 fffe 0001 0000 3fe0 0000 0000 0000     .........?......
	...
  417494:	0000 003f 0000 8000 001f 007e 8000 001f     ..?.......~.....
  4174a4:	007e c000 000f 007e c000 ffff 007f e000     ~.....~.........
  4174b4:	ffff 007f f000 ffff 007f f000 ffff 007f     ................
  4174c4:	f000 ffff 007f f000 ffff 007f 0000 0000     ................
  4174d4:	007e 0000 0000 007e 0000 0000 007e 0000     ~.....~.....~...
	...
  4174f4:	0000 000e 007c 8000 000f 007e c000 000f     ....|.....~.....
  417504:	007f e000 800f 007f e000 c00f 007f e000     ................
  417514:	e00f 007f f000 f007 007f f000 f803 007f     ................
  417524:	f000 fc03 007f f000 fe03 007f f000 ff03     ................
  417534:	007e f000 7f87 007e e000 3fff 007e e000     ~.....~....?~...
  417544:	1fff 007e e000 0fff 007e c000 07ff 007e     ..~.....~.....~.
  417554:	8000 03ff 007e 0000 01fe 007e 0000 0000     ....~.....~.....
  417564:	007e 0000 e01c 0001 0000 e01f 0007 8000     ~...............
  417574:	e01f 000f c000 e01f 001f e000 e01f 003f     ..............?.
  417584:	e000 e01f 003f f000 0007 007f f000 0f83     ....?...........
  417594:	007e f000 0f83 007e f000 0f83 007e f000     ~.....~.....~...
  4175a4:	0f83 007e f000 0f83 007e f000 1fc7 007f     ..~.....~.......
  4175b4:	e000 ffff 003f e000 ffff 003f c000 ffff     ....?.....?.....
  4175c4:	001f 8000 ffff 000f 0000 fcff 0007 0000     ................
  4175d4:	f87e 0001 0000 0000 0000 0000 fe00 0000     ~...............
  4175e4:	0000 ff00 0000 0000 ffc0 0000 0000 ffe0     ................
  4175f4:	0000 0000 fff0 0000 0000 fffc 0000 0000     ................
  417604:	fffe 0000 8000 ffff 0000 c000 fcff 0000     ................
  417614:	e000 fc7f 007e f000 fc1f 007e f000 fc0f     ....~.....~.....
  417624:	007e f000 ffe7 007f f000 ffe1 007f f000     ~...............
  417634:	ffe0 007f 3000 ffe0 007f 1000 ffe0 007f     .....0..........
  417644:	0000 ffe0 007f 0000 fc00 007e 0000 fc00     ..........~.....
  417654:	007e 0000 fc00 007e 0000 fc00 0000 0000     ~.....~.........
	...
  417674:	f000 c3ff 0003 f000 c7ff 000f f000 c7ff     ................
  417684:	001f f000 c7ff 003f f000 c7ff 003f f000     ......?.....?...
  417694:	83ff 007f f000 03e3 007f f000 03f3 007e     ..............~.
  4176a4:	f000 03f3 007e f000 03f3 007e f000 07f3     ....~.....~.....
  4176b4:	007f f000 8ff3 007f f000 fff3 003f f000     ............?...
  4176c4:	ffe3 003f f000 ffe3 001f f000 ffc3 000f     ..?.............
  4176d4:	f000 ff03 0007 0000 fc00 0001 0000 0000     ................
	...
  4176ec:	0000 fc00 0001 0000 ff00 0007 0000 ffc0     ................
  4176fc:	000f 0000 ffe0 001f 0000 fff8 003f 0000     ............?...
  41770c:	fffc 003f 0000 87ff 007f c000 03ff 007f     ..?.............
  41771c:	e000 03ff 007e f000 03ff 007e f000 03ff     ....~.....~.....
  41772c:	007e f000 07f7 007f f000 8ff1 003f f000     ~...........?...
  41773c:	fff0 003f 3000 ffe0 003f 1000 ffc0 001f     ..?..0..?.......
  41774c:	0000 ff80 000f 0000 ff00 0007 0000 fc00     ................
	...
  417768:	0000 f000 001f 0000 f000 001f 0000 f000     ................
  417778:	001f 0000 f000 001f 007e f000 001f 007e     ........~.....~.
  417788:	f000 001f 007e f000 8003 007f f000 e003     ....~...........
  417798:	007f f000 f803 007f f000 fe03 007f f000     ................
  4177a8:	ff83 007f f000 ffe3 007f f000 fffb 007e     ..............~.
  4177b8:	f000 3fff 007e f000 0fff 007e f000 03ff     ...?~.....~.....
  4177c8:	0000 f000 00ff 0000 f000 003f 0000 f000     ..........?.....
  4177d8:	000f 0000 f000 0003 0000 0000 0000 0000     ................
	...
  4177f4:	0000 e000 0003 0000 f07e 0007 8000 f9ff     ........~.......
  417804:	001f c000 ffff 001f e000 ffff 003f e000     ............?...
  417814:	ffff 003f f000 3fff 007f f000 1fc7 007e     ..?....?......~.
  417824:	f000 1f83 007e f000 1f83 007e f000 1fc7     ....~.....~.....
  417834:	007e f000 3fff 007f e000 ffff 003f e000     ~....?......?...
  417844:	ffff 003f c000 ffff 001f 8000 f9ff 001f     ..?.............
  417854:	0000 f07e 0007 0000 e000 0003 0000 0000     ..~.............
	...
  417874:	007c 0000 0000 01ff 0000 8000 03ff 0000     |...............
  417884:	c000 07ff 0000 e000 0fff 0060 e000 0fff     ..........`.....
  417894:	0070 f000 1fc7 007c f000 1f83 007f f000     p.....|.........
  4178a4:	df83 007f f000 ff83 007f f000 ff83 003f     ..............?.
  4178b4:	f000 ff83 000f f000 ffc7 0007 e000 ffff     ................
  4178c4:	0001 e000 7fff 0000 c000 1fff 0000 8000     ................
  4178d4:	07ff 0000 0000 03ff 0000 0000 00fc 0000     ................
	...
  4178ec:	01c0 001c 0000 03e0 003e 0000 03f0 007e     ........>.....~.
  4178fc:	0000 03f0 007e 0000 03f0 007e 0000 03e0     ....~.....~.....
  41790c:	003e 0000 01c0 001c 0000 0000 0000 0000     >...............
	...
  417924:	1f80 0000 00e0 1ff0 0000 01f0 1ffc 0000     ................
  417934:	01f8 07fc 0000 01f8 01fc 0000 01f8 007c     ..............|.
  417944:	0000 01f0 0018 0000 00e0 0000 0000 0000     ................
	...
  41795c:	0000 ffc0 0001 0000 ffc0 0001 0000 ffc0     ................
  41796c:	0003 0000 ffc0 0003 0000 ffc0 0003 0000     ................
  41797c:	ffe0 0003 0000 ffe0 0003 0000 ffe0 0007     ................
  41798c:	0000 e7e0 0007 0000 e7e0 0007 0000 e7e0     ................
  41799c:	0007 0000 e7f0 0007 0000 e7f0 000f 0000     ................
  4179ac:	c7f0 000f 0000 0000 0000 0000 0000 0000     ................
  4179bc:	0000 f1f0 0001 0000 f1f0 0001 0000 f1f0     ................
  4179cc:	0001 0000 f1f0 0001 0000 f1f0 0001 0000     ................
  4179dc:	f1f0 0001 0000 f1f0 0001 0000 f1f0 0001     ................
  4179ec:	0000 f1f0 0001 0000 f1f0 0001 0000 f1f0     ................
  4179fc:	0001 0000 f1f0 0001 0000 f1f0 0001 0000     ................
  417a0c:	f1f0 0001 0000 f1f0 0001 0000 f1f0 0001     ................
	...
  417a28:	0000 c7f0 000f 0000 e7f0 000f 0000 e7f0     ................
  417a38:	0007 0000 e7e0 0007 0000 e7e0 0007 0000     ................
  417a48:	ffe0 0007 0000 ffe0 0007 0000 ffe0 0003     ................
  417a58:	0000 ffe0 0003 0000 ffc0 0003 0000 ffc0     ................
  417a68:	0003 0000 ffc0 0003 0000 ffc0 0001 0000     ................
	...
  417a88:	0000 001e 0000 8000 001f 0000 c000 001f     ................
  417a98:	0000 e000 001f 0000 e000 f01f 0038 f000     ............8...
  417aa8:	fc1f 007c f000 fe07 007e f000 fe03 007e     ..|.....~.....~.
  417ab8:	f000 ff03 007e f000 ff83 007c f000 0fc7     ....~.....|.....
  417ac8:	0038 f000 07ff 0000 e000 03ff 0000 e000     8...............
  417ad8:	03ff 0000 c000 01ff 0000 8000 00ff 0000     ................
  417ae8:	0000 003e 0000 0000 0000 0000 0000 0000     ..>.............
	...
  417b14:	fe00 0003 0000 ffc0 001f 0000 fff0 007f     ................
  417b24:	0000 fffc 01ff 0000 fffe 03ff 0000 ffff     ................
  417b34:	07ff 8000 03ff 0ffe c000 007f 1ff0 c000     ................
  417b44:	001f 1fc0 e000 fc0f 3f81 e000 ff07 3f07     .........?.....?
  417b54:	f000 ffc3 7e0f f000 ffc1 7c1f f800 ffe1     .....~.....|....
  417b64:	fc3f f800 fff0 f83f f800 07f0 f87e f800     ?.....?.....~...
  417b74:	01f0 f87c f800 01f0 f87c f800 03f0 f87e     ..|.....|.....~.
  417b84:	f800 fff0 f87f f800 fff0 f83f f800 fff1     ..........?.....
  417b94:	7c3f f000 fff1 7c3f f000 fff3 7e3f f000     ?|....?|....?~..
  417ba4:	fff7 3e7f e000 0007 3c7c e000 001f 187c     ...>....|<....|.
  417bb4:	c000 003f 007c 8000 00ff 007f 0000 ffff     ..?.|...........
  417bc4:	003f 0000 fffe 003f 0000 fffc 001f 0000     ?.....?.........
  417bd4:	fff8 000f 0000 ffe0 0007 0000 ff00 0000     ................
	...
  417c00:	007e 0000 0000 007e 0000 0000 007f 0000     ~.....~.........
  417c10:	e000 007f 0000 fc00 007f 0000 ff80 007f     ................
  417c20:	0000 fff0 007f 0000 fffe 007e 8000 3fff     ..........~....?
  417c30:	007e f000 3fff 007e f000 3eff 0000 f000     ~....?~....>....
  417c40:	3e1f 0000 f000 3e03 0000 f000 3e07 0000     .>.....>.....>..
  417c50:	f000 3e3f 0000 f000 3fff 007e f000 3fff     ..?>.....?~....?
  417c60:	007e f000 ffff 007e 8000 ffff 007f 0000     ~.....~.........
  417c70:	fffc 007f 0000 ffe0 007f 0000 fe00 007f     ................
  417c80:	0000 f000 007f 0000 8000 007f 0000 0000     ................
  417c90:	007e 0000 0000 007e 0000 0000 0000 0000     ~.....~.........
  417ca0:	0000 0000 f000 0003 007e f000 0003 007e     ........~.....~.
  417cb0:	f000 0003 007e f000 ffff 007f f000 ffff     ....~...........
  417cc0:	007f f000 ffff 007f f000 ffff 007f f000     ................
  417cd0:	ffff 007f f000 ffff 007f f000 1f83 007e     ..............~.
  417ce0:	f000 1f83 007e f000 1f83 007e f000 1f83     ....~.....~.....
  417cf0:	007e f000 1f83 007e f000 1f83 007e f000     ~.....~.....~...
  417d00:	3fc7 007f e000 ffff 007f e000 ffff 003f     .?............?.
  417d10:	c000 ffff 003f c000 fdff 001f 8000 fdff     ....?...........
  417d20:	000f 0000 f07e 0003 0000 0000 0000 0000     ....~...........
  417d30:	0000 0000 0000 1fc0 0000 0000 fff8 0000     ................
  417d40:	0000 fffc 0001 0000 ffff 0007 8000 ffff     ................
  417d50:	000f 8000 ffff 000f c000 f07f 001f e000     ................
  417d60:	c01f 003f e000 800f 003f e000 0007 003f     ..?.....?.....?.
  417d70:	f000 0007 007f f000 0003 007e f000 0003     ..........~.....
  417d80:	007e f000 0003 007e f000 0003 007e f000     ~.....~.....~...
  417d90:	0003 007e f000 0003 007f f000 0007 003f     ..~...........?.
  417da0:	e000 800f 003f e000 e00f 003f c000 e00f     ....?.....?.....
  417db0:	001f c000 e00f 000f c000 e00f 0007 c000     ................
  417dc0:	e00f 0003 c000 c00f 0001 0000 0000 0000     ................
	...
  417ddc:	f000 0003 007e f000 0003 007e f000 0003     ....~.....~.....
  417dec:	007e f000 ffff 007f f000 ffff 007f f000     ~...............
  417dfc:	ffff 007f f000 ffff 007f f000 ffff 007f     ................
  417e0c:	f000 ffff 007f f000 0003 007e f000 0003     ..........~.....
  417e1c:	007e f000 0003 007e f000 0003 007e f000     ~.....~.....~...
  417e2c:	0003 007e f000 0007 007f e000 0007 003f     ..~...........?.
  417e3c:	e000 800f 003f c000 c01f 001f c000 f07f     ....?...........
  417e4c:	001f 8000 ffff 000f 0000 ffff 0007 0000     ................
  417e5c:	ffff 0003 0000 fffc 0001 0000 fff8 0000     ................
  417e6c:	0000 1fc0 0000 0000 0000 0000 0000 0000     ................
	...
  417e84:	f000 0003 007e f000 0003 007e f000 0003     ....~.....~.....
  417e94:	007e f000 ffff 007f f000 ffff 007f f000     ~...............
  417ea4:	ffff 007f f000 ffff 007f f000 ffff 007f     ................
  417eb4:	f000 ffff 007f f000 1f83 007e f000 1f83     ..........~.....
  417ec4:	007e f000 1f83 007e f000 1f83 007e f000     ~.....~.....~...
  417ed4:	1f83 007e f000 0003 007e f000 0003 007e     ..~.....~.....~.
  417ee4:	f000 e01f 007f f000 e01f 007f f000 e01f     ................
  417ef4:	007f f000 e01f 007f f000 e01f 007f f000     ................
  417f04:	e01f 007f 0000 0000 0000 0000 0000 0000     ................
  417f14:	0000 0000 0000 f000 0003 007e f000 0003     ..........~.....
  417f24:	007e f000 0003 007e f000 ffff 007f f000     ~.....~.........
  417f34:	ffff 007f f000 ffff 007f f000 ffff 007f     ................
  417f44:	f000 ffff 007f f000 ffff 007f f000 0f83     ................
  417f54:	007e f000 0f83 007e f000 0f83 007e f000     ~.....~.....~...
  417f64:	0f83 0000 f000 0f83 0000 f000 0003 0000     ................
  417f74:	f000 003f 0000 f000 003f 0000 f000 003f     ..?.....?.....?.
  417f84:	0000 f000 003f 0000 f000 003f 0000 f000     ....?.....?.....
  417f94:	003f 0000 0000 0000 0000 0000 1fc0 0000     ?...............
  417fa4:	0000 fff8 0000 0000 fffc 0003 0000 ffff     ................
  417fb4:	0007 8000 ffff 000f 8000 ffff 001f c000     ................
  417fc4:	f07f 001f e000 c01f 003f e000 800f 003f     ........?.....?.
  417fd4:	e000 0007 003f f000 0007 007f f000 0003     ....?...........
  417fe4:	007e f000 0003 007e f000 0003 007e f000     ~.....~.....~...
  417ff4:	7e03 007e f000 7e03 007e f000 7e03 007e     .~~....~~....~~.
  418004:	f000 7e07 003f e000 7e07 001f e000 fe0f     ...~?....~......
  418014:	001f e000 fe0f 0007 c000 fe0f 007f c000     ................
  418024:	fe0f 007f c000 fe0f 007f c000 fe0f 007f     ................
  418034:	c000 fe0f 007f 0000 fe00 007f 0000 0000     ................
	...
  418058:	f000 0003 007e f000 0003 007e f000 0003     ....~.....~.....
  418068:	007e f000 ffff 007f f000 ffff 007f f000     ~...............
  418078:	ffff 007f f000 ffff 007f f000 ffff 007f     ................
  418088:	f000 ffff 007f f000 0fc3 007e f000 0fc3     ..........~.....
  418098:	007e f000 0fc3 007e 0000 0fc0 0000 0000     ~.....~.........
  4180a8:	0fc0 0000 0000 0fc0 0000 0000 0fc0 0000     ................
  4180b8:	0000 0fc0 0000 0000 0fc0 0000 0000 0fc0     ................
  4180c8:	0000 f000 0fc3 007e f000 0fc3 007e f000     ......~.....~...
  4180d8:	0fc3 007e f000 ffff 007f f000 ffff 007f     ..~.............
  4180e8:	f000 ffff 007f f000 ffff 007f f000 ffff     ................
  4180f8:	007f f000 ffff 007f f000 0003 007e f000     ............~...
  418108:	0003 007e f000 0003 007e 0000 0000 0000     ..~.....~.......
	...
  418128:	0000 f000 0003 007e f000 0003 007e f000     ......~.....~...
  418138:	0003 007e f000 ffff 007f f000 ffff 007f     ..~.............
  418148:	f000 ffff 007f f000 ffff 007f f000 ffff     ................
  418158:	007f f000 ffff 007f f000 0003 007e f000     ............~...
  418168:	0003 007e f000 0003 007e 0000 0000 0000     ..~.....~.......
  418178:	0000 0000 0000 f000 0003 0c00 f000 0003     ................
  418188:	0f00 f000 0003 0fc0 f000 ffff 0fff f000     ................
  418198:	ffff 0fff f000 ffff 07ff f000 ffff 01ff     ................
  4181a8:	f000 ffff 00ff f000 ffff 003f f000 0003     ..........?.....
  4181b8:	0000 f000 0003 0000 0000 0000 0000 0000     ................
  4181c8:	0000 0000 f000 0003 007e f000 0003 007e     ........~.....~.
  4181d8:	f000 0003 007e f000 ffff 007f f000 ffff     ....~...........
  4181e8:	007f f000 ffff 007f f000 ffff 007f f000     ................
  4181f8:	ffff 007f f000 ffff 007f f000 0703 007e     ..............~.
  418208:	f000 0703 007e f000 0f83 007e 0000 1fc0     ....~.....~.....
  418218:	0000 0000 3fe0 0000 0000 7fe0 0000 0000     .....?..........
  418228:	fff0 0000 0000 fff8 0001 0000 fcfc 0003     ................
  418238:	f000 f8ff 007f f000 f07f 007f f000 e03f     ..............?.
  418248:	007f f000 c01f 007f f000 801f 007f f000     ................
  418258:	000f 007f f000 0007 007e f000 0003 007e     ........~.....~.
  418268:	f000 0003 007e 0000 0000 0000 0000 0000     ....~...........
	...
  418280:	f000 0003 007e f000 0003 007e f000 0003     ....~.....~.....
  418290:	007e f000 ffff 007f f000 ffff 007f f000     ~...............
  4182a0:	ffff 007f f000 ffff 007f f000 ffff 007f     ................
  4182b0:	f000 ffff 007f f000 0003 007e f000 0003     ..........~.....
  4182c0:	007e f000 0003 007e 0000 0000 007e 0000     ~.....~.....~...
  4182d0:	0000 007e 0000 0000 007e 0000 e000 007f     ..~.....~.......
  4182e0:	0000 e000 007f 0000 e000 007f 0000 e000     ................
  4182f0:	007f 0000 e000 007f 0000 e000 007f 0000     ................
	...
  418310:	f000 0003 007e f000 0003 007e f000 0003     ....~.....~.....
  418320:	007e f000 ffff 007f f000 ffff 007f f000     ~...............
  418330:	ffff 007f f000 ffff 007f f000 ffff 007f     ................
  418340:	f000 ffff 007f f000 000f 007e f000 007f     ..........~.....
  418350:	007e f000 03ff 0000 f000 1fff 0000 c000     ~...............
  418360:	ffff 0000 0000 fffe 0007 0000 fff0 003f     ..............?.
  418370:	0000 ff80 007f 0000 fc00 007f 0000 e000     ................
  418380:	007f 0000 c000 007f 0000 f800 007f 0000     ................
  418390:	fe00 007f 0000 ffc0 001f 0000 fff8 0003     ................
  4183a0:	0000 7fff 0000 e000 0fff 0000 f000 01ff     ................
  4183b0:	0000 f000 003f 007e f000 0007 007e f000     ....?.~.....~...
  4183c0:	ffff 007f f000 ffff 007f f000 ffff 007f     ................
  4183d0:	f000 ffff 007f f000 ffff 007f f000 ffff     ................
  4183e0:	007f f000 0003 007e f000 0003 007e f000     ......~.....~...
  4183f0:	0003 007e 0000 0000 0000 0000 0000 0000     ..~.............
  418400:	0000 0000 0000 f000 0003 007e f000 0003     ..........~.....
  418410:	007e f000 0003 007e f000 ffff 007f f000     ~.....~.........
  418420:	ffff 007f f000 ffff 007f f000 ffff 007f     ................
  418430:	f000 ffff 007f f000 ffff 007f f000 003f     ..............?.
  418440:	007e e000 007f 007e c000 01ff 007e 0000     ~.....~.....~...
  418450:	03ff 0000 0000 0ffe 0000 0000 1ff8 0000     ................
  418460:	0000 7ff0 0000 0000 ffc0 0000 0000 ff80     ................
  418470:	0003 0000 fe00 0007 f000 fc03 001f f000     ................
  418480:	f003 003f f000 ffff 007f f000 ffff 007f     ..?.............
  418490:	f000 ffff 007f f000 ffff 007f f000 ffff     ................
  4184a0:	007f f000 ffff 007f f000 0003 0000 f000     ................
  4184b0:	0003 0000 f000 0003 0000 0000 0000 0000     ................
  4184c0:	0000 1fc0 0000 0000 fff8 0000 0000 fffe     ................
  4184d0:	0003 0000 ffff 0007 8000 ffff 000f c000     ................
  4184e0:	ffff 001f c000 f07f 001f e000 c01f 003f     ..............?.
  4184f0:	e000 800f 003f f000 0007 007f f000 0003     ....?...........
  418500:	007e f000 0003 007e f000 0003 007e f000     ~.....~.....~...
  418510:	0003 007e f000 0003 007e f000 0003 007e     ..~.....~.....~.
  418520:	f000 0007 007f e000 800f 003f e000 c01f     ..........?.....
  418530:	003f c000 f07f 001f c000 ffff 001f 8000     ?...............
  418540:	ffff 000f 0000 ffff 0007 0000 fffc 0001     ................
  418550:	0000 fff8 0000 0000 1fc0 0000 0000 0000     ................
	...
  418574:	f000 0003 007e f000 0003 007e f000 0003     ....~.....~.....
  418584:	007e f000 ffff 007f f000 ffff 007f f000     ~...............
  418594:	ffff 007f f000 ffff 007f f000 ffff 007f     ................
  4185a4:	f000 ffff 007f f000 1f83 007e f000 1f83     ..........~.....
  4185b4:	007e f000 1f83 007e f000 1f83 0000 f000     ~.....~.........
  4185c4:	1f83 0000 f000 1f83 0000 f000 1fc7 0000     ................
  4185d4:	e000 0fff 0000 e000 0fff 0000 c000 07ff     ................
  4185e4:	0000 8000 07ff 0000 0000 01ff 0000 0000     ................
  4185f4:	007e 0000 0000 0000 0000 0000 0000 0000     ~...............
  418604:	0000 1fc0 0000 0000 fff8 0000 0000 fffc     ................
  418614:	0003 0000 ffff 0007 8000 ffff 000f 8000     ................
  418624:	ffff 001f c000 f07f 001f e000 c01f 003f     ..............?.
  418634:	e000 800f 003f e000 0007 007f f000 0007     ....?...........
  418644:	007f f000 0003 1ffe f000 0003 1ffe f000     ................
  418654:	0003 1ffe f000 0003 1ffe f000 0003 3ffe     ...............?
  418664:	f000 0007 3f7f e000 0007 7f7f e000 800f     .....?..........
  418674:	7e3f e000 c01f fc3f c000 f07f fc1f 8000     ?~....?.........
  418684:	ffff fc1f 8000 ffff fe0f 0000 ffff 7f07     ................
  418694:	0000 fffc 7f03 0000 fff8 3f00 0000 1fc0     ...........?....
  4186a4:	1e00 0000 0000 0600 0000 0000 0000 0000     ................
	...
  4186bc:	0000 f000 0003 007e f000 0003 007e f000     ......~.....~...
  4186cc:	0003 007e f000 ffff 007f f000 ffff 007f     ..~.............
  4186dc:	f000 ffff 007f f000 ffff 007f f000 ffff     ................
  4186ec:	007f f000 ffff 007f f000 3f03 007e f000     ...........?~...
  4186fc:	3f03 007e f000 3f03 007e f000 3f03 0000     .?~....?~....?..
  41870c:	f000 3f03 0000 f000 7f03 0000 f000 ff03     ...?............
  41871c:	0000 f000 ff87 001f f000 ff87 007f e000     ................
  41872c:	ffff 007f e000 ffff 007f c000 f7ff 007f     ................
  41873c:	c000 e3ff 007f 0000 01ff 007f 0000 007e     ..............~.
  41874c:	007e 0000 0000 007e 0000 0000 0000 0000     ~.....~.........
  41875c:	e000 0003 0000 e03e 0003 8000 e0ff 0007     ......>.........
  41876c:	c000 e1ff 000f c000 e3ff 001f e000 e3ff     ................
  41877c:	003f e000 87ff 003f f000 07e7 003f f000     ?.....?.....?...
  41878c:	07c3 007e f000 07c3 007e f000 0fc3 007e     ..~.....~.....~.
  41879c:	f000 0f83 007e f000 0f83 007e f000 0f83     ....~.....~.....
  4187ac:	007e f000 1f87 007e e000 1f07 003f e000     ~.....~.....?...
  4187bc:	ff1f 003f e000 ff1f 003f c000 fe1f 001f     ..?.....?.......
  4187cc:	8000 fe1f 000f 0000 fc1f 0007 0000 f01f     ................
  4187dc:	0003 0000 0000 0000 f000 000f 0000 f000     ................
  4187ec:	000f 0000 f000 000f 0000 f000 000f 0000     ................
  4187fc:	f000 000f 0000 f000 000f 0000 f000 0003     ................
  41880c:	007e f000 0003 007e f000 0003 007e f000     ~.....~.....~...
  41881c:	ffff 007f f000 ffff 007f f000 ffff 007f     ................
  41882c:	f000 ffff 007f f000 ffff 007f f000 ffff     ................
  41883c:	007f f000 0003 007e f000 0003 007e f000     ......~.....~...
  41884c:	0003 007e f000 0003 0000 f000 000f 0000     ..~.............
  41885c:	f000 000f 0000 f000 000f 0000 f000 000f     ................
  41886c:	0000 f000 000f 0000 f000 000f 0000 0000     ................
  41887c:	0000 0000 f000 0003 0000 f000 0003 0000     ................
  41888c:	f000 0003 0000 f000 ffff 0000 f000 ffff     ................
  41889c:	0003 f000 ffff 0007 f000 ffff 000f f000     ................
  4188ac:	ffff 001f f000 ffff 003f f000 8003 003f     ........?.....?.
  4188bc:	f000 0003 007f f000 0003 007e 0000 0000     ..........~.....
  4188cc:	007e 0000 0000 007e 0000 0000 007e 0000     ~.....~.....~...
  4188dc:	0000 007e f000 0003 007e f000 0003 007f     ..~.....~.......
  4188ec:	f000 8003 003f f000 ffff 003f f000 ffff     ....?.....?.....
  4188fc:	001f f000 ffff 000f f000 ffff 0007 f000     ................
  41890c:	ffff 0003 f000 ffff 0000 f000 0003 0000     ................
  41891c:	f000 0003 0000 f000 0003 0000 f000 0003     ................
  41892c:	0000 f000 0003 0000 f000 0003 0000 f000     ................
  41893c:	000f 0000 f000 007f 0000 f000 03ff 0000     ................
  41894c:	f000 1fff 0000 f000 ffff 0000 f000 ffff     ................
  41895c:	0007 f000 fffb 003f f000 ffc3 007f f000     ......?.........
  41896c:	fe03 007f 0000 f000 007f 0000 8000 007f     ................
  41897c:	0000 8000 007f 0000 f000 007f f000 fe03     ................
  41898c:	007f f000 ffc3 007f f000 fffb 003f f000     ............?...
  41899c:	ffff 0007 f000 ffff 0000 f000 1fff 0000     ................
  4189ac:	f000 03ff 0000 f000 007f 0000 f000 000f     ................
  4189bc:	0000 f000 0003 0000 f000 0003 0000 0000     ................
  4189cc:	0000 0000 f000 0003 0000 f000 0003 0000     ................
  4189dc:	f000 0003 0000 f000 000f 0000 f000 007f     ................
  4189ec:	0000 f000 07ff 0000 f000 3fff 0000 f000     ...........?....
  4189fc:	ffff 0003 f000 ffff 001f f000 fffb 007f     ................
  418a0c:	f000 ffc3 007f f000 fc03 007f 0000 e000     ................
  418a1c:	007f 0000 c000 007f 0000 fc00 007f 0000     ................
  418a2c:	ffc0 007f 0000 fffc 007f c000 ffff 003f     ..............?.
  418a3c:	f000 ffff 0003 f000 3fff 0000 f000 03ff     .........?......
  418a4c:	0000 f000 003f 0000 f000 03ff 0000 f000     ....?...........
  418a5c:	3fff 0000 f000 ffff 0003 e000 ffff 003f     .?............?.
  418a6c:	0000 fffe 007f 0000 ffe0 007f 0000 fe00     ................
  418a7c:	007f 0000 e000 007f 0000 c000 007f f000     ................
  418a8c:	fc03 007f f000 ff83 007f f000 fffb 007f     ................
  418a9c:	f000 ffff 003f f000 ffff 0003 f000 3fff     ....?..........?
  418aac:	0000 f000 07ff 0000 f000 007f 0000 f000     ................
  418abc:	000f 0000 f000 0003 0000 f000 0003 0000     ................
	...
  418ad8:	f000 0001 007c f000 0003 007e f000 0007     ....|.....~.....
  418ae8:	007f f000 800f 007f f000 c01f 007f f000     ................
  418af8:	e03f 007f f000 f07f 007f f000 f8ff 007f     ?...............
  418b08:	f000 fdff 007f f000 fffd 007d f000 fff9     ..........}.....
  418b18:	007c f000 7ff1 0000 0000 3fe0 0000 0000     |..........?....
  418b28:	3fe0 0000 f000 7ff1 007c f000 fff9 007c     .?......|.....|.
  418b38:	f000 fffd 007d f000 fdff 007f f000 f0ff     ....}...........
  418b48:	007f f000 e07f 007f f000 c03f 007f f000     ..........?.....
  418b58:	800f 007f f000 0007 007f f000 0003 007e     ..............~.
  418b68:	f000 0001 007c f000 0001 007c 0000 0000     ....|.....|.....
	...
  418b80:	f000 0003 0000 f000 0003 0000 f000 0007     ................
  418b90:	0000 f000 000f 0000 f000 001f 0000 f000     ................
  418ba0:	003f 0000 f000 007f 0000 f000 01ff 007e     ?.............~.
  418bb0:	f000 03ff 007e f000 07ff 007e f000 fffb     ....~.....~.....
  418bc0:	007f f000 ffe3 007f 0000 ffc0 007f 0000     ................
  418bd0:	ffc0 007f f000 ffe3 007f f000 fffb 007f     ................
  418be0:	f000 07ff 007e f000 03ff 007e f000 01ff     ....~.....~.....
  418bf0:	007e f000 00ff 0000 f000 003f 0000 f000     ~.........?.....
  418c00:	001f 0000 f000 000f 0000 f000 0007 0000     ................
  418c10:	f000 0003 0000 f000 0003 0000 0000 0000     ................
	...
  418c28:	f000 001f 007f f000 801f 007f f000 c01f     ................
  418c38:	007f f000 e01f 007f f000 f81f 007f f000     ................
  418c48:	fc1f 007f f000 fe01 007f f000 ff01 007f     ................
  418c58:	f000 ff81 007e f000 3fe1 007c f000 1ff1     ....~....?|.....
  418c68:	007c f000 0ff9 007c f000 07fd 007c f000     |.....|.....|...
  418c78:	03ff 007c f000 00ff 007c f000 e07f 007f     ..|.....|.......
  418c88:	f000 e03f 007f f000 e01f 007f f000 e007     ..?.............
  418c98:	007f f000 e003 007f f000 e001 007f 0000     ................
	...
  418cb0:	0000 fc00 ffff ffff fc00 ffff ffff fc00     ................
  418cc0:	ffff ffff fc00 ffff ffff fc00 ffff ffff     ................
  418cd0:	fc00 ffff ffff fc00 0000 fc00 fc00 0000     ................
  418ce0:	fc00 fc00 0000 fc00 0000 0000 0000 0000     ................
  418cf0:	0000 0000 4000 0000 0000 c000 0003 0000     .....@..........
  418d00:	c000 001f 0000 c000 00ff 0000 c000 07ff     ................
  418d10:	0000 8000 3fff 0000 0000 fffe 0001 0000     .....?..........
  418d20:	fff0 000f 0000 ff80 007f 0000 fc00 03ff     ................
  418d30:	0000 e000 0fff 0000 0000 0fff 0000 0000     ................
  418d40:	0ff8 0000 0000 0fc0 0000 0000 0000 0000     ................
  418d50:	0000 0000 fc00 0000 fc00 fc00 0000 fc00     ................
  418d60:	fc00 0000 fc00 fc00 ffff ffff fc00 ffff     ................
  418d70:	ffff fc00 ffff ffff fc00 ffff ffff fc00     ................
  418d80:	ffff ffff fc00 ffff ffff 0000 0000 0000     ................
	...
  418d98:	0200 0000 0000 0380 0000 0000 03e0 0000     ................
  418da8:	0000 03f8 0000 0000 03fe 0000 0000 03ff     ................
  418db8:	0000 c000 00ff 0000 f000 003f 0000 f000     ..........?.....
  418dc8:	000f 0000 f000 0003 0000 f000 0001 0000     ................
  418dd8:	f000 0007 0000 f000 001f 0000 f000 00ff     ................
  418de8:	0000 c000 03ff 0000 0000 03ff 0000 0000     ................
  418df8:	03fc 0000 0000 03f0 0000 0000 0380 0000     ................
  418e08:	0000 0200 0000 0000 0000 0000 0000 0000     ................
  418e18:	3e00 0000 0000 3e00 0000 0000 3e00 0000     .>.....>.....>..
  418e28:	0000 3e00 0000 0000 3e00 0000 0000 3e00     ...>.....>.....>
  418e38:	0000 0000 3e00 0000 0000 3e00 0000 0000     .....>.....>....
  418e48:	3e00 0000 0000 3e00 0000 0000 3e00 0000     .>.....>.....>..
  418e58:	0000 3e00 0000 0000 3e00 0000 0000 3e00     ...>.....>.....>
  418e68:	0000 0000 3e00 0000 0000 3e00 0000 0000     .....>.....>....
  418e78:	3e00 0000 0000 3e00 0000 0000 3e00 0000     .>.....>.....>..
	...
  418e98:	1000 0000 0000 3000 0000 0000 7000 0000     .......0.....p..
  418ea8:	0000 f000 0000 0000 f000 0001 0000 f000     ................
  418eb8:	0003 0000 c000 0003 0000 8000 0003 0000     ................
  418ec8:	0000 0002 0000 0000 0000 0000 0000 0000     ................
	...
  418ee0:	0000 c1c0 0007 0000 e1c0 001f 0000 f1e0     ................
  418ef0:	003f 0000 f1e0 003f 0000 f9f0 007f 0000     ?.....?.........
  418f00:	f9f0 007f 0000 79f0 007c 0000 79f0 007c     .......y|....y|.
  418f10:	0000 79f0 007c 0000 79f0 007c 0000 7bf0     ...y|....y|....{
  418f20:	003e 0000 fff0 007f 0000 ffe0 007f 0000     >...............
  418f30:	ffe0 007f 0000 ffc0 007f 0000 ffc0 007f     ................
  418f40:	0000 ff00 007f 0000 0000 007e 0000 0000     ..........~.....
  418f50:	007e 0000 0000 007e 0000 0000 0000 0000     ~.....~.........
  418f60:	0000 0000 f800 0001 0000 f800 0001 0000     ................
  418f70:	f800 0001 0000 f800 ffff 007f f800 ffff     ................
  418f80:	007f f800 ffff 007f f800 ffff 007f f800     ................
  418f90:	ffff 007f f800 ffff 007f 0000 03e0 007e     ..............~.
  418fa0:	0000 03f0 007e 0000 01f0 007c 0000 01f0     ....~.....|.....
  418fb0:	007c 0000 01f0 007c 0000 01f0 007c 0000     |.....|.....|...
  418fc0:	03f0 007e 0000 07e0 003f 0000 ffe0 003f     ..~.....?.....?.
  418fd0:	0000 ffe0 003f 0000 ffc0 001f 0000 ff80     ....?...........
  418fe0:	000f 0000 ff00 0007 0000 fc00 0001 0000     ................
	...
  418ffc:	fc00 0001 0000 ff00 0007 0000 ff80 000f     ................
  41900c:	0000 ffc0 001f 0000 ffe0 003f 0000 ffe0     ..........?.....
  41901c:	003f 0000 07f0 007f 0000 03f0 007e 0000     ?...........~...
  41902c:	01f0 007c 0000 01f0 007c 0000 01f0 007c     ..|.....|.....|.
  41903c:	0000 01f0 007e 0000 03f0 007f 0000 87e0     ....~...........
  41904c:	003f 0000 87e0 003f 0000 87c0 001f 0000     ?.....?.........
  41905c:	87c0 001f 0000 07c0 0007 0000 07c0 0007     ................
	...
  419078:	0000 fc00 0001 0000 ff00 0007 0000 ff80     ................
  419088:	000f 0000 ffc0 001f 0000 ffe0 003f 0000     ............?...
  419098:	ffe0 003f 0000 07f0 007f 0000 03f0 007e     ..?...........~.
  4190a8:	0000 01f0 007c 0000 01f0 007c f800 01f1     ....|.....|.....
  4190b8:	007c f800 01f1 007c f800 03e1 007e f800     |.....|.....~...
  4190c8:	ffff 007f f800 ffff 007f f800 ffff 007f     ................
  4190d8:	f800 ffff 007f f800 ffff 007f f800 ffff     ................
  4190e8:	007f 0000 0000 007e 0000 0000 007e 0000     ......~.....~...
  4190f8:	0000 007e 0000 0000 0000 0000 0000 0000     ..~.............
	...
  419110:	fc00 0001 0000 ff00 0007 0000 ff80 000f     ................
  419120:	0000 ffc0 001f 0000 ffe0 003f 0000 ffe0     ..........?.....
  419130:	003f 0000 7bf0 003f 0000 79f0 007e 0000     ?....{?....y~...
  419140:	79f0 007c 0000 79f0 007c 0000 79f0 007c     .y|....y|....y|.
  419150:	0000 79f0 007c 0000 7bf0 007c 0000 7fe0     ...y|....{|.....
  419160:	007c 0000 7fe0 003e 0000 7fc0 003e 0000     |.....>.....>...
  419170:	7f80 001c 0000 7f00 0000 0000 7c00 0000     .............|..
	...
  41918c:	0000 03f0 007e 0000 03f0 007e 0000 03f0     ....~.....~.....
  41919c:	007e 8000 ffff 007f e000 ffff 007f f000     ~...............
  4191ac:	ffff 007f f000 ffff 007f f000 ffff 007f     ................
  4191bc:	f800 ffff 007f f800 03f1 007e f800 03f0     ..........~.....
  4191cc:	007e f800 03f0 007e f800 0000 0000 f800     ~.....~.........
	...
  4191e8:	fc00 0001 0000 ff00 3007 0000 ff80 3c0f     .........0.....<
  4191f8:	0000 ffc0 7c1f 0000 ffe0 7c3f 0000 ffe0     .....|....?|....
  419208:	fc3f 0000 07f0 f87f 0000 03f0 f87e 0000     ?...........~...
  419218:	01f0 f87c 0000 01f0 f87c 0000 01f0 f87c     ..|.....|.....|.
  419228:	0000 03f0 fc7e 0000 03f0 fe3e 0000 fff0     ....~.....>.....
  419238:	7fff 0000 fff0 7fff 0000 fff0 3fff 0000     .............?..
  419248:	fff0 1fff 0000 fff0 0fff 0000 fff0 03ff     ................
	...
  419270:	f800 0001 007e f800 0001 007e f800 0001     ....~.....~.....
  419280:	007e f800 ffff 007f f800 ffff 007f f800     ~...............
  419290:	ffff 007f f800 ffff 007f f800 ffff 007f     ................
  4192a0:	f800 ffff 007f 0000 03c0 007e 0000 03e0     ..........~.....
  4192b0:	007e 0000 01f0 007e 0000 01f0 0000 0000     ~.....~.........
  4192c0:	01f0 0000 0000 03f0 0000 0000 fff0 007f     ................
  4192d0:	0000 fff0 007f 0000 ffe0 007f 0000 ffe0     ................
  4192e0:	007f 0000 ffc0 007f 0000 ff00 007f 0000     ................
  4192f0:	0000 007e 0000 0000 007e 0000 0000 007e     ..~.....~.....~.
	...
  419308:	03f0 007e 0000 03f0 007e 0000 03f0 007e     ..~.....~.....~.
  419318:	f000 fff0 007f f000 fff0 007f f800 fff1     ................
  419328:	007f f800 fff1 007f f800 fff1 007f f000     ................
  419338:	fff0 007f f000 0000 007e 0000 0000 007e     ........~.....~.
  419348:	0000 0000 007e 0000 0000 0000 0000 0000     ....~...........
  419358:	0000 0000 03f0 f000 0000 03f0 f000 6000     ...............`
  419368:	03f0 f800 f000 fff0 ffff f800 fff1 7fff     ................
  419378:	f800 fff1 7fff f800 fff1 3fff f000 fff0     ...........?....
  419388:	1fff 6000 fff0 07ff 0000 0000 0000 0000     ...`............
  419398:	0000 0000 f800 0001 007e f800 0001 007e     ........~.....~.
  4193a8:	f800 0001 007e f800 ffff 007f f800 ffff     ....~...........
  4193b8:	007f f800 ffff 007f f800 ffff 007f f800     ................
  4193c8:	ffff 007f f800 ffff 007f 0000 3800 007e     .............8~.
  4193d8:	0000 3800 007e 0000 3800 007e 0000 7c00     ...8~....8~....|
  4193e8:	0000 0000 fff0 0001 0000 fff0 0007 0000     ................
  4193f8:	fff0 000f 0000 fff0 003f 0000 cff0 007f     ........?.......
  419408:	0000 07f0 007f 0000 03f0 007c 0000 03f0     ..........|.....
  419418:	007c 0000 03f0 007c 0000 03f0 007c 0000     |.....|.....|...
	...
  419438:	f800 0001 007e f800 0001 007e f800 0001     ....~.....~.....
  419448:	007e f800 ffff 007f f800 ffff 007f f800     ~...............
  419458:	ffff 007f f800 ffff 007f f800 ffff 007f     ................
  419468:	f800 ffff 007f 0000 0000 007e 0000 0000     ..........~.....
  419478:	007e 0000 0000 007e 0000 0000 0000 0000     ~.....~.........
	...
  419494:	03f0 007e 0000 03f0 007e 0000 03f0 007e     ..~.....~.....~.
  4194a4:	0000 fff0 007f 0000 fff0 007f 0000 fff0     ................
  4194b4:	007f 0000 fff0 007f 0000 fff0 007f 0000     ................
  4194c4:	fff0 007f 0000 03e0 007e 0000 03e0 007e     ........~.....~.
  4194d4:	0000 01f0 007e 0000 01f0 0000 0000 01f0     ....~...........
  4194e4:	0000 0000 01f0 0000 0000 03f0 0000 0000     ................
  4194f4:	fff0 007f 0000 fff0 007f 0000 ffe0 007f     ................
  419504:	0000 ffc0 007f 0000 ff80 007f 0000 ffc0     ................
  419514:	007f 0000 03e0 007e 0000 01e0 007e 0000     ......~.....~...
  419524:	01f0 007e 0000 01f0 0000 0000 01f0 0000     ..~.............
  419534:	0000 03f0 0000 0000 fff0 007f 0000 fff0     ................
  419544:	007f 0000 ffe0 007f 0000 ffe0 007f 0000     ................
  419554:	ffc0 007f 0000 ff00 007f 0000 0000 007e     ..............~.
  419564:	0000 0000 007e 0000 0000 007e 0000 0000     ....~.....~.....
	...
  41957c:	0000 03f0 007e 0000 03f0 007e 0000 03f0     ....~.....~.....
  41958c:	007e 0000 fff0 007f 0000 fff0 007f 0000     ~...............
  41959c:	fff0 007f 0000 fff0 007f 0000 fff0 007f     ................
  4195ac:	0000 fff0 007f 0000 03e0 007e 0000 03e0     ..........~.....
  4195bc:	007e 0000 01f0 007e 0000 01f0 0000 0000     ~.....~.........
  4195cc:	01f0 0000 0000 01f0 0000 0000 03f0 0000     ................
  4195dc:	0000 fff0 007f 0000 fff0 007f 0000 ffe0     ................
  4195ec:	007f 0000 ffe0 007f 0000 ffc0 007f 0000     ................
  4195fc:	ff00 007f 0000 0000 007e 0000 0000 007e     ........~.....~.
  41960c:	0000 0000 007e 0000 0000 0000 0000 0000     ....~...........
  41961c:	0000 0000 fc00 0001 0000 ff00 0007 0000     ................
  41962c:	ff80 000f 0000 ffc0 001f 0000 ffc0 001f     ................
  41963c:	0000 ffe0 003f 0000 07e0 003f 0000 03f0     ....?.....?.....
  41964c:	007e 0000 01f0 007c 0000 01f0 007c 0000     ~.....|.....|...
  41965c:	01f0 007c 0000 01f0 007c 0000 01f0 007c     ..|.....|.....|.
  41966c:	0000 03f0 007e 0000 07e0 003f 0000 ffe0     ....~.....?.....
  41967c:	003f 0000 ffc0 001f 0000 ffc0 001f 0000     ?...............
  41968c:	ff80 000f 0000 ff00 0007 0000 fc00 0001     ................
	...
  4196a8:	0000 03f0 fc00 0000 03f0 fc00 0000 03f0     ................
  4196b8:	fc00 0000 fff0 ffff 0000 fff0 ffff 0000     ................
  4196c8:	fff0 ffff 0000 fff0 ffff 0000 fff0 ffff     ................
  4196d8:	0000 fff0 ffff 0000 03f0 fc3e 0000 03f0     ..........>.....
  4196e8:	fc7e 0000 01f0 fc7c 0000 01f0 007c 0000     ~.....|.....|...
  4196f8:	01f0 007c 0000 01f0 007c 0000 03f0 007e     ..|.....|.....~.
  419708:	0000 07f0 007f 0000 ffe0 003f 0000 ffe0     ..........?.....
  419718:	003f 0000 ffc0 001f 0000 ff80 000f 0000     ?...............
  419728:	ff00 0007 0000 fc00 0001 0000 0000 0000     ................
	...
  419740:	fc00 0001 0000 ff00 0007 0000 ff80 000f     ................
  419750:	0000 ffc0 001f 0000 ffe0 003f 0000 ffe0     ..........?.....
  419760:	003f 0000 07f0 007f 0000 03f0 007e 0000     ?...........~...
  419770:	01f0 007c 0000 01f0 007c 0000 01f0 fc7c     ..|.....|.....|.
  419780:	0000 01f0 fc7c 0000 03f0 fc3e 0000 ffe0     ....|.....>.....
  419790:	ffff 0000 fff0 ffff 0000 fff0 ffff 0000     ................
  4197a0:	fff0 ffff 0000 fff0 ffff 0000 fff0 ffff     ................
  4197b0:	0000 0000 fc00 0000 0000 fc00 0000 0000     ................
  4197c0:	fc00 0000 0000 0000 0000 0000 0000 0000     ................
  4197d0:	03f0 007e 0000 03f0 007e 0000 03f0 007e     ..~.....~.....~.
  4197e0:	0000 fff0 007f 0000 fff0 007f 0000 fff0     ................
  4197f0:	007f 0000 fff0 007f 0000 fff0 007f 0000     ................
  419800:	ffe0 007f 0000 03e0 007e 0000 01f0 007e     ........~.....~.
  419810:	0000 07f0 007e 0000 07f0 0000 0000 07f0     ....~...........
  419820:	0000 0000 07f0 0000 0000 07f0 0000 0000     ................
  419830:	07f0 0000 0000 0000 0000 0000 0000 0000     ................
	...
  419848:	0f80 001f 0000 1fc0 001f 0000 3fe0 001f     .............?..
  419858:	0000 3fe0 001f 0000 7ff0 003f 0000 7ff0     ...?......?.....
  419868:	007e 0000 79f0 007c 0000 79f0 007c 0000     ~....y|....y|...
  419878:	79f0 007c 0000 f1f0 007c 0000 f1f0 007c     .y|.....|.....|.
  419888:	0000 f3e0 007f 0000 f7e0 003f 0000 e7c0     ..........?.....
  419898:	003f 0000 e7c0 001f 0000 c7c0 001f 0000     ?...............
  4198a8:	87c0 0007 0000 0000 0000 0000 0000 0000     ................
  4198b8:	0000 01f0 0000 0000 01f0 0000 0000 01f0     ................
  4198c8:	0000 8000 ffff 000f 8000 ffff 001f c000     ................
  4198d8:	ffff 003f c000 ffff 007f c000 ffff 007f     ..?.............
  4198e8:	e000 ffff 007f 0000 01f0 007c 0000 01f0     ..........|.....
  4198f8:	007c 0000 01f0 007c 0000 01f0 003c 0000     |.....|.....<...
	...
  419918:	0000 03f0 0000 0000 03f0 0000 0000 03f0     ................
  419928:	0000 0000 fff0 0007 0000 fff0 000f 0000     ................
  419938:	fff0 001f 0000 fff0 003f 0000 fff0 007f     ........?.......
  419948:	0000 fff0 007f 0000 0000 007e 0000 0000     ..........~.....
  419958:	007c 0000 03f0 007c 0000 03f0 007c 0000     |.....|.....|...
  419968:	03f0 007e 0000 fff0 003f 0000 fff0 007f     ..~.....?.......
  419978:	0000 fff0 007f 0000 fff0 007f 0000 fff0     ................
  419988:	007f 0000 fff0 007f 0000 0000 007e 0000     ............~...
  419998:	0000 007e 0000 0000 007e 0000 0000 0000     ..~.....~.......
  4199a8:	0000 03f0 0000 0000 03f0 0000 0000 03f0     ................
  4199b8:	0000 0000 07f0 0000 0000 3ff0 0000 0000     ...........?....
  4199c8:	fff0 0000 0000 fff0 0007 0000 fff0 001f     ................
  4199d8:	0000 fff0 007f 0000 e3f0 007f 0000 83f0     ................
  4199e8:	007f 0000 0000 007c 0000 8000 007f 0000     ......|.........
  4199f8:	f3f0 007f 0000 fff0 007f 0000 fff0 003f     ..............?.
  419a08:	0000 fff0 0007 0000 fff0 0000 0000 3ff0     ...............?
  419a18:	0000 0000 07f0 0000 0000 03f0 0000 0000     ................
  419a28:	03f0 0000 0000 03f0 0000 0000 03f0 0000     ................
  419a38:	0000 03f0 0000 0000 03f0 0000 0000 0ff0     ................
  419a48:	0000 0000 7ff0 0000 0000 fff0 0007 0000     ................
  419a58:	fff0 003f 0000 fff0 007f 0000 fbf0 007f     ..?.............
  419a68:	0000 83f0 007f 0000 c3f0 007f 0000 f800     ................
  419a78:	007f 0000 ff00 007f 0000 ffe0 001f 0000     ................
  419a88:	fff0 0003 0000 7ff0 0000 0000 0ff0 0000     ................
  419a98:	0000 1ff0 0000 0000 fff0 0001 0000 fff0     ................
  419aa8:	000f 0000 ff80 007f 0000 fc00 007f 0000     ................
  419ab8:	e000 007f 0000 03f0 007f 0000 e3f0 007f     ................
  419ac8:	0000 fbf0 007f 0000 fff0 003f 0000 fff0     ..........?.....
  419ad8:	0007 0000 fff0 0001 0000 3ff0 0000 0000     ...........?....
  419ae8:	07f0 0000 0000 03f0 0000 0000 03f0 0000     ................
  419af8:	0000 03f0 0000 0000 03f0 007e 0000 03f0     ..........~.....
  419b08:	007e 0000 03f0 007e 0000 03f0 007e 0000     ~.....~.....~...
  419b18:	07f0 007f 0000 8ff0 007f 0000 dff0 007f     ................
  419b28:	0000 fff0 007f 0000 fff0 007f 0000 fff0     ................
  419b38:	007f 0000 fc00 0001 0000 fc00 0001 0000     ................
  419b48:	fff0 007f 0000 fff0 007f 0000 fff0 007f     ................
  419b58:	0000 dff0 007f 0000 8ff0 007f 0000 07f0     ................
  419b68:	007f 0000 03f0 007e 0000 03f0 007e 0000     ......~.....~...
  419b78:	03f0 007e 0000 03f0 007e 0000 03f0 0000     ..~.....~.......
  419b88:	0000 03f0 0000 0000 03f0 0000 0000 07f0     ................
  419b98:	0000 0000 3ff0 fc00 0000 fff0 fc00 0000     .....?..........
  419ba8:	fff0 fc07 0000 fff0 fe1f 0000 fbf0 ffff     ................
  419bb8:	0000 e3f0 ffff 0000 8000 ffff 0000 8000     ................
  419bc8:	ffff 0000 e3f0 fdff 0000 fff0 fc7f 0000     ................
  419bd8:	fff0 fc1f 0000 fff0 fc03 0000 fff0 0000     ................
  419be8:	0000 3ff0 0000 0000 07f0 0000 0000 03f0     ...?............
  419bf8:	0000 0000 03f0 0000 0000 03f0 0000 0000     ................
  419c08:	0000 0000 0000 0ff0 0000 0000 0ff0 0078     ..............x.
  419c18:	0000 0ff0 007c 0000 0ff0 007f 0000 8ff0     ....|...........
  419c28:	007f 0000 c1f0 007f 0000 f1f0 007f 0000     ................
  419c38:	f9f0 007f 0000 fff0 007f 0000 fff0 007c     ..............|.
  419c48:	0000 7ff0 007c 0000 1ff0 007c 0000 0ff0     ....|.....|.....
  419c58:	007c 0000 c7f0 007f 0000 c1f0 007f 0000     |...............
  419c68:	c0f0 007f 0000 c030 007f 0000 c000 007f     ......0.........
	...
  419c90:	0000 0e00 0000 0000 0e00 0000 0000 1f00     ................
  419ca0:	0000 0000 1f00 0000 fc00 ffff 07ff ff00     ................
  419cb0:	ffff 1fff ff00 ffff 1fff ff80 ffff 3fff     ...............?
  419cc0:	ff80 fbff 3fff ff80 f1ff 3fff 3f80 0000     .....?.....?.?..
  419cd0:	3f80 1f80 0000 3f00 1f80 0000 3f00 0000     .?.....?.....?..
	...
  419cf0:	ff80 ffff 0fff ff80 ffff 0fff ff80 ffff     ................
  419d00:	0fff ff80 ffff 0fff ff80 ffff 0fff ff80     ................
  419d10:	ffff 0fff 0000 0000 0000 0000 0000 0000     ................
	...
  419d30:	0000 1f80 0000 3f00 1f80 0000 3f00 3f80     .......?.....?.?
  419d40:	0000 3f80 ff80 f1ff 3fff ff80 fbff 3fff     ...?.....?.....?
  419d50:	ff80 ffff 3fff ff00 ffff 1fff ff00 ffff     .....?..........
  419d60:	1fff fc00 ffff 07ff 0000 1f80 0000 0000     ................
  419d70:	1f00 0000 0000 0e00 0000 0000 0e00 0000     ................
	...
  419d8c:	0000 3800 0000 0000 7e00 0000 0000 7e00     ...8.....~.....~
  419d9c:	0000 0000 3f00 0000 0000 1f00 0000 0000     .....?..........
  419dac:	1f00 0000 0000 3f00 0000 0000 3e00 0000     .......?.....>..
  419dbc:	0000 3e00 0000 0000 7c00 0000 0000 7c00     ...>.....|.....|
  419dcc:	0000 0000 7c00 0000 0000 7e00 0000 0000     .....|.....~....
  419ddc:	3f00 0000 0000 1f00 0000 0000 0e00 0000     .?..............

00419dec <ArvoBold_24pt_CharCount>:
  419dec:	0b06 180a 1d13 0615 0b0b 1310 0c08 0d08     ................
  419dfc:	0d14 1112 1313 1312 1212 0808 100e 130d     ................
  419e0c:	1723 1816 1617 1a14 0c1e 1a0a 2515 191b     #............%..
  419e1c:	1a16 1318 1816 2518 1819 0a14 0a0c 1013     .......%........
  419e2c:	140c 1214 1316 140d 0d16 170a 220b 1317     ............."..
  419e3c:	1515 1111 160c 1e14 1313 0e12 0e0a 000e     ................

00419e4c <ArvoBold_24pt_Table>:
	...
  419e74:	ff80 701f 8000 ffff 00f8 ff80 f8ff 8000     ...p............
  419e84:	ffff 00f8 ff80 f8ff 8000 1fff 0070 0000     ............p...
	...
  419ea4:	0000 7f80 0000 8000 007f 0000 7f80 0000     ................
  419eb4:	8000 000f 0000 0000 0000 8000 007f 0000     ................
  419ec4:	7f80 0000 8000 007f 0000 0f80 0000 0000     ................
  419ed4:	0000 0000 0000 0780 0000 80e0 00e7 f000     ................
  419ee4:	ff80 0000 fff0 00ff fc00 ffff 8000 ffff     ................
  419ef4:	00ff ff80 1fff 8000 ffff 0007 ff80 0781     ................
  419f04:	8000 80f7 0007 f000 0780 0000 80f0 00c7     ................
  419f14:	f000 ff80 0000 f0f0 00ff f000 ffff 0000     ................
  419f24:	fffe 00ff ff80 3fff 8000 ffff 0007 ff80     .......?........
  419f34:	078f 8000 80ff 0007 f380 0180 0000 00f0     ................
	...
  419f54:	0000 c000 000f 8000 0fc7 0000 cfe0 000f     ................
  419f64:	e000 1fdf 0000 fff0 003f ff80 ff3f 8007     ........?...?...
  419f74:	39ff 07fe ff80 fe79 8007 73ff 07fe ff80     .9....y....s....
  419f84:	fff7 0007 f7f0 003f c000 1fe7 0000 e7c0     ......?.........
  419f94:	001f c000 0787 0000 0000 0000 0000 0000     ................
	...
  419fb8:	0000 00f0 0000 fc00 0003 0000 07fe 0080     ................
  419fc8:	fe00 c007 0000 0f0f 00f0 0f00 f80f 0000     ................
  419fd8:	0f0f 00fe 0f00 ff8f 0000 c7fe 007f fe00     ................
  419fe8:	1ff7 0000 fbfc 000f f000 03fe 0000 ff00     ................
  419ff8:	0001 c000 0f7f 0000 dff0 003f f800 7fef     ..........?.....
  41a008:	0000 e3fe 007f ff00 f0f1 8000 f07f 00f0     ................
  41a018:	3f80 f0f0 8000 f00f 00f0 0380 7fe0 8000     .?..............
  41a028:	e001 007f 0000 3fc0 0000 0000 000f 0000     .......?........
	...
  41a040:	0000 0780 0000 e000 001f f000 3ff0 0000     .............?..
  41a050:	fbfc 007f fe00 7fff 0000 3ffe 00fc ff00     ...........?....
  41a060:	f81f 0000 3f1f 00f8 1f00 f87e 0000 ff1f     .....?....~.....
  41a070:	00f8 ff00 fbff 0000 effe 007f fe00 7fc7     ................
  41a080:	0000 83fc 003f f000 1ff0 0000 f000 003f     ....?.........?.
  41a090:	0000 7ff0 0000 f000 00fd 0000 f870 0000     ............p...
  41a0a0:	0000 0070 0000 0000 8000 007f 0000 7f80     ..p.............
  41a0b0:	0000 8000 007f 0000 0780 0000 0000 0000     ................
	...
  41a0cc:	0000 07ff 0000 ffe0 007f fc00 ffff 0001     ................
  41a0dc:	ffff 07ff ffc0 ffff e01f 01ff 3ffc 1ff0     .............?..
  41a0ec:	c000 e07f 0007 3f00 01c0 0000 403c 0000     .......?....<@..
  41a0fc:	1000 01e0 0000 e01c 0007 3f00 1ff0 c000     ...........?....
  41a10c:	e07f 01ff 3ffc ffc0 ffff 001f ffff 07ff     .....?..........
  41a11c:	fc00 ffff 0001 fff0 003f 0000 07ff 0000     ........?.......
	...
  41a134:	0000 0018 0000 3c00 0000 0000 033c 0000     .......<....<...
  41a144:	bc00 0007 0000 0ff8 0000 ff80 0007 8000     ................
  41a154:	01ff 0000 ff80 0003 8000 07ff 0000 f800     ................
  41a164:	000f 0000 07bc 0000 3c00 0003 0000 0018     .........<......
	...
  41a184:	0000 e000 0001 0000 01e0 0000 e000 0001     ................
  41a194:	0000 01e0 0000 e000 0001 0000 01e0 0000     ................
  41a1a4:	ff80 007f 8000 7fff 0000 ff80 007f 8000     ................
  41a1b4:	7fff 0000 ff80 007f 0000 01e0 0000 e000     ................
  41a1c4:	0001 0000 01e0 0000 e000 0001 0000 01e0     ................
  41a1d4:	0000 e000 0001 0000 0000 0000 0000 1800     ................
  41a1e4:	0000 0000 003f 0000 3ff0 0000 f000 001f     ....?....?......
  41a1f4:	0000 07e0 0000 e000 0001 0000 0040 0000     ............@...
	...
  41a20c:	0000 01e0 0000 e000 0001 0000 01e0 0000     ................
  41a21c:	e000 0001 0000 01e0 0000 e000 0001 0000     ................
  41a22c:	01e0 0000 e000 0001 0000 01e0 0000 e000     ................
  41a23c:	0001 0000 0000 0000 0000 0000 0000 7800     ...............x
  41a24c:	0000 0000 00fc 0000 fc00 0000 0000 00fc     ................
  41a25c:	0000 fc00 0000 0000 0078 0000 0000 0000     ........x.......
  41a26c:	0000 0000 0000 8000 0000 0000 00f0 0000     ................
  41a27c:	fe00 0000 c000 00ff 0000 fff8 0000 fe00     ................
  41a28c:	007f c000 1fff 0000 fff8 0003 ff00 007f     ................
  41a29c:	8000 0fff 0000 ff80 0001 8000 007f 0000     ................
  41a2ac:	0000 0000 0000 ff80 0001 f000 0fff 0000     ................
  41a2bc:	fff8 001f fc00 3fff 0000 fffe 007f 7e00     .......?.......~
  41a2cc:	7e00 0000 003f 00fc 1f00 f800 0000 001f     .~..?...........
  41a2dc:	00f8 1f00 f800 0000 001f 00f8 3f00 fc00     .............?..
  41a2ec:	0000 007e 007e fe00 7fff 0000 fffc 003f     ..~.~.........?.
  41a2fc:	f800 1fff 0000 fff0 000f 8000 01ff 0000     ................
	...
  41a314:	0000 01f8 0000 f800 f800 0000 007c 00f8     ............|...
  41a324:	fc00 ffff 0000 fffe 00ff ff00 ffff 0000     ................
  41a334:	ffff 00ff ff00 ffff 0000 0000 00f8 0000     ................
  41a344:	f800 0000 0000 0000 0000 0000 0000 0000     ................
	...
  41a35c:	00e0 00f0 f800 f800 0000 00fc 00fc fe00     ................
  41a36c:	fe00 0000 00fe 00ff 3f00 ff80 0000 c01f     .........?......
  41a37c:	00ff 1f00 fff0 0000 f81f 00f3 3f00 f1fc     .............?..
  41a38c:	0000 fffe 00f0 fe00 f07f 0000 3ffc 00f0     .............?..
  41a39c:	f800 f01f 0000 07f0 00f0 0000 f000 0000     ................
  41a3ac:	00e0 0007 f800 1f00 0000 00fc 003f fe00     ............?...
  41a3bc:	7f00 0000 00fe 007f 3f00 fc00 0000 3c1f     .........?.....<
  41a3cc:	00f8 1f00 f83c 0000 3c1f 00f8 1f00 f83c     ....<....<....<.
  41a3dc:	0000 7e3f 00fc fe00 7fff 0000 fffe 007f     ..?~............
  41a3ec:	fc00 3fff 0000 f7f8 001f e000 07c3 0000     ...?............
  41a3fc:	0000 0000 0000 01f0 0000 f800 0001 0000     ................
  41a40c:	01fe 0000 ff00 0001 c000 01ff 0000 ffe0     ................
  41a41c:	0001 f000 01ef 0000 e7fc 0001 fe00 f9e1     ................
  41a42c:	0000 e0ff 00f9 3f00 ffff 0000 ff1f 00ff     .......?........
  41a43c:	0700 ffff 0000 ff03 00ff 0100 ffff 0000     ................
  41a44c:	e000 00f9 0000 f9e0 0000 e000 0001 0000     ................
	...
  41a468:	0000 1fff 000e ff00 1f3f 0000 3fff 003f     ........?....??.
  41a478:	ff00 7f3f 0000 3fff 007e 0f00 fc1f 0000     ..?....?~.......
  41a488:	1f0f 00f8 0f00 f81f 0000 1f0f 00f8 0f00     ................
  41a498:	f83f 0000 3f0f 00fc 0f00 7ffe 0000 fe0f     ?....?..........
  41a4a8:	007f 0f00 3ffc 0000 f80f 001f 0000 07e0     .....?..........
	...
  41a4c4:	e000 0007 0000 1ff8 0000 fe00 003f 0000     ............?...
  41a4d4:	7fff 0000 ffc0 007f f000 fc3f 0000 1ff8     ..........?.....
  41a4e4:	00f8 fe00 f81f 0000 1fff 00f8 7f00 f81f     ................
  41a4f4:	0000 3f1f 00fc 0f00 7fff 0000 fe03 007f     ...?............
  41a504:	0000 3ffc 0000 f800 001f 0000 07e0 0000     ...?............
	...
  41a51c:	0000 007f 0000 7f00 0000 0000 007f 0000     ................
  41a52c:	7f00 f800 0000 007f 00f8 0f00 fe00 0000     ................
  41a53c:	c00f 00ff 0f00 fff0 0000 fc0f 00ff 8f00     ................
  41a54c:	ffff 0000 ffef 00fb ff00 f87f 0000 1fff     ................
  41a55c:	0000 ff00 0003 0000 00ff 0000 3f00 0000     .............?..
  41a56c:	0000 000f 0000 0000 0000 0000 0000 0000     ................
  41a57c:	0000 0000 0000 8000 0007 e000 1fe1 0000     ................
  41a58c:	f7f8 003f fc00 7fff 0000 fffe 007f ff00     ..?.............
  41a59c:	fe7f 0000 3e3f 00f8 1f00 f83c 0000 3c1f     ....?>....<....<
  41a5ac:	00f8 3f00 fc7e 0000 ffff 007f fe00 7fff     ...?~...........
  41a5bc:	0000 fffc 003f f800 1fe7 0000 c1f0 0007     ....?...........
	...
  41a5dc:	07e0 0000 f800 001f 0000 3ffc 0000 fe00     ...........?....
  41a5ec:	807f 0000 7ffe 00c0 3f00 f0fc 0000 f81f     .........?......
  41a5fc:	00fc 1f00 fff8 0000 f81f 00ff 1f00 3ff8     ...............?
  41a60c:	0000 fc3f 000f fe00 03ff 0000 fffe 0000     ..?.............
  41a61c:	fc00 007f 0000 1ff8 0000 e000 0003 0000     ................
  41a62c:	0000 0000 0000 781e 0000 3f00 00fc 0000     .......x...?....
  41a63c:	fc3f 0000 3f00 00fc 0000 fc3f 0000 1e00     ?....?....?.....
  41a64c:	0078 0000 0000 0000 0000 1f00 0000 f007     x...............
  41a65c:	001f 0f80 1ff0 8000 f01f 0007 1f80 01f0     ................
  41a66c:	8000 600f 0000 0700 0000 0000 0000 0000     ...`............
  41a67c:	0000 0000 0000 07fc 0000 fc00 0007 0000     ................
  41a68c:	07fe 0000 fe00 0007 0000 0ffe 0000 be00     ................
  41a69c:	000f 0000 0fbe 0000 be00 000f 0000 0fbe     ................
  41a6ac:	0000 bf00 001f 0000 1f3f 0000 1f00 001f     ........?.......
	...
  41a6c8:	078f 0000 8f00 0007 0000 078f 0000 8f00     ................
  41a6d8:	0007 0000 078f 0000 8f00 0007 0000 078f     ................
  41a6e8:	0000 8f00 0007 0000 078f 0000 8f00 0007     ................
  41a6f8:	0000 078f 0000 8f00 0007 0000 078f 0000     ................
  41a708:	8f00 0007 0000 0000 0000 0000 0000 0000     ................
  41a718:	1f1f 0000 bf00 001f 0000 1fbf 0000 be00     ................
  41a728:	000f 0000 0fbe 0000 be00 000f 0000 0fbe     ................
  41a738:	0000 fe00 000f 0000 07fe 0000 fe00 0007     ................
  41a748:	0000 07fc 0000 fc00 0007 0000 0000 0000     ................
  41a758:	0070 0000 f800 0000 0000 00fc 0000 fe00     p...............
  41a768:	0000 0000 c0ff 0073 3f00 fbf0 0000 f01f     ......s..?......
  41a778:	01fb 1f00 fbf8 0001 fc1f 00fb 3f00 703e     .............?>p
  41a788:	0000 1fff 0000 fe00 001f 0000 0ffe 0000     ................
  41a798:	fc00 0007 0000 01f0 0000 0000 0000 0000     ................
	...
  41a7c0:	0000 07f8 0000 ff00 003f c000 ffff 0000     ........?.......
  41a7d0:	ffe0 01ff f800 ffff 0007 07fc 0ff8 fc00     ................
  41a7e0:	e001 000f 00fe 1fc0 3f00 07f0 003f fc3f     .........?..?.?.
  41a7f0:	3f1f 1f00 3ffe 803e ff1f 7e7f 8f80 ffff     .?...?>....~....
  41a800:	807c 1f8f 7cf8 8f80 f80f 807c ff8f 7cff     |....|....|....|
  41a810:	0f80 ffff 807c ff9f 7c7f 9f00 7fff 003e     ....|....|....>.
  41a820:	ff9f 3e7f 3f00 f800 001e 007e 1cf8 fc00     ...>.?....~.....
  41a830:	f801 0000 07fc 00fe f800 7fff 0000 fff0     ................
  41a840:	007f c000 3fff 0000 ff00 000f 0000 03fc     .....?..........
	...
  41a860:	0000 f800 0000 0000 00f8 0000 fe00 0000     ................
  41a870:	c000 00ff 0000 fffc 0000 ffc0 00ff f800     ................
  41a880:	ffff 0000 ffff 00fb ff00 f8ff 0000 f7ff     ................
  41a890:	00f8 7f00 00f0 0000 f00f 0000 ff00 00f0     ................
  41a8a0:	0000 f7ff 00f8 ff00 f8ff 0000 ffff 00fb     ................
  41a8b0:	f000 ffff 0000 ff80 00ff 0000 fff8 0000     ................
  41a8c0:	c000 00ff 0000 fe00 0000 0000 00f8 0000     ................
  41a8d0:	f800 0000 0000 0000 0000 0000 0000 000f     ................
  41a8e0:	00f0 0f00 f000 0000 ffff 00ff ff00 ffff     ................
  41a8f0:	0000 ffff 00ff ff00 ffff 0000 ffff 00ff     ................
  41a900:	0f00 f03c 0000 3c0f 00f0 0f00 f03c 0000     ..<....<....<...
  41a910:	3c0f 00f0 0f00 f03c 0000 3c0f 00f0 1f00     .<....<....<....
  41a920:	f87e 0000 fffe 00ff fe00 7fff 0000 fffc     ~...............
  41a930:	003f f800 1fe7 0000 c3e0 0007 0000 0000     ?...............
	...
  41a948:	00ff 0000 ffc0 0003 f000 0fff 0000 fff8     ................
  41a958:	001f fc00 3fff 0000 81fc 003f 7e00 7e00     .....?....?..~.~
  41a968:	0000 003e 007c 3f00 fc00 0000 001f 00f8     ..>.|..?........
  41a978:	1f00 f800 0000 001f 00f8 1f00 f800 0000     ................
  41a988:	001f 00f8 3f00 fc00 0000 003f 007e 7e00     .....?....?.~..~
  41a998:	7f80 0000 807e 003f 7c00 1f80 0000 807c     ....~.?..|....|.
  41a9a8:	000f 7c00 0780 0000 007c 0000 7c00 0000     ...|....|....|..
  41a9b8:	0000 0000 0000 0f00 f000 0000 000f 00f0     ................
  41a9c8:	ff00 ffff 0000 ffff 00ff ff00 ffff 0000     ................
  41a9d8:	ffff 00ff ff00 ffff 0000 000f 00f0 0f00     ................
  41a9e8:	f000 0000 000f 00f0 0f00 f000 0000 000f     ................
  41a9f8:	00f0 1f00 f800 0000 003e 007c 7e00 7e00     ........>.|..~.~
  41aa08:	0000 81fc 003f f800 1fff 0000 fff0 001f     ....?...........
  41aa18:	e000 07ff 0000 ffc0 0003 0000 007f 0000     ................
	...
  41aa34:	0000 1f00 f800 0000 001f 00f8 ff00 ffff     ................
  41aa44:	0000 ffff 00ff ff00 ffff 0000 ffff 00ff     ................
  41aa54:	ff00 ffff 0000 1e1f 00f8 1f00 f81e 0000     ................
  41aa64:	1e1f 00f8 1f00 f81e 0000 1e1f 00f8 1f00     ................
  41aa74:	f800 0000 001f 00f8 ff00 ff00 0000 00ff     ................
  41aa84:	00ff ff00 ff00 0000 00ff 00ff ff00 ff00     ................
	...
  41aaa4:	1f00 f800 0000 001f 00f8 ff00 ffff 0000     ................
  41aab4:	ffff 00ff ff00 ffff 0000 ffff 00ff ff00     ................
  41aac4:	ffff 0000 7c1f 00f8 1f00 f87c 0000 7c1f     .....|....|....|
  41aad4:	0000 1f00 007c 0000 7c1f 0000 1f00 0000     ....|....|......
  41aae4:	0000 00ff 0000 ff00 0000 0000 00ff 0000     ................
  41aaf4:	ff00 0000 0000 00ff 0000 0000 0000 0000     ................
  41ab04:	fe00 0000 c000 03ff 0000 ffe0 000f f800     ................
  41ab14:	1fff 0000 fff8 003f fc00 3f81 0000 00fe     ......?....?....
  41ab24:	007e 7e00 7c00 0000 003f 00fc 1f00 f800     ~..~.|..?.......
  41ab34:	0000 001f 00f8 1f00 f800 0000 781f 00f8     .............x..
  41ab44:	1f00 f878 0000 783f 007c 7e00 7f78 0000     ..x...?x|..~x...
  41ab54:	f8fe 003f fe00 1ff8 0000 f8fc 00ff f800     ..?.............
  41ab64:	fff8 0000 f8f8 00ff f800 fff8 0000 f8f8     ................
  41ab74:	00ff 0000 0000 0000 0000 0000 0000 0000     ................
  41ab84:	0000 0000 0000 1f00 f800 0000 001f 00f8     ................
  41ab94:	ff00 ffff 0000 ffff 00ff ff00 ffff 0000     ................
  41aba4:	ffff 00ff ff00 ffff 0000 1e1f 00f8 1f00     ................
  41abb4:	f81e 0000 1e00 0000 0000 001e 0000 1e00     ................
  41abc4:	0000 0000 001e 0000 1e00 0000 0000 001e     ................
  41abd4:	0000 1e00 0000 0000 001e 0000 1e1f 00f8     ................
  41abe4:	1f00 f81e 0000 ffff 00ff ff00 ffff 0000     ................
  41abf4:	ffff 00ff ff00 ffff 0000 ffff 00ff 1f00     ................
  41ac04:	f800 0000 001f 00f8 0000 0000 0000 0000     ................
	...
  41ac20:	1f00 f800 0000 001f 00f8 ff00 ffff 0000     ................
  41ac30:	ffff 00ff ff00 ffff 0000 ffff 00ff ff00     ................
  41ac40:	ffff 0000 001f 00f8 1f00 f800 0000 0000     ................
  41ac50:	0000 0000 0000 0004 001f 0f00 1f00 c000     ................
  41ac60:	000f ffff 0fff ff00 ffff 0007 ffff 03ff     ................
  41ac70:	ff00 ffff 0000 ffff 007f 1f00 0000 0000     ................
  41ac80:	001f 0000 0000 0000 0000 0000 0000 1f00     ................
  41ac90:	f800 0000 001f 00f8 ff00 ffff 0000 ffff     ................
  41aca0:	00ff ff00 ffff 0000 ffff 00ff ff00 ffff     ................
  41acb0:	0000 3c1f 00f8 1f00 f83c 0000 3e00 0000     ...<....<....>..
  41acc0:	0000 007f 0000 ff00 0000 8000 01ff 0000     ................
  41acd0:	ffc0 0003 e000 07f7 0000 e7ff 00ff ff00     ................
  41ace0:	ffc3 0000 81ff 00ff ff00 ff00 0000 00ff     ................
  41acf0:	00fe 7f00 fc00 0000 003f 00f8 1f00 f800     ........?.......
	...
  41ad10:	1f00 f000 0000 001f 00f0 ff00 ffff 0000     ................
  41ad20:	ffff 00ff ff00 ffff 0000 ffff 00ff ff00     ................
  41ad30:	ffff 0000 001f 00f0 1f00 f000 0000 0000     ................
  41ad40:	00f0 0000 f000 0000 0000 00f0 0000 f000     ................
  41ad50:	0000 8000 00ff 0000 ff80 0000 8000 00ff     ................
  41ad60:	0000 ff80 0000 8000 00ff 0000 0000 0000     ................
	...
  41ad78:	0000 001f 00f8 1f00 f800 0000 ffff 00ff     ................
  41ad88:	ff00 ffff 0000 ffff 00ff ff00 ffff 0000     ................
  41ad98:	ffff 00ff ff00 f800 0000 03ff 00f8 ff00     ................
  41ada8:	001f 0000 7ff8 0000 e000 01ff 0000 ff80     ................
  41adb8:	000f 0000 3ffe 0000 f000 00ff 0000 ffc0     .....?..........
  41adc8:	0000 0000 00ff 0000 ff80 0000 f000 00ff     ................
  41add8:	0000 7ffc 0000 ff80 001f f000 03ff 0000     ................
  41ade8:	7ffc 0000 ff00 001f 0000 03ff 00f8 7f00     ................
  41adf8:	f800 0000 ffff 00ff ff00 ffff 0000 ffff     ................
  41ae08:	00ff ff00 ffff 0000 ffff 00ff 1f00 f800     ................
  41ae18:	0000 001f 00f8 0000 0000 0000 0000 0000     ................
	...
  41ae30:	0000 1f00 f800 0000 001f 00f8 ff00 ffff     ................
  41ae40:	0000 ffff 00ff ff00 ffff 0000 ffff 00ff     ................
  41ae50:	ff00 ffff 0000 03fe 00f8 f800 f807 0000     ................
  41ae60:	1ff0 0000 c000 003f 0000 ff80 0000 0000     ......?.........
  41ae70:	01fe 0000 fc00 0007 0000 0ff0 0000 e01f     ................
  41ae80:	003f 1f00 7f80 0000 ffff 00ff ff00 ffff     ?...............
  41ae90:	0000 ffff 00ff ff00 ffff 0000 ffff 00ff     ................
  41aea0:	1f00 0000 0000 001f 0000 0000 0000 0000     ................
  41aeb0:	0000 0000 0000 00ff 0000 ffc0 0003 f000     ................
  41aec0:	0fff 0000 fff8 001f fc00 3fff 0000 81fc     ...........?....
  41aed0:	003f 7e00 7e00 0000 003e 007c 3f00 fc00     ?..~.~..>.|..?..
  41aee0:	0000 001f 00f8 1f00 f800 0000 001f 00f8     ................
  41aef0:	1f00 f800 0000 001f 00f8 3f00 fc00 0000     ...........?....
  41af00:	003e 007c 7e00 7e00 0000 81fc 003f fc00     >.|..~.~....?...
  41af10:	3fff 0000 fff8 001f f000 0fff 0000 ffc0     .?..............
  41af20:	0003 0000 00ff 0000 0000 0000 0000 0000     ................
  41af30:	0000 0000 0000 1f00 f800 0000 001f 00f8     ................
  41af40:	ff00 ffff 0000 ffff 00ff ff00 ffff 0000     ................
  41af50:	ffff 00ff ff00 ffff 0000 781f 00f8 1f00     ...........x....
  41af60:	f878 0000 781f 0000 1f00 0078 0000 781f     x....x....x....x
  41af70:	0000 3f00 007c 0000 7c3f 0000 fe00 003f     ...?|...?|....?.
  41af80:	0000 3ffe 0000 fc00 001f 0000 0ff8 0000     ...?............
  41af90:	e000 0003 0000 0000 0000 0000 0000 0000     ................
  41afa0:	fe00 0000 c000 03ff 0000 ffe0 000f f800     ................
  41afb0:	1fff 0000 fffc 003f fc00 3f81 0000 007e     ......?....?..~.
  41afc0:	007e 3e00 7c00 0000 003f 00fc 1f00 f800     ~..>.|..?.......
  41afd0:	000f 001f 0ff8 1f00 f800 000f 001f 1ff8     ................
  41afe0:	1f00 f800 001f 003f 3efc 3e00 7c00 003e     ......?..>.>.|>.
  41aff0:	007e 7c7e fc00 3f81 007c fffc 7c3f f800     ~.~|...?|...?|..
  41b000:	1fff 007e ffe0 3f0f c000 03ff 003f fe00     ..~....?....?...
  41b010:	1f00 0000 0000 0006 0000 0000 0000 0000     ................
  41b020:	0000 0000 0000 1f00 f800 0000 001f 00f8     ................
  41b030:	ff00 ffff 0000 ffff 00ff ff00 ffff 0000     ................
  41b040:	ffff 00ff ff00 ffff 0000 3c1f 00f8 1f00     ...........<....
  41b050:	f83c 0000 3c1f 0000 1f00 003c 0000 7c1f     <....<....<....|
  41b060:	0000 1f00 00fc 0000 fc1f 001f 3f00 fffe     .............?..
  41b070:	0000 ffff 00ff fe00 ffef 0000 c7fc 00ff     ................
  41b080:	fc00 fe07 0000 01f0 00f8 0000 f800 0000     ................
  41b090:	0000 0000 0000 0f80 0000 81f0 000f f800     ................
  41b0a0:	1f87 0000 8ffc 003f fe00 7f9f 0000 1ffe     ......?.........
  41b0b0:	007e 3f00 fc1f 0000 3e1f 00f8 1f00 f83e     ~..?.....>....>.
  41b0c0:	0000 3e1f 00f8 1f00 f87c 0000 7c1f 00f8     ...>....|....|..
  41b0d0:	3f00 fcfc 0000 f8fe 007f fe00 7ff8 0000     .?..............
  41b0e0:	f0fc 003f f800 1ff0 0000 c0f0 0007 0000     ..?.............
  41b0f0:	0000 0000 00ff 0000 ff00 0000 0000 00ff     ................
  41b100:	0000 ff00 0000 0000 00ff 0000 0f00 0000     ................
  41b110:	0000 000f 00f8 0f00 f800 0000 ffff 00ff     ................
  41b120:	ff00 ffff 0000 ffff 00ff ff00 ffff 0000     ................
  41b130:	ffff 00ff 0f00 f800 0000 000f 00f8 0f00     ................
  41b140:	0000 0000 00ff 0000 ff00 0000 0000 00ff     ................
  41b150:	0000 ff00 0000 0000 00ff 0000 0000 0000     ................
  41b160:	0000 0000 0000 1f00 0000 0000 001f 0000     ................
  41b170:	ff00 03ff 0000 ffff 000f ff00 1fff 0000     ................
  41b180:	ffff 003f ff00 7fff 0000 001f 007e 1f00     ..?.........~...
  41b190:	fc00 0000 0000 00f8 0000 f800 0000 0000     ................
  41b1a0:	00f8 0000 f800 0000 001f 00fc 1f00 7e00     ...............~
  41b1b0:	0000 ffff 007f ff00 3fff 0000 ffff 001f     .........?......
  41b1c0:	ff00 0fff 0000 ffff 0003 1f00 0000 0000     ................
  41b1d0:	001f 0000 0000 0000 0000 0000 0000 1f00     ................
  41b1e0:	0000 0000 001f 0000 7f00 0000 0000 03ff     ................
  41b1f0:	0000 ff00 001f 0000 ffff 0000 ff00 07ff     ................
  41b200:	0000 ffdf 003f 1f00 fffe 0000 f01f 00ff     ....?...........
  41b210:	0000 ff80 0000 0000 00fc 0000 ff80 0000     ................
  41b220:	f01f 00ff 1f00 fffe 0000 ffdf 003f ff00     ............?...
  41b230:	07ff 0000 ffff 0000 ff00 001f 0000 03ff     ................
  41b240:	0000 7f00 0000 0000 001f 0000 1f00 0000     ................
  41b250:	0000 0000 0000 1f00 0000 0000 001f 0000     ................
  41b260:	7f00 0000 0000 03ff 0000 ff00 001f 0000     ................
  41b270:	ffff 0001 ff00 0fff 0000 ffdf 007f 1f00     ................
  41b280:	fffc 0000 e01f 00ff 0000 ff00 0000 8000     ................
  41b290:	00ff 0000 fff8 0000 ff80 00ff f800 7fff     ................
  41b2a0:	0000 ffff 0007 ff00 007f 0000 07ff 0000     ................
  41b2b0:	ff00 0007 0000 7fff 0000 ff00 07ff 0000     ................
  41b2c0:	fffc 007f c000 ffff 0000 fc00 00ff 0000     ................
  41b2d0:	ff80 0000 0000 00ff 1f00 ffe0 0000 fe1f     ................
  41b2e0:	00ff df00 ffff 0000 ffff 000f ff00 01ff     ................
  41b2f0:	0000 3fff 0000 ff00 0003 0000 007f 0000     ...?............
  41b300:	1f00 0000 0000 001f 0000 1f00 0000 0000     ................
  41b310:	001f 00f0 3f00 f800 0000 007f 00fc ff00     .....?..........
  41b320:	fe00 0000 01ff 00ff ff00 ff83 0000 c7ff     ................
  41b330:	00ff df00 ffef 0000 ff9f 00f7 0000 f3ff     ................
  41b340:	0000 fe00 0001 0000 00ff 0000 ff80 0001     ................
  41b350:	df00 f3ff 0000 efff 00f7 ff00 ffc7 0000     ................
  41b360:	83ff 00ff ff00 ff01 0000 00ff 00fe 7f00     ................
  41b370:	fc00 0000 003f 00f8 1f00 f000 0000 0000     ....?...........
	...
  41b38c:	1f00 0000 0000 001f 0000 3f00 0000 0000     ...........?....
  41b39c:	007f 0000 ff00 0000 0000 03ff 0000 ff00     ................
  41b3ac:	0007 0000 0fff 00f8 df00 f83f 0000 ff9f     ..........?.....
  41b3bc:	00ff 0000 fffe 0000 fc00 00ff 0000 fffe     ................
  41b3cc:	0000 ff9f 00ff df00 f87f 0000 1fff 00f8     ................
  41b3dc:	ff00 000f 0000 03ff 0000 ff00 0001 0000     ................
  41b3ec:	007f 0000 3f00 0000 0000 001f 0000 1f00     .....?..........
	...
  41b404:	ff00 fc01 0000 01ff 00fe ff00 ff01 0000     ................
  41b414:	81ff 00ff ff00 ffe1 0000 f01f 00ff 1f00     ................
  41b424:	fbf8 0000 fe1f 00f9 1f00 f8ff 0000 7f9f     ................
  41b434:	00f8 df00 f81f 0000 0fff 00f8 ff00 f807     ................
  41b444:	0000 03ff 00ff ff00 ff00 0000 007f 00ff     ................
  41b454:	3f00 ff00 0000 000f 00ff 0000 0000 0000     .?..............
  41b464:	0000 0000 fff0 ffff f0ff ffff ffff fff0     ................
  41b474:	ffff f0ff ffff ffff 00f0 0000 f0f0 0000     ................
  41b484:	f000 0000 0000 0000 0000 0000 0000 0000     ................
  41b494:	0000 0004 0000 3c00 0000 0000 01fc 0000     .......<........
  41b4a4:	fc00 000f 0000 7ffc 0000 f800 07ff 0000     ................
  41b4b4:	ffc0 003f 0000 fffe 0001 f000 0fff 0000     ..?.............
  41b4c4:	ff80 001f 0000 1ffc 0000 e000 001f 0000     ................
  41b4d4:	0000 0000 0000 f000 0000 f000 00f0 0000     ................
  41b4e4:	f0f0 ffff ffff fff0 ffff f0ff ffff ffff     ................
  41b4f4:	fff0 ffff f0ff ffff ffff 0000 0000 0000     ................
  41b504:	0000 0000 0000 0010 0000 1c00 0000 0000     ................
  41b514:	001f 0000 1fc0 0000 f000 001f 0000 1ffc     ................
  41b524:	0000 ff00 0007 0000 01ff 0000 7f00 0000     ................
  41b534:	0000 001f 0000 ff00 0000 0000 1fff 0000     ................
  41b544:	ff00 001f 0000 1fff 0000 fe00 001f 0000     ................
  41b554:	1fc0 0000 0000 0018 0000 0000 0000 0000     ................
  41b564:	0000 001e 0000 1e00 0000 0000 001e 0000     ................
  41b574:	1e00 0000 0000 001e 0000 1e00 0000 0000     ................
  41b584:	001e 0000 1e00 0000 0000 001e 0000 1e00     ................
  41b594:	0000 0000 001e 0000 1e00 0000 0000 001e     ................
  41b5a4:	0000 1e00 0000 0000 001e 0000 1e00 0000     ................
	...
  41b5c0:	0000 0001 0000 0300 0000 0000 0007 0000     ................
  41b5d0:	0f00 0000 0000 001f 0000 1e00 0000 0000     ................
  41b5e0:	001c 0000 1000 0000 0000 0000 0000 0000     ................
  41b5f0:	0000 0000 0000 001e 0000 3f0c 0000 9e00     ...........?....
  41b600:	007f 0000 ffde 0000 df00 00ff 0000 f1df     ................
  41b610:	0000 df00 00f1 0000 f1df 0000 df00 00f1     ................
  41b620:	0000 79df 0000 ff00 00ff 0000 fffe 0000     ...y............
  41b630:	fe00 00ff 0000 fffc 0000 f800 00ff 0000     ................
  41b640:	f800 0000 0000 00f8 0000 0000 0000 0000     ................
  41b650:	0000 0000 0000 8000 000f 0000 0f80 0000     ................
  41b660:	8000 ffff 00ff ff80 ffff 8000 ffff 00ff     ................
  41b670:	ff80 ffff 8000 ffff 00ff 0000 fc3e 0000     ............>...
  41b680:	1f00 00f8 0000 f81f 0000 1f00 00f8 0000     ................
  41b690:	f81f 0000 3f00 00fc 0000 7ffe 0000 fe00     .....?..........
  41b6a0:	007f 0000 3ffc 0000 f800 001f 0000 07e0     .....?..........
	...
  41b6bc:	e000 0007 0000 1ff8 0000 fc00 003f 0000     ............?...
  41b6cc:	7ffe 0000 fe00 007f 0000 fc3f 0000 1f00     ..........?.....
  41b6dc:	00f8 0000 f81f 0000 1f00 00f8 0000 f81f     ................
  41b6ec:	0000 1f00 00fc 0000 7c3e 0000 3e00 007c     ........>|...>|.
  41b6fc:	0000 3c3e 0000 3e00 001c 0000 003e 0000     ..><...>....>...
	...
  41b714:	0000 e000 0007 0000 1ff8 0000 fc00 003f     ..............?.
  41b724:	0000 7ffe 0000 fe00 007f 0000 fc3f 0000     ............?...
  41b734:	3f00 00fc 0000 f81f 0000 1f00 00f8 0000     .?..............
  41b744:	f81f 8000 1f0f 00f8 0f80 fc3e 8000 ffff     ..........>.....
  41b754:	00ff ff80 ffff 8000 ffff 00ff ff80 ffff     ................
  41b764:	8000 ffff 00ff 0000 f800 0000 0000 00f8     ................
	...
  41b784:	e000 0007 0000 1ff8 0000 fc00 003f 0000     ............?...
  41b794:	7ffe 0000 fe00 007f 0000 7ddf 0000 cf00     ...........}....
  41b7a4:	00f9 0000 f9cf 0000 cf00 00f9 0000 f9cf     ................
  41b7b4:	0000 cf00 00f9 0000 f9df 0000 fe00 007d     ..............}.
  41b7c4:	0000 7dfe 0000 fc00 003d 0000 39f8 0000     ...}....=....9..
  41b7d4:	e000 0001 0000 0000 0000 0000 0000 0000     ................
  41b7e4:	0000 0000 1f00 00f8 0000 f81f 0000 fff8     ................
  41b7f4:	00ff fe00 ffff 0000 ffff 00ff ff00 ffff     ................
  41b804:	8000 ffff 00ff 1f80 f81f 8000 1f0f 00f8     ................
  41b814:	0f80 001f 8000 000f 0000 0000 0000 0000     ................
  41b824:	e000 0007 0000 1ff8 0018 fc00 3c3f 0000     ............?<..
  41b834:	7ffe 003c fe00 3c7f 0000 fc3f 007c 3f00     ..<....<..?.|..?
  41b844:	7cfc 0000 f81f 007c 1f00 7cf8 0000 f81f     .|....|....|....
  41b854:	007c 1f00 7cf8 0000 7c3f 007e ff00 3fff     |....|..?|~....?
  41b864:	0000 ffff 003f ff00 1fff 0000 ffff 000f     ....?...........
  41b874:	ff00 03ff 0000 0000 0000 0000 0000 0000     ................
  41b884:	0000 8000 000f 00f8 0f80 f800 8000 ffff     ................
  41b894:	00ff ff80 ffff 8000 ffff 00ff ff80 ffff     ................
  41b8a4:	8000 ffff 00ff 0000 f83e 0000 1e00 00f8     ........>.......
  41b8b4:	0000 001f 0000 1f00 0000 0000 001f 0000     ................
  41b8c4:	3f00 0000 0000 ffff 0000 ff00 00ff 0000     .?..............
  41b8d4:	fffe 0000 fc00 00ff 0000 fff8 0000 0000     ................
  41b8e4:	00f8 0000 f800 0000 0000 0000 0000 0000     ................
	...
  41b8fc:	f81f 0000 1f00 00f8 0f00 ffff 8000 ff1f     ................
  41b90c:	00ff 1f80 ffff 8000 ff1f 00ff 1f80 ffff     ................
  41b91c:	0000 000f 00f8 0000 f800 0000 0000 0000     ................
	...
  41b938:	001f 0070 1f00 7800 0f00 ffff 807f ff1f     ..p....x........
  41b948:	3fff 1f80 ffff 803f ff1f 1fff 0f00 ffff     .?....?.........
  41b958:	0007 0000 0000 0000 0000 0000 0000 0000     ................
  41b968:	0f80 f800 8000 000f 00f8 ff80 ffff 8000     ................
  41b978:	ffff 00ff ff80 ffff 8000 ffff 00ff ff80     ................
  41b988:	ffff 0000 e000 00f8 0000 f8e0 0000 f000     ................
  41b998:	0000 0000 01f8 0000 ff00 0003 0000 0fff     ................
  41b9a8:	0000 ff00 003f 0000 7fff 0000 3f00 00ff     ....?........?..
  41b9b8:	0000 fe3f 0000 1f00 00f8 0000 f81f 0000     ..?.............
  41b9c8:	1f00 00f8 0000 0000 0000 0000 0000 0000     ................
  41b9d8:	0000 8000 000f 00f8 0f80 f800 8000 ffff     ................
  41b9e8:	00ff ff80 ffff 8000 ffff 00ff ff80 ffff     ................
  41b9f8:	8000 ffff 00ff 0000 f800 0000 0000 00f8     ................
	...
  41ba18:	1f00 00f8 0000 f81f 0000 ff00 00ff 0000     ................
  41ba28:	ffff 0000 ff00 00ff 0000 ffff 0000 ff00     ................
  41ba38:	00ff 0000 f83e 0000 1f00 00f8 0000 f81f     ....>...........
  41ba48:	0000 1f00 0000 0000 001f 0000 3f00 0000     .............?..
  41ba58:	0000 ffff 0000 fe00 00ff 0000 fffe 0000     ................
  41ba68:	fc00 00ff 0000 fffc 0000 3e00 00f8 0000     ...........>....
  41ba78:	f81e 0000 1f00 0000 0000 001f 0000 3f00     ...............?
  41ba88:	0000 0000 ffff 0000 ff00 00ff 0000 fffe     ................
  41ba98:	0000 fe00 00ff 0000 fff8 0000 0000 00f8     ................
  41baa8:	0000 f800 0000 0000 0000 0000 0000 0000     ................
	...
  41bac0:	0000 1f00 00f8 0000 f81f 0000 ff00 00ff     ................
  41bad0:	0000 ffff 0000 ff00 00ff 0000 ffff 0000     ................
  41bae0:	ff00 00ff 0000 f83e 0000 1f00 00f8 0000     ......>.........
  41baf0:	001f 0000 1f00 0000 0000 003f 0000 ff00     ..........?.....
  41bb00:	00ff 0000 ffff 0000 fe00 00ff 0000 fffe     ................
  41bb10:	0000 f800 00ff 0000 f800 0000 0000 00f8     ................
	...
  41bb30:	e000 0007 0000 1ff8 0000 fc00 003f 0000     ............?...
  41bb40:	7ffe 0000 fe00 007f 0000 fc3f 0000 1f00     ..........?.....
  41bb50:	00fc 0000 f81f 0000 1f00 00f8 0000 f81f     ................
  41bb60:	0000 1f00 00f8 0000 fc3f 0000 fe00 007f     ........?.......
  41bb70:	0000 7ffe 0000 fc00 003f 0000 1ff8 0000     ........?.......
  41bb80:	e000 0007 0000 0000 0000 0000 0000 0000     ................
  41bb90:	0000 0000 1f00 7c00 0000 001f 007c ff00     .......|....|...
  41bba0:	7fff 0000 ffff 007f ff00 7fff 0000 ffff     ................
  41bbb0:	007f ff00 7fff 0000 7c3f 007c 1f00 7cf8     ........?||....|
  41bbc0:	0000 f81f 0000 1f00 00f8 0000 f81f 0000     ................
  41bbd0:	3f00 00fc 0000 7ffe 0000 fe00 007f 0000     .?..............
  41bbe0:	3ffc 0000 f800 001f 0000 07e0 0000 0000     .?..............
	...
  41bbf8:	e000 0007 0000 1ff8 0000 fc00 003f 0000     ............?...
  41bc08:	7ffe 0000 fe00 007f 0000 fc3f 0000 3f00     ..........?....?
  41bc18:	00fc 0000 f81f 0000 1f00 00f8 0000 f81f     ................
  41bc28:	0000 1f00 7cf8 0000 7c3f 007c ff00 7fff     .....|..?||.....
  41bc38:	0000 ffff 007f ff00 7fff 0000 ffff 007f     ................
  41bc48:	ff00 7fff 0000 0000 007c 0000 7c00 0000     ........|....|..
	...
  41bc64:	0000 1f00 00f8 0000 f81f 0000 ff00 00ff     ................
  41bc74:	0000 ffff 0000 ff00 00ff 0000 ffff 0000     ................
  41bc84:	ff00 00ff 0000 f81e 0000 1f00 00f8 0000     ................
  41bc94:	007f 0000 7f00 0000 0000 007f 0000 7f00     ................
  41bca4:	0000 0000 007f 0000 0000 0000 0000 0000     ................
  41bcb4:	0000 3800 003e 0000 3e7c 0000 fe00 003e     ...8>...|>....>.
  41bcc4:	0000 7efe 0000 ff00 007d 0000 f9df 0000     ...~....}.......
  41bcd4:	9f00 00f9 0000 f99f 0000 9f00 00f9 0000     ................
  41bce4:	fb9f 0000 be00 00ff 0000 7ffe 0000 7c00     ...............|
  41bcf4:	007f 0000 3f7c 0000 7c00 001e 0000 0000     ....|?...|......
  41bd04:	0000 0f00 0000 0000 000f 0000 fff0 001f     ................
  41bd14:	f000 7fff 0000 fff8 007f f800 ffff 0000     ................
  41bd24:	fffc 00ff 0000 f80f 0000 0f00 00f8 0000     ................
  41bd34:	780f 0000 0000 0070 0000 0000 0000 0000     .x....p.........
  41bd44:	0000 0000 001f 0000 1f00 0000 0000 0fff     ................
  41bd54:	0000 ff00 003f 0000 7fff 0000 ff00 007f     ....?...........
  41bd64:	0000 ffff 0000 0000 00fc 0000 f800 0000     ................
  41bd74:	0000 00f8 0000 f800 0000 1f00 00f8 0000     ................
  41bd84:	7c1f 0000 ff00 00ff 0000 ffff 0000 ff00     .|..............
  41bd94:	00ff 0000 ffff 0000 ff00 00ff 0000 f800     ................
  41bda4:	0000 0000 00f8 0000 0000 0000 1f00 0000     ................
  41bdb4:	0000 001f 0000 3f00 0000 0000 01ff 0000     .......?........
  41bdc4:	ff00 0007 0000 3fff 0000 ff00 00ff 0000     .......?........
  41bdd4:	ffff 0000 1f00 00ff 0000 fc1f 0000 0000     ................
  41bde4:	00fe 0000 ffdf 0000 ff00 00ff 0000 ffff     ................
  41bdf4:	0000 ff00 001f 0000 03ff 0000 7f00 0000     ................
  41be04:	0000 001f 0000 1f00 0000 0000 001f 0000     ................
  41be14:	1f00 0000 0000 001f 0000 1f00 0000 0000     ................
  41be24:	01ff 0000 ff00 001f 0000 ffff 0000 ff00     ................
  41be34:	00ff 0000 ffff 0000 1f00 00fc 0000 ff9f     ................
  41be44:	0000 e000 00ff 0000 fffc 0000 ff00 001f     ................
  41be54:	0000 01ff 0000 3f00 0000 0000 01ff 0000     .......?........
  41be64:	ff00 000f 0000 7fff 0000 f800 00ff 0000     ................
  41be74:	ffc0 0000 1f00 00fe 0000 ff9f 0000 ff00     ................
  41be84:	00ff 0000 ffff 0000 ff00 00ff 0000 0fff     ................
  41be94:	0000 7f00 0000 0000 001f 0000 1f00 0000     ................
  41bea4:	0000 0000 0000 1f00 00f8 0000 f81f 0000     ................
  41beb4:	1f00 00f8 0000 fc3f 0000 7f00 00fe 0000     ......?.........
  41bec4:	feff 0000 ff00 00ff 0000 ffff 0000 e000     ................
  41bed4:	0007 0000 07e0 0000 ff00 00ff 0000 ffff     ................
  41bee4:	0000 ff00 00ff 0000 ffff 0000 7f00 00fe     ................
  41bef4:	0000 fc3f 0000 1f00 00f8 0000 f81f 0000     ..?.............
  41bf04:	0000 0000 0000 001f 0000 1f00 0000 0000     ................
  41bf14:	003f 0000 ff00 7c00 0000 07ff 007c ff00     ?......|....|...
  41bf24:	7c1f 0000 7fff 007e ff00 7fff 0000 ff00     .|....~.........
  41bf34:	007f 0000 7ffc 0000 ff00 007f ff00 7fff     ................
  41bf44:	0000 7fff 007c ff00 7c1f 0000 07ff 0000     ....|....|......
  41bf54:	ff00 0000 0000 003f 0000 1f00 0000 0000     ......?.........
  41bf64:	001f 0000 0000 0000 0000 003f 0000 3f00     ..........?....?
  41bf74:	00f0 0000 f83f 0000 3f00 00fe 0000 ff0f     ....?....?......
  41bf84:	0000 8f00 00ff 0000 ffef 0000 ff00 00ff     ................
  41bf94:	0000 f7ff 0000 ff00 00f1 0000 f0ff 0000     ................
  41bfa4:	3f00 00fe 0000 fe1f 0000 0f00 00fe 0000     .?..............
  41bfb4:	fe00 0000 0000 0000 0000 0000 0000 0000     ................
  41bfc4:	0000 0000 0078 0000 7800 0000 0000 0078     ....x....x....x.
  41bfd4:	0000 7800 0000 ffc0 ffff e00f ffff 1fff     ...x............
  41bfe4:	fff0 ffff f03f ffff 3fff fff0 ffcf f03f     ....?....?....?.
  41bff4:	0000 3c00 00f0 0000 003c 0000 0000 0000     ...<....<.......
	...
  41c010:	f000 ffff 0fff fff0 ffff f00f ffff 0fff     ................
  41c020:	fff0 ffff f00f ffff 0fff 0000 0000 0000     ................
	...
  41c03c:	0000 00f0 0000 f03c 0000 3c00 fff0 ffcf     ......<....<....
  41c04c:	f03f ffff 3fff fff0 ffff e03f ffff 1fff     ?....?....?.....
  41c05c:	ffc0 ffff 000f 7c00 0000 0000 0078 0000     .......|....x...
  41c06c:	7800 0000 0000 0078 0000 0000 0000 0000     .x....x.........
  41c07c:	0000 0000 e000 0000 0000 01f0 0000 f800     ................
  41c08c:	0001 0000 0078 0000 7800 0000 0000 0078     ....x....x....x.
  41c09c:	0000 f000 0000 0000 00f0 0000 e000 0001     ................
  41c0ac:	0000 01e0 0000 f000 0001 0000 01f8 0000     ................
  41c0bc:	f800 0000 0000 0070 0000 0000               ......p.....

0041c0c8 <ArvoBold_22pt_CharCount>:
  41c0c8:	0906 1609 1a12 0613 0a0a 110e 0b08 0b07     ................
  41c0d8:	0c12 0f11 1111 1110 1011 0808 0e0c 110c     ................
  41c0e8:	1520 1614 1415 1712 0b1b 1709 2113 1718      ............!..
  41c0f8:	1714 1216 1614 2116 1616 0912 090b 0f11     .......!........
  41c108:	120a 1112 1114 120b 0a14 1509 1f0a 1215     ................
  41c118:	1313 1010 140b 1b12 1211 0d10 0d09 000d     ................

0041c128 <ArvoBold_22pt_Table>:
	...
  41c150:	f800 e1ff 0000 fff8 01f1 f800 f1ff 0001     ................
  41c160:	fff8 01f1 f800 e1ff 0000 0000 0000 0000     ................
	...
  41c178:	f800 0003 0000 03f8 0000 f800 0001 0000     ................
  41c188:	0000 0000 f800 0003 0000 03f8 0000 f800     ................
  41c198:	0001 0000 0000 0000 0000 0000 0000 0000     ................
  41c1a8:	001e 0000 de0e 0001 0f00 01fe 0000 ffff     ................
  41c1b8:	0001 ffc0 01ff f800 3fff 0000 fff8 001f     .........?......
  41c1c8:	f800 1e0f 0000 0f38 001e 0000 1e0f 0000     ......8.........
  41c1d8:	0f00 01de 0000 fe0f 0001 ff00 01ff c000     ................
  41c1e8:	ffff 0001 fff8 007f f800 1fff 0000 0ff8     ................
  41c1f8:	001e 3800 0e0f 0000 0f00 0000 0000 0000     ...8............
	...
  41c214:	0000 001e 0000 1e3c 0000 7e00 001e 0000     ......<....~....
  41c224:	3e7e 0000 ff00 003e 0000 7cef 0000 cff8     ~>....>....|....
  41c234:	0ff8 f800 f9cf 000f cff8 0ff9 f800 f98f     ................
  41c244:	000f 9f00 0079 0000 7fbf 0000 be00 003f     ....y.........?.
  41c254:	0000 3f3e 0000 3e00 000e 0000 003e 0000     ..>?...>....>...
	...
  41c278:	0780 0000 c000 001f 0000 1fe0 0100 f000     ................
  41c288:	803e 0001 3cf0 01e0 7000 f838 0001 3cf0     >....<...p8....<
  41c298:	01fc f000 ff3e 0000 9fe0 003f c000 0fef     ....>.....?.....
  41c2a8:	0000 f780 0007 0000 3dfc 0000 ff00 00fe     .........=......
  41c2b8:	8000 ff3f 0000 9fe0 01f7 f000 e787 0001     ..?.............
  41c2c8:	81f8 01c3 f800 e780 0001 8038 01f7 1800     ..........8.....
  41c2d8:	ff00 0000 0000 007e 0000 3c00 0000 0000     ......~....<....
	...
  41c2f0:	0000 001f 8000 7f8f 0000 dfc0 00ff e000     ................
  41c300:	ffff 0000 fff0 01f1 f000 e0f9 0001 f0f0     ................
  41c310:	01e1 f000 e3f0 0001 f9f0 01f7 f000 ffff     ................
  41c320:	0001 ffe0 00ff c000 ff9f 0000 0f80 007f     ................
  41c330:	0000 7fc0 0000 c000 00ff 0000 ffc0 0001     ................
  41c340:	c000 01f1 0000 e000 0000 0000 0000 f800     ................
  41c350:	0003 0000 03f8 0000 f800 0003 0000 0078     ..............x.
	...
  41c370:	0000 f800 001f 8000 ffff 0001 fff0 0fff     ................
  41c380:	fc00 ffff 003f 07fe 7fe0 ff00 0000 00ff     ....?...........
  41c390:	003e 7c00 0c00 0000 0030 0000 2000 0c00     >..|....0.... ..
  41c3a0:	0000 0030 003e 7c00 ff00 0000 00ff 07fe     ..0.>..|........
  41c3b0:	7fe0 fc00 ffff 003f fff0 0fff 8000 ffff     ......?.........
  41c3c0:	0001 f800 001f 0000 0000 0000 0000 0000     ................
  41c3d0:	c000 0000 0000 08e0 0000 e000 001d 0000     ................
  41c3e0:	3fe0 0000 fc00 001f 0000 0ffc 0000 fc00     .?..............
  41c3f0:	000f 0000 1ffc 0000 e000 003f 0000 1de0     ..........?.....
  41c400:	0000 e000 0008 0000 00c0 0000 0000 0000     ................
	...
  41c41c:	8000 0007 0000 0780 0000 8000 0007 0000     ................
  41c42c:	0780 0000 8000 0007 0000 fffc 0000 fc00     ................
  41c43c:	00ff 0000 fffc 0000 fc00 00ff 0000 0780     ................
  41c44c:	0000 8000 0007 0000 0780 0000 8000 0007     ................
  41c45c:	0000 0780 0000 0000 0000 0000 0000 0030     ..............0.
  41c46c:	0000 7e00 0000 e000 007f 0000 3fe0 0000     ...~.........?..
  41c47c:	c000 000f 0000 03c0 0000 8000 0000 0000     ................
	...
  41c494:	8000 0007 0000 0780 0000 8000 0007 0000     ................
  41c4a4:	0780 0000 8000 0007 0000 0780 0000 8000     ................
  41c4b4:	0007 0000 0780 0000 8000 0007 0000 0000     ................
	...
  41c4cc:	e000 0000 0000 01f0 0000 f000 0001 0000     ................
  41c4dc:	01f0 0000 e000 0000 0000 0000 0000 0000     ................
  41c4ec:	0000 0000 0100 0000 e000 0001 0000 01fc     ................
  41c4fc:	0000 ff80 0001 e000 00ff 0000 1ffc 0000     ................
  41c50c:	ff80 0007 f000 00ff 0000 1ff8 0000 f800     ................
  41c51c:	0003 0000 0000 0000 0000 07fc 0000 ff00     ................
  41c52c:	001f c000 7fff 0000 ffe0 00ff e000 f803     ................
  41c53c:	0000 01f0 01f0 f000 e000 0001 00f0 01e0     ................
  41c54c:	f000 e000 0001 00f0 01e0 f000 f001 0001     ................
  41c55c:	03e0 00f8 e000 ffff 0000 ffc0 007f 0000     ................
  41c56c:	1fff 0000 fc00 0007 0000 0000 0000 0000     ................
  41c57c:	0000 8000 000f 0000 0fc0 01e0 c000 e007     ................
  41c58c:	0001 ffe0 01ff f000 ffff 0001 fff0 01ff     ................
  41c59c:	f000 ffff 0001 0000 01e0 0000 e000 0001     ................
	...
  41c5c0:	0300 01e0 c000 f003 0001 03e0 01f8 e000     ................
  41c5d0:	fc03 0001 01f0 01fe f000 ff00 0001 80f0     ................
  41c5e0:	01ef f000 e7c0 0001 e0f0 01e3 f000 e1f1     ................
  41c5f0:	0001 ffe0 01e0 e000 e07f 0001 3fc0 01e0     .............?..
  41c600:	0000 e01f 0001 0000 0000 0000 1c07 0000     ................
  41c610:	07c0 007c e000 fc07 0000 07e0 00fc f000     ..|.............
  41c620:	f001 0001 f0f0 01e0 f000 e0f0 0001 f0f0     ................
  41c630:	01e0 f000 e0f0 0001 f9f0 01f1 e000 ffff     ................
  41c640:	0000 ffe0 007f c000 3fdf 0000 8f00 001f     .........?......
  41c650:	0000 0000 0000 8000 000f 0000 0fc0 0000     ................
  41c660:	f000 000f 0000 0ff8 0000 fe00 000f 0000     ................
  41c670:	0f7f 0000 1fc0 000f e000 0f0f 0000 03f0     ................
  41c680:	01ef f000 ef01 0001 f070 01ff 3000 fff0     ........p....0..
  41c690:	0001 f000 01ff 0000 fff0 0001 0000 01ef     ................
  41c6a0:	0000 ef00 0001 0000 000f 0000 0000 0000     ................
  41c6b0:	0000 0000 f000 383f 0000 3ff0 007c f000     ......?8...?|...
  41c6c0:	fc3f 0000 3ff0 00f8 f000 f03c 0001 3cf0     ?....?....<....<
  41c6d0:	01e0 f000 e03c 0001 3cf0 01e0 f000 f03c     ....<....<....<.
  41c6e0:	0001 fcf0 00f8 f000 fff8 0000 f8f0 007f     ................
  41c6f0:	f000 3fe0 0000 c000 000f 0000 0000 0000     ...?............
  41c700:	0000 0000 0000 0f80 0000 e000 003f 0000     ............?...
  41c710:	7ff8 0000 fc00 00ff 0000 f87f 0001 3fc0     ...............?
  41c720:	01e0 e000 e03f 0001 3ff0 01e0 f000 e03d     ....?....?....=.
  41c730:	0001 fc70 00f8 3000 fff8 0000 f800 007f     ..p....0........
  41c740:	0000 3fe0 0000 c000 000f 0000 0000 0000     ...?............
  41c750:	0000 0000 f000 000f 0000 0ff0 0000 f000     ................
  41c760:	000f 0000 0ff0 01e0 f000 f000 0001 00f0     ................
  41c770:	01fc f000 ff00 0001 e0f0 01ff f000 fff8     ................
  41c780:	0001 fef0 01e3 f000 00ff 0000 3ff0 0000     .............?..
  41c790:	f000 000f 0000 03f0 0000 7000 0000 0000     ...........p....
	...
  41c7b0:	1e00 0000 8f00 003f c000 7fdf 0000 ffe0     ......?.........
  41c7c0:	00ff e000 f1ff 0001 f9f0 01e0 f000 e0f0     ................
  41c7d0:	0001 f0f0 01e0 f000 e0f0 0001 f9f0 01f1     ................
  41c7e0:	e000 ffff 0000 ffe0 007f c000 3fdf 0000     .............?..
  41c7f0:	0f00 001f 0000 0000 0000 0000 0000 0000     ................
  41c800:	0000 0000 3f00 0000 8000 007f 0000 ffc0     .....?..........
  41c810:	0000 e000 01ff 0001 e1f0 01c3 f000 f3c0     ................
  41c820:	0001 c0f0 01ff f000 ffc0 0001 c0f0 007f     ................
  41c830:	f000 1fe1 0000 ffe0 0007 c000 01ff 0000     ................
  41c840:	7f80 0000 0000 001f 0000 0000 0000 0000     ................
  41c850:	e038 0000 7c00 01f0 0000 f07c 0001 7c00     8....|....|....|
  41c860:	01f0 0000 e038 0000 0000 0000 0000 0000     ....8...........
  41c870:	0000 0000 1e00 0000 c038 003f 7c00 3fe0     ........8.?..|.?
  41c880:	0000 e07c 001f 7c00 01e0 0000 0038 0000     ..|....|....8...
	...
  41c898:	0000 e000 0007 0000 07f0 0000 f000 0007     ................
  41c8a8:	0000 0ff0 0000 f000 000f 0000 0ff8 0000     ................
  41c8b8:	f800 001e 0000 1e78 0000 7800 001e 0000     ......x....x....
  41c8c8:	3e7c 0000 3c00 003c 0000 0000 0000 0000     |>...<<.........
  41c8d8:	0000 0000 0f3c 0000 3c00 000f 0000 0f3c     ....<....<....<.
  41c8e8:	0000 3c00 000f 0000 0f3c 0000 3c00 000f     ...<....<....<..
  41c8f8:	0000 0f3c 0000 3c00 000f 0000 0f3c 0000     ..<....<....<...
  41c908:	3c00 000f 0000 0f3c 0000 3c00 000f 0000     .<....<....<....
	...
  41c920:	0000 3c3c 0000 7c00 003e 0000 1e78 0000     ..<<...|>...x...
  41c930:	7800 001e 0000 1ef8 0000 f800 000f 0000     .x..............
  41c940:	0ff0 0000 f000 000f 0000 07f0 0000 f000     ................
  41c950:	0007 0000 07e0 0000 0000 0000 8000 0003     ................
  41c960:	0000 03c0 0000 e000 0003 0000 03e0 0000     ................
  41c970:	f000 e781 0000 c0f0 01f7 f000 f7c0 0001     ................
  41c980:	e0f0 01f7 f000 e0f0 0000 79f0 0000 e000     ...........y....
  41c990:	003f 0000 3fe0 0000 c000 001f 0000 0f80     ?....?..........
	...
  41c9bc:	c000 001f 0000 fff8 0000 fe00 03ff 0000     ................
  41c9cc:	ffff 0007 3f80 0fe0 c000 800f 001f 83e0     .....?..........
  41c9dc:	3e0f e000 3fe1 003c f1f0 7c7f f000 fff8     .>...?<....|....
  41c9ec:	0078 fcf8 f8f8 7800 e07c 00f1 3c78 f1e0     x......x|...x<..
  41c9fc:	7800 e03c 00f1 3c78 f1e0 7800 f07c 00f1     .x<...x<...x|...
  41ca0c:	fc78 f8ff f000 fffc 0078 fcf0 79ff f000     x.......x....y..
  41ca1c:	fffd 0039 03e0 31e0 c000 e007 0001 1fc0     ..9....1........
  41ca2c:	01f0 8000 ffff 0000 fe00 007f 0000 3ffc     ...............?
  41ca3c:	0000 e000 000f 0000 0000 0000 0000 0000     ................
  41ca4c:	0000 e000 0001 0000 01e0 0000 f800 0001     ................
  41ca5c:	0000 01ff 0000 ffe0 0001 fc00 01ff 8000     ................
  41ca6c:	efff 0001 fff0 01e3 f000 03ff 0000 c7f0     ................
  41ca7c:	0003 f000 03c0 0000 c7f0 0003 f000 03ff     ................
  41ca8c:	0000 ffe0 01e3 0000 efff 0001 f800 01ff     ................
  41ca9c:	0000 ffc0 0001 0000 01fe 0000 f000 0001     ................
  41caac:	0000 01e0 0000 e000 0001 0000 0000 0000     ................
  41cabc:	0000 0000 00f0 01e0 f000 e000 0001 fff0     ................
  41cacc:	01ff f000 ffff 0001 fff0 01ff f000 ffff     ................
  41cadc:	0001 f0f0 01e0 f000 e0f0 0001 f0f0 01e0     ................
  41caec:	f000 e0f0 0001 f0f0 01e0 f000 e0f0 0001     ................
  41cafc:	f9f0 01f1 e000 ffff 0000 ffe0 00ff c000     ................
  41cb0c:	7fbf 0000 1f00 001f 0000 0000 0000 0000     ................
  41cb1c:	0000 0000 03f8 0000 fe00 000f 8000 1fff     ................
  41cb2c:	0000 ffc0 003f c000 7e0f 0000 03e0 00f8     ....?....~......
  41cb3c:	e000 f001 0000 01f0 01f0 f000 e000 0001     ................
  41cb4c:	00f0 01e0 f000 e000 0001 00f0 01e0 f000     ................
  41cb5c:	f001 0001 01e0 01f0 e000 f803 0000 07c0     ................
  41cb6c:	00fc 8000 7c07 0000 0780 003c 8000 1c07     .....|....<.....
  41cb7c:	0000 0780 0000 0000 0000 0000 0000 0000     ................
  41cb8c:	f000 e000 0001 00f0 01e0 f000 ffff 0001     ................
  41cb9c:	fff0 01ff f000 ffff 0001 fff0 01ff f000     ................
  41cbac:	e000 0001 00f0 01e0 f000 e000 0001 00f0     ................
  41cbbc:	01e0 f000 e000 0001 01f0 01f0 e000 f001     ................
  41cbcc:	0000 03e0 00f8 c000 7e0f 0000 ff80 003f     .........~....?.
  41cbdc:	0000 1fff 0000 fe00 000f 0000 03f8 0000     ................
	...
  41cbf8:	0000 f000 e000 0001 00f0 01e0 f000 ffff     ................
  41cc08:	0001 fff0 01ff f000 ffff 0001 fff0 01ff     ................
  41cc18:	f000 e0f0 0001 f0f0 01e0 f000 e0f0 0001     ................
  41cc28:	f0f0 01e0 f000 e0f0 0001 00f0 01e0 f000     ................
  41cc38:	e000 0001 07f0 01fe f000 fe07 0001 07f0     ................
  41cc48:	01fe f000 fe07 0001 0000 0000 0000 0000     ................
  41cc58:	0000 0000 0000 f000 e000 0001 00f0 01e0     ................
  41cc68:	f000 ffff 0001 fff0 01ff f000 ffff 0001     ................
  41cc78:	fff0 01ff f000 e1e0 0001 e0f0 01e1 f000     ................
  41cc88:	01e0 0000 e0f0 0001 f000 01e0 0000 00f0     ................
  41cc98:	0000 f000 0007 0000 07f0 0000 f000 0007     ................
  41cca8:	0000 07f0 0000 0000 0000 0000 f800 0003     ................
  41ccb8:	0000 0ffe 0000 ff00 003f 8000 7fff 0000     ........?.......
  41ccc8:	0fc0 007e e000 f803 0000 01e0 00f0 f000     ..~.............
  41ccd8:	f001 0001 00f0 01e0 f000 e000 0001 c0f0     ................
  41cce8:	01e3 f000 e3c0 0001 c1f0 01f3 e000 fbc1     ................
  41ccf8:	0000 c7e0 007f c000 3fc7 0000 c780 01ff     .........?......
  41cd08:	8000 ffc7 0001 c780 01ff 8000 ffc7 0001     ................
	...
  41cd2c:	00f0 01e0 f000 e000 0001 fff0 01ff f000     ................
  41cd3c:	ffff 0001 fff0 01ff f000 ffff 0001 f0f0     ................
  41cd4c:	01e0 f000 e0f0 0001 f000 0000 0000 00f0     ................
  41cd5c:	0000 f000 0000 0000 00f0 0000 f000 0000     ................
  41cd6c:	0000 00f0 0000 f000 0000 f000 e0f0 0001     ................
  41cd7c:	f0f0 01e0 f000 ffff 0001 fff0 01ff f000     ................
  41cd8c:	ffff 0001 fff0 01ff f000 e000 0001 00f0     ................
  41cd9c:	01e0 0000 0000 0000 0000 0000 0000 0000     ................
  41cdac:	0000 0000 0000 f000 e000 0001 00f0 01e0     ................
  41cdbc:	f000 ffff 0001 fff0 01ff f000 ffff 0001     ................
  41cdcc:	fff0 01ff f000 e000 0001 00f0 01e0 0000     ................
	...
  41cde4:	f000 0000 001c 00f0 1f00 f000 ffff 001f     ................
  41cdf4:	fff0 0fff f000 ffff 0003 fff0 00ff f000     ................
  41ce04:	0000 0000 00f0 0000 0000 0000 0000 0000     ................
  41ce14:	0000 f000 e000 0001 00f0 01e0 f000 ffff     ................
  41ce24:	0001 fff0 01ff f000 ffff 0001 fff0 01ff     ................
  41ce34:	f000 e0e0 0001 e0f0 01e0 0000 01f0 0000     ................
  41ce44:	f800 0001 0000 03fc 0000 fe00 0007 0000     ................
  41ce54:	0f9f 0000 0ff0 001f f000 fe0f 0001 07f0     ................
  41ce64:	01fc f000 f803 0001 01f0 01f0 f000 e000     ................
  41ce74:	0001 00f0 01e0 0000 e000 0001 0000 0000     ................
  41ce84:	0000 0000 0000 00f0 01e0 f000 e000 0001     ................
  41ce94:	fff0 01ff f000 ffff 0001 fff0 01ff f000     ................
  41cea4:	ffff 0001 00f0 01e0 f000 e000 0001 0000     ................
  41ceb4:	01e0 0000 e000 0001 0000 01e0 0000 e000     ................
  41cec4:	0001 0000 01fe 0000 fe00 0001 0000 01fe     ................
  41ced4:	0000 fe00 0001 0000 0000 0000 0000 0000     ................
  41cee4:	0000 0000 f000 e000 0001 00f0 01e0 f000     ................
  41cef4:	ffff 0001 fff0 01ff f000 ffff 0001 fff0     ................
  41cf04:	01ff f000 e003 0001 0ff0 01e0 e000 007f     ................
  41cf14:	0000 ff80 0001 0000 07fe 0000 f000 003f     ..............?.
  41cf24:	0000 ffc0 0000 0000 01ff 0000 fc00 0001     ................
  41cf34:	0000 01fe 0000 ff80 0001 f000 00ff 0000     ................
  41cf44:	3ffc 0000 ff80 0003 e000 007f 0000 1ff0     .?..............
  41cf54:	0000 f000 e003 0001 fff0 01ff f000 ffff     ................
  41cf64:	0001 fff0 01ff f000 ffff 0001 00f0 01e0     ................
  41cf74:	f000 e000 0001 0000 0000 0000 0000 0000     ................
  41cf84:	0000 0000 f000 e000 0001 00f0 01e0 f000     ................
  41cf94:	ffff 0001 fff0 01ff f000 ffff 0001 fff0     ................
  41cfa4:	01ff e000 e00f 0001 1f80 01e0 0000 007f     ................
  41cfb4:	0000 fe00 0000 0000 01f8 0000 f000 0007     ................
  41cfc4:	0000 0fc0 0000 8000 003f f000 7f00 0000     ........?.......
  41cfd4:	00f0 00fc f000 ffff 0001 fff0 01ff f000     ................
  41cfe4:	ffff 0001 fff0 01ff f000 0000 0000 00f0     ................
	...
  41d000:	0000 03f8 0000 fe00 000f 0000 1fff 0000     ................
  41d010:	ff80 003f c000 7e0f 0000 03e0 00f8 e000     ..?....~........
  41d020:	f001 0000 01f0 01f0 f000 e000 0001 00f0     ................
  41d030:	01e0 f000 e000 0001 00f0 01e0 f000 e000     ................
  41d040:	0001 01f0 01f0 e000 f001 0000 03e0 00f8     ................
  41d050:	c000 7e0f 0000 ff80 003f 0000 1fff 0000     ...~....?.......
  41d060:	fe00 000f 0000 03f8 0000 0000 0000 0000     ................
	...
  41d078:	f000 e000 0001 00f0 01e0 f000 ffff 0001     ................
  41d088:	fff0 01ff f000 ffff 0001 fff0 01ff f000     ................
  41d098:	e1e0 0001 e0f0 01e1 f000 01e0 0000 e0f0     ................
  41d0a8:	0001 f000 01e0 0000 e0f0 0001 f000 01f1     ................
  41d0b8:	0000 ffe0 0000 c000 007f 0000 7fc0 0000     ................
  41d0c8:	0000 001f 0000 0000 0000 0000 0000 0000     ................
  41d0d8:	f800 0003 0000 0ffe 0000 ff00 003f 8000     ............?...
  41d0e8:	7fff 0000 0fc0 007e e000 f803 0000 01e0     ......~.........
  41d0f8:	00f0 f000 f001 0001 00f0 1fe0 f000 e000     ................
  41d108:	001f 00f0 1fe0 f000 e000 003f 00f0 7fe0     ..........?.....
  41d118:	f000 f001 007d 01e0 f8f0 e000 f803 00f0     ....}...........
  41d128:	0fc0 f07e 8000 7fff 00f8 ff00 fc3f 0000     ..~.........?...
  41d138:	0ffe 007c f800 3803 0000 0000 0000 0000     ..|....8........
	...
  41d150:	00f0 01e0 f000 e000 0001 fff0 01ff f000     ................
  41d160:	ffff 0001 fff0 01ff f000 ffff 0001 e0f0     ................
  41d170:	01e1 f000 e1e0 0001 e0f0 0001 f000 01e0     ................
  41d180:	0000 e0f0 0003 f000 07e0 0000 e0f0 003f     ..............?.
  41d190:	f000 fff1 0001 7fe0 01ff e000 fe7f 0001     ................
  41d1a0:	3fc0 01f8 0000 e00f 0001 0000 01e0 0000     .?..............
  41d1b0:	0000 0000 0000 001e 0000 1e0f 0000 3fc0     ...............?
  41d1c0:	003e e000 7e7f 0000 7fe0 00fc f000 f0f9     >....~..........
  41d1d0:	0000 f0f0 01e0 f000 e0f0 0001 f0f0 01e0     ................
  41d1e0:	f000 e1f0 0001 e0f0 01e1 f000 e1e0 0001     ................
  41d1f0:	e1e0 00f3 e000 ffc7 0000 c7c0 007f 8000     ................
  41d200:	7f87 0000 0780 001f 0000 0000 0000 03f0     ................
  41d210:	0000 f000 0003 0000 03f0 0000 f000 0003     ................
  41d220:	0000 00f0 0000 f000 e000 0001 00f0 01e0     ................
  41d230:	f000 ffff 0001 fff0 01ff f000 ffff 0001     ................
  41d240:	fff0 01ff f000 e000 0001 00f0 01e0 f000     ................
  41d250:	0000 0000 00f0 0000 f000 0003 0000 03f0     ................
  41d260:	0000 f000 0003 0000 03f0 0000 0000 0000     ................
  41d270:	0000 0000 0000 f000 0000 0000 00f0 0000     ................
  41d280:	f000 0fff 0000 fff0 003f f000 7fff 0000     ........?.......
  41d290:	fff0 00ff f000 f800 0000 00f0 01f0 0000     ................
  41d2a0:	e000 0001 0000 01e0 0000 e000 0001 0000     ................
  41d2b0:	01e0 f000 f000 0001 00f0 00f8 f000 ffff     ................
  41d2c0:	0000 fff0 007f f000 3fff 0000 fff0 0007     .........?......
  41d2d0:	f000 0000 0000 00f0 0000 0000 0000 0000     ................
  41d2e0:	00f0 0000 f000 0000 0000 01f0 0000 f000     ................
  41d2f0:	000f 0000 3ff0 0000 f000 00ff 0000 fef0     .....?..........
  41d300:	0007 f000 1ff8 0000 c000 00ff 0000 ff00     ................
  41d310:	0001 0000 01fc 0000 f800 0001 0000 01ff     ................
  41d320:	f000 ffc0 0000 f8f0 003f f000 07fe 0000     ........?.......
  41d330:	fff0 0001 f000 003f 0000 0ff0 0000 f000     ......?.........
  41d340:	0001 0000 00f0 0000 f000 0000 0000 00f0     ................
  41d350:	0000 f000 0000 0000 01f0 0000 f000 000f     ................
  41d360:	0000 7ff0 0000 f000 03ff 0000 fef0 001f     ................
  41d370:	f000 7ff0 0000 8000 01ff 0000 fe00 0001     ................
  41d380:	0000 01fc 0000 ff80 0001 f000 00ff 0000     ................
  41d390:	1ffe 0000 ffc0 0003 f000 007f 0000 0ff0     ................
  41d3a0:	0000 f000 007f 0000 ffe0 0003 0000 1fff     ................
  41d3b0:	0000 f800 00ff 0000 ffc0 0001 0000 01fe     ................
  41d3c0:	0000 fc00 0001 80f0 01ff f000 fff0 0000     ................
  41d3d0:	fef0 001f f000 03ff 0000 7ff0 0000 f000     ................
  41d3e0:	000f 0000 01f0 0000 f000 0000 0000 00f0     ................
  41d3f0:	0000 7000 e000 0001 00f0 01f0 f000 f801     ...p............
  41d400:	0001 03f0 01fc f000 fe07 0001 0ff0 01ff     ................
  41d410:	f000 ff9f 0001 ff70 01ef 0000 07fe 0000     ......p.........
  41d420:	fc00 0003 0000 03fc 0000 fe00 0007 7000     ...............p
  41d430:	efff 0001 9ff0 01ff f000 ff0f 0001 07f0     ................
  41d440:	01fe f000 fc03 0001 01f0 01f8 f000 f000     ................
  41d450:	0001 0070 01e0 0000 0000 0000 0000 0000     ..p.............
  41d460:	f000 0000 0000 00f0 0000 f000 0001 0000     ................
  41d470:	03f0 0000 f000 0007 0000 0ff0 0000 f000     ................
  41d480:	e01f 0001 3ef0 01e0 f000 fffc 0001 f000     .....>..........
  41d490:	01ff 0000 ffe0 0001 f000 01ff 0000 e0f8     ................
  41d4a0:	0001 7cf0 01e0 f000 003e 0000 1ff0 0000     ...|....>.......
  41d4b0:	f000 000f 0000 07f0 0000 f000 0003 0000     ................
  41d4c0:	01f0 0000 f000 0000 0000 00f0 0000 0000     ................
  41d4d0:	0000 0000 07f0 01f0 f000 f807 0001 07f0     ................
  41d4e0:	01fc f000 ff07 0001 80f0 01ff f000 efc0     ................
  41d4f0:	0001 e0f0 01e7 f000 e1f8 0001 fcf0 01e0     ................
  41d500:	f000 e07e 0001 3ff0 01e0 f000 e00f 0001     ..~....?........
  41d510:	07f0 01fe f000 fe03 0001 00f0 01fe 7000     ...............p
  41d520:	fe00 0001 0000 0000 0000 0000 0000 ffff     ................
  41d530:	ffff ff00 ffff 00ff ffff ffff ff00 ffff     ................
  41d540:	00ff 000f f000 0f00 0000 00f0 0000 0000     ................
  41d550:	0000 0000 0000 0020 0000 e000 0001 0000     ...... .........
  41d560:	0fe0 0000 e000 007f 0000 ffc0 0003 0000     ................
  41d570:	1ffe 0000 f000 00ff 0000 ff80 0007 0000     ................
  41d580:	1ffc 0000 e000 001f 0000 1f00 0000 0000     ................
  41d590:	0000 0000 0000 0f00 0000 00f0 000f f000     ................
  41d5a0:	ff00 ffff 00ff ffff ffff ff00 ffff 00ff     ................
  41d5b0:	ffff ffff 0000 0000 0000 0000 0000 0000     ................
  41d5c0:	0040 0000 7000 0000 0000 007c 0000 7f00     @....p....|.....
  41d5d0:	0000 c000 007f 0000 1ff0 0000 f000 0007     ................
  41d5e0:	0000 01f0 0000 f000 0001 0000 0ff0 0000     ................
  41d5f0:	f000 003f 0000 7fe0 0000 0000 007f 0000     ..?.............
  41d600:	7800 0000 0000 0040 0000 0000 0000 0000     .x....@.........
  41d610:	0000 003c 0000 3c00 0000 0000 003c 0000     ..<....<....<...
  41d620:	3c00 0000 0000 003c 0000 3c00 0000 0000     .<....<....<....
  41d630:	003c 0000 3c00 0000 0000 003c 0000 3c00     <....<....<....<
  41d640:	0000 0000 003c 0000 3c00 0000 0000 003c     ....<....<....<.
  41d650:	0000 3c00 0000 0000 003c 0000 0000 0000     ...<....<.......
  41d660:	0000 0000 0010 0000 3000 0000 0000 0070     .........0....p.
  41d670:	0000 f000 0000 0000 00f0 0000 c000 0000     ................
  41d680:	0000 0080 0000 0000 0000 0000 0000 0000     ................
  41d690:	0000 3c00 0000 3800 00ff 0000 ff38 0000     ...<...8....8...
  41d6a0:	bc00 01ff 0000 e3bc 0001 bc00 01e3 0000     ................
  41d6b0:	e3bc 0001 bc00 01e3 0000 f3bc 0001 fc00     ................
  41d6c0:	01ff 0000 fff8 0001 f800 01ff 0000 ffe0     ................
  41d6d0:	0001 0000 01e0 0000 e000 0001 0000 0000     ................
  41d6e0:	0000 0000 0000 0078 0000 7800 0000 0000     ......x....x....
  41d6f0:	fff8 01ff f800 ffff 0001 fff8 01ff f800     ................
  41d700:	ffff 0001 7800 01f0 0000 e03c 0001 3c00     .....x....<....<
  41d710:	01e0 0000 e03c 0001 3c00 01e0 0000 f07c     ....<....<....|.
  41d720:	0001 f800 00f8 0000 fff8 0000 f000 007f     ................
  41d730:	0000 3fe0 0000 8000 000f 0000 0000 0000     ...?............
  41d740:	0000 0000 0000 0f80 0000 e000 003f 0000     ............?...
  41d750:	7ff0 0000 f800 00ff 0000 f8f8 0000 7c00     ...............|
  41d760:	01f0 0000 e03c 0001 3c00 01e0 0000 e03c     ....<....<....<.
  41d770:	0001 3c00 01f0 0000 f07c 0001 7800 00f8     ...<....|....x..
  41d780:	0000 7878 0000 7800 0070 0000 1078 0000     ..xx...xp...x...
	...
  41d798:	0000 8000 000f 0000 3fe0 0000 f000 007f     .........?......
  41d7a8:	0000 fff8 0000 f800 00f8 0000 f07c 0001     ............|...
  41d7b8:	3c00 01e0 0000 e03c 0001 3c00 01e0 7800     .<....<....<...x
  41d7c8:	e03c 0001 7c78 01f0 f800 ffff 0001 fff8     <...x|..........
  41d7d8:	01ff f800 ffff 0001 fff8 01ff 0000 e000     ................
  41d7e8:	0001 0000 01e0 0000 0000 0000 0000 0000     ................
  41d7f8:	0000 0000 0000 8000 000f 0000 3fe0 0000     .............?..
  41d808:	f000 007f 0000 fff8 0000 7800 00f7 0000     ...........x....
  41d818:	e73c 0001 3c00 01e7 0000 e73c 0001 3c00     <....<....<....<
  41d828:	01e7 0000 e73c 0001 7c00 01e7 0000 f7f8     ....<....|......
  41d838:	0000 f000 00f7 0000 77e0 0000 8000 0007     .........w......
	...
  41d854:	e03c 0001 3c00 01e0 c000 ffff 0001 fff0     <....<..........
  41d864:	01ff f000 ffff 0001 fff8 01ff 7800 e03c     .............x<.
  41d874:	0001 3c78 01e0 7800 003c 0000 0078 0000     ..x<...x<...x...
  41d884:	0000 0000 0000 8000 000f 0000 3fe0 0038     .............?8.
  41d894:	f000 787f 0000 fff8 0078 f800 f8f8 0000     ...x....x.......
  41d8a4:	f07c 00f1 3c00 f1e0 0000 e03c 00f1 3c00     |....<....<....<
  41d8b4:	f1e0 0000 e03c 00f1 7c00 78f0 0000 fffc     ....<....|.x....
  41d8c4:	007f fc00 3fff 0000 fffc 001f fc00 0fff     .....?..........
	...
  41d8e4:	0078 01e0 7800 e000 0001 fff8 01ff f800     x....x..........
  41d8f4:	ffff 0001 fff8 01ff f800 ffff 0001 7800     ...............x
  41d904:	01e0 0000 e038 0001 3c00 0000 0000 003c     ....8....<....<.
  41d914:	0000 3c00 0000 0000 007c 0000 fc00 01ff     ...<....|.......
  41d924:	0000 fff8 0001 f800 01ff 0000 ffe0 0001     ................
  41d934:	0000 01e0 0000 e000 0001 0000 0000 0000     ................
  41d944:	0000 0000 3c00 01e0 0000 e03c 0001 fc70     .....<....<...p.
  41d954:	01ff f800 fffc 0001 fcf8 01ff f800 fffc     ................
  41d964:	0001 0070 01e0 0000 e000 0001 0000 0000     ..p.............
  41d974:	0000 0000 0000 3c00 e000 0000 003c 00f0     .......<....<...
  41d984:	fc70 ffff f800 fffc 007f fcf8 3fff f800     p............?..
  41d994:	fffc 001f 0070 0000 0000 0000 0000 0000     ....p...........
  41d9a4:	0000 7800 e000 0001 0078 01e0 f800 ffff     ...x....x.......
  41d9b4:	0001 fff8 01ff f800 ffff 0001 fff8 01ff     ................
  41d9c4:	0000 e780 0001 8000 01e7 0000 0f80 0000     ................
  41d9d4:	c000 001f 0000 3ffc 0000 fc00 007f 0000     .......?........
  41d9e4:	f9fc 0000 fc00 01f0 0000 e07c 0001 3c00     ..........|....<
  41d9f4:	01e0 0000 e03c 0001 3c00 01e0 0000 0000     ....<....<......
	...
  41da10:	0078 01e0 7800 e000 0001 fff8 01ff f800     x....x..........
  41da20:	ffff 0001 fff8 01ff f800 ffff 0001 0000     ................
  41da30:	01e0 0000 e000 0001 0000 0000 0000 0000     ................
  41da40:	0000 3c00 01e0 0000 e03c 0001 fc00 01ff     ...<....<.......
  41da50:	0000 fffc 0001 fc00 01ff 0000 fffc 0001     ................
  41da60:	7800 01e0 0000 e03c 0001 3c00 0000 0000     .x....<....<....
  41da70:	003c 0000 3c00 0000 0000 007c 0000 fc00     <....<....|.....
  41da80:	01ff 0000 fff8 0001 f800 01ff 0000 fff0     ................
  41da90:	0001 7000 01e0 0000 e078 0001 3c00 0000     ...p....x....<..
  41daa0:	0000 003c 0000 3c00 0000 0000 003c 0000     ..<....<....<...
  41dab0:	7c00 0000 0000 fffc 0001 f800 01ff 0000     .|..............
  41dac0:	fff8 0001 e000 01ff 0000 e000 0001 0000     ................
  41dad0:	01e0 0000 0000 0000 0000 0000 0000 e03c     ..............<.
  41dae0:	0001 3c00 01e0 0000 fffc 0001 fc00 01ff     ...<............
  41daf0:	0000 fffc 0001 fc00 01ff 0000 e078 0001     ............x...
  41db00:	3c00 01e0 0000 003c 0000 3c00 0000 0000     .<....<....<....
  41db10:	003c 0000 3c00 0000 0000 007c 0000 fc00     <....<....|.....
  41db20:	01ff 0000 fff8 0001 f000 01ff 0000 ffe0     ................
  41db30:	0001 0000 01e0 0000 e000 0001 0000 0000     ................
  41db40:	0000 0000 0000 8000 000f 0000 3fe0 0000     .............?..
  41db50:	f000 007f 0000 fff8 0000 f800 00f8 0000     ................
  41db60:	f07c 0001 3c00 01e0 0000 e03c 0001 3c00     |....<....<....<
  41db70:	01e0 0000 e03c 0001 7c00 01f0 0000 f8f8     ....<....|......
  41db80:	0000 f800 00ff 0000 7ff0 0000 e000 003f     ..............?.
  41db90:	0000 0f80 0000 0000 0000 0000 0000 0000     ................
  41dba0:	3c00 f000 0000 003c 00f0 fc00 ffff 0000     .<....<.........
  41dbb0:	fffc 00ff fc00 ffff 0000 fffc 00ff 7c00     ...............|
  41dbc0:	f1f0 0000 e03c 00f1 3c00 01e0 0000 e03c     ....<....<....<.
  41dbd0:	0001 3c00 01e0 0000 f07c 0001 f800 00f8     ...<....|.......
  41dbe0:	0000 fff8 0000 f000 007f 0000 3fe0 0000     .............?..
  41dbf0:	8000 000f 0000 0000 0000 0000 0000 0000     ................
  41dc00:	0f80 0000 e000 003f 0000 7ff0 0000 f800     ......?.........
  41dc10:	00ff 0000 f8f8 0000 7c00 01f0 0000 e03c     .........|....<.
  41dc20:	0001 3c00 01e0 0000 e03c 0001 3c00 f1e0     ...<....<....<..
  41dc30:	0000 f078 00f0 fc00 ffff 0000 fffc 00ff     ..x.............
  41dc40:	fc00 ffff 0000 fffc 00ff 0000 f000 0000     ................
  41dc50:	0000 00f0 0000 0000 0000 0000 0000 3c00     ...............<
  41dc60:	01e0 0000 e03c 0001 fc00 01ff 0000 fffc     ....<...........
  41dc70:	0001 fc00 01ff 0000 fffc 0001 7c00 01e0     .............|..
  41dc80:	0000 e038 0001 3c00 0000 0000 003c 0000     ..8....<....<...
  41dc90:	fc00 0000 0000 00fc 0000 fc00 0000 0000     ................
  41dca0:	00fc 0000 0000 0000 0000 0000 0000 e000     ................
  41dcb0:	00f8 0000 f9f8 0000 f800 00fb 0000 fbfc     ................
  41dcc0:	0000 3c00 01f3 0000 e73c 0001 3c00 01e7     ...<....<....<..
  41dcd0:	0000 e73c 0001 3c00 01e7 0000 e77c 0001     ..<....<....|...
  41dce0:	f800 00fe 0000 fef8 0000 f800 007c 0000     ............|...
  41dcf0:	38f8 0000 0000 0000 0000 003c 0000 3c00     .8........<....<
  41dd00:	0000 c000 7fff 0000 ffc0 00ff e000 ffff     ................
  41dd10:	0001 ffe0 01ff 0000 e03c 0001 3c00 01e0     ........<....<..
  41dd20:	0000 e03c 0000 0000 0000 0000 0000 0000     ..<.............
  41dd30:	0000 0000 0000 003c 0000 3c00 0000 0000     ......<....<....
  41dd40:	3ffc 0000 fc00 007f 0000 fffc 0000 fc00     .?..............
  41dd50:	01ff 0000 f000 0001 0000 01e0 0000 e000     ................
  41dd60:	0001 0000 01e0 0000 e03c 0001 3c00 00f0     ........<....<..
  41dd70:	0000 fffc 0001 fc00 01ff 0000 fffc 0001     ................
  41dd80:	fc00 01ff 0000 e000 0001 0000 01e0 0000     ................
  41dd90:	0000 0000 3c00 0000 0000 003c 0000 7c00     .....<....<....|
  41dda0:	0000 0000 01fc 0000 fc00 000f 0000 3ffc     ...............?
  41ddb0:	0000 bc00 00ff 0000 fe3c 0001 0000 01f8     ........<.......
  41ddc0:	0000 fc00 0001 3c00 01ff 0000 fffc 0000     .......<........
  41ddd0:	fc00 003f 0000 07fc 0000 fc00 0000 0000     ..?.............
  41dde0:	003c 0000 3c00 0000 0000 003c 0000 3c00     <....<....<....<
  41ddf0:	0000 0000 003c 0000 7c00 0000 0000 07fc     ....<....|......
  41de00:	0000 fc00 00ff 0000 fffc 0001 bc00 01ff     ................
  41de10:	0000 f83c 0001 0000 01fe 0000 ffc0 0001     ..<.............
  41de20:	f800 007f 0000 0ffc 0000 fc00 0001 0000     ................
  41de30:	03fc 0000 fc00 001f 0000 fff8 0000 c000     ................
  41de40:	01ff 0000 fe00 0001 3c00 01f0 0000 ffbc     .........<......
  41de50:	0001 fc00 01ff 0000 fffc 0000 fc00 000f     ................
  41de60:	0000 00fc 0000 3c00 0000 0000 003c 0000     .......<....<...
  41de70:	0000 0000 0000 e03c 0001 3c00 01e0 0000     ......<....<....
  41de80:	e03c 0001 7c00 01f0 0000 f8fc 0001 fc00     <....|..........
  41de90:	01fd 0000 fffc 0001 fc00 01ff 0000 0f80     ................
  41dea0:	0000 fc00 01ff 0000 fffc 0001 fc00 01ff     ................
  41deb0:	0000 fdfc 0001 fc00 01f8 0000 f07c 0001     ............|...
  41dec0:	3c00 01e0 0000 e03c 0001 3c00 0000 0000     .<....<....<....
  41ded0:	003c 0000 7c00 0000 0000 01fc 00f0 fc00     <....|..........
  41dee0:	f007 0000 1ffc 00f0 fc00 f87f 0000 ff3c     ..............<.
  41def0:	00ff 0000 fff8 0000 f800 00ff 0000 f7fe     ................
  41df00:	0000 ffbc 00f1 fc00 f07f 0000 0ffc 0000     ................
  41df10:	fc00 0003 0000 007c 0000 3c00 0000 0000     ......|....<....
  41df20:	003c 0000 0000 0000 0000 c0fc 0001 fc00     <...............
  41df30:	01e0 0000 f8fc 0001 fc00 01fc 0000 fe3c     ..............<.
  41df40:	0001 bc00 01ff 0000 effc 0001 fc00 01e7     ................
  41df50:	0000 e3fc 0001 fc00 01fc 0000 fc7c 0001     ............|...
  41df60:	1c00 01fc 0000 fc0c 0001 0000 0000 0000     ................
	...
  41df7c:	0000 c000 0000 0000 01e0 0000 e000 0001     ................
  41df8c:	fc00 ffff 000f fffe 1fff ff00 ffff 003f     ..............?.
  41df9c:	3fff 3fff 0f00 0000 003c 000f 3c00 0000     .?.?....<....<..
	...
  41dfbc:	0000 ff00 ffff 001f ffff 1fff ff00 ffff     ................
  41dfcc:	001f ffff 1fff 0000 0000 0000 0000 0000     ................
	...
  41dfe4:	0000 0f00 0000 003c 000f 3c00 ff00 ff3f     ......<....<..?.
  41dff4:	003f ffff 3fff fe00 ffff 001f fffc 0fff     ?....?..........
  41e004:	0000 01e0 0000 e000 0001 0000 00c0 0000     ................
	...
  41e024:	0380 0000 c000 0003 0000 01e0 0000 e000     ................
  41e034:	0001 0000 01e0 0000 c000 0003 0000 03c0     ................
  41e044:	0000 8000 0007 0000 0780 0000 8000 0007     ................
  41e054:	0000 07c0 0000 c000 0003 0000 01c0 0000     ................

0041e064 <ArvoBold_18pt_CharCount>:
  41e064:	0805 1208 150f 0410 0808 0e0c 0906 0905     ................
  41e074:	0a0f 0d0e 0e0e 0e0e 0d0e 0506 0c0a 0e0a     ................
  41e084:	111b 1210 1011 130f 0816 1308 1b10 1314     ................
  41e094:	1310 0f12 1211 1c12 1212 080f 0709 0c0e     ................
  41e0a4:	0f09 0e0f 0e10 0f09 0910 1107 1909 0f11     ................
  41e0b4:	1010 0d0d 1108 160f 0f0e 0b0d 0b07 000b     ................

0041e0c4 <ArvoBold_18pt_Table>:
	...
  41e0e0:	ff00 03cf ff00 03cf ff00 03cf 0000 0000     ................
	...
  41e0fc:	3f00 0000 3f00 0000 1f00 0000 0000 0000     .?...?..........
  41e10c:	3f00 0000 3f00 0000 1f00 0000 0000 0070     .?...?........p.
  41e11c:	6000 0370 7000 03f0 f000 03ff fc00 00ff     .`p..p..........
  41e12c:	ff00 007f 7f00 0070 7300 0070 7000 0370     ......p..sp..pp.
  41e13c:	7000 03f0 7000 03fe f000 01ff fc00 007f     .p...p..........
  41e14c:	ff00 0071 7f00 0070 7300 0030 7000 0000     ..q...p..s0..p..
	...
  41e164:	0000 00f0 c000 00f3 e000 00f7 f000 01f7     ................
  41e174:	7000 01e7 7f00 0fce 7f00 0fce ff00 0fce     .p..............
  41e184:	f000 01dd e000 00fd e000 00fd e000 0079     ..............y.
	...
  41e1a4:	7c00 0000 fe00 0000 ff00 0201 c700 0301     .|..............
  41e1b4:	c700 03c1 c700 01e1 ff00 00f9 fe00 003c     ..............<.
  41e1c4:	7c00 001f 8000 00ff e000 01ff f000 03fe     .|..............
  41e1d4:	7c00 038e 1e00 038e 0f00 038e 0300 03fe     .|..............
  41e1e4:	0100 01fc 0000 00f8 0000 0000 0000 0000     ................
  41e1f4:	0000 0078 7800 00fe fe00 01ff fe00 03c7     ..x..x..........
  41e204:	cf00 0383 8700 0387 8700 039f cf00 03ff     ................
  41e214:	fe00 01ff fe00 01fc f800 00f8 0000 01fe     ................
  41e224:	0000 03fe 0000 03ce 0000 0180 3f00 0000     .............?..
  41e234:	3f00 0000 0f00 0000 0000 0000 0000 0000     .?..............
  41e244:	8000 01ff f000 0fff fc00 3fff fe00 ff00     ...........?....
  41e254:	1f00 f800 0e00 7000 0000 0000 0000 0000     .......p........
  41e264:	0e00 7000 1f00 f800 fe00 7f00 fc00 3fff     ...p...........?
  41e274:	f000 0fff 8000 01ff 0000 0000 0000 0000     ................
  41e284:	0e00 0000 ce00 0000 fc00 0000 ff80 0000     ................
  41e294:	7f80 0000 7f80 0000 fc00 0000 fc00 0000     ................
  41e2a4:	ce00 0000 0e00 0000 0000 0000 0000 0000     ................
  41e2b4:	0000 000e 0000 000e 0000 000e 0000 000e     ................
  41e2c4:	e000 00ff e000 00ff e000 00ff 0000 000e     ................
  41e2d4:	0000 000e 0000 000e 0000 000e 0000 0000     ................
  41e2e4:	0000 0000 0000 3000 0000 3f00 0000 1f80     .......0...?....
  41e2f4:	0000 0780 0000 0000 0000 0000 0000 0000     ................
  41e304:	0000 001c 0000 001c 0000 001c 0000 001c     ................
  41e314:	0000 001c 0000 001c 0000 001c 0000 0000     ................
  41e324:	0000 0000 0000 03c0 0000 03c0 0000 03c0     ................
	...
  41e33c:	0000 0300 0000 03e0 0000 03fc 8000 01ff     ................
  41e34c:	f000 003f fe00 0007 ff00 0000 1f00 0000     ..?.............
  41e35c:	0000 0000 e000 001f f800 007f fe00 01ff     ................
  41e36c:	1e00 01e0 0f00 03c0 0700 0380 0700 0380     ................
  41e37c:	0700 0380 0f00 03c0 1e00 01e0 fe00 01ff     ................
  41e38c:	f800 007f e000 001f 0000 0000 7800 0000     .............x..
  41e39c:	7c00 0380 3e00 0380 fe00 03ff ff00 03ff     .|...>..........
  41e3ac:	ff00 03ff 0000 0380 0000 0380 0000 0000     ................
	...
  41e3c4:	3800 03c0 3c00 03e0 3e00 03f0 0f00 03f8     .8...<...>......
  41e3d4:	0700 03bc 0700 039e 0700 038f 8700 0387     ................
  41e3e4:	cf00 0383 fe00 0381 fc00 0380 7800 0380     .............x..
  41e3f4:	0000 0000 1800 0060 1c00 00e0 1e00 01e0     ......`.........
  41e404:	0f00 03c0 0700 0380 8700 0383 8700 0383     ................
  41e414:	8700 0383 cf00 01c7 fe00 01ff fc00 00fe     ................
  41e424:	7800 007c 0000 0000 0000 000f 8000 000f     .x|.............
  41e434:	e000 000f f000 000e 7c00 000e 1e00 000e     .........|......
  41e444:	0f00 038e 0300 038e c100 03ff c000 03ff     ................
  41e454:	c000 03ff 0000 038e 0000 038e 0000 0000     ................
	...
  41e46c:	ff00 00e1 ff00 01e1 ff00 01e1 c700 03c1     ................
  41e47c:	c700 0381 c700 0381 c700 0381 c700 03c3     ................
  41e48c:	8700 01ff 0700 00ff 0000 007e 0000 0000     ..........~.....
  41e49c:	0000 0000 0000 003c 0000 00ff c000 01ff     ......<.........
  41e4ac:	f000 01c3 f800 0381 fe00 0381 cf00 0381     ................
  41e4bc:	c700 0381 8100 01c3 8000 01ff 0000 00ff     ................
  41e4cc:	0000 003c 0000 0000 3f00 0000 3f00 0000     ..<......?...?..
  41e4dc:	3f00 0380 0700 0380 0700 03e0 0700 03f8     .?..............
  41e4ec:	0700 03ff c700 039f f700 0387 ff00 0000     ................
  41e4fc:	3f00 0000 0f00 0000 0300 0000 0000 0000     .?..............
  41e50c:	0000 0000 7800 007c fc00 00fe fe00 01ff     .....x|.........
  41e51c:	cf00 01c7 8700 0383 8700 0383 8700 0383     ................
  41e52c:	8700 0383 cf00 01c7 fe00 01ff fc00 00fe     ................
  41e53c:	7800 007c 0000 0000 0000 0000 f000 0001     .x|.............
  41e54c:	fc00 0003 fe00 0007 0e00 030f 0700 03ce     ................
  41e55c:	0700 03ee 0700 03fe 0700 00fe 0e00 003f     ..............?.
  41e56c:	fe00 000f fc00 0003 f800 0000 0000 0000     ................
  41e57c:	c000 03c3 c000 03c3 c000 03c3 0000 0000     ................
  41e58c:	0000 0000 0000 3f00 e000 1f81 e000 0781     .......?........
  41e59c:	e000 0301 0000 0000 0000 001e 0000 001e     ................
  41e5ac:	0000 001f 0000 003f 0000 003f 8000 0073     ......?...?...s.
  41e5bc:	8000 0073 8000 0073 c000 00e1 0000 0000     ..s...s.........
  41e5cc:	0000 0000 c000 0039 c000 0039 c000 0039     ......9...9...9.
  41e5dc:	c000 0039 c000 0039 c000 0039 c000 0039     ..9...9...9...9.
  41e5ec:	c000 0039 c000 0039 c000 0039 0000 0000     ..9...9...9.....
  41e5fc:	c000 00e1 8000 0073 8000 0073 8000 0073     ......s...s...s.
  41e60c:	0000 003f 0000 003f 0000 003f 0000 001e     ..?...?...?.....
  41e61c:	0000 001e 0000 001e 0000 0000 1c00 0000     ................
  41e62c:	1e00 0000 1e00 0000 0f00 03dc 0700 03df     ................
  41e63c:	0700 03df 8700 0003 c700 0001 fe00 0001     ................
  41e64c:	fe00 0000 7800 0000 0000 0000 0000 0000     .....x..........
	...
  41e664:	0000 00ff c000 03ff e000 07ff f800 1f81     ................
  41e674:	7c00 3e00 3c00 3c3c 1e00 78ff 8e00 71ff     .|.>.<<<...x...q
  41e684:	8f00 f1c3 c700 e381 c700 e381 c700 e381     ................
  41e694:	c700 e381 c700 e1c3 cf00 f1ff ce00 73ff     ...............s
  41e6a4:	de00 73ff 1c00 0380 3c00 0380 f800 03c0     ...s.....<......
	...
  41e6c8:	0000 0380 0000 03c0 0000 03f8 0000 03ff     ................
  41e6d8:	e000 03bf f800 038f ff00 000e 1f00 000e     ................
  41e6e8:	0700 000e 7f00 000e ff00 038f f800 039f     ................
  41e6f8:	8000 03ff 0000 03fc 0000 03e0 0000 0380     ................
	...
  41e710:	0700 0380 0700 0380 ff00 03ff ff00 03ff     ................
  41e720:	ff00 03ff 8700 0383 8700 0383 8700 0383     ................
  41e730:	8700 0383 8700 0383 cf00 03c7 fe00 01ff     ................
  41e740:	fc00 00ff f800 007c 0000 0000 0000 0000     ......|.........
  41e750:	c000 000f f000 003f fc00 007f 3e00 00f0     ......?......>..
  41e760:	1e00 01e0 0f00 01c0 0700 0380 0700 0380     ................
  41e770:	0700 0380 0700 0380 0f00 03c0 1e00 01e0     ................
  41e780:	3c00 01f0 3800 00f0 3800 0070 3800 0030     .<...8...8p..80.
  41e790:	0000 0000 0700 0380 0700 0380 ff00 03ff     ................
  41e7a0:	ff00 03ff ff00 03ff 0700 0380 0700 0380     ................
  41e7b0:	0700 0380 0700 0380 0f00 03c0 0e00 01c0     ................
  41e7c0:	1e00 01e0 7c00 00f8 f800 007f f000 003f     .....|........?.
  41e7d0:	c000 000f 0000 0000 0000 0000 0700 0380     ................
  41e7e0:	0700 0380 ff00 03ff ff00 03ff ff00 03ff     ................
  41e7f0:	8700 0383 8700 0383 8700 0383 8700 0383     ................
  41e800:	8700 0383 0700 0380 3f00 03f0 3f00 03f0     .........?...?..
  41e810:	3f00 03f0 0000 0000 0000 0000 0700 0380     .?..............
  41e820:	0700 0380 ff00 03ff ff00 03ff ff00 03ff     ................
  41e830:	8700 0383 8700 0383 8700 0003 8700 0003     ................
  41e840:	8700 0003 0700 0000 1f00 0000 1f00 0000     ................
  41e850:	1f00 0000 0000 0000 c000 000f f000 003f     ..............?.
  41e860:	f800 00ff 7c00 00f0 1e00 01e0 0e00 01c0     .....|..........
  41e870:	0700 0380 0700 0380 0700 0380 0700 0387     ................
  41e880:	0700 0387 0e00 03c7 1e00 01e7 3c00 01f7     .............<..
  41e890:	3800 00ff 3800 03ff 3800 03ff 0000 0000     .8...8...8......
  41e8a0:	0000 0000 0700 0380 0700 0380 ff00 03ff     ................
  41e8b0:	ff00 03ff ff00 03ff 8700 0383 8700 0383     ................
  41e8c0:	8000 0003 8000 0003 8000 0003 8000 0003     ................
  41e8d0:	8000 0003 8000 0003 8700 0383 8700 0383     ................
  41e8e0:	ff00 03ff ff00 03ff ff00 03ff 0700 0380     ................
  41e8f0:	0700 0380 0000 0000 0000 0000 0700 0380     ................
  41e900:	0700 0380 ff00 03ff ff00 03ff ff00 03ff     ................
  41e910:	0700 0380 0700 0380 0000 0000 0700 0c00     ................
  41e920:	0700 0f00 ff00 0fff ff00 07ff ff00 01ff     ................
  41e930:	0700 0000 0700 0000 0000 0000 0700 0380     ................
  41e940:	0700 0380 ff00 03ff ff00 03ff ff00 03ff     ................
  41e950:	0700 0382 0700 0383 8000 0007 c000 000f     ................
  41e960:	e000 001c 7000 0038 3800 0038 3f00 03f0     .....p8..88..?..
  41e970:	1f00 03e0 0f00 03c0 0700 0380 0700 0380     ................
  41e980:	0700 0000 0000 0000 0700 0380 0700 0380     ................
  41e990:	ff00 03ff ff00 03ff ff00 03ff 0700 0380     ................
  41e9a0:	0700 0380 0000 0380 0000 0380 0000 0380     ................
  41e9b0:	0000 0380 0000 03f8 0000 03f8 0000 03f8     ................
	...
  41e9c8:	0700 0380 0700 0380 ff00 03ff ff00 03ff     ................
  41e9d8:	ff00 03ff 3f00 0380 fc00 0000 f800 0003     .....?..........
  41e9e8:	e000 0007 8000 001f 0000 007e 0000 01f8     ..........~.....
  41e9f8:	0000 03e0 0000 03f8 0000 01fe 8000 003f     ..............?.
  41ea08:	e000 000f f800 0003 fe00 0000 3f00 0380     .............?..
  41ea18:	ff00 03ff ff00 03ff ff00 03ff 0700 0380     ................
  41ea28:	0700 0380 0000 0000 0000 0000 0700 0380     ................
  41ea38:	0700 0380 ff00 03ff ff00 03ff fe00 03ff     ................
  41ea48:	fc00 0380 f000 0381 e000 0007 8000 000f     ................
  41ea58:	0000 003f 0000 007c 0700 01f0 0700 03e0     ..?...|.........
  41ea68:	ff00 03ff ff00 03ff ff00 03ff 0700 0000     ................
  41ea78:	0700 0000 0000 0000 0000 0000 c000 000f     ................
  41ea88:	f000 003f f800 007f 3c00 00f0 1e00 01e0     ..?......<......
  41ea98:	0e00 01c0 0700 0380 0700 0380 0700 0380     ................
  41eaa8:	0700 0380 0700 0380 0e00 01c0 1e00 01e0     ................
  41eab8:	3c00 00f0 f800 007f f000 003f c000 000f     .<........?.....
	...
  41ead0:	0700 0380 0700 0380 ff00 03ff ff00 03ff     ................
  41eae0:	ff00 03ff 0700 0387 0700 0387 0700 0007     ................
  41eaf0:	0700 0007 0700 0007 8f00 0007 fe00 0003     ................
  41eb00:	fc00 0001 f800 0000 0000 0000 0000 0000     ................
  41eb10:	c000 000f f000 003f f800 00ff 3c00 00f0     ......?......<..
  41eb20:	1e00 01e0 0e00 03c0 0700 0380 0700 3f80     ...............?
  41eb30:	0700 3f80 0700 3f80 0700 7b80 0e00 f3c0     ...?...?...{....
  41eb40:	1e00 e1e0 3c00 e0f0 f800 f0ff f000 703f     .....<........?p
  41eb50:	c000 700f 0000 0000 0000 0000 0700 0380     ...p............
  41eb60:	0700 0380 ff00 03ff ff00 03ff ff00 03ff     ................
  41eb70:	0700 0387 0700 0387 0700 0007 0700 0007     ................
  41eb80:	0700 0007 0700 000f 0700 00ff 8f00 03ff     ................
  41eb90:	fe00 03f9 fc00 03e1 7800 0380 0000 0000     .........x......
  41eba0:	0000 0000 7800 0078 fc00 00f9 fe00 01f9     .....xx.........
  41ebb0:	cf00 01c3 c700 0383 8700 0387 8700 0387     ................
  41ebc0:	8700 0387 0700 0387 0e00 01cf 3e00 01ff     .............>..
  41ebd0:	3c00 00fe 3800 007c 0000 0000 3f00 0000     .<...8|......?..
  41ebe0:	3f00 0000 3f00 0000 0700 0000 0700 0380     .?...?..........
  41ebf0:	0700 0380 ff00 03ff ff00 03ff ff00 03ff     ................
  41ec00:	0700 0380 0700 0380 0700 0000 0700 0000     ................
  41ec10:	3f00 0000 3f00 0000 3f00 0000 0000 0000     .?...?...?......
  41ec20:	0700 0000 0700 0000 ff00 001f ff00 007f     ................
  41ec30:	ff00 00ff 0700 01e0 0700 03c0 0000 0380     ................
  41ec40:	0000 0380 0000 0380 0000 0380 0700 03c0     ................
  41ec50:	0700 01e0 ff00 00ff ff00 007f ff00 001f     ................
  41ec60:	0700 0000 0700 0000 0700 0000 0700 0000     ................
  41ec70:	0f00 0000 7f00 0000 ff00 0003 f700 000f     ................
  41ec80:	8700 007f 0000 01fe 0000 03f0 0000 03f0     ................
  41ec90:	0000 03fe 8700 007f f700 000f ff00 0003     ................
  41eca0:	7f00 0000 0f00 0000 0700 0000 0700 0000     ................
  41ecb0:	0700 0000 0700 0000 0f00 0000 7f00 0000     ................
  41ecc0:	ff00 0003 f700 000f c700 007f 0000 01fe     ................
  41ecd0:	0000 03f8 0000 03e0 0000 03fe e000 01ff     ................
  41ece0:	fe00 001f ff00 0000 ff00 0000 fc00 0007     ................
  41ecf0:	e000 003f 0000 01ff 0000 03f8 0000 03f0     ..?.............
  41ed00:	0000 01fe 8700 007f f700 001f ff00 0003     ................
  41ed10:	7f00 0000 0f00 0000 0700 0000 0700 0000     ................
  41ed20:	0700 0380 0f00 03c0 1f00 03e0 3f00 03f0     .............?..
  41ed30:	7f00 03f8 f700 03bc e000 001f c000 000f     ................
  41ed40:	c000 000f e000 001f f700 03bc 7f00 03f8     ................
  41ed50:	3f00 03f0 1f00 03e0 0f00 03c0 0700 0380     .?..............
	...
  41ed68:	0700 0000 0700 0000 0f00 0000 1f00 0000     ................
  41ed78:	3f00 0000 7f00 0380 f700 0380 c000 03ff     .?..............
  41ed88:	8000 03ff c000 03ff e000 0380 7700 0380     .............w..
  41ed98:	3f00 0000 1f00 0000 0f00 0000 0700 0000     .?..............
  41eda8:	0700 0000 0000 0000 0000 0000 7f00 03e0     ................
  41edb8:	7f00 03f0 7f00 03f8 0700 03de 0700 038f     ................
  41edc8:	c700 0387 e700 0381 f700 0380 3f00 0380     .............?..
  41edd8:	1f00 0380 0f00 03f0 0f00 03f0 0700 03f0     ................
	...
  41edf0:	ffe0 ffff ffe0 ffff ffe0 ffff 00e0 e000     ................
  41ee00:	00e0 e000 0000 0000 0000 0000 0100 0000     ................
  41ee10:	0f00 0000 7f00 0000 fe00 0001 f800 000f     ................
  41ee20:	c000 007f 0000 01fe 0000 03f0 0000 03c0     ................
  41ee30:	0000 0000 00e0 e000 00e0 e000 ffe0 ffff     ................
  41ee40:	ffe0 ffff ffe0 ffff 0000 0000 0000 0000     ................
  41ee50:	0000 0001 c000 0001 f000 0001 fc00 0001     ................
  41ee60:	3f00 0000 0f00 0000 0f00 0000 3f00 0000     .?...........?..
  41ee70:	fe00 0000 f800 0001 c000 0001 0000 0001     ................
  41ee80:	0000 0000 0000 3800 0000 3800 0000 3800     .......8...8...8
  41ee90:	0000 3800 0000 3800 0000 3800 0000 3800     ...8...8...8...8
  41eea0:	0000 3800 0000 3800 0000 3800 0000 3800     ...8...8...8...8
  41eeb0:	0000 3800 0000 0000 0000 0000 0100 0000     ...8............
  41eec0:	0300 0000 0700 0000 0f00 0000 0e00 0000     ................
  41eed0:	0800 0000 0000 0000 0000 0000 0000 00e0     ................
  41eee0:	8000 01f1 8000 03f9 c000 0399 c000 0399     ................
  41eef0:	c000 0399 c000 0399 c000 039b c000 03ff     ................
  41ef00:	8000 03ff 0000 03ff 0000 0380 0000 0380     ................
  41ef10:	0000 0000 0700 0000 0700 0000 ff00 03ff     ................
  41ef20:	ff00 03ff ff00 03ff c000 03c3 c000 0381     ................
  41ef30:	c000 0381 c000 0381 c000 0381 8000 01c3     ................
  41ef40:	8000 01ff 0000 00ff 0000 003c 0000 0000     ..........<.....
  41ef50:	0000 0000 0000 003e 0000 00ff 8000 01ff     ......>.........
  41ef60:	8000 01c3 c000 0381 c000 0381 c000 0381     ................
  41ef70:	c000 0381 c000 03c3 8000 01e3 8000 00e3     ................
  41ef80:	8000 0063 0000 0000 0000 0000 0000 003c     ..c...........<.
  41ef90:	0000 00ff 8000 01ff 8000 03c3 c000 0381     ................
  41efa0:	c000 0381 c000 0381 c700 0381 c700 03c3     ................
  41efb0:	ff00 03ff ff00 03ff ff00 03ff 0000 0380     ................
  41efc0:	0000 0380 0000 0000 0000 0000 0000 003c     ..............<.
  41efd0:	0000 00ff 8000 01ff 8000 01d9 c000 0399     ................
  41efe0:	c000 0399 c000 0399 c000 0399 c000 0399     ................
  41eff0:	8000 039f 0000 019f 0000 001e 0000 0000     ................
  41f000:	0000 0000 c000 0381 c000 0381 fc00 03ff     ................
  41f010:	fe00 03ff ff00 03ff c700 0381 c700 0381     ................
  41f020:	0700 0000 0000 0000 0000 003c 0000 60ff     ..........<....`
  41f030:	8000 71ff 8000 f1c3 c000 e381 c000 e381     ...q............
  41f040:	c000 e381 c000 e381 c000 f3c3 c000 7fff     ................
  41f050:	c000 3fff c000 1fff 0000 0000 0000 0000     ...?............
  41f060:	0000 0000 0700 0380 0700 0380 ff00 03ff     ................
  41f070:	ff00 03ff ff00 03ff 8000 0383 c000 0381     ................
  41f080:	c000 0001 c000 0001 c000 0003 c000 03ff     ................
  41f090:	8000 03ff 0000 03ff 0000 0380 0000 0380     ................
  41f0a0:	0000 0000 c000 0381 c600 0381 cf00 03ff     ................
  41f0b0:	cf00 03ff cf00 03ff 0600 0380 0000 0380     ................
  41f0c0:	0000 0000 c000 e001 c000 e001 c600 ffff     ................
  41f0d0:	cf00 7fff cf00 3fff 0f00 0000 0600 0000     .......?........
  41f0e0:	0000 0000 0700 0380 0700 0380 ff00 03ff     ................
  41f0f0:	ff00 03ff ff00 03ff 0000 039c 0000 039c     ................
  41f100:	0000 003c 0000 007f 8000 00ff c000 01e7     ..<.............
  41f110:	c000 03c3 c000 03c1 c000 03c1 0000 0000     ................
	...
  41f128:	0700 0380 0700 0380 ff00 03ff ff00 03ff     ................
  41f138:	ff00 03ff 0000 0380 0000 0380 0000 0000     ................
  41f148:	0000 0000 c000 0381 c000 0381 c000 03ff     ................
  41f158:	c000 03ff c000 03ff 8000 0383 c000 0381     ................
  41f168:	c000 0001 c000 0001 c000 0003 c000 03ff     ................
  41f178:	8000 03ff 0000 03ff 8000 0383 c000 0381     ................
  41f188:	c000 0001 c000 0001 c000 0003 c000 03ff     ................
  41f198:	8000 03ff 0000 03ff 0000 0380 0000 0380     ................
  41f1a8:	0000 0000 c000 0381 c000 0381 c000 03ff     ................
  41f1b8:	c000 03ff c000 03ff 8000 0383 c000 0381     ................
  41f1c8:	c000 0001 c000 0001 c000 0001 c000 0003     ................
  41f1d8:	c000 03ff 8000 03ff 0000 03ff 0000 0380     ................
  41f1e8:	0000 0380 0000 0000 0000 003c 0000 00ff     ..........<.....
  41f1f8:	8000 01ff 8000 01c3 c000 03c1 c000 0381     ................
  41f208:	c000 0381 c000 0381 c000 0381 8000 01c3     ................
  41f218:	8000 01ff 0000 00ff 0000 003c 0000 0000     ..........<.....
	...
  41f230:	c000 e001 c000 e001 c000 ffff c000 ffff     ................
  41f240:	c000 ffff c000 e3c3 c000 e381 c000 0381     ................
  41f250:	c000 0381 c000 0381 8000 01c3 8000 01ff     ................
  41f260:	0000 00ff 0000 003c 0000 0000 0000 0000     ......<.........
  41f270:	0000 003c 0000 00ff 8000 01ff 8000 01c3     ..<.............
  41f280:	c000 03c3 c000 0381 c000 0381 c000 0381     ................
  41f290:	c000 e381 c000 e3c3 c000 ffff c000 ffff     ................
  41f2a0:	c000 ffff 0000 e000 0000 e000 0000 0000     ................
  41f2b0:	c000 0381 c000 0381 c000 03ff c000 03ff     ................
  41f2c0:	c000 03ff 8000 0383 c000 0381 c000 0001     ................
  41f2d0:	c000 0003 c000 0003 c000 0003 0000 0000     ................
  41f2e0:	0000 0000 0000 01c7 8000 01cf c000 01cf     ................
  41f2f0:	c000 03dd c000 0399 c000 0399 c000 0399     ................
  41f300:	c000 03bb 8000 01fb 8000 01f3 8000 00e3     ................
  41f310:	0000 0000 c000 0001 c000 0001 f800 01ff     ................
  41f320:	fc00 03ff fc00 03ff c000 0381 c000 0381     ................
  41f330:	0000 0180 c000 0001 c000 0001 c000 007f     ................
  41f340:	c000 01ff c000 01ff 0000 03c0 0000 0380     ................
  41f350:	0000 0380 0000 0380 c000 0381 c000 01c1     ................
  41f360:	c000 03ff c000 03ff c000 03ff 0000 0380     ................
  41f370:	0000 0380 0000 0000 c000 0001 c000 0001     ................
  41f380:	c000 0003 c000 000f c000 003f c000 00fd     ..........?.....
  41f390:	c000 03f1 0000 03c0 0000 03f0 c000 01fd     ................
  41f3a0:	c000 007f c000 000f c000 0003 c000 0001     ................
  41f3b0:	c000 0001 c000 0001 c000 0001 c000 0007     ................
  41f3c0:	c000 001f c000 00ff c000 03fd c000 03e1     ................
  41f3d0:	0000 03f8 8000 01ff c000 003f c000 0007     ..........?.....
  41f3e0:	c000 000f c000 007f 0000 03fe 0000 03f0     ................
  41f3f0:	c000 03e1 c000 03fd c000 00ff c000 001f     ................
  41f400:	c000 0003 c000 0001 c000 0001 c000 0381     ................
  41f410:	c000 0381 c000 03c1 c000 03e3 c000 03f7     ................
  41f420:	c000 03ff 0000 003c 0000 003c c000 03ff     ......<...<.....
  41f430:	c000 03ff c000 03e7 c000 03c3 c000 0381     ................
  41f440:	c000 0381 c000 0001 c000 0001 c000 0003     ................
  41f450:	c000 e00f c000 e03f c000 f0fd 0000 fff0     ......?.........
  41f460:	0000 ffc0 0000 eff0 c000 e3fd c000 007f     ................
  41f470:	c000 001f c000 0003 c000 0001 c000 0001     ................
  41f480:	0000 0000 c000 0387 c000 03c7 c000 03f7     ................
  41f490:	c000 03f9 c000 03fd c000 039f c000 038f     ................
  41f4a0:	c000 03e3 c000 03e1 4000 03e0 0000 0000     .........@......
	...
  41f4b8:	0000 0007 0000 0007 0000 0007 ffc0 1fff     ................
  41f4c8:	ffe0 3fff ffe0 3ffd 00e0 3800 00e0 3800     ...?...?...8...8
	...
  41f4e4:	ffe0 ffff ffe0 ffff ffe0 ffff 0000 0000     ................
	...
  41f4fc:	00e0 3800 00e0 3800 ffe0 3ffd ffe0 3fff     ...8...8...?...?
  41f50c:	ffc0 1fff 0000 0007 0000 0007 0000 0007     ................
	...
  41f528:	0000 0007 8000 0007 c000 0001 c000 0001     ................
  41f538:	c000 0003 8000 0003 8000 0007 0000 0007     ................
  41f548:	0000 0007 c000 0003 c000 0001               ............

0041f554 <Arvo_28pt_CharCount>:
  41f554:	0c08 1a0c 1f16 061b 0d0d 180f 0d0a 0f08     ................
  41f564:	1018 1414 1517 1317 1717 0909 1112 1315     ................
  41f574:	1c2a 1b18 171b 1e16 0e21 1c0c 2817 1d1d     *.......!....(..
  41f584:	1d17 161a 1c1a 2e1b 181b 0d16 0d11 1316     ................
  41f594:	140b 1417 1517 160d 0c18 170b 250c 1619     .............%..
  41f5a4:	1617 1211 180e 1e14 1514 0d11 0d08 0016     ................

0041f5b4 <Arvo_28pt_Table>:
	...
  41f5fc:	f000 003f 0030 f000 ffff 0078 f000 ffff     ..?.0.....x.....
  41f60c:	0078 f000 003f 0030 0000 0000 0000 0000     x...?.0.........
	...
  41f630:	0000 f800 0001 0000 f800 000f 0000 f800     ................
  41f640:	000f 0000 f800 000f 0000 0000 0000 0000     ................
	...
  41f65c:	f800 000f 0000 f800 000f 0000 f800 000f     ................
  41f66c:	0000 3800 0000 0000 0000 6000 0000 0000     ...8.......`....
  41f67c:	7000 0000 0000 700c 0000 0000 700e 0070     .p.....p.....pp.
  41f68c:	0000 f00e 007f 0000 f80e 007f 0000 ffce     ................
  41f69c:	001f 0000 fffe 0000 c000 7fff 0000 f000     ................
  41f6ac:	707f 0000 f000 700f 0000 3000 700e 0000     .p.....p...0.p..
  41f6bc:	0000 700e 0000 0000 700e 0060 0000 700e     ...p.....p`....p
  41f6cc:	007f 0000 f00e 007f 0000 ff8e 001f 0000     ................
  41f6dc:	7ffe 0000 c000 77ff 0000 f000 703f 0000     .......w....?p..
  41f6ec:	f000 700f 0000 3000 700e 0000 0000 700e     ...p...0.p.....p
  41f6fc:	0000 0000 000e 0000 0000 000e 0000 0000     ................
	...
  41f724:	0000 0007 0000 03e0 0007 0000 0ff0 0007     ................
  41f734:	0000 0ff8 000f 0000 1e38 001f 0000 1e1c     ........8.......
  41f744:	003c 0000 1c1c 0038 f000 3c1f 0ff8 f000     <.....8....<....
  41f754:	3c1f 0ff8 f000 381f 0ff8 0000 381c 0038     .<.....8.....88.
  41f764:	0000 783c 0038 0000 70f8 001c 0000 f0f0     ..<x8....p......
  41f774:	001f 0000 e0e0 000f 0000 c0e0 0003 0000     ................
	...
  41f798:	0000 8000 0007 0000 e000 001f 0000 f000     ................
  41f7a8:	003f 0000 7000 0078 0040 3800 0070 0060     ?....px.@..8p.`.
  41f7b8:	3800 0070 0078 3800 0070 007c 3800 0070     .8p.x..8p.|..8p.
  41f7c8:	001f 7000 8038 000f f000 e03f 0003 e000     ...p8.....?.....
  41f7d8:	f01f 0001 8000 fc07 0000 0000 3e00 0000     .............>..
  41f7e8:	0000 1f00 0000 0000 07c0 0000 0000 03e0     ................
  41f7f8:	0000 0000 80f8 0007 0000 e07c 001f 0000     ..........|.....
  41f808:	f01f 003f 8000 700f 0078 e000 3803 0070     ..?....px....8p.
  41f818:	f000 3801 0070 7800 3800 0070 3800 3800     ...8p..x.8p..8.8
  41f828:	0070 0800 7000 0078 0000 f000 003f 0000     p....px.....?...
  41f838:	e000 001f 0000 8000 0007 0000 0000 0000     ................
	...
  41f860:	0000 e000 0003 0000 f01e 000f 8000 f87f     ................
  41f870:	001f c000 3cff 003c e000 0de1 0038 e000     .....<<.....8...
  41f880:	0fc0 0078 7000 0780 0070 7000 0700 0070     ..x..p..p..p..p.
  41f890:	7000 0f00 0070 7000 1f80 0070 7000 3d80     .p..p..p..p..p.=
  41f8a0:	0070 e000 78c0 0078 e000 f0e1 003c c000     p....xx.....<...
  41f8b0:	e07f 003f 8000 c03f 001f 0000 e01f 001f     ..?...?.........
  41f8c0:	0000 fc00 000f 0000 fc00 001e 0000 3c00     ...............<
  41f8d0:	003c 0000 0400 0078 0000 0000 0070 0000     <.....x.....p...
  41f8e0:	0000 0060 0000 0000 0040 0000 0000 0000     ..`.....@.......
  41f8f0:	0000 0000 0000 f800 0007 0000 f800 0007     ................
  41f900:	0000 f800 0007 0000 f800 0000 0000 0000     ................
	...
  41f928:	ff80 0003 0000 fff0 001f 0000 fffe 00ff     ................
  41f938:	8000 00ff 03fe c000 000f 07e0 f000 0003     ................
  41f948:	1f80 f800 0000 3e00 3c00 0000 7800 1800     .......>.<...x..
  41f958:	0000 1000 0000 0000 0000 0000 0000 0000     ................
  41f968:	1800 0000 3000 3c00 0000 7800 f800 0000     .....0.<...x....
  41f978:	3e00 f000 0001 1f80 c000 000f 07e0 8000     .>..............
  41f988:	00ff 03fe 0000 fffe 00ff 0000 fff0 001f     ................
  41f998:	0000 ff80 0003 0000 0000 0000 0000 0000     ................
	...
  41f9b4:	0000 8000 0000 0000 c000 0001 0000 8000     ................
  41f9c4:	0021 0000 8000 0071 0000 8000 007b 0000     !.....q.....{...
  41f9d4:	f800 001f 0000 f800 000f 0000 f800 000f     ................
  41f9e4:	0000 8000 001f 0000 8000 007b 0000 8000     ..........{.....
  41f9f4:	0031 0000 c000 0001 0000 8000 0000 0000     1...............
	...
  41fa1c:	0000 0e00 0000 0000 0e00 0000 0000 0e00     ................
  41fa2c:	0000 0000 0e00 0000 0000 0e00 0000 0000     ................
  41fa3c:	0e00 0000 0000 0e00 0000 0000 fffe 000f     ................
  41fa4c:	0000 fffe 000f 0000 fffe 000f 0000 0e00     ................
  41fa5c:	0000 0000 0e00 0000 0000 0e00 0000 0000     ................
  41fa6c:	0e00 0000 0000 0e00 0000 0000 0e00 0000     ................
  41fa7c:	0000 0e00 0000 0000 0e00 0000 0000 0000     ................
	...
  41fa9c:	0000 0800 0000 0000 1e00 0000 0000 1f80     ................
  41faac:	0000 0000 0fe0 0000 0000 07f0 0000 0000     ................
  41fabc:	01f0 0000 0000 00e0 0000 0000 0020 0000     ............ ...
	...
  41fae4:	3800 0000 0000 3800 0000 0000 3800 0000     .8.....8.....8..
  41faf4:	0000 3800 0000 0000 3800 0000 0000 3800     ...8.....8.....8
  41fb04:	0000 0000 3800 0000 0000 3800 0000 0000     .....8.....8....
  41fb14:	3800 0000 0000 0000 0000 0000 0000 0000     .8..............
	...
  41fb34:	0038 0000 0000 007c 0000 0000 007c 0000     8.....|.....|...
  41fb44:	0000 0038 0000 0000 0000 0000 0000 0000     ..8.............
	...
  41fb5c:	0000 0040 0000 0000 0078 0000 0000 007e     ..@.....x.....~.
  41fb6c:	0000 c000 003f 0000 f000 000f 0000 fe00     ....?...........
  41fb7c:	0001 0000 7fc0 0000 0000 0ff0 0000 0000     ................
  41fb8c:	01fe 0000 8000 007f 0000 f000 000f 0000     ................
  41fb9c:	f800 0003 0000 7800 0000 0000 1800 0000     .......x........
	...
  41fbbc:	7fe0 0000 0000 fffc 0003 0000 ffff 000f     ................
  41fbcc:	8000 801f 001f c000 0003 003e e000 0001     ..........>.....
  41fbdc:	0038 e000 0000 0078 7000 0000 0070 7000     8.....x..p..p..p
  41fbec:	0000 0070 7000 0000 0070 7000 0000 0070     ..p..p..p..p..p.
  41fbfc:	7000 0000 0070 7000 0000 0070 f000 0000     .p..p..p..p.....
  41fc0c:	0038 e000 0001 003c e000 0003 001e c000     8.....<.........
  41fc1c:	c00f 001f 8000 ffff 000f 0000 fffe 0003     ................
  41fc2c:	0000 7ff0 0000 0000 0000 0000 0000 0000     ................
	...
  41fc44:	0000 0007 0000 8000 0003 0000 8000 0003     ................
  41fc54:	0000 c000 0001 0070 c000 0001 0070 e000     ......p.....p...
  41fc64:	0000 0070 e000 ffff 007f f000 ffff 007f     ..p.............
  41fc74:	f000 ffff 007f 0000 0000 0070 0000 0000     ..........p.....
  41fc84:	0070 0000 0000 0070 0000 0000 0000 0000     p.....p.........
	...
  41fcac:	000e 0078 8000 000f 007c c000 000f 007e     ..x.....|.....~.
  41fcbc:	e000 0001 007f e000 c000 0077 7000 e000     ..........w..p..
  41fccc:	0073 7000 f000 0070 7000 7c00 0070 7000     s..p..p..p.|p..p
  41fcdc:	3e00 0070 7000 0f00 0070 e000 0780 0070     .>p..p..p.....p.
  41fcec:	e000 03e1 0070 c000 01ff 0070 8000 007f     ....p.....p.....
  41fcfc:	0070 0000 003e 0070 0000 0000 0000 0000     p...>.p.........
	...
  41fd1c:	0000 0006 0003 8000 0007 000f c000 0007     ................
  41fd2c:	001f e000 0003 003e e000 0000 0038 f000     ......>.....8...
  41fd3c:	0000 0078 7000 0000 0070 7000 0380 0070     ..x..p..p..p..p.
  41fd4c:	7000 0380 0070 7000 0380 0070 f000 0380     .p..p..p..p.....
  41fd5c:	0070 e000 07c0 0078 e000 06e1 003c c000     p.....x.....<...
  41fd6c:	1eff 003e 8000 fc7f 001f 0000 f83e 000f     ..>.........>...
  41fd7c:	0000 f000 0003 0000 0000 0000 0000 0000     ................
	...
  41fd9c:	7800 0000 0000 7e00 0000 0000 7f00 0000     .x.....~........
  41fdac:	0000 7fc0 0000 0000 73f0 0000 0000 70fc     .........s.....p
  41fdbc:	0000 0000 703f 0000 8000 701f 0000 e000     ....?p.....p....
  41fdcc:	7007 0000 f000 7001 0070 7000 7000 0070     .p.....pp..p.pp.
  41fddc:	1000 7000 0070 0000 ff80 007f 0000 ff80     ...pp...........
  41fdec:	007f 0000 ff80 007f 0000 7000 0070 0000     ...........pp...
  41fdfc:	7000 0070 0000 7000 0070 0000 7000 0000     .pp....pp....p..
	...
  41fe28:	0006 f000 03ff 000f f000 03ff 001f f000     ................
  41fe38:	03ff 003e 7000 01c0 003c 7000 01c0 0078     ..>..p..<..p..x.
  41fe48:	7000 00e0 0070 7000 00e0 0070 7000 00e0     .p..p..p..p..p..
  41fe58:	0070 7000 00e0 0070 7000 00e0 0070 7000     p..p..p..p..p..p
  41fe68:	01e0 0078 7000 01c0 0038 7000 03c0 003c     ..x..p..8..p..<.
  41fe78:	7000 0f80 001f 7000 ff00 000f 7000 fe00     .p.....p.....p..
  41fe88:	0007 0000 f800 0001 0000 0000 0000 0000     ................
	...
  41fea4:	f800 0001 0000 fe00 0007 0000 ff80 000f     ................
  41feb4:	0000 07c0 001e 0000 03f0 003c 0000 01fc     ..........<.....
  41fec4:	0038 0000 00ff 0078 8000 00ef 0070 e000     8.....x.....p...
  41fed4:	00e7 0070 f000 00e1 0070 7000 00e0 0070     ..p.....p..p..p.
  41fee4:	1000 00e0 0070 0000 01e0 0078 0000 01c0     ....p.....x.....
  41fef4:	0038 0000 03c0 003c 0000 0f80 001f 0000     8.....<.........
  41ff04:	ff80 000f 0000 fe00 0007 0000 f800 0001     ................
	...
  41ff24:	0000 f000 0001 0000 f000 0001 0000 f000     ................
  41ff34:	0001 0070 7000 0000 0070 7000 0000 0078     ..p..p..p..p..x.
  41ff44:	7000 0000 007f 7000 e000 007f 7000 f800     .p.....p.....p..
  41ff54:	0077 7000 fe00 0070 7000 3fc0 0070 7000     w..p..p..p.?p..p
  41ff64:	07f0 0000 7000 01fc 0000 7000 007f 0000     .....p.....p....
  41ff74:	f000 000f 0000 f000 0003 0000 f000 0000     ................
  41ff84:	0000 3000 0000 0000 0000 0000 0000 0000     ...0............
	...
  41ffa4:	0000 f000 0003 0000 f81f 000f 8000 fe7f     ................
  41ffb4:	001f c000 1eff 001e e000 0fe1 003c e000     ............<...
  41ffc4:	07c0 0038 7000 0380 0070 7000 0380 0070     ..8..p..p..p..p.
  41ffd4:	7000 0380 0070 7000 0380 0070 7000 0380     .p..p..p..p..p..
  41ffe4:	0070 e000 07c0 0038 e000 0fe1 003c c000     p.....8.....<...
  41fff4:	1eff 001e 8000 fe7f 001f 0000 f81f 000f     ................
  420004:	0000 f000 0003 0000 0000 0000 0000 0000     ................
	...
  420028:	0000 00fc 0000 0000 01ff 0000 8000 07ff     ................
  420038:	0000 c000 0783 0000 e000 0f01 0000 e000     ................
  420048:	0e00 0000 f000 1e00 0040 7000 1c00 0070     ........@..p..p.
  420058:	7000 1c00 0078 7000 1c00 003e 7000 9c00     .p..x..p..>..p..
  420068:	001f 7000 dc00 0007 f000 fc00 0003 e000     ...p............
  420078:	fe00 0000 e000 3f01 0000 c000 1f83 0000     .......?........
  420088:	8000 07ff 0000 0000 03ff 0000 0000 00fc     ................
	...
  4200b4:	00e0 0038 0000 01f0 007c 0000 01f0 007c     ..8.....|.....|.
  4200c4:	0000 00e0 0038 0000 0000 0000 0000 0000     ....8...........
	...
  4200e0:	1800 0000 0000 1f00 0000 00e0 1fe0 0000     ................
  4200f0:	01f0 0ff8 0000 01f0 03f8 0000 00e0 01f8     ................
  420100:	0000 0000 0078 0000 0000 0018 0000 0000     ....x...........
  420110:	0000 0000 1e00 0000 0000 1f00 0000 0000     ................
  420120:	3f00 0000 0000 3f80 0000 0000 7b80 0000     .?.....?.....{..
  420130:	0000 73c0 0000 0000 f1c0 0000 0000 e1e0     ...s............
  420140:	0000 0000 e0e0 0000 0000 c0e0 0001 0000     ................
  420150:	c070 0001 0000 c070 0003 0000 8038 0003     p.....p.....8...
  420160:	0000 8038 0007 0000 001c 0007 0000 0000     ..8.............
	...
  42018c:	8e00 0003 0000 8e00 0003 0000 8e00 0003     ................
  42019c:	0000 8e00 0003 0000 8e00 0003 0000 8e00     ................
  4201ac:	0003 0000 8e00 0003 0000 8e00 0003 0000     ................
  4201bc:	8e00 0003 0000 8e00 0003 0000 8e00 0003     ................
  4201cc:	0000 8e00 0003 0000 8e00 0003 0000 0000     ................
	...
  4201f8:	001c 0007 0000 8038 0007 0000 8038 0003     ......8.....8...
  420208:	0000 c070 0003 0000 c070 0001 0000 c0e0     ..p.....p.......
  420218:	0001 0000 e0e0 0000 0000 e1e0 0000 0000     ................
  420228:	f1c0 0000 0000 73c0 0000 0000 7b80 0000     .......s.....{..
  420238:	0000 3f80 0000 0000 3f00 0000 0000 1f00     ...?.....?......
  420248:	0000 0000 1e00 0000 0000 0000 0000 0000     ................
	...
  420270:	000e 0000 8000 000f 0000 c000 000f 0000     ................
  420280:	e000 0003 0000 e000 0000 0038 f000 f800     ..........8.....
  420290:	007c 7000 fc00 007c 7000 fe00 0038 7000     |..p..|..p..8..p
  4202a0:	0f00 0000 7000 0380 0000 7000 01c0 0000     .....p.....p....
  4202b0:	f000 01c0 0000 e000 00e1 0000 c000 007f     ................
  4202c0:	0000 c000 003f 0000 0000 001f 0000 0000     ....?...........
	...
  4202e8:	fc00 0003 0000 ff80 001f 0000 ffe0 007f     ................
  4202f8:	0000 03f8 01fc 0000 007c 03e0 0000 003e     ........|.....>.
  420308:	07c0 0000 000f 0f00 8000 0007 1e00 8000     ................
  420318:	f803 1c01 c000 fe03 3c07 c000 ff01 380f     .........<.....8
  420328:	e000 0f80 701f e000 03c0 703c e000 01c0     .....p....<p....
  420338:	7038 7000 01c0 e078 7000 00e0 e070 7000     8p.p..x..p..p..p
  420348:	00e0 e070 7000 00e0 e070 7000 00e0 e070     ..p..p..p..p..p.
  420358:	7000 00e0 e070 7000 01e0 e078 7000 01c0     .p..p..p..x..p..
  420368:	e038 e000 07c0 f03c e000 ffe0 701f e000     8.....<......p..
  420378:	ffe0 703f c000 ffe1 707f c000 0003 30f0     ..?p.....p.....0
  420388:	8000 0003 00e0 8000 0007 00e0 0000 000f     ................
  420398:	00e0 0000 001e 00f0 0000 007c 0078 0000     ..........|.x...
  4203a8:	03f8 003e 0000 ffe0 001f 0000 ff80 000f     ..>.............
  4203b8:	0000 fe00 0001 0000 0000 0000 0000 0000     ................
	...
  4203d4:	0070 0000 0000 0070 0000 0000 0070 0000     p.....p.....p...
  4203e4:	0000 007c 0000 8000 007f 0000 f000 007f     ..|.............
  4203f4:	0000 fe00 0077 0000 ffc0 0070 0000 3ff8     ....w.....p....?
  420404:	0070 0000 3bff 0000 e000 387f 0000 f000     p....;.....8....
  420414:	380f 0000 f000 3801 0000 3000 3800 0000     .8.....8...0.8..
  420424:	f000 3801 0000 f000 380f 0000 c000 387f     ...8.....8.....8
  420434:	0000 0000 3bfe 0000 0000 3ff0 0000 0000     .....;.....?....
  420444:	ff80 0070 0000 fc00 0077 0000 e000 007f     ..p.....w.......
  420454:	0000 0000 007f 0000 0000 007c 0000 0000     ..........|.....
  420464:	0070 0000 0000 0070 0000 0000 0070 0000     p.....p.....p...
  420474:	0000 0070 0000 0000 0000 0000 0000 0000     ..p.............
  420484:	7000 0000 0070 7000 0000 0070 7000 0000     .p..p..p..p..p..
  420494:	0070 f000 ffff 007f f000 ffff 007f f000     p...............
  4204a4:	ffff 007f 7000 0700 0070 7000 0700 0070     .....p..p..p..p.
  4204b4:	7000 0700 0070 7000 0700 0070 7000 0700     .p..p..p..p..p..
  4204c4:	0070 7000 0700 0070 7000 0700 0070 7000     p..p..p..p..p..p
  4204d4:	0700 0070 7000 0700 0070 f000 0f80 0078     ..p..p..p.....x.
  4204e4:	e000 0f80 0038 e000 1dc3 003e c000 fdff     ....8.....>.....
  4204f4:	001f 8000 f8ff 000f 0000 e03e 0003 0000     ..........>.....
	...
  420510:	1fe0 0000 0000 fff8 0000 0000 fffe 0001     ................
  420520:	0000 e03f 0007 8000 800f 000f c000 0003     ..?.............
  420530:	001e c000 0001 001e e000 0001 003c e000     ............<...
  420540:	0000 0038 f000 0000 0038 7000 0000 0070     ..8.....8..p..p.
  420550:	7000 0000 0070 7000 0000 0070 7000 0000     .p..p..p..p..p..
  420560:	0070 7000 0000 0070 7000 0000 0070 f000     p..p..p..p..p...
  420570:	0000 0070 e000 0000 0038 e000 0000 0038     ..p.....8.....8.
  420580:	e000 0001 003c c000 0003 001e 8000 8007     ....<...........
  420590:	000f 8000 8007 0007 0000 8007 0003 0000     ................
  4205a0:	8006 0001 0000 0000 0000 0000 0000 0000     ................
  4205b0:	0000 0000 0000 7000 0000 0070 7000 0000     .......p..p..p..
  4205c0:	0070 7000 0000 0070 f000 ffff 007f f000     p..p..p.........
  4205d0:	ffff 007f f000 ffff 007f 7000 0000 0070     ...........p..p.
  4205e0:	7000 0000 0070 7000 0000 0070 7000 0000     .p..p..p..p..p..
  4205f0:	0070 7000 0000 0070 7000 0000 0070 7000     p..p..p..p..p..p
  420600:	0000 0070 7000 0000 0070 e000 0000 0038     ..p..p..p.....8.
  420610:	e000 0000 0038 e000 0001 003c c000 0003     ....8.....<.....
  420620:	001e 8000 0007 000f 8000 800f 000f 0000     ................
  420630:	e03f 0007 0000 fffc 0001 0000 fff8 0000     ?...............
  420640:	0000 1fc0 0000 0000 0000 0000 0000 0000     ................
	...
  420658:	7000 0000 0070 7000 0000 0070 7000 0000     .p..p..p..p..p..
  420668:	0070 f000 ffff 007f f000 ffff 007f f000     p...............
  420678:	ffff 007f 7000 0700 0070 7000 0700 0070     .....p..p..p..p.
  420688:	7000 0700 0070 7000 0700 0070 7000 0700     .p..p..p..p..p..
  420698:	0070 7000 0700 0070 7000 0700 0070 7000     p..p..p..p..p..p
  4206a8:	0700 0070 7000 0700 0070 7000 0000 0070     ..p..p..p..p..p.
  4206b8:	7000 0000 0070 f000 8007 007f f000 8007     .p..p...........
  4206c8:	007f f000 8007 007f 0000 0000 0000 0000     ................
	...
  4206e0:	0000 7000 0000 0070 7000 0000 0070 7000     ...p..p..p..p..p
  4206f0:	0000 0070 f000 ffff 007f f000 ffff 007f     ..p.............
  420700:	f000 ffff 007f 7000 0700 0070 7000 0700     .......p..p..p..
  420710:	0070 7000 0700 0070 7000 0700 0000 7000     p..p..p..p.....p
  420720:	0700 0000 7000 0700 0000 7000 0700 0000     .....p.....p....
  420730:	7000 0700 0000 7000 0700 0000 7000 0700     .p.....p.....p..
  420740:	0000 f000 0007 0000 f000 0007 0000 f000     ................
  420750:	0007 0000 0000 0000 0000 0000 0000 0000     ................
  420760:	0000 1fc0 0000 0000 fff8 0000 0000 fffe     ................
  420770:	0003 0000 e03f 0007 8000 800f 000f c000     ....?...........
  420780:	0003 001e c000 0001 001c e000 0001 003c     ..............<.
  420790:	e000 0000 0038 f000 0000 0078 7000 0000     ....8.....x..p..
  4207a0:	0070 7000 0000 0070 7000 0000 0070 7000     p..p..p..p..p..p
  4207b0:	0000 0070 7000 0000 0070 7000 1c00 0070     ..p..p..p..p..p.
  4207c0:	f000 1c00 0070 e000 1c00 0038 e000 1c00     ....p.....8.....
  4207d0:	0038 e000 1c01 001c c000 1c03 001e 8000     8...............
  4207e0:	9c07 000f 0000 fc07 0003 0000 fc07 007f     ................
  4207f0:	0000 fc07 007f 0000 fc00 007f 0000 0000     ................
	...
  420818:	0000 7000 0000 0070 7000 0000 0070 7000     ...p..p..p..p..p
  420828:	0000 0070 f000 ffff 007f f000 ffff 007f     ..p.............
  420838:	f000 ffff 007f 7000 0380 0070 7000 0380     .......p..p..p..
  420848:	0070 7000 0380 0070 0000 0380 0000 0000     p..p..p.........
  420858:	0380 0000 0000 0380 0000 0000 0380 0000     ................
  420868:	0000 0380 0000 0000 0380 0000 0000 0380     ................
  420878:	0000 0000 0380 0000 0000 0380 0000 0000     ................
  420888:	0380 0000 0000 0380 0000 7000 0380 0070     ...........p..p.
  420898:	7000 0380 0070 7000 0380 0070 f000 ffff     .p..p..p..p.....
  4208a8:	007f f000 ffff 007f f000 ffff 007f 7000     ...............p
  4208b8:	0000 0070 7000 0000 0070 7000 0000 0070     ..p..p..p..p..p.
	...
  4208e0:	7000 0000 0070 7000 0000 0070 7000 0000     .p..p..p..p..p..
  4208f0:	0070 f000 ffff 007f f000 ffff 007f f000     p...............
  420900:	ffff 007f 7000 0000 0070 7000 0000 0070     .....p..p..p..p.
  420910:	7000 0000 0070 0000 0000 0000 0000 0000     .p..p...........
	...
  420938:	0400 7000 0000 0600 7000 0000 0780 7000     ...p.....p.....p
  420948:	0000 07e0 f000 ffff 01ff f000 ffff 00ff     ................
  420958:	f000 ffff 003f 7000 0000 0000 7000 0000     ....?..p.....p..
  420968:	0000 7000 0000 0000 0000 0000 0000 0000     ...p............
  420978:	0000 0000 7000 0000 0070 7000 0000 0070     .....p..p..p..p.
  420988:	7000 0000 0070 f000 ffff 007f f000 ffff     .p..p...........
  420998:	007f f000 ffff 007f 7000 0780 0070 7000     .........p..p..p
  4209a8:	0780 0070 7000 0780 0070 0000 07c0 0000     ..p..p..p.......
  4209b8:	0000 07e0 0000 0000 0ef0 0000 0000 1c70     ..............p.
  4209c8:	0000 0000 3878 0000 0000 703c 0000 0000     ....x8....<p....
  4209d8:	e01e 0000 0000 c00e 0001 0000 8007 0003     ................
  4209e8:	8000 0007 007f f000 0003 007e f000 0001     ..........~.....
  4209f8:	007c f000 0000 0078 7000 0000 0070 7000     |.....x..p..p..p
  420a08:	0000 0070 7000 0000 0070 0000 0000 0000     ..p..p..p.......
	...
  420a24:	7000 0000 0070 7000 0000 0070 7000 0000     .p..p..p..p..p..
  420a34:	0070 f000 ffff 007f f000 ffff 007f f000     p...............
  420a44:	ffff 007f 7000 0000 0070 7000 0000 0070     .....p..p..p..p.
  420a54:	7000 0000 0070 0000 0000 0070 0000 0000     .p..p.....p.....
  420a64:	0070 0000 0000 0070 0000 0000 0070 0000     p.....p.....p...
  420a74:	0000 0070 0000 0000 0070 0000 0000 0070     ..p.....p.....p.
  420a84:	0000 0000 0070 0000 8000 007f 0000 8000     ....p...........
  420a94:	007f 0000 8000 007f 0000 0000 0000 0000     ................
	...
  420ab4:	7000 0000 0070 7000 0000 0070 7000 0000     .p..p..p..p..p..
  420ac4:	0070 f000 ffff 007f f000 ffff 007f f000     p...............
  420ad4:	ffff 007f f000 0000 0070 f000 0007 0070     ........p.....p.
  420ae4:	c000 001f 0070 0000 007f 0000 0000 03fc     ....p...........
  420af4:	0000 0000 0fe0 0000 0000 3f80 0000 0000     ...........?....
  420b04:	fe00 0001 0000 f000 0007 0000 c000 003f     ..............?.
  420b14:	0000 0000 007e 0000 0000 0078 0000 0000     ....~.....x.....
  420b24:	007e 0000 8000 003f 0000 f000 000f 0000     ~.....?.........
  420b34:	fc00 0001 0000 7f80 0000 0000 1fe0 0000     ................
  420b44:	0000 03fc 0000 0000 00ff 0000 e000 001f     ................
  420b54:	0070 f000 0007 0070 f000 0000 0070 f000     p.....p.....p...
  420b64:	ffff 007f f000 ffff 007f f000 ffff 007f     ................
  420b74:	7000 0000 0070 7000 0000 0070 7000 0000     .p..p..p..p..p..
  420b84:	0070 0000 0000 0000 0000 0000 0000 0000     p...............
	...
  420b9c:	0000 7000 0000 0070 7000 0000 0070 7000     ...p..p..p..p..p
  420bac:	0000 0070 f000 ffff 007f f000 ffff 007f     ..p.............
  420bbc:	f000 ffff 007f f000 0001 0070 e000 0007     ..........p.....
  420bcc:	0070 8000 000f 0070 0000 003f 0000 0000     p.....p...?.....
  420bdc:	00fc 0000 0000 03f0 0000 0000 0fc0 0000     ................
  420bec:	0000 1f80 0000 0000 7e00 0000 0000 f800     .........~......
  420bfc:	0001 0000 e000 0007 0000 8000 000f 7000     ...............p
  420c0c:	0000 003f 7000 0000 007c 7000 0000 007e     ..?..p..|..p..~.
  420c1c:	f000 ffff 007f f000 ffff 007f f000 ffff     ................
  420c2c:	007f 7000 0000 0000 7000 0000 0000 7000     ...p.....p.....p
	...
  420c48:	1fc0 0000 0000 fff8 0000 0000 fffe 0003     ................
  420c58:	0000 e03f 0007 8000 800f 000f c000 0007     ..?.............
  420c68:	001e c000 0003 001e e000 0001 003c e000     ............<...
  420c78:	0000 0038 e000 0000 0038 7000 0000 0070     ..8.....8..p..p.
  420c88:	7000 0000 0070 7000 0000 0070 7000 0000     .p..p..p..p..p..
  420c98:	0070 7000 0000 0070 7000 0000 0070 7000     p..p..p..p..p..p
  420ca8:	0000 0070 e000 0000 0038 e000 0000 0038     ..p.....8.....8.
  420cb8:	e000 0001 003c c000 0003 001e c000 0007     ....<...........
  420cc8:	001f 8000 800f 000f 0000 e03f 0007 0000     ..........?.....
  420cd8:	fffe 0003 0000 fff8 0000 0000 1fc0 0000     ................
	...
  420cf8:	0000 7000 0000 0070 7000 0000 0070 7000     ...p..p..p..p..p
  420d08:	0000 0070 f000 ffff 007f f000 ffff 007f     ..p.............
  420d18:	f000 ffff 007f 7000 0700 0070 7000 0700     .......p..p..p..
  420d28:	0070 7000 0700 0070 7000 0700 0000 7000     p..p..p..p.....p
  420d38:	0700 0000 7000 0700 0000 7000 0700 0000     .....p.....p....
  420d48:	7000 0700 0000 f000 0380 0000 e000 0380     .p..............
  420d58:	0000 e000 03c1 0000 c000 01ff 0000 8000     ................
  420d68:	00ff 0000 0000 003e 0000 0000 0000 0000     ......>.........
	...
  420d80:	1fc0 0000 0000 fff8 0000 0000 fffe 0003     ................
  420d90:	0000 e03f 0007 8000 800f 000f c000 0007     ..?.............
  420da0:	001e c000 0003 001e e000 0001 003c e000     ............<...
  420db0:	0000 0038 e000 0000 0078 7000 0000 0070     ..8.....x..p..p.
  420dc0:	7000 0000 0070 7000 0000 03f0 7000 0000     .p..p..p.....p..
  420dd0:	03f0 7000 0000 03f0 7000 0000 03f0 7000     ...p.....p.....p
  420de0:	0000 07f0 e000 0000 0778 e000 0000 0f38     ........x.....8.
  420df0:	e000 0001 0e3c c000 0003 0e1e c000 0007     ....<...........
  420e00:	0e1f 8000 800f 0e0f 0000 e03f 0f07 0000     ..........?.....
  420e10:	fffe 0783 0000 fff8 0380 0000 1fc0 0180     ................
	...
  420e30:	0000 7000 0000 0070 7000 0000 0070 7000     ...p..p..p..p..p
  420e40:	0000 0070 f000 ffff 007f f000 ffff 007f     ..p.............
  420e50:	f000 ffff 007f 7000 0700 0070 7000 0700     .......p..p..p..
  420e60:	0070 7000 0700 0070 7000 0700 0000 7000     p..p..p..p.....p
  420e70:	0700 0000 7000 0700 0000 7000 0f00 0000     .....p.....p....
  420e80:	7000 0f00 0000 f000 3f80 0000 e000 ff80     .p.......?......
  420e90:	0003 e000 f9c1 001f c000 f1ff 007f 8000     ................
  420ea0:	80ff 007f 0000 003e 007c 0000 0000 0070     ......>.|.....p.
  420eb0:	0000 0000 0070 0000 0000 0000 0000 0000     ....p...........
	...
  420ed0:	803e 0003 8000 80ff 0007 c000 80ff 001f     >...............
  420ee0:	e000 81e1 001f e000 03c0 003c e000 03c0     ..........<.....
  420ef0:	0038 7000 0380 0078 7000 0780 0070 7000     8..p..x..p..p..p
  420f00:	0780 0070 7000 0700 0070 7000 0700 0070     ..p..p..p..p..p.
  420f10:	7000 0f00 0070 7000 0f00 0070 e000 0e00     .p..p..p..p.....
  420f20:	0038 e000 1e01 0038 c000 3c07 001c c000     8.....8....<....
  420f30:	fc07 001f 8000 f807 000f 0000 e007 0003     ................
	...
  420f4c:	f000 0003 0000 f000 0003 0000 f000 0003     ................
  420f5c:	0000 7000 0000 0000 7000 0000 0000 7000     ...p.....p.....p
  420f6c:	0000 0000 7000 0000 0000 7000 0000 0070     .....p.....p..p.
  420f7c:	7000 0000 0070 7000 0000 0070 f000 ffff     .p..p..p..p.....
  420f8c:	007f f000 ffff 007f f000 ffff 007f 7000     ...............p
  420f9c:	0000 0070 7000 0000 0070 7000 0000 0070     ..p..p..p..p..p.
  420fac:	7000 0000 0000 7000 0000 0000 7000 0000     .p.....p.....p..
  420fbc:	0000 7000 0000 0000 7000 0000 0000 f000     ...p.....p......
  420fcc:	0003 0000 f000 0003 0000 f000 0003 0000     ................
	...
  420fec:	0000 7000 0000 0000 7000 0000 0000 7000     ...p.....p.....p
  420ffc:	0000 0000 f000 7fff 0000 f000 ffff 0003     ................
  42100c:	f000 ffff 000f 7000 8000 001f 7000 0000     .......p.....p..
  42101c:	001e 7000 0000 0038 0000 0000 0038 0000     ...p..8.....8...
  42102c:	0000 0070 0000 0000 0070 0000 0000 0070     ..p.....p.....p.
  42103c:	0000 0000 0070 0000 0000 0070 0000 0000     ....p.....p.....
  42104c:	0070 0000 0000 0038 7000 0000 0038 7000     p.....8..p..8..p
  42105c:	0000 001c 7000 0000 000f f000 ffff 0007     .....p..........
  42106c:	f000 ffff 0003 f000 7fff 0000 7000 0000     .............p..
  42107c:	0000 7000 0000 0000 7000 0000 0000 7000     ...p.....p.....p
  42108c:	0000 0000 7000 0000 0000 f000 0000 0000     .....p..........
  42109c:	f000 0007 0000 f000 003f 0000 7000 00ff     ........?....p..
  4210ac:	0000 7000 07f8 0000 0000 3fc0 0000 0000     ...p.......?....
  4210bc:	ff00 0000 0000 f800 0007 0000 e000 001f     ................
  4210cc:	0000 0000 007f 0000 0000 0078 0000 0000     ..........x.....
  4210dc:	0078 0000 0000 007f 0000 c000 001f 0000     x...............
  4210ec:	f000 0007 0000 fe00 0001 0000 3f80 0000     .............?..
  4210fc:	7000 0fe0 0000 7000 03fc 0000 7000 007f     .p.....p.....p..
  42110c:	0000 f000 001f 0000 f000 0007 0000 f000     ................
  42111c:	0000 0000 7000 0000 0000 7000 0000 0000     .....p.....p....
  42112c:	0000 0000 0000 7000 0000 0000 7000 0000     .......p.....p..
  42113c:	0000 f000 0001 0000 f000 000f 0000 f000     ................
  42114c:	007f 0000 7000 03ff 0000 7000 1ff0 0000     .....p.....p....
  42115c:	0000 ff80 0000 0000 fc00 0007 0000 e000     ................
  42116c:	003f 0000 0000 007f 0000 0000 0078 0000     ?...........x...
  42117c:	0000 007c 0000 8000 007f 0000 f000 001f     ..|.............
  42118c:	0000 fe00 0003 0000 7fc0 0000 0000 0ff8     ................
  42119c:	0000 0000 01ff 0000 e000 003f 0000 f000     ..........?.....
  4211ac:	0007 0000 f000 0000 0000 f000 0001 0000     ................
  4211bc:	f000 000f 0000 c000 007f 0000 0000 03fe     ................
  4211cc:	0000 0000 0ff0 0000 0000 7fc0 0000 0000     ................
  4211dc:	fe00 0003 0000 f000 001f 0000 8000 007f     ................
  4211ec:	0000 0000 007e 0000 0000 0078 0000 0000     ....~.....x.....
  4211fc:	007f 0000 e000 007f 0000 fc00 000f 7000     ...............p
  42120c:	ff80 0000 7000 1ff0 0000 7000 03ff 0000     .....p.....p....
  42121c:	f000 007f 0000 f000 000f 0000 f000 0001     ................
  42122c:	0000 7000 0000 0000 7000 0000 0000 0000     ...p.....p......
	...
  421250:	0000 7000 0000 0070 7000 0000 0070 f000     ...p..p..p..p...
  421260:	0000 0078 f000 0001 007c f000 0003 007e     ..x.....|.....~.
  421270:	7000 8007 0077 7000 c01e 0073 7000 e03c     .p..w..p..s..p<.
  421280:	0071 0000 7870 0000 0000 3de0 0000 0000     q...px.....=....
  421290:	1fc0 0000 0000 0700 0000 0000 1fc0 0000     ................
  4212a0:	0000 3de0 0000 0000 78f0 0000 7000 e03c     ...=.....x...p<.
  4212b0:	0071 7000 c01e 0073 7000 800f 0077 f000     q..p..s..p..w...
  4212c0:	0003 007e f000 0001 007c f000 0000 0078     ..~.....|.....x.
  4212d0:	7000 0000 0070 7000 0000 0070 0000 0000     .p..p..p..p.....
	...
  4212e8:	7000 0000 0000 7000 0000 0000 7000 0000     .p.....p.....p..
  4212f8:	0000 f000 0000 0000 f000 0003 0000 f000     ................
  421308:	000f 0000 7000 001f 0070 7000 007c 0070     .....p..p..p|.p.
  421318:	7000 01f8 0070 0000 ffe0 007f 0000 ff80     .p..p...........
  421328:	007f 0000 ff80 007f 0000 07c0 0070 0000     ............p...
  421338:	01f0 0070 7000 00f8 0070 7000 003e 0000     ..p..p..p..p>...
  421348:	7000 001f 0000 f000 0007 0000 f000 0003     .p..............
  421358:	0000 f000 0000 0000 7000 0000 0000 7000     .........p.....p
  421368:	0000 0000 7000 0000 0000 0000 0000 0000     .....p..........
  421378:	f000 000f 007c f000 000f 007e f000 000f     ....|.....~.....
  421388:	007f 7000 8000 0073 7000 e000 0071 7000     ...p..s..p..q..p
  421398:	f000 0070 7000 7800 0070 7000 1c00 0070     ..p..p.xp..p..p.
  4213a8:	7000 0f00 0070 7000 0780 0070 7000 03c0     .p..p..p..p..p..
  4213b8:	0070 7000 00e0 0070 7000 0078 0070 7000     p..p..p..px.p..p
  4213c8:	003c 0070 7000 001e 0070 7000 0007 0070     <.p..p..p..p..p.
  4213d8:	f000 8003 007f f000 8001 007f f000 8000     ................
  4213e8:	007f 3000 0000 0000 0000 0000 0000 0000     ...0............
	...
  42140c:	0000 ff80 ffff 3fff ff80 ffff 3fff ff80     .......?.....?..
  42141c:	ffff 3fff 0380 0000 3800 0380 0000 3800     ...?.....8.....8
  42142c:	0380 0000 3800 0000 0000 0000 0000 0000     .....8..........
	...
  421448:	0000 0c00 0000 0000 3c00 0000 0000 fc00     .........<......
  421458:	0001 0000 f000 0007 0000 8000 001f 0000     ................
  421468:	0000 00fe 0000 0000 03f8 0000 0000 0fe0     ................
  421478:	0000 0000 3f00 0000 0000 fc00 0001 0000     .....?..........
  421488:	f000 0007 0000 8000 001f 0000 0000 007e     ..............~.
  421498:	0000 0000 0078 0000 0000 0060 0000 0000     ....x.....`.....
	...
  4214b4:	3800 0380 0000 3800 0380 0000 3800 0380     .8.....8.....8..
  4214c4:	0000 3800 ff80 ffff 3fff ff80 ffff 3fff     ...8.....?.....?
  4214d4:	ff80 ffff 3fff 0000 0000 0000 0000 0000     .....?..........
	...
  42150c:	0200 0000 0000 0380 0000 0000 03e0 0000     ................
  42151c:	0000 01fc 0000 0000 007f 0000 c000 001f     ................
  42152c:	0000 f000 0007 0000 f800 0001 0000 7800     ...............x
  42153c:	0000 0000 f800 0000 0000 f800 0003 0000     ................
  42154c:	e000 000f 0000 8000 007f 0000 0000 01fe     ................
  42155c:	0000 0000 03f0 0000 0000 03c0 0000 0000     ................
  42156c:	0300 0000 0000 0000 0000 0000 0000 0000     ................
  42157c:	0000 0000 0c00 0000 0000 0c00 0000 0000     ................
  42158c:	0c00 0000 0000 0c00 0000 0000 0c00 0000     ................
  42159c:	0000 0c00 0000 0000 0c00 0000 0000 0c00     ................
  4215ac:	0000 0000 0c00 0000 0000 0c00 0000 0000     ................
  4215bc:	0c00 0000 0000 0c00 0000 0000 0c00 0000     ................
  4215cc:	0000 0c00 0000 0000 0c00 0000 0000 0c00     ................
  4215dc:	0000 0000 0c00 0000 0000 0c00 0000 0000     ................
  4215ec:	0c00 0000 0000 0000 0000 0000 0000 1000     ................
  4215fc:	0000 0000 3000 0000 0000 7000 0000 0000     .....0.....p....
  42160c:	f000 0000 0000 f000 0001 0000 c000 0003     ................
  42161c:	0000 8000 0003 0000 0000 0002 0000 0000     ................
	...
  421638:	0000 000f 0000 c040 001f 0000 e0e0 003f     ......@.......?.
  421648:	0000 e0e0 0038 0000 f070 0070 0000 7070     ....8...p.p...pp
  421658:	0070 0000 7070 0070 0000 7070 0070 0000     p...ppp...ppp...
  421668:	7070 0070 0000 7070 0070 0000 70f0 0038     ppp...ppp....p8.
  421678:	0000 71e0 0038 0000 ffe0 007f 0000 ffc0     ...q8...........
  421688:	007f 0000 ff00 007f 0000 0000 0070 0000     ............p...
  421698:	0000 0070 0000 0000 0070 0000 0000 0000     ..p.....p.......
  4216a8:	0000 0000 0000 3800 0000 0000 3800 0000     .......8.....8..
  4216b8:	0000 3800 0000 0000 f800 ffff 007f f800     ...8............
  4216c8:	ffff 007f f800 ffff 007f 0000 00c0 0038     ..............8.
  4216d8:	0000 00e0 0078 0000 0060 0070 0000 0070     ....x...`.p...p.
  4216e8:	0070 0000 0070 0070 0000 0070 0070 0000     p...p.p...p.p...
  4216f8:	0070 0070 0000 00f0 0078 0000 00f0 0038     p.p.....x.....8.
  421708:	0000 01e0 003c 0000 07c0 001f 0000 ffc0     ....<...........
  421718:	000f 0000 ff00 0007 0000 fc00 0001 0000     ................
	...
  421740:	fc00 0001 0000 ff00 0007 0000 ff80 000f     ................
  421750:	0000 07c0 001f 0000 01e0 003c 0000 00e0     ..........<.....
  421760:	0038 0000 00f0 0078 0000 0070 0070 0000     8.....x...p.p...
  421770:	0070 0070 0000 0070 0070 0000 0070 0070     p.p...p.p...p.p.
  421780:	0000 0070 0070 0000 00e0 0038 0000 01c0     ..p.p.....8.....
  421790:	003c 0000 03c0 001e 0000 03c0 000e 0000     <...............
  4217a0:	03c0 0000 0000 0000 0000 0000 0000 0000     ................
	...
  4217b8:	fc00 0001 0000 ff00 0007 0000 ff80 000f     ................
  4217c8:	0000 07c0 001f 0000 01e0 003c 0000 00e0     ..........<.....
  4217d8:	0038 0000 00f0 0078 0000 0070 0070 0000     8.....x...p.p...
  4217e8:	0070 0070 0000 0070 0070 0000 0070 0070     p.p...p.p...p.p.
  4217f8:	3800 0070 0070 3800 00e0 0038 3800 00e0     .8p.p..8..8..8..
  421808:	0038 f800 ffff 007f f800 ffff 007f f800     8...............
  421818:	ffff 007f 0000 0000 0070 0000 0000 0070     ........p.....p.
  421828:	0000 0000 0070 0000 0000 0000 0000 0000     ....p...........
	...
  421840:	0000 fc00 0001 0000 ff00 0007 0000 ffc0     ................
  421850:	001f 0000 3be0 003e 0000 39e0 003c 0000     .....;>....9<...
  421860:	38f0 0078 0000 3870 0070 0000 3870 0070     .8x...p8p...p8p.
  421870:	0000 3870 0070 0000 3870 0070 0000 3870     ..p8p...p8p...p8
  421880:	0070 0000 38f0 0070 0000 39e0 0038 0000     p....8p....98...
  421890:	3fc0 0038 0000 3f80 001c 0000 3e00 001c     .?8....?.....>..
	...
  4218c0:	0070 0070 0000 0070 0070 0000 0070 0070     p.p...p.p...p.p.
  4218d0:	c000 ffff 007f e000 ffff 007f f000 ffff     ................
  4218e0:	007f 7800 0070 0070 3800 0070 0070 3800     ...xp.p..8p.p..8
  4218f0:	0070 0070 3800 0000 0000 3800 0000 0000     p.p..8.....8....
	...
  42190c:	0000 fc00 0001 0000 ff00 3807 0000 ff80     ...........8....
  42191c:	780f 0000 07c0 701f 0000 01e0 703c 0000     .x.....p....<p..
  42192c:	00e0 e038 0000 00f0 e078 0000 0070 e070     ..8.....x...p.p.
  42193c:	0000 0070 e070 0000 0070 e070 0000 0070     ..p.p...p.p...p.
  42194c:	e070 0000 0070 f070 0000 00f0 7038 0000     p...p.p.....8p..
  42195c:	00e0 7e18 0000 fff0 3fff 0000 fff0 1fff     ...~.....?......
  42196c:	0000 fff0 07ff 0000 0000 0000 0000 0000     ................
	...
  421988:	0000 3800 0000 0070 3800 0000 0070 3800     ...8..p..8..p..8
  421998:	0000 0070 f800 ffff 007f f800 ffff 007f     ..p.............
  4219a8:	f800 ffff 007f 0000 01c0 0070 0000 00e0     ..........p.....
  4219b8:	0070 0000 00e0 0070 0000 0060 0000 0000     p.....p...`.....
  4219c8:	0070 0000 0000 0070 0000 0000 0070 0000     p.....p.....p...
  4219d8:	0000 0070 0000 0000 0070 0070 0000 00f0     ..p.....p.p.....
  4219e8:	0070 0000 01e0 0070 0000 ffe0 007f 0000     p.....p.........
  4219f8:	ffc0 007f 0000 ff00 007f 0000 0000 0070     ..............p.
  421a08:	0000 0000 0070 0000 0000 0070 0000 0000     ....p.....p.....
  421a18:	0000 0000 0070 0070 0000 0070 0070 7000     ....p.p...p.p..p
  421a28:	0070 0070 f800 fff0 007f f800 fff0 007f     p.p.............
  421a38:	7000 fff0 007f 0000 0000 0070 0000 0000     .p........p.....
  421a48:	0070 0000 0000 0070 0000 0000 0000 0000     p.....p.........
	...
  421a64:	0070 7000 0000 0070 7000 0000 0070 7800     p..p..p..p..p..x
  421a74:	6000 fff0 3fff f000 fff0 1fff f000 fff0     .`...?..........
  421a84:	07ff 6000 0000 0000 0000 0000 0000 0000     ...`............
	...
  421aa8:	0000 3800 0000 0070 3800 0000 0070 3800     ...8..p..8..p..8
  421ab8:	0000 0070 f800 ffff 007f f800 ffff 007f     ..p.............
  421ac8:	f800 ffff 007f 0000 7000 0070 0000 7000     .........pp....p
  421ad8:	0070 0000 7000 0070 0000 7000 0000 0000     p....pp....p....
  421ae8:	f000 0000 0000 fc00 0001 0000 fe00 0003     ................
  421af8:	0000 8f70 000f 0000 07f0 001f 0000 03f0     ..p.............
  421b08:	003c 0000 01f0 0078 0000 00f0 0070 0000     <.....x.....p...
  421b18:	0070 0070 0000 0070 0070 0000 0000 0000     p.p...p.p.......
  421b28:	0000 0000 0000 3800 0000 0070 3800 0000     .......8..p..8..
  421b38:	0070 3800 0000 0070 f800 ffff 007f f800     p..8..p.........
  421b48:	ffff 007f f800 ffff 007f 0000 0000 0070     ..............p.
  421b58:	0000 0000 0070 0000 0000 0070 0000 0000     ....p.....p.....
	...
  421b78:	0070 0070 0000 0070 0070 0000 0070 0070     p.p...p.p...p.p.
  421b88:	0000 fff0 007f 0000 fff0 007f 0000 fff0     ................
  421b98:	007f 0000 00c0 0070 0000 00e0 0070 0000     ......p.....p...
  421ba8:	0060 0070 0000 0070 0000 0000 0070 0000     `.p...p.....p...
  421bb8:	0000 0070 0000 0000 0070 0000 0000 0070     ..p.....p.....p.
  421bc8:	0070 0000 00f0 0070 0000 01f0 0070 0000     p.....p.....p...
  421bd8:	ffe0 007f 0000 ffc0 007f 0000 ff80 007f     ................
  421be8:	0000 00c0 0070 0000 00e0 0070 0000 0060     ....p.....p...`.
  421bf8:	0070 0000 0070 0000 0000 0070 0000 0000     p...p.....p.....
  421c08:	0070 0000 0000 0070 0000 0000 0070 0070     p.....p.....p.p.
  421c18:	0000 00f0 0070 0000 01e0 0070 0000 ffe0     ....p.....p.....
  421c28:	007f 0000 ffc0 007f 0000 ff00 007f 0000     ................
  421c38:	0000 0070 0000 0000 0070 0000 0000 0070     ..p.....p.....p.
	...
  421c54:	0000 0070 0070 0000 0070 0070 0000 0070     ..p.p...p.p...p.
  421c64:	0070 0000 fff0 007f 0000 fff0 007f 0000     p...............
  421c74:	fff0 007f 0000 00c0 0070 0000 00e0 0070     ........p.....p.
  421c84:	0000 0060 0070 0000 0060 0000 0000 0070     ..`.p...`.....p.
  421c94:	0000 0000 0070 0000 0000 0070 0000 0000     ....p.....p.....
  421ca4:	0070 0000 0000 0070 0070 0000 00f0 0070     p.....p.p.....p.
  421cb4:	0000 01e0 0070 0000 ffe0 007f 0000 ffc0     ....p...........
  421cc4:	007f 0000 ff00 007f 0000 0000 0070 0000     ............p...
  421cd4:	0000 0070 0000 0000 0070 0000 0000 0000     ..p.....p.......
	...
  421cf0:	0000 fc00 0001 0000 ff00 0007 0000 ff80     ................
  421d00:	000f 0000 07c0 001f 0000 01e0 003c 0000     ............<...
  421d10:	00e0 0038 0000 0070 0078 0000 0070 0070     ..8...p.x...p.p.
  421d20:	0000 0070 0070 0000 0070 0070 0000 0070     ..p.p...p.p...p.
  421d30:	0070 0000 0070 0078 0000 00e0 0038 0000     p...p.x.....8...
  421d40:	01e0 003c 0000 07c0 001f 0000 ff80 000f     ..<.............
  421d50:	0000 ff00 0007 0000 fc00 0001 0000 0000     ................
	...
  421d70:	0070 e000 0000 0070 e000 0000 0070 e000     p.....p.....p...
  421d80:	0000 fff0 ffff 0000 fff0 ffff 0000 fff0     ................
  421d90:	ffff 0000 00e0 e038 0000 00e0 e038 0000     ......8.....8...
  421da0:	0070 e070 0000 0070 0070 0000 0070 0070     p.p...p.p...p.p.
  421db0:	0000 0070 0070 0000 0070 0070 0000 00f0     ..p.p...p.p.....
  421dc0:	0078 0000 00f0 0038 0000 01e0 003c 0000     x.....8.....<...
  421dd0:	07c0 001f 0000 ffc0 000f 0000 ff00 0007     ................
  421de0:	0000 fc00 0001 0000 0000 0000 0000 0000     ................
	...
  421e00:	fc00 0001 0000 ff00 0007 0000 ff80 000f     ................
  421e10:	0000 07c0 001f 0000 01e0 003c 0000 00e0     ..........<.....
  421e20:	0038 0000 00f0 0078 0000 0070 0070 0000     8.....x...p.p...
  421e30:	0070 0070 0000 0070 0070 0000 0070 0070     p.p...p.p...p.p.
  421e40:	0000 0070 e070 0000 00f0 e038 0000 00e0     ..p.p.....8.....
  421e50:	e038 0000 fff0 ffff 0000 fff0 ffff 0000     8...............
  421e60:	fff0 ffff 0000 0000 e000 0000 0000 e000     ................
  421e70:	0000 0000 e000 0000 0000 0000 0000 0070     ..............p.
  421e80:	0070 0000 0070 0070 0000 0070 0070 0000     p...p.p...p.p...
  421e90:	fff0 007f 0000 fff0 007f 0000 fff0 007f     ................
  421ea0:	0000 01c0 0070 0000 00e0 0070 0000 0070     ....p.....p...p.
  421eb0:	0070 0000 0070 0000 0000 0070 0000 0000     p...p.....p.....
  421ec0:	01f0 0000 0000 01f0 0000 0000 01f0 0000     ................
	...
  421ee4:	0000 000e 0000 0780 000e 0000 1fe0 001e     ................
  421ef4:	0000 1fe0 003e 0000 3cf0 007c 0000 3870     ....>....<|...p8
  421f04:	0078 0000 3870 0070 0000 7070 0070 0000     x...p8p...ppp...
  421f14:	7070 0070 0000 7070 0070 0000 e0f0 0070     ppp...ppp.....p.
  421f24:	0000 e3e0 0038 0000 e3c0 003f 0000 c380     ....8.....?.....
  421f34:	001f 0000 8380 000f 0000 0000 0000 0000     ................
	...
  421f50:	0070 0000 0000 0070 0000 0000 0070 0000     p.....p.....p...
  421f60:	c000 ffff 001f c000 ffff 003f c000 ffff     ..........?.....
  421f70:	007f 0000 0070 0070 0000 0070 0070 0000     ....p.p...p.p...
  421f80:	0000 0070 0000 0000 0070 0000 0000 0070     ..p.....p.....p.
  421f90:	0000 0000 0020 0000 0000 0000 0000 0000     .... ...........
  421fa0:	0000 0000 0070 0000 0000 0070 0000 0000     ....p.....p.....
  421fb0:	0070 0000 0000 fff0 0007 0000 fff0 001f     p...............
  421fc0:	0000 fff0 003f 0000 0000 007c 0000 0000     ....?.....|.....
  421fd0:	0078 0000 0000 0070 0000 0000 0070 0000     x.....p.....p...
  421fe0:	0000 0070 0000 0000 0070 0000 0070 0030     ..p.....p...p.0.
  421ff0:	0000 0070 0038 0000 0070 0038 0000 fff0     ..p.8...p.8.....
  422000:	007f 0000 fff0 007f 0000 fff0 007f 0000     ................
  422010:	0000 0070 0000 0000 0070 0000 0000 0070     ..p.....p.....p.
	...
  42202c:	0000 0070 0000 0000 0070 0000 0000 00f0     ..p.....p.......
  42203c:	0000 0000 07f0 0000 0000 3ff0 0000 0000     ...........?....
  42204c:	ff70 0000 0000 f800 0007 0000 e000 001f     p...............
  42205c:	0000 0000 007f 0000 0000 007c 0000 0000     ..........|.....
  42206c:	0078 0000 0000 007f 0000 e000 003f 0000     x...........?...
  42207c:	f800 0007 0000 ff70 0001 0000 3ff0 0000     ......p......?..
  42208c:	0000 07f0 0000 0000 00f0 0000 0000 0070     ..............p.
  42209c:	0000 0000 0070 0000 0000 0070 0000 0000     ....p.....p.....
  4220ac:	0070 0000 0000 01f0 0000 0000 0ff0 0000     p...............
  4220bc:	0000 7ff0 0000 0000 ff70 0003 0000 f800     ........p.......
  4220cc:	001f 0000 c000 007f 0000 0000 007c 0000     ............|...
  4220dc:	0000 007e 0000 e000 007f 0000 ff00 001f     ..~.............
  4220ec:	0000 fff0 0000 0000 0ff0 0000 0000 00f0     ................
  4220fc:	0000 0000 0ff0 0000 0000 fff0 0000 0000     ................
  42210c:	ff00 001f 0000 f000 007f 0000 0000 007e     ..............~.
  42211c:	0000 0000 007c 0000 c000 007f 0000 f800     ....|...........
  42212c:	001f 0000 ff70 0003 0000 7ff0 0000 0000     ....p...........
  42213c:	0ff0 0000 0000 01f0 0000 0000 0070 0000     ............p...
  42214c:	0000 0070 0000 0000 0000 0000 0000 0070     ..p...........p.
  42215c:	0070 0000 0070 0070 0000 00f0 0078 0000     p...p.p.....x...
  42216c:	01f0 007c 0000 03f0 007e 0000 07f0 007f     ..|.....~.......
  42217c:	0000 8f70 0077 0000 de00 0003 0000 fc00     ..p.w...........
  42218c:	0001 0000 f800 0000 0000 fc00 0000 0000     ................
  42219c:	fe00 0001 0000 cf70 0003 0000 87f0 0077     ......p.......w.
  4221ac:	0000 03f0 007e 0000 01f0 007c 0000 00f0     ....~.....|.....
  4221bc:	0078 0000 0070 0070 0000 0070 0070 0000     x...p.p...p.p...
  4221cc:	0000 0000 0000 0070 0000 0000 0070 0000     ......p.....p...
  4221dc:	0000 00f0 0000 0000 07f0 0000 0000 1ff0     ................
  4221ec:	e000 0000 ff70 e000 0000 fc70 f007 0000     ....p.....p.....
  4221fc:	e000 fe1f 0000 0000 ffff 0000 0000 effc     ................
  42220c:	0000 0000 e1fe 0000 c000 e07f 0000 f870     ..............p.
  42221c:	000f 0000 ff70 0001 0000 3ff0 0000 0000     ....p......?....
  42222c:	0ff0 0000 0000 01f0 0000 0000 0070 0000     ............p...
  42223c:	0000 0070 0000 0000 0000 0000 0000 0000     ..p.............
	...
  422254:	0000 03f0 0070 0000 03f0 0078 0000 03f0     ....p.....x.....
  422264:	007e 0000 0070 007f 0000 8070 007f 0000     ~...p.....p.....
  422274:	e070 0073 0000 f070 0071 0000 7c70 0070     p.s...p.q...p|p.
  422284:	0000 3e70 0070 0000 1f70 0070 0000 07f0     ..p>p...p.p.....
  422294:	0070 0000 03f0 0070 0000 00f0 007e 0000     p.....p.....~...
  4222a4:	0070 007e 0000 0000 007e 0000 0000 0000     p.~.....~.......
	...
  4222c0:	0000 0e00 0000 0000 0f00 0000 0000 3f80     ...............?
  4222d0:	0000 fe00 fbff 0fff ff00 f9ff 1fff ff80     ................
  4222e0:	e0ff 3fff 0780 0000 3c00 0380 0000 3800     ...?.....<.....8
  4222f0:	0380 0000 3800 0000 0000 0000 0000 0000     .....8..........
	...
  422314:	ff80 ffff 0fff ff80 ffff 0fff ff80 ffff     ................
  422324:	0fff 0000 0000 0000 0000 0000 0000 0000     ................
  422334:	0000 0000 0380 0000 3800 0380 0000 3800     .........8.....8
  422344:	0780 0000 3c00 ff80 e0ff 3fff ff00 f1ff     .....<.....?....
  422354:	1fff fe00 fbff 0fff 0000 3f80 0000 0000     ...........?....
  422364:	1f00 0000 0000 0e00 0000 0000 0000 0000     ................
	...
  422394:	4000 0000 0000 f000 0000 0000 7800 0000     .@...........x..
  4223a4:	0000 3800 0000 0000 3800 0000 0000 3800     ...8.....8.....8
  4223b4:	0000 0000 7800 0000 0000 7000 0000 0000     .....x.....p....
  4223c4:	7000 0000 0000 f000 0000 0000 e000 0000     .p..............
  4223d4:	0000 e000 0000 0000 e000 0000 0000 f000     ................
  4223e4:	0000 0000 7800 0000 0000 1000 0000 0000     .....x..........
	...

00422404 <Arvo_24pt_CharCount>:
  422404:	0b07 160a 1b13 0517 0b0b 140d 0c09 0d07     ................
  422414:	0d15 1111 1214 1114 1414 0808 0e10 1112     ................
  422424:	1824 1815 1418 1a13 0c1d 180b 2214 1919     $............"..
  422434:	1914 1317 1816 2817 1517 0b13 0b0f 1013     .......(........
  422444:	1209 1114 1214 130c 0a15 1409 200a 1315     ............. ..
  422454:	1314 100f 150c 1a11 1211 0b0e 0b07 0013     ................

00422464 <Arvo_24pt_Table>:
	...
  422494:	0000 ff00 6001 0000 ffff 00f1 ff00 f1ff     .....`..........
  4224a4:	0000 01ff 0060 0000 0000 0000 0000 0000     ....`...........
	...
  4224c0:	0000 8000 003f 0000 7f80 0000 8000 007f     ....?...........
	...
  4224dc:	7f80 0000 8000 007f 0000 7f80 0000 8000     ................
  4224ec:	0003 0000 0000 0000 0000 8000 0003 c000     ................
  4224fc:	0380 0000 80e0 00c3 e000 ff80 0000 f0e0     ................
  42250c:	00ff e000 3fff 0000 fffc 0003 ff00 038f     .....?..........
  42251c:	0000 80ff 0003 e700 0380 0000 80e0 00c3     ................
  42252c:	e000 ff80 0000 f0e0 00ff e000 3fff 0000     .............?..
  42253c:	fffc 0003 ff00 038f 0000 80ff 0003 e700     ................
  42254c:	0380 0000 80e0 0001 e000 0000 0000 0000     ................
	...
  422568:	0000 0e00 0000 1f00 000e 8000 1e3f 0000     ............?...
  422578:	7f80 003e c000 7873 0000 e1c0 0070 fe00     ..>...sx....p...
  422588:	f0e1 000f e1fe 0ff0 fe00 f1e1 000f c3c0     ................
  422598:	0071 8000 73c7 0000 cf80 003f 0000 1f8f     q....s....?.....
  4225a8:	0000 0e00 000f 0000 0000 0000 0000 0000     ................
	...
  4225c0:	0000 7c00 0000 0000 00fe 0000 ff00 8001     ...|............
  4225d0:	8000 03c7 00c0 8380 f003 8000 0383 0078     ..............x.
  4225e0:	8380 3e03 8000 03c7 000f ff00 07c1 0000     ...>............
  4225f0:	e0fe 0001 7c00 00f8 0000 3c00 0000 0000     .....|.....<....
  422600:	001e 0000 0f80 001f c000 3f83 0000 c1f0     ...........?....
  422610:	007f 7800 f1e0 0000 e03e 00e0 0f00 e0e0     ...x....>.......
  422620:	8000 e007 00e0 0180 f1e0 8000 c000 007f     ................
  422630:	0000 3f80 0000 0000 001f 0000 0000 0000     ...?............
	...
  422650:	0f80 0000 e0f0 001f fc00 3ff3 0000 77fe     ...........?...w
  422660:	0078 0e00 703f 0000 3e07 00e0 0700 e01c     x...?p...>......
  422670:	0000 3c07 00e0 0700 e07e 0000 fe0f 00e0     ...<....~.......
  422680:	1e00 71ef 0000 c7fe 0073 fc00 3f83 0000     ...q....s....?..
  422690:	01f0 001f 0000 1f80 0000 f000 003f 0000     ............?...
  4226a0:	79f0 0000 3000 00f0 0000 e000 0000 0000     .y...0..........
  4226b0:	00c0 0000 8000 0000 0000 0000 3f80 0000     .............?..
  4226c0:	8000 003f 0000 3f80 0000 8000 0007 0000     ..?....?........
	...
  4226dc:	07ff 0000 ffe0 003f fc00 ffff 0001 00ff     ......?.........
  4226ec:	07f8 1fc0 c000 e01f 0003 3e00 00f0 0000     ...........>....
  4226fc:	6078 0000 3000 0000 0000 0000 0000 0000     x`...0..........
  42270c:	0060 0000 f030 0000 7800 03e0 0000 c03e     `...0....x....>.
  42271c:	001f 1fc0 ff00 f800 0007 fffc 01ff e000     ................
  42272c:	3fff 0000 ff00 0007 0000 0000 0000 0000     .?..............
	...
  422744:	000c 0000 0c00 0000 0000 011c 0000 d800     ................
  422754:	0003 0000 01f8 0000 7f80 0000 8000 00ff     ................
  422764:	0000 f800 0001 0000 0398 0000 0c00 0001     ................
  422774:	0000 000c 0000 0000 0000 0000 0000 0000     ................
  422784:	0000 0000 0000 3800 0000 0000 0038 0000     .......8....8...
  422794:	3800 0000 0000 0038 0000 3800 0000 0000     .8....8....8....
  4227a4:	0038 0000 3800 0000 f000 1fff 0000 fff0     8....8..........
  4227b4:	001f f000 1fff 0000 3800 0000 0000 0038     .........8....8.
  4227c4:	0000 3800 0000 0000 0038 0000 3800 0000     ...8....8....8..
  4227d4:	0000 0038 0000 3800 0000 0000 0000 0000     ..8....8........
  4227e4:	0000 0800 0000 0000 001e 0000 0f80 0000     ................
  4227f4:	e000 0007 0000 03e0 0000 c000 0000 0000     ................
  422804:	0040 0000 0000 0000 0000 0000 0000 0000     @...............
  422814:	0000 c000 0001 0000 01c0 0000 c000 0001     ................
  422824:	0000 01c0 0000 c000 0001 0000 01c0 0000     ................
  422834:	c000 0001 0000 01c0 0000 c000 0001 0000     ................
  422844:	01c0 0000 0000 0000 0000 0000 0000 0000     ................
  422854:	0000 0000 7000 0000 0000 00f0 0000 f000     .....p..........
  422864:	0000 0000 00f0 0000 0000 0000 0000 0000     ................
  422874:	0000 8000 0000 0000 00f0 0000 fe00 0000     ................
  422884:	c000 007f 0000 0ff8 0000 fe00 0001 c000     ................
  422894:	003f 0000 0ff8 0000 ff00 0001 8000 003f     ?.............?.
  4228a4:	0000 0780 0000 8000 0000 0000 0000 0000     ................
  4228b4:	0000 ff00 0001 e000 0fff 0000 fff8 001f     ................
  4228c4:	fc00 3e00 0000 001e 0078 0e00 7000 0000     ...>....x....p..
  4228d4:	0007 00e0 0700 e000 0000 0007 00e0 0700     ................
  4228e4:	e000 0000 0007 00e0 0700 e000 0000 000f     ................
  4228f4:	0070 1e00 7800 0000 007c 003f f800 1fff     p....x..|.?.....
  422904:	0000 fff0 000f 8000 01ff 0000 0000 0000     ................
	...
  42291c:	0000 3800 0000 0000 0038 0000 1c00 0000     ...8....8.......
  42292c:	0000 001c 00e0 0e00 e000 0000 fffe 00ff     ................
  42293c:	ff00 ffff 0000 ffff 00ff 0000 e000 0000     ................
  42294c:	0000 00e0 0000 0000 0000 0000 0000 0000     ................
  42295c:	0000 0000 0070 00f0 7800 f800 0000 007c     ....p....x....|.
  42296c:	00fc 1e00 ee00 0000 000f 00e7 0700 e380     ................
  42297c:	0000 c007 00e1 0700 e0e0 0000 7007 00e0     .............p..
  42298c:	0f00 e03c 0000 1e1e 00e0 fe00 e00f 0000     ..<.............
  42299c:	03fc 00e0 f000 e001 0000 0000 0000 0000     ................
	...
  4229b4:	2000 0c00 0000 0038 003c 3c00 7c00 0000     . ....8.<..<.|..
  4229c4:	001e 0078 0e00 f000 0000 0007 00e0 0700     ..x.............
  4229d4:	e01c 0000 1c07 00e0 0700 e01c 0000 3e0f     ...............>
  4229e4:	0070 1e00 787f 0000 f7fc 003f f800 1fe3     p....x....?.....
  4229f4:	0000 c1f0 000f 0000 0000 0000 0000 0000     ................
  422a04:	0000 0000 0000 c000 0003 0000 03f0 0000     ................
  422a14:	f800 0003 0000 03be 0000 9f80 0003 c000     ................
  422a24:	0387 0000 81f0 0003 fc00 0380 0000 803e     ..............>.
  422a34:	0003 0f00 e380 0000 8007 00e3 0100 fff8     ................
  422a44:	0000 f800 00ff 0000 fff8 0000 8000 00e3     ................
  422a54:	0000 e380 0000 8000 0003 0000 0380 0000     ................
	...
  422a70:	000c ff00 1c1f 0000 3fff 003c ff00 783f     .........?<...?x
  422a80:	0000 1c07 0070 0700 e00e 0000 0e07 00e0     ....p...........
  422a90:	0700 e00e 0000 0e07 00e0 0700 e00e 0000     ................
  422aa0:	1e07 00f0 0700 701c 0000 7c07 007c 0700     .......p...||...
  422ab0:	3ff8 0000 f007 001f 0000 07c0 0000 0000     .?..............
	...
  422ac8:	e000 0007 0000 1ff8 0000 fc00 003f 0000     ............?...
  422ad8:	783f 0000 1fc0 0070 f000 701f 0000 0ff8     ?x....p....p....
  422ae8:	00e0 7e00 e00e 0000 0e1f 00e0 0700 e00e     ...~............
  422af8:	0000 0e01 00e0 0000 f01e 0000 1c00 0070     ..............p.
  422b08:	0000 7c3c 0000 f800 003f 0000 1ff0 0000     ..<|....?.......
  422b18:	e000 0007 0000 0000 0000 0000 0000 0000     ................
  422b28:	0000 0000 001f 0000 1f00 0000 0000 001f     ................
  422b38:	00e0 0700 e000 0000 0007 00f0 0700 fe00     ................
  422b48:	0000 8007 00ff 0700 eff0 0000 fc07 00e1     ................
  422b58:	0700 007f 0000 0fc7 0000 f700 0003 0000     ................
  422b68:	00ff 0000 3f00 0000 0000 000f 0000 0300     .....?..........
	...
  422b84:	0000 8000 000f f000 1fe1 0000 f3fc 003f     ..............?.
  422b94:	fe00 787f 0000 3f1e 0070 0f00 e01e 0000     ...x...?p.......
  422ba4:	1c07 00e0 0700 e01c 0000 1c07 00e0 0700     ................
  422bb4:	e01c 0000 3e0e 0070 1e00 787f 0000 f7fc     .....>p....x....
  422bc4:	003f fc00 1fe3 0000 80f0 000f 0000 0000     ?...............
	...
  422be8:	0000 07e0 0000 f800 001f 0000 3ffc 0000     .............?..
  422bf8:	3e00 007c 0000 700e 0000 0f00 80f0 0000     .>|....p........
  422c08:	e007 00c0 0700 f0e0 0000 e007 0078 0700     ............x...
  422c18:	1ee0 0000 e00f 000f 0e00 03f0 0000 fc3e     ..............>.
  422c28:	0000 fc00 003f 0000 1ff8 0000 e000 0007     ....?...........
	...
  422c4c:	0000 0600 0060 0000 f00f 0000 0f00 00f0     ....`...........
  422c5c:	0000 6006 0000 0000 0000 0000 0000 0000     ...`............
  422c6c:	0000 0800 0000 0000 001e 0700 1fc0 0000     ................
  422c7c:	f00f 000f 0f00 03f0 0000 e00f 0000 0000     ................
  422c8c:	0060 0000 0000 0000 f000 0000 0000 00f8     `...............
  422c9c:	0000 f800 0001 0000 01dc 0000 dc00 0001     ................
  422cac:	0000 038e 0000 8f00 0003 0000 0707 0000     ................
  422cbc:	0380 0007 8000 0e03 0000 01c0 000e c000     ................
  422ccc:	0e01 0000 00e0 001c 0000 0000 0000 0000     ................
	...
  422ce8:	0000 0e70 0000 7000 000e 0000 0e70 0000     ..p....p....p...
  422cf8:	7000 000e 0000 0e70 0000 7000 000e 0000     .p....p....p....
  422d08:	0e70 0000 7000 000e 0000 0e70 0000 7000     p....p....p....p
  422d18:	000e 0000 0e70 0000 7000 000e 0000 0000     ....p....p......
	...
  422d38:	e000 1c00 0000 01c0 000e c000 0e01 0000     ................
  422d48:	0380 000e 8000 0703 0000 0700 0007 0000     ................
  422d58:	038f 0000 8e00 0003 0000 01dc 0000 dc00     ................
  422d68:	0001 0000 01f8 0000 f800 0000 0000 00f0     ................
	...
  422d8c:	0000 0060 0000 7800 0000 0000 007c 0000     ..`....x....|...
  422d9c:	1e00 0000 0000 800e 0067 0700 f7e0 0000     ........g.......
  422dac:	f007 00f7 0700 6078 0000 1c07 0000 0f00     ......x`........
  422dbc:	001e 0000 0f1e 0000 fe00 0007 0000 03fc     ................
  422dcc:	0000 f000 0001 0000 0000 0000 0000 0000     ................
	...
  422de4:	07f0 0000 fe00 003f 8000 ffff 0000 0fc0     ......?.........
  422df4:	01f8 e000 e003 0003 00f0 0780 7800 0000     .............x..
  422e04:	000f 003c 1e00 1c00 07e0 001c f81e 3c1f     ..<............<
  422e14:	0e00 3ffc 0038 3e0e 387c 0700 700e 0070     ...?8..>|8...pp.
  422e24:	0707 70e0 0700 e007 0070 0707 70e0 0700     ...p....p....p..
  422e34:	e007 0070 0f07 70f0 0700 781e 0070 ff0e     ..p....p...xp...
  422e44:	707f 0e00 7fff 0038 ff1e 38ff 1c00 e000     .p....8....8....
  422e54:	0031 003c 01c0 7800 c000 0001 00f0 01c0     1.<....x........
  422e64:	e000 e003 0000 0fc0 00f8 8000 7fff 0000     ................
  422e74:	fe00 001f 0000 07f0 0000 0000 0000 0000     ................
	...
  422e8c:	0000 e000 0000 0000 00e0 0000 f000 0000     ................
  422e9c:	0000 00fe 0000 ffc0 0000 f000 00ef 0000     ................
  422eac:	e1fe 0000 ff80 00e0 f000 00ef 0000 e3fe     ................
  422ebc:	0000 7f00 00e0 0000 e00f 0000 0f00 00e0     ................
  422ecc:	0000 e07f 0000 fe00 00e3 0000 fff0 0000     ................
  422edc:	8000 e0ff 0000 fc00 00e7 0000 ffe0 0000     ................
  422eec:	0000 00ff 0000 f800 0000 0000 00e0 0000     ................
  422efc:	e000 0000 0000 00e0 0000 0000 0000 0000     ................
  422f0c:	0000 0700 e000 0000 0007 00e0 ff00 ffff     ................
  422f1c:	0000 ffff 00ff ff00 ffff 0000 3807 00e0     .............8..
  422f2c:	0700 e038 0000 3807 00e0 0700 e038 0000     ..8....8....8...
  422f3c:	3807 00e0 0700 e038 0000 3807 00e0 0700     .8....8....8....
  422f4c:	e038 0000 7c0e 00f0 1e00 78fe 0000 effc     8....|.....x....
  422f5c:	003f f800 1fc7 0000 83e0 000f 0000 0000     ?...............
	...
  422f74:	00fe 0000 ffc0 0003 f000 0fff 0000 81f8     ................
  422f84:	001f 7c00 3e00 0000 003c 0038 1e00 7800     ...|.>..<.8....x
  422f94:	0000 000e 0070 0f00 f000 0000 0007 00e0     ....p...........
  422fa4:	0700 e000 0000 0007 00e0 0700 e000 0000     ................
  422fb4:	0007 00e0 0f00 f000 0000 000e 0070 1e00     ............p...
  422fc4:	7800 0000 003c 003c 7c00 3e00 0000 0078     .x..<.<..|.>..x.
  422fd4:	001e 7000 0e00 0000 0070 0002 0000 0000     ...p....p.......
	...
  422ff0:	0007 00e0 0700 e000 0000 ffff 00ff ff00     ................
  423000:	ffff 0000 ffff 00ff 0700 e000 0000 0007     ................
  423010:	00e0 0700 e000 0000 0007 00e0 0700 e000     ................
  423020:	0000 0007 00e0 0700 e000 0000 000f 00f0     ................
  423030:	0e00 7000 0000 001e 0078 3c00 3c00 0000     ...p....x..<.<..
  423040:	0078 001e f800 1f81 0000 ffe0 0007 c000     x...............
  423050:	03ff 0000 7f00 0000 0000 0000 0000 0000     ................
	...
  423068:	0007 00e0 0700 e000 0000 ffff 00ff ff00     ................
  423078:	ffff 0000 ffff 00ff 0700 e01c 0000 1c07     ................
  423088:	00e0 0700 e01c 0000 1c07 00e0 0700 e01c     ................
  423098:	0000 1c07 00e0 0700 e01c 0000 0007 00e0     ................
  4230a8:	0700 e000 0000 007f 00fe 7f00 fe00 0000     ................
  4230b8:	007f 00fe 0000 0000 0000 0000 0000 0000     ................
  4230c8:	0000 0000 0007 00e0 0700 e000 0000 ffff     ................
  4230d8:	00ff ff00 ffff 0000 ffff 00ff 0700 e01c     ................
  4230e8:	0000 1c07 00e0 0700 001c 0000 1c07 0000     ................
  4230f8:	0700 001c 0000 1c07 0000 0700 001c 0000     ................
  423108:	1c07 0000 7f00 001c 0000 007f 0000 7f00     ................
	...
  423124:	0000 fe00 0000 c000 07ff 0000 fff0 000f     ................
  423134:	f800 1f01 0000 007c 003c 1c00 7800 0000     ......|.<....x..
  423144:	000e 0070 0e00 f000 0000 0007 00e0 0700     ..p.............
  423154:	e000 0000 0007 00e0 0700 e000 0000 e007     ................
  423164:	00e0 0f00 e0e0 0000 e00e 0070 1e00 70e0     ..........p....p
  423174:	0000 e03c 0038 7c00 1ce0 0000 e078 000f     ..<.8..|....x...
  423184:	7000 ffe0 0000 e070 00ff 0000 ffe0 0000     .p....p.........
	...
  4231ac:	0700 e000 0000 0007 00e0 ff00 ffff 0000     ................
  4231bc:	ffff 00ff ff00 ffff 0000 1c07 00e0 0700     ................
  4231cc:	e01c 0000 1c00 0000 0000 001c 0000 1c00     ................
  4231dc:	0000 0000 001c 0000 1c00 0000 0000 001c     ................
  4231ec:	0000 1c00 0000 0000 001c 0000 1c00 0000     ................
  4231fc:	0000 001c 0000 1c00 0000 0700 e01c 0000     ................
  42320c:	1c07 00e0 ff00 ffff 0000 ffff 00ff ff00     ................
  42321c:	ffff 0000 0007 00e0 0700 e000 0000 0000     ................
	...
  42323c:	0000 0007 00e0 0700 e000 0000 ffff 00ff     ................
  42324c:	ff00 ffff 0000 ffff 00ff 0700 e000 0000     ................
  42325c:	0007 00e0 0000 0000 0000 0000 0000 0000     ................
	...
  42327c:	0c00 0700 0000 000e 0007 0f80 ff00 ffff     ................
  42328c:	0003 ffff 01ff ff00 7fff 0000 0007 0000     ................
  42329c:	0700 0000 0000 0000 0000 0000 0000 0000     ................
  4232ac:	0000 0000 0700 e000 0000 0007 00e0 ff00     ................
  4232bc:	ffff 0000 ffff 00ff ff00 ffff 0000 0807     ................
  4232cc:	00e0 0700 e018 0000 3c00 0000 0000 007e     .........<....~.
  4232dc:	0000 f700 0000 8000 01e3 0000 c1c0 0003     ................
  4232ec:	e000 0781 0000 00e0 000f 7000 fe00 0000     ...........p....
  4232fc:	003f 00fc 1f00 f800 0000 000f 00f0 0700     ?...............
  42330c:	e000 0000 0007 00e0 0700 e000 0000 0000     ................
	...
  423328:	0700 e000 0000 0007 00e0 ff00 ffff 0000     ................
  423338:	ffff 00ff ff00 ffff 0000 0007 00e0 0700     ................
  423348:	e000 0000 0000 00e0 0000 e000 0000 0000     ................
  423358:	00e0 0000 e000 0000 0000 00e0 0000 e000     ................
  423368:	0000 0000 00e0 0000 fe00 0000 0000 00fe     ................
  423378:	0000 fe00 0000 0000 0000 0000 0000 0000     ................
  423388:	0000 0000 0700 e000 0000 0007 00e0 ff00     ................
  423398:	ffff 0000 ffff 00ff ff00 ffff 0000 000f     ................
  4233a8:	00e0 7f00 e000 0000 01fe 0000 f000 000f     ................
  4233b8:	0000 3f80 0000 0000 01fe 0000 f000 0007     ...?............
  4233c8:	0000 3fc0 0000 0000 00fe 0000 f800 0000     ...?............
  4233d8:	0000 00f0 0000 fe00 0000 8000 003f 0000     ............?...
  4233e8:	0ff0 0000 fe00 0001 8000 007f 0000 0ff0     ................
  4233f8:	0000 fc00 e001 0000 007f 00e0 0f00 e000     ................
  423408:	0000 ffff 00ff ff00 ffff 0000 ffff 00ff     ................
  423418:	0700 e000 0000 0007 00e0 0000 0000 0000     ................
	...
  423434:	0000 0700 e000 0000 0007 00e0 ff00 ffff     ................
  423444:	0000 ffff 00ff ff00 ffff 0000 001f 00e0     ................
  423454:	7e00 e000 0000 00f8 0000 e000 0003 0000     .~..............
  423464:	0fc0 0000 0000 001f 0000 7c00 0000 0000     ...........|....
  423474:	01f8 0000 e000 0003 0000 0f80 0000 0007     ................
  423484:	003f 0700 7c00 0000 0007 00f0 ff00 ffff     ?....|..........
  423494:	0000 ffff 00ff ff00 ffff 0000 0007 0000     ................
  4234a4:	0700 0000 0000 0000 0000 0000 00ff 0000     ................
  4234b4:	ffc0 0003 f000 0fff 0000 81f8 001f 7c00     ...............|
  4234c4:	3e00 0000 003c 003c 1e00 7800 0000 000e     .>..<.<....x....
  4234d4:	0070 0f00 f000 0000 0007 00e0 0700 e000     p...............
  4234e4:	0000 0007 00e0 0700 e000 0000 0007 00e0     ................
  4234f4:	0f00 f000 0000 000e 0070 1e00 7800 0000     ........p....x..
  423504:	001c 003c 7c00 3e00 0000 81f8 001f f000     ..<..|.>........
  423514:	0fff 0000 ffc0 0003 0000 00ff 0000 0000     ................
	...
  423530:	0700 e000 0000 0007 00e0 ff00 ffff 0000     ................
  423540:	ffff 00ff ff00 ffff 0000 1c07 00e0 0700     ................
  423550:	e01c 0000 1c07 0000 0700 001c 0000 1c07     ................
  423560:	0000 0700 001c 0000 1c07 0000 0f00 000e     ................
  423570:	0000 0f1e 0000 fe00 0007 0000 03fc 0000     ................
  423580:	f000 0001 0000 0000 0000 0000 0000 0000     ................
  423590:	ff00 0000 c000 03ff 0000 fff0 000f f800     ................
  4235a0:	1f81 0000 007c 003e 3c00 3800 0000 001e     ....|.>..<.8....
  4235b0:	0078 0e00 7000 0000 000f 00f0 0700 e000     x....p..........
  4235c0:	0000 0007 0fe0 0700 e000 000f 0007 0fe0     ................
  4235d0:	0700 e000 001f 000f 3ef0 0e00 7000 003c     .........>...p<.
  4235e0:	001e 7878 3c00 3c00 0070 007c 703e f800     ..xx.<.<p.|.>p..
  4235f0:	1f81 0070 fff0 380f c000 03ff 0038 ff00     ..p....8....8...
	...
  423610:	0000 0007 00e0 0700 e000 0000 ffff 00ff     ................
  423620:	ff00 ffff 0000 ffff 00ff 0700 e01c 0000     ................
  423630:	1c07 00e0 0700 001c 0000 1c07 0000 0700     ................
  423640:	001c 0000 1c07 0000 0700 003c 0000 7c07     ..........<....|
  423650:	0000 0f00 07fe 0000 ef1e 003f fe00 ffc7     ..........?.....
  423660:	0000 03fc 00ff f000 f801 0000 0000 00e0     ................
  423670:	0000 e000 0000 0000 0000 0000 0000 0000     ................
  423680:	0000 000e f000 1e01 0000 07fc 003e fc00     ............>...
  423690:	7e07 0000 0f1e 0078 0e00 f00e 0000 1e07     .~....x.........
  4236a0:	00e0 0700 e01c 0000 1c07 00e0 0700 e03c     ..............<.
  4236b0:	0000 3807 00e0 0f00 e038 0000 780e 0070     ...8....8....xp.
  4236c0:	7e00 78f0 0000 f07c 003f 7800 1fe0 0000     .~.x..|.?..x....
  4236d0:	8070 000f 0000 0000 0000 0000 0000 3f00     p..............?
  4236e0:	0000 0000 003f 0000 3f00 0000 0000 0007     ....?....?......
  4236f0:	0000 0700 0000 0000 0007 0000 0700 0000     ................
  423700:	0000 0007 00e0 0700 e000 0000 ffff 00ff     ................
  423710:	ff00 ffff 0000 ffff 00ff 0700 e000 0000     ................
  423720:	0007 00e0 0700 0000 0000 0007 0000 0700     ................
  423730:	0000 0000 003f 0000 3f00 0000 0000 003f     ....?....?....?.
	...
  423750:	0000 0007 0000 0700 0000 0000 ffff 0003     ................
  423760:	ff00 0fff 0000 ffff 001f 0700 3e00 0000     .............>..
  423770:	0007 0078 0000 7000 0000 0000 00e0 0000     ..x....p........
  423780:	e000 0000 0000 00e0 0000 e000 0000 0000     ................
  423790:	00e0 0000 e000 0000 0000 0070 0700 7800     ..........p....x
  4237a0:	0000 0007 003e ff00 1fff 0000 ffff 000f     ....>...........
  4237b0:	ff00 01ff 0000 0007 0000 0700 0000 0000     ................
  4237c0:	0007 0000 0700 0000 0000 000f 0000 7f00     ................
  4237d0:	0000 0000 03ff 0000 f700 000f 0000 7f87     ................
  4237e0:	0000 0000 01fe 0000 f000 000f 0000 7fc0     ................
  4237f0:	0000 0000 00fe 0000 f000 0000 0000 00f0     ................
  423800:	0000 fe00 0000 c000 007f 0000 0ff8 0000     ................
  423810:	ff07 0001 e700 003f 0000 07ff 0000 ff00     ......?.........
  423820:	0000 0000 001f 0000 0700 0000 0000 0007     ................
  423830:	0000 0700 0000 0000 0007 0000 1f00 0000     ................
  423840:	0000 00ff 0000 ff00 0007 0000 3ff7 0000     .............?..
  423850:	8700 01ff 0000 fc00 000f 0000 7fe0 0000     ................
  423860:	0000 00ff 0000 f800 0000 0000 00f0 0000     ................
  423870:	fe00 0000 c000 00ff 0000 1ffc 0000 ff80     ................
  423880:	0001 f000 003f 0000 07ff 0000 7f00 0000     ....?...........
  423890:	0000 000f 0000 1f00 0000 0000 00ff 0000     ................
  4238a0:	fc00 0007 0000 3fe0 0000 0000 01ff 0000     .......?........
  4238b0:	f800 000f 0000 7fc0 0000 0000 00fe 0000     ................
  4238c0:	f000 0000 0000 00f8 0000 ff00 0000 e000     ................
  4238d0:	007f 0000 0ffc 0000 ff87 0001 f700 003f     ..............?.
  4238e0:	0000 07ff 0000 ff00 0000 0000 001f 0000     ................
  4238f0:	0700 0000 0000 0007 0000 0000 0000 0000     ................
	...
  423908:	0000 0007 00e0 0700 e000 0000 000f 00f0     ................
  423918:	1f00 f800 0000 007f 00fe ff00 ff00 0000     ................
  423928:	83f7 00ef c000 e3e7 0000 ff80 0001 0000     ................
  423938:	007e 0000 7e00 0000 8000 01ff 0000 e7c7     ~....~..........
  423948:	0003 f700 ef81 0000 00ff 00ff 7f00 fe00     ................
  423958:	0000 001f 00f8 0f00 f000 0000 0007 00e0     ................
  423968:	0700 0000 0000 0000 0000 0700 0000 0000     ................
  423978:	0007 0000 0f00 0000 0000 003f 0000 ff00     ..........?.....
  423988:	0000 0000 01f7 0000 e700 e007 0000 0f80     ................
  423998:	00e0 0000 fffe 0000 fc00 00ff 0000 fffc     ................
  4239a8:	0000 3f00 00e0 c700 e00f 0000 03f7 0000     ...?............
  4239b8:	ff00 0000 0000 003f 0000 0f00 0000 0000     ......?.........
  4239c8:	0007 0000 0700 0000 0000 0000 0000 0000     ................
  4239d8:	0000 0000 007f 00f8 7f00 fc00 0000 007f     ................
  4239e8:	00fe 0700 ef00 0000 8007 00e7 0700 e3e0     ................
  4239f8:	0000 f007 00e1 0700 e078 0000 3c07 00e0     ........x....<..
  423a08:	0700 e01f 0000 0f87 00e0 c700 e003 0000     ................
  423a18:	01e7 00e0 f700 e000 0000 007f 00fe 3f00     ...............?
  423a28:	fe00 0000 000f 00fe 0000 0000 0000 0000     ................
	...
  423a48:	f000 ffff 3fff fff0 ffff f03f ffff 3fff     .....?....?....?
  423a58:	0070 0000 7038 0000 3800 0000 0000 0000     p...8p...8......
	...
  423a70:	8000 0001 0000 0f80 0000 0000 003f 0000     ............?...
  423a80:	fc00 0000 0000 03e0 0000 8000 001f 0000     ................
  423a90:	7e00 0000 0000 01f8 0000 c000 000f 0000     .~..............
  423aa0:	3f00 0000 0000 00fc 0000 e000 0000 0000     .?..............
  423ab0:	0080 0000 0000 0000 0000 0000 0000 0000     ................
  423ac0:	0000 0000 3800 0070 0000 7038 0000 3800     .....8p...8p...8
  423ad0:	fff0 ffff f03f ffff 3fff fff0 ffff 003f     ....?....?....?.
	...
  423af8:	0000 0010 0000 1c00 0000 0000 001f 0000     ................
  423b08:	0fc0 0000 f000 0003 0000 00fc 0000 3f00     ...............?
  423b18:	0000 8000 000f 0000 0380 0000 8000 000f     ................
  423b28:	0000 3f80 0000 0000 01fe 0000 f000 000f     ...?............
  423b38:	0000 1fc0 0000 0000 001e 0000 1000 0000     ................
	...
  423b50:	0c00 0000 0000 000c 0000 0c00 0000 0000     ................
  423b60:	000c 0000 0c00 0000 0000 000c 0000 0c00     ................
  423b70:	0000 0000 000c 0000 0c00 0000 0000 000c     ................
  423b80:	0000 0c00 0000 0000 000c 0000 0c00 0000     ................
  423b90:	0000 000c 0000 0c00 0000 0000 000c 0000     ................
	...
  423ba8:	0001 0000 0300 0000 0000 0007 0000 1f00     ................
  423bb8:	0000 0000 003e 0000 3800 0000 0000 0020     ....>....8.... .
	...
  423bd0:	0000 001e 0000 7f0e 0000 8e00 007f 0000     ................
  423be0:	f387 0000 c700 00e1 0000 e1c7 0000 c700     ................
  423bf0:	00e1 0000 e1c7 0000 c700 0061 0000 71cf     ..........a....q
  423c00:	0000 fe00 00ff 0000 fffe 0000 f800 00ff     ................
  423c10:	0000 e000 0000 0000 00e0 0000 0000 0000     ................
	...
  423c28:	8000 0003 0000 0380 0000 8000 ffff 00ff     ................
  423c38:	ff80 ffff 8000 ffff 00ff 0000 700e 0000     .............p..
  423c48:	0e00 00e0 0000 e006 0000 0700 00e0 0000     ................
  423c58:	e007 0000 0700 00e0 0000 e007 0000 0f00     ................
  423c68:	00f0 0000 700e 0000 3e00 007c 0000 3ffc     .....p...>|....?
  423c78:	0000 f800 001f 0000 07e0 0000 0000 0000     ................
  423c88:	0000 0000 0000 e000 0007 0000 1ff8 0000     ................
  423c98:	fc00 003f 0000 7c3e 0000 0e00 0070 0000     ..?...>|....p...
  423ca8:	e007 0000 0700 00e0 0000 e007 0000 0700     ................
  423cb8:	00e0 0000 e007 0000 0e00 0070 0000 781e     ..........p....x
  423cc8:	0000 1c00 003c 0000 1c1c 0000 1c00 000c     ....<...........
	...
  423ce4:	07e0 0000 f800 001f 0000 3ffc 0000 3e00     ...........?...>
  423cf4:	007c 0000 700e 0000 0f00 00f0 0000 e007     |....p..........
  423d04:	0000 0700 00e0 0000 e007 0000 0700 00e0     ................
  423d14:	0380 e007 8000 0e03 0070 ff80 ffff 8000     ........p.......
  423d24:	ffff 00ff ff80 ffff 0000 0000 00e0 0000     ................
  423d34:	e000 0000 0000 0000 0000 0000 0000 0000     ................
  423d44:	0000 0000 07e0 0000 f800 001f 0000 3ffc     ...............?
  423d54:	0000 de00 0079 0000 71ce 0000 c700 00e1     ....y....q......
  423d64:	0000 e1c7 0000 c700 00e1 0000 e1c7 0000     ................
  423d74:	c700 00e1 0000 e1cf 0000 de00 0071 0000     ............q...
  423d84:	71fe 0000 fc00 0031 0000 01e0 0000 0000     .q....1.........
	...
  423da4:	0000 0700 00e0 0000 e007 0000 fffc 00ff     ................
  423db4:	fe00 ffff 0000 ffff 00ff 0780 e007 8000     ................
  423dc4:	0703 00e0 0380 0000 8000 0003 0000 0380     ................
	...
  423ddc:	0000 07e0 0000 f800 1c1f 0000 3ffc 003c     .............?<.
  423dec:	3e00 387c 0000 700e 0078 0f00 70f0 0000     .>|8...px....p..
  423dfc:	e007 0070 0700 70e0 0000 e007 0070 0700     ..p....p....p...
  423e0c:	70e0 0000 e007 0070 0700 7860 0000 700e     .p....p...`x...p
  423e1c:	003c ff00 3fff 0000 ffff 001f ff00 07ff     <....?..........
	...
  423e40:	0380 e000 8000 0003 00e0 ff80 ffff 8000     ................
  423e50:	ffff 00ff ff80 ffff 0000 0c00 00e0 0000     ................
  423e60:	e00e 0000 0700 0000 0000 0007 0000 0700     ................
  423e70:	0000 0000 e007 0000 0f00 00e0 0000 fffe     ................
  423e80:	0000 fe00 00ff 0000 fff8 0000 0000 00e0     ................
  423e90:	0000 e000 0000 0000 0000 0000 0000 0000     ................
	...
  423ea8:	0000 0700 00e0 0600 e007 0000 ff0f 00ff     ................
  423eb8:	0f00 ffff 0000 ff06 00ff 0000 e000 0000     ................
  423ec8:	0000 00e0 0000 0000 0000 0000 0000 0000     ................
  423ed8:	0000 0040 0700 e000 0000 0007 00f0 ff06     ..@.............
  423ee8:	7fff 0f00 ffff 003f ff0f 1fff 0600 0000     ......?.........
	...
  423f04:	0000 00e0 0380 e000 8000 0003 00e0 ff80     ................
  423f14:	ffff 8000 ffff 00ff ff80 ffff 0000 8000     ................
  423f24:	00e1 0000 e180 0000 8000 0001 0000 03c0     ................
  423f34:	0000 e000 0007 0000 0f70 0000 3f00 001c     ........p....?..
  423f44:	0000 381f 0000 0f00 0070 0000 e007 0000     ...8....p.......
  423f54:	0700 00e0 0000 e007 0000 0000 0000 0000     ................
	...
  423f6c:	0380 e000 8000 0003 00e0 ff80 ffff 8000     ................
  423f7c:	ffff 00ff ff80 ffff 0000 0000 00e0 0000     ................
  423f8c:	e000 0000 0000 0000 0000 0000 0000 0000     ................
  423f9c:	0000 0000 e007 0000 0700 00e0 0000 ffff     ................
  423fac:	0000 ff00 00ff 0000 ffff 0000 0e00 00e0     ................
  423fbc:	0000 e00e 0000 0700 0000 0000 0007 0000     ................
  423fcc:	0700 0000 0000 0007 0000 0f00 00e0 0000     ................
  423fdc:	e00f 0000 fe00 00ff 0000 fffe 0000 f800     ................
  423fec:	00ff 0000 e00e 0000 0600 00e0 0000 0007     ................
  423ffc:	0000 0700 0000 0000 0007 0000 0700 00e0     ................
  42400c:	0000 e00f 0000 fe00 00ff 0000 fffe 0000     ................
  42401c:	f800 00ff 0000 e000 0000 0000 00e0 0000     ................
	...
  424040:	e007 0000 0700 00e0 0000 ffff 0000 ff00     ................
  424050:	00ff 0000 ffff 0000 0e00 00e0 0000 e006     ................
  424060:	0000 0700 0000 0000 0007 0000 0700 0000     ................
  424070:	0000 e007 0000 0f00 00e0 0000 fffe 0000     ................
  424080:	fe00 00ff 0000 fff8 0000 0000 00e0 0000     ................
  424090:	e000 0000 0000 0000 0000 0000 0000 0000     ................
  4240a0:	0000 0000 07e0 0000 f800 001f 0000 3ffc     ...............?
  4240b0:	0000 3e00 007c 0000 700e 0000 0f00 00f0     ...>|....p......
  4240c0:	0000 e007 0000 0700 00e0 0000 e007 0000     ................
  4240d0:	0700 00e0 0000 f00f 0000 0e00 0070 0000     ............p...
  4240e0:	7c3e 0000 fc00 003f 0000 1ff8 0000 e000     >|....?.........
  4240f0:	0007 0000 0000 0000 0000 0000 0000 0000     ................
  424100:	0000 0700 7000 0000 0007 0070 ff00 7fff     .....p....p.....
  424110:	0000 ffff 007f ff00 7fff 0000 700e 0070     .............pp.
  424120:	0e00 70e0 0000 e007 0000 0700 00e0 0000     ...p............
  424130:	e007 0000 0700 00e0 0000 e007 0000 0f00     ................
  424140:	00f0 0000 780e 0000 3e00 007c 0000 3ffc     .....x...>|....?
  424150:	0000 f800 001f 0000 07e0 0000 0000 0000     ................
  424160:	0000 0000 0000 e000 0007 0000 1ff8 0000     ................
  424170:	fc00 003f 0000 7c3e 0000 0e00 0070 0000     ..?...>|....p...
  424180:	f00f 0000 0700 00e0 0000 e007 0000 0700     ................
  424190:	00e0 0000 e007 0000 0700 7060 0000 700f     ..........`p...p
  4241a0:	0070 ff00 7fff 0000 ffff 007f ff00 7fff     p...............
  4241b0:	0000 0000 0070 0000 7000 0000 0000 0000     ....p....p......
	...
  4241c8:	0000 0700 00e0 0000 e007 0000 ff00 00ff     ................
  4241d8:	0000 ffff 0000 ff00 00ff 0000 e00e 0000     ................
  4241e8:	0700 00e0 0000 0007 0000 0f00 0000 0000     ................
  4241f8:	000f 0000 0f00 0000 0000 0000 0000 0000     ................
	...
  424210:	0000 001c 0000 1c7c 0000 fe00 003c 0000     ......|.....<...
  424220:	7cfe 0000 cf00 00f0 0000 e1c7 0000 c700     .|..............
  424230:	00e1 0000 e187 0000 8700 00e3 0000 f38f     ................
  424240:	0000 1e00 007f 0000 7f1c 0000 1c00 003e     ..............>.
	...
  424260:	0700 0000 0000 0007 0000 fff0 003f f800     ............?...
  424270:	7fff 0000 fff8 00ff 0000 e007 0000 0700     ................
  424280:	00e0 0000 e000 0000 0000 00e0 0000 6000     ...............`
	...
  42429c:	0700 0000 0000 0007 0000 ff00 001f 0000     ................
  4242ac:	7fff 0000 ff00 007f 0000 f000 0000 0000     ................
  4242bc:	00e0 0000 e000 0000 0000 00e0 0000 e000     ................
  4242cc:	0000 0700 0060 0000 7007 0000 ff00 00ff     ....`....p......
  4242dc:	0000 ffff 0000 ff00 00ff 0000 e000 0000     ................
  4242ec:	0000 00e0 0000 0000 0000 0000 0000 0000     ................
	...
  424304:	0000 0007 0000 0f00 0000 0000 007f 0000     ................
  424314:	ff00 0003 0000 1ff7 0000 8000 00ff 0000     ................
  424324:	fc00 0000 0000 00e0 0000 fc00 0000 8000     ................
  424334:	00ff 0000 1ff7 0000 ff00 0003 0000 007f     ................
  424344:	0000 0f00 0000 0000 0007 0000 0000 0000     ................
  424354:	0000 0000 0000 0700 0000 0000 001f 0000     ................
  424364:	ff00 0000 0000 07ff 0000 e700 003f 0000     ............?...
  424374:	ff00 0000 0000 00f8 0000 fc00 0000 c000     ................
  424384:	00ff 0000 3ffe 0000 ff00 0003 0000 001f     .....?..........
  424394:	0000 1f00 0000 0000 01ff 0000 fc00 001f     ................
  4243a4:	0000 ffc0 0000 0000 00fc 0000 f800 0000     ................
  4243b4:	0000 00ff 0000 3fe7 0000 ff00 0007 0000     .......?........
  4243c4:	00ff 0000 1f00 0000 0000 0007 0000 0000     ................
	...
  4243dc:	0700 00e0 0000 f007 0000 0f00 00f8 0000     ................
  4243ec:	fc1f 0000 3f00 00fe 0000 0f70 0000 e000     .....?....p.....
  4243fc:	0007 0000 03c0 0000 e000 0007 0000 0ff0     ................
  42440c:	0000 7f00 00fe 0000 fc3f 0000 1f00 00f8     ........?.......
  42441c:	0000 f00f 0000 0700 00e0 0000 0000 0000     ................
  42442c:	0000 0000 0000 0007 0000 0f00 0000 0000     ................
  42443c:	007f 0070 ff00 7003 0000 1ff7 0078 8700     ..p....p....x...
  42444c:	7fff 0000 fc00 007f 0000 77f8 0000 fe00     ...........w....
  42445c:	0070 8700 003f 0000 0ff7 0000 ff00 0001     p...?...........
  42446c:	0000 007f 0000 0f00 0000 0000 0007 0000     ................
  42447c:	0700 0000 0000 0000 0000 0000 0000 0000     ................
  42448c:	e01f 0000 1f00 00f0 0000 f81f 0000 0700     ................
  42449c:	00fe 0000 ef07 0000 c700 00e7 0000 e1e7     ................
  4244ac:	0000 f700 00e0 0000 e03f 0000 1f00 00f8     ........?.......
  4244bc:	0000 f80f 0000 0300 00f8 0000 0000 0000     ................
	...
  4244dc:	0070 0000 f800 0001 ffc0 ffdf e00f dfff     p...............
  4244ec:	1fff fff0 ff87 703f 0000 3800 0070 0000     ......?p...8p...
  4244fc:	0038 0000 0000 0000 0000 0000 0000 0000     8...............
  42450c:	fff0 ffff f00f ffff 0fff fff0 ffff 000f     ................
	...
  42452c:	0000 7000 0000 3800 0070 0000 f038 87ff     ...p...8p...8...
  42453c:	3fff ffe0 ffdf c01f dfff 0fff 0000 00f8     .?..............
  42454c:	0000 7000 0000 0000 0000 0000 0000 0000     ...p............
	...
  424568:	0200 0000 8000 0007 0000 03c0 0000 c000     ................
  424578:	0001 0000 01c0 0000 c000 0001 0000 01c0     ................
  424588:	0000 c000 0003 0000 0380 0000 8000 0003     ................
  424598:	0000 0380 0000 8000 0003 0000 03c0 0000     ................
  4245a8:	e000 0001 0000 0040 0000 0000 0000 0000     ......@.........
  4245b8:	0000 0000                                   ....

004245bc <Arvo_22pt_CharCount>:
  4245bc:	0a06 1409 1811 0515 0a0a 130c 0a08 0c06     ................
  4245cc:	0c13 1010 1012 0f12 1212 0707 0d0e 0f10     ................
  4245dc:	1621 1513 1215 1812 0b1a 160a 1f12 1717     !...............
  4245ec:	1712 1115 1614 2415 1315 0a11 0a0d 0f11     .......$........
  4245fc:	1008 1012 1112 110b 0913 1209 1d09 1113     ................
  42460c:	1112 0e0e 130b 1710 110f 0a0d 0a06 0011     ................

0042461c <Arvo_22pt_Table>:
	...
  424648:	0000 0ff0 00c0 f000 e7ff 0001 fff0 01e7     ................
  424658:	f000 c00f 0000 0000 0000 0000 0000 0000     ................
	...
  424670:	0000 01f8 0000 f800 0003 0000 03f8 0000     ................
	...
  424688:	0000 f800 0003 0000 03f8 0000 f800 0003     ................
	...
  4246a0:	0e00 0000 0400 000e 0000 8e07 0001 0700     ................
  4246b0:	01fe 0000 fff7 0001 ffc0 007f f000 0fff     ................
  4246c0:	0000 0ff0 000e 7000 0e07 0000 0700 018e     .......p........
  4246d0:	0000 fe07 0001 c700 01ff 0000 7fff 0000     ................
  4246e0:	ffc0 000f f000 0e1f 0000 07f0 000e 3000     ...............0
  4246f0:	0e07 0000 0700 0000 0000 0007 0000 0000     ................
	...
  424708:	0000 0018 0000 183c 0000 7e00 0038 0000     ......<....~8...
  424718:	78fe 0000 cf00 00f0 0000 e1c7 0000 c7f8     .x..............
  424728:	1fe1 f800 e187 001f 87f8 1fe1 0000 f38f     ................
  424738:	0000 1e00 007f 0000 7f1c 0000 1800 001e     ................
	...
  424758:	03c0 0000 f000 000f 0000 0c30 0100 1800     ..........0.....
  424768:	8018 0001 1818 01e0 1800 f018 0000 1818     ................
  424778:	007c 3000 1e0c 0000 8ff0 000f c000 03c3     |..0............
  424788:	0000 e000 0001 0000 00f8 0000 3c00 0000     .............<..
  424798:	0000 3c1f 0000 0780 00ff e000 c303 0000     ...<............
  4247a8:	80f0 0181 7800 8180 0001 8018 0181 0800     .....x..........
  4247b8:	8180 0001 0000 00c3 0000 ff00 0000 0000     ................
  4247c8:	003c 0000 0000 0000 0000 0000 0000 1e00     <...............
  4247d8:	0000 8780 007f c000 ffcf 0000 dfe0 00f1     ................
  4247e8:	f000 e0fc 0001 7870 01c0 7000 c0f0 0001     ......px...p....
  4247f8:	f070 01c1 7000 c3f8 0001 bcf0 01e7 e000     p....p..........
  424808:	ef1f 0000 0fc0 00fe 8000 7c07 0000 8000     ...........|....
  424818:	007f 0000 f7c0 0000 c000 01e1 0000 c000     ................
  424828:	0001 0000 0180 0000 0000 0001 0000 0000     ................
  424838:	f800 0003 0000 03f8 0000 f800 0003 0000     ................
  424848:	0078 0000 0000 0000 0000 0000 0000 0000     x...............
  424858:	0ff8 0000 ff80 00ff e000 ffff 0003 07f8     ................
  424868:	0ff0 7e00 0000 003f 001f 7c00 0600 0000     ...~..?....|....
  424878:	0030 0000 0000 0000 0000 0000 0006 3000     0..............0
  424888:	1f00 0000 007c 007e 3f00 f800 f007 000f     ....|.~..?......
  424898:	ffe0 03ff 8000 ffff 0000 f800 000f 0000     ................
	...
  4248b4:	0000 0060 0000 4000 0000 0000 0cc0 0000     ..`....@........
  4248c4:	c000 0007 0000 03f8 0000 f800 0003 0000     ................
  4248d4:	07c0 0000 c000 000e 0000 0040 0000 6000     ..........@....`
	...
  4248f8:	00c0 0000 c000 0000 0000 00c0 0000 c000     ................
  424908:	0000 0000 00c0 0000 c000 0000 0000 3fff     ...............?
  424918:	0000 ff00 003f 0000 3fff 0000 c000 0000     ....?....?......
  424928:	0000 00c0 0000 c000 0000 0000 00c0 0000     ................
  424938:	c000 0000 0000 00c0 0000 0000 0000 0000     ................
  424948:	0000 0000 0000 0800 0000 0000 000e 0000     ................
  424958:	0780 0000 c000 0003 0000 01c0 0000 8000     ................
	...
  424978:	0000 0300 0000 0000 0003 0000 0300 0000     ................
  424988:	0000 0003 0000 0300 0000 0000 0003 0000     ................
  424998:	0300 0000 0000 0003 0000 0000 0000 0000     ................
  4249a8:	0000 0000 c000 0000 0000 01e0 0000 e000     ................
  4249b8:	0001 0000 00c0 0000 0000 0000 0000 0000     ................
  4249c8:	0000 0000 0001 0000 01e0 0000 fc00 0001     ................
  4249d8:	8000 00ff 0000 1fe0 0000 fc00 0003 8000     ................
  4249e8:	007f 0000 1ff0 0000 f800 0003 0000 0078     ..............x.
  4249f8:	0000 0800 0000 0000 0000 0000 0000 07fc     ................
  424a08:	0000 ff00 001f c000 7fff 0000 07c0 00f8     ................
  424a18:	e000 e001 0000 00f0 01e0 7000 c000 0001     ...........p....
  424a28:	0070 01c0 7000 c000 0001 0070 01c0 7000     p....p....p....p
  424a38:	c000 0001 00f0 01e0 e000 f001 0000 03e0     ................
  424a48:	00fc c000 7fff 0000 ff80 001f 0000 07fc     ................
	...
  424a64:	0180 0000 c000 0001 0000 00c0 0000 e000     ................
  424a74:	c000 0001 0060 01c0 e000 ffff 0001 fff0     ....`...........
  424a84:	01ff f000 ffff 0001 0000 01c0 0000 c000     ................
  424a94:	0001 0000 0000 0000 0000 0000 0700 01e0     ................
  424aa4:	8000 f007 0001 07e0 01f8 e000 fc01 0001     ................
  424ab4:	00f0 01ce 7000 c700 0001 8070 01c3 7000     .....p....p....p
  424ac4:	c1c0 0001 e0f0 01c0 e000 c070 0001 3fe0     ..........p....?
  424ad4:	01c0 c000 c01f 0001 0f80 01c0 0000 0000     ................
	...
  424af0:	0200 0018 8000 7803 0000 03c0 00f8 e000     .......x........
  424b00:	f001 0000 00f0 01e0 7000 c070 0001 7070     .........pp...pp
  424b10:	01c0 7000 c070 0001 f070 01e0 e000 f1f8     ...pp...p.......
  424b20:	0000 dfe0 00ff c000 7f9f 0000 0780 001f     ................
	...
  424b40:	0000 0007 0000 0780 0000 e000 0007 0000     ................
  424b50:	06f8 0000 7c00 0006 0000 061f 0000 07c0     .....|..........
  424b60:	0006 e000 c603 0001 00f0 01c6 3000 ffe0     .............0..
  424b70:	0001 e010 01ff 0000 ffe0 0001 0000 01c6     ................
  424b80:	0000 c600 0001 0000 0006 0000 0000 0000     ................
	...
  424b9c:	0018 f000 387f 0000 7ff0 0070 f000 e07f     .....8....p.....
  424bac:	0000 7070 01c0 7000 c038 0001 3870 01c0     ..pp...p8...p8..
  424bbc:	7000 c038 0001 3870 01c0 7000 e078 0001     .p8...p8...px...
  424bcc:	f070 00f0 7000 7fe0 0000 c070 003f 0000     p....p....p.?...
  424bdc:	1f80 0000 0000 0000 0000 0000 0000 0000     ................
  424bec:	001f 0000 3fc0 0000 f000 007f 0000 f0fc     .....?..........
  424bfc:	0000 7f00 00e0 8000 c03f 0001 3be0 01c0     ........?....;..
  424c0c:	f000 c039 0001 3870 01c0 1000 c038 0001     ..9...p8....8...
  424c1c:	7800 01e0 0000 e078 0000 f000 00f0 0000     .x....x.........
  424c2c:	7fe0 0000 c000 003f 0000 0f80 0000 0000     ......?.........
	...
  424c44:	01f0 0000 f000 c001 0001 01f0 01c0 7000     ...............p
  424c54:	e000 0001 0070 01fc 7000 ff00 0001 c070     ....p....p....p.
  424c64:	01df 7000 c3f0 0001 fc70 0000 7000 003f     ...p....p....p?.
  424c74:	0000 0ff0 0000 f000 0003 0000 00f0 0000     ................
	...
  424c94:	0000 001e 8000 7f0f 0000 bfc0 00ff e000     ................
  424ca4:	e1ff 0000 f0e0 01e1 7000 c0e0 0001 e070     .........p....p.
  424cb4:	01c0 7000 c0e0 0001 e070 01c0 f000 e1f0     ...p....p.......
  424cc4:	0001 ffe0 00e1 c000 ffbf 0000 0f80 007f     ................
  424cd4:	0000 1e00 0000 0000 0000 0000 0000 0000     ................
  424ce4:	0000 0000 0000 001f 0000 7f80 0000 c000     ................
  424cf4:	00ff 0000 f1e0 0000 e000 01e0 0000 c070     ..............p.
  424d04:	0101 7000 c1c0 0001 c070 01e1 7000 f9c0     ...p....p....p..
  424d14:	0000 c070 003f e000 1fe0 0000 f1e0 0007     ..p.?...........
  424d24:	c000 01ff 0000 7f80 0000 0000 001f 0000     ................
	...
  424d44:	c018 0000 3c00 01e0 0000 e03c 0001 1800     .....<....<.....
  424d54:	00c0 0000 0000 0000 0000 0000 0000 0000     ................
  424d64:	000c 1800 0f00 0000 c03c 000f 3c00 03e0     ........<....<..
  424d74:	0000 e018 0001 0000 00c0 0000 0000 0000     ................
  424d84:	c000 0003 0000 03e0 0000 e000 0007 0000     ................
  424d94:	0770 0000 7000 000e 0000 0e38 0000 3800     p....p....8....8
  424da4:	001c 0000 1c1c 0000 1c00 003c 0000 380e     ..........<....8
  424db4:	0000 0e00 0038 0000 7007 0000 0000 0000     ....8....p......
	...
  424dd0:	18c0 0000 c000 0018 0000 18c0 0000 c000     ................
  424de0:	0018 0000 18c0 0000 c000 0018 0000 18c0     ................
  424df0:	0000 c000 0018 0000 18c0 0000 c000 0018     ................
  424e00:	0000 18c0 0000 0000 0000 0000 0000 0000     ................
  424e10:	0000 0000 0000 7007 0000 0e00 0038 0000     .......p....8...
  424e20:	380e 0000 1c00 003c 0000 1c1c 0000 3800     .8....<........8
  424e30:	001c 0000 0e38 0000 7000 000e 0000 0770     ....8....p....p.
  424e40:	0000 e000 0007 0000 03e0 0000 c000 0003     ................
	...
  424e64:	0000 0003 0000 0780 0000 e000 0007 0000     ................
  424e74:	01e0 00cf f000 ef80 0001 c070 01ef 7000     ..........p....p
  424e84:	c1e0 0000 7070 0000 f000 0038 0000 3fe0     ....pp....8....?
  424e94:	0000 c000 001f 0000 0780 0000 0000 0000     ................
	...
  424eb0:	c000 003f 0000 fff0 0000 fc00 03ff 0000     ..?.............
  424ec0:	e07e 0007 1f00 0f80 8000 0007 001e 03c0     ~...............
  424ed0:	3c00 c000 0001 0038 81e0 780f e000 3fe0     .<....8....x...?
  424ee0:	0070 f0e0 70ff 7000 f078 00e0 3c70 e1e0     p....p.px...p<..
  424ef0:	7000 c01c 00e1 1c70 e1c0 7000 c01c 00e1     .p....p....p....
  424f00:	3c70 e1e0 7000 f078 00e0 fcf0 60ff e000     p<...px......`..
  424f10:	fffc 0070 fce0 71ff c000 c001 0001 03c0     ..p....q........
  424f20:	01c0 8000 c007 0001 0f00 01e0 0000 f03e     ..............>.
  424f30:	0000 fc00 007f 0000 3ff8 0000 c000 000f     .........?......
	...
  424f4c:	c000 0001 0000 01c0 0000 e000 0001 0000     ................
  424f5c:	01fc 0000 ff00 0001 e000 01df 0000 c3fc     ................
  424f6c:	0001 ff00 0003 e000 039f 0000 87f0 0003     ................
  424f7c:	f000 0380 0000 8070 0003 f000 0381 0000     ......p.........
  424f8c:	8ff0 0003 8000 03ff 0000 fe00 01c3 0000     ................
  424f9c:	dff0 0001 8000 01ff 0000 fc00 0001 0000     ................
  424fac:	01e0 0000 c000 0001 0000 01c0 0000 0000     ................
  424fbc:	0000 0000 0000 7000 c000 0001 0070 01c0     .......p....p...
  424fcc:	f000 ffff 0001 fff0 01ff f000 ffff 0001     ................
  424fdc:	e070 01c0 7000 c0e0 0001 e070 01c0 7000     p....p....p....p
  424fec:	c0e0 0001 e070 01c0 7000 c0e0 0001 e0f0     ....p....p......
  424ffc:	01e0 e000 f1f1 0000 bfe0 00ff c000 7f9f     ................
  42500c:	0000 0f00 001e 0000 0000 0000 0000 0000     ................
  42501c:	0000 03f8 0000 fe00 000f 8000 3fff 0000     .............?..
  42502c:	0fc0 007c c000 7803 0000 01e0 00f0 e000     ..|....x........
  42503c:	e000 0000 0070 01c0 7000 c000 0001 0070     ....p....p....p.
  42504c:	01c0 7000 c000 0001 0070 01c0 f000 e000     ...p....p.......
  42505c:	0001 00e0 00e0 e000 f001 0000 03c0 0078     ..............x.
  42506c:	c000 3803 0000 0380 0018 8000 0803 0000     ...8............
	...
  425088:	0000 7000 c000 0001 0070 01c0 f000 ffff     ...p....p.......
  425098:	0001 fff0 01ff f000 ffff 0001 0070 01c0     ............p...
  4250a8:	7000 c000 0001 0070 01c0 7000 c000 0001     .p....p....p....
  4250b8:	0070 01c0 7000 c000 0001 00e0 00e0 e000     p....p..........
  4250c8:	f001 0000 03c0 0078 c000 3e0f 0000 ff80     ......x....>....
  4250d8:	001f 0000 0ffe 0000 f800 0003 0000 0000     ................
	...
  4250f4:	0070 01c0 7000 c000 0001 fff0 01ff f000     p....p..........
  425104:	ffff 0001 fff0 01ff 7000 c0e0 0001 e070     .........p....p.
  425114:	01c0 7000 c0e0 0001 e070 01c0 7000 c0e0     ...p....p....p..
  425124:	0001 e070 01c0 7000 c000 0001 03f0 01f8     ..p....p........
  425134:	f000 f803 0001 03f0 01f8 0000 0000 0000     ................
	...
  42514c:	0000 0070 01c0 7000 c000 0001 fff0 01ff     ..p....p........
  42515c:	f000 ffff 0001 fff0 01ff 7000 c0e0 0001     ...........p....
  42516c:	e070 01c0 7000 00e0 0000 e070 0000 7000     p....p....p....p
  42517c:	00e0 0000 e070 0000 7000 00e0 0000 03f0     ....p....p......
  42518c:	0000 f000 0003 0000 03f0 0000 0000 0000     ................
	...
  4251a4:	03f8 0000 fe00 000f 0000 3fff 0000 0fc0     ...........?....
  4251b4:	007c c000 f803 0000 01e0 00f0 e000 e000     |...............
  4251c4:	0001 0070 01c0 7000 c000 0001 0070 01c0     ..p....p....p...
  4251d4:	7000 c000 0001 8070 01c3 7000 c380 0001     .p....p....p....
  4251e4:	80f0 00e3 e000 e380 0000 81e0 0073 c000     ............s...
  4251f4:	3f83 0000 8380 01ff 8000 ff83 0001 8000     .?..............
  425204:	01ff 0000 0000 0000 0000 0000 0000 0000     ................
	...
  425220:	0070 01c0 7000 c000 0001 fff0 01ff f000     p....p..........
  425230:	ffff 0001 fff0 01ff 7000 c070 0001 7070     .........pp...pp
  425240:	01c0 0000 0070 0000 7000 0000 0000 0070     ....p....p....p.
  425250:	0000 7000 0000 0000 0070 0000 7000 0000     ...p....p....p..
  425260:	0000 0070 0000 7000 0000 7000 c070 0001     ..p....p...pp...
  425270:	7070 01c0 f000 ffff 0001 fff0 01ff f000     pp..............
  425280:	ffff 0001 0070 01c0 7000 c000 0001 0000     ....p....p......
	...
  4252a0:	0000 0070 01c0 7000 c000 0001 fff0 01ff     ..p....p........
  4252b0:	f000 ffff 0001 fff0 01ff 7000 c000 0001     ...........p....
  4252c0:	0070 01c0 0000 0000 0000 0000 0000 0000     p...............
  4252d0:	0000 0000 0000 0800 7000 0000 000c 0070     .........p....p.
  4252e0:	0f00 f000 ffff 0007 fff0 01ff f000 ffff     ................
  4252f0:	0000 0070 0000 7000 0000 0000 0000 0000     ..p....p........
	...
  425308:	0000 7000 c000 0001 0070 01c0 f000 ffff     ...p....p.......
  425318:	0001 fff0 01ff f000 ffff 0001 2070 01c0     ............p ..
  425328:	7000 c070 0001 f800 0000 0000 03dc 0000     .pp.............
  425338:	8e00 0007 0000 0f07 0000 0700 001c 8000     ................
  425348:	3803 0000 01c0 01f0 f000 e000 0001 0070     .8............p.
  425358:	01c0 3000 8000 0001 0030 0180 3000 8000     ...0....0....0..
  425368:	0001 0000 0000 0000 0000 0000 0000 0000     ................
  425378:	7000 c000 0001 0070 01c0 f000 ffff 0001     .p....p.........
  425388:	fff0 01ff f000 ffff 0001 0070 01c0 7000     ..........p....p
  425398:	c000 0001 0000 01c0 0000 c000 0001 0000     ................
  4253a8:	01c0 0000 c000 0001 0000 01c0 0000 fc00     ................
  4253b8:	0001 0000 01fc 0000 fc00 0001 0000 0000     ................
	...
  4253d0:	0000 7000 c000 0001 0070 01c0 f000 ffff     ...p....p.......
  4253e0:	0001 fff0 01ff f000 ffff 0001 00f0 01c0     ................
  4253f0:	f000 c007 0001 3fc0 0000 0000 00fe 0000     .......?........
  425400:	f800 0007 0000 3fc0 0000 0000 00fe 0000     .......?........
  425410:	f800 0001 0000 01c0 0000 f000 0001 0000     ................
  425420:	01fe 0000 ffc0 0000 f800 0007 0000 01fe     ................
  425430:	0000 3fc0 0000 f000 c007 0001 00f0 01c0     ...?............
  425440:	f000 ffff 0001 fff0 01ff f000 ffff 0001     ................
  425450:	0070 01c0 7000 c000 0001 0000 0000 0000     p....p..........
	...
  42546c:	0000 0070 01c0 7000 c000 0001 fff0 01ff     ..p....p........
  42547c:	f000 ffff 0001 fff0 01ff f000 c000 0001     ................
  42548c:	03f0 01c0 c000 000f 0000 1f00 0000 0000     ................
  42549c:	007c 0000 f800 0001 0000 07e0 0000 8000     |...............
  4254ac:	001f 0000 3e00 0000 0070 00f8 7000 f000     .....>..p....p..
  4254bc:	0001 fff0 01ff f000 ffff 0001 fff0 01ff     ................
  4254cc:	7000 0000 0000 0070 0000 0000 0000 0000     .p....p.........
  4254dc:	f800 0003 0000 0ffe 0000 ff00 001f 8000     ................
  4254ec:	3e0f 0000 03c0 0078 e000 f001 0000 00e0     .>....x.........
  4254fc:	00e0 f000 e000 0001 0070 01c0 7000 c000     ........p....p..
  42550c:	0001 0070 01c0 7000 c000 0001 0070 01c0     ..p....p....p...
  42551c:	f000 e000 0001 00e0 00e0 e000 f001 0000     ................
  42552c:	03c0 0078 8000 3e0f 0000 ff00 001f 0000     ..x....>........
  42553c:	0ffe 0000 f800 0003 0000 0000 0000 0000     ................
	...
  425554:	0070 01c0 7000 c000 0001 fff0 01ff f000     p....p..........
  425564:	ffff 0001 fff0 01ff 7000 c0e0 0001 e070     .........p....p.
  425574:	01c0 7000 00e0 0000 e070 0000 7000 00e0     ...p....p....p..
  425584:	0000 e070 0000 e000 0070 0000 7fe0 0000     ..p.....p.......
  425594:	c000 003f 0000 0f80 0000 0000 0000 0000     ..?.............
  4255a4:	0000 0000 0000 03f8 0000 fe00 000f 0000     ................
  4255b4:	3fff 0000 0f80 007e c000 7803 0000 01e0     .?....~....x....
  4255c4:	00f0 e000 e000 0000 00f0 01e0 7000 c000     .............p..
  4255d4:	0001 0070 0fc0 7000 c000 000f 0070 1fc0     ..p....p....p...
  4255e4:	7000 c000 001f 00f0 3de0 e000 e000 0078     .p.......=....x.
  4255f4:	01e0 70f0 c000 7803 0070 0f80 707e 0000     ...p...xp...~p..
  425604:	3fff 0038 fe00 380f 0000 03f8 0018 0000     .?8....8........
	...
  425620:	7000 c000 0001 0070 01c0 f000 ffff 0001     .p....p.........
  425630:	fff0 01ff f000 ffff 0001 6070 01c0 7000     ..........p`...p
  425640:	c060 0001 6070 0000 7000 0060 0000 6070     `...p`...p`...p`
  425650:	0000 7000 00e0 0000 e070 0007 e000 7fb0     ...p....p.......
  425660:	0000 bfe0 01ff c000 fe1f 0001 0f80 01f0     ................
  425670:	0000 c000 0001 0000 01c0 0000 0000 0000     ................
  425680:	0000 0000 0000 1c00 0000 0f80 003c c000     ............<...
  425690:	7c1f 0000 3fe0 00fc e000 f078 0000 70f0     .|...?....x....p
  4256a0:	01e0 7000 c070 0001 e070 01c0 7000 c0e0     ...pp...p....p..
  4256b0:	0001 e070 01c0 f000 e1c0 0001 c0e0 00e3     ..p.............
  4256c0:	e000 ff83 0000 83c0 007f 8000 1e03 0000     ................
  4256d0:	0380 0000 0000 0000 0000 03f0 0000 f000     ................
  4256e0:	0003 0000 03f0 0000 7000 0000 0000 0070     .........p....p.
  4256f0:	0000 7000 0000 0000 0070 01c0 7000 c000     ...p....p....p..
  425700:	0001 fff0 01ff f000 ffff 0001 fff0 01ff     ................
  425710:	7000 c000 0001 0070 01c0 7000 0000 0000     .p....p....p....
  425720:	0070 0000 f000 0003 0000 03f0 0000 f000     p...............
  425730:	0003 0000 0000 0000 0000 0000 0000 0000     ................
  425740:	0000 7000 0000 0000 0070 0000 f000 0fff     ...p....p.......
  425750:	0000 fff0 003f f000 7fff 0000 0070 00f8     ....?.......p...
  425760:	7000 e000 0000 0000 01e0 0000 c000 0001     .p..............
  425770:	0000 01c0 0000 c000 0001 0000 01c0 0000     ................
  425780:	c000 0001 0070 00e0 7000 f800 0000 fff0     ....p....p......
  425790:	007f f000 3fff 0000 fff0 000f 7000 0000     .....?.......p..
  4257a0:	0000 0070 0000 7000 0000 0000 0070 0000     ..p....p....p...
  4257b0:	f000 0001 0000 0ff0 0000 f000 007f 0000     ................
  4257c0:	fe70 0003 7000 1ff0 0000 8000 01ff 0000     p....p..........
  4257d0:	fc00 0001 0000 01c0 0000 c000 0001 0000     ................
  4257e0:	01f8 0000 fe00 0000 c000 003f 7000 07f0     ..........?..p..
  4257f0:	0000 fe70 0001 f000 003f 0000 0ff0 0000     ..p.....?.......
  425800:	f000 0001 0000 0070 0000 7000 0000 0000     ......p....p....
  425810:	0070 0000 7000 0000 0000 00f0 0000 f000     p....p..........
  425820:	0007 0000 3ff0 0000 7000 01ff 0000 f870     .....?...p....p.
  425830:	000f 0000 7fc0 0000 0000 01fe 0000 f000     ................
  425840:	0001 0000 01c0 0000 f800 0001 8000 01ff     ................
  425850:	0000 3ff8 0000 ff00 0003 f000 007f 0000     ...?............
  425860:	07f0 0000 f000 0000 0000 01f0 0000 f000     ................
  425870:	000f 0000 7fc0 0000 0000 07fe 0000 f000     ................
  425880:	003f 0000 ff80 0001 0000 01f8 0000 c000     ?...............
  425890:	0001 0000 01f0 0000 fe00 0001 c000 007f     ................
  4258a0:	7000 0ff8 0000 ff70 0001 f000 003f 0000     .p....p.....?...
  4258b0:	07f0 0000 f000 0000 0000 0070 0000 7000     ..........p....p
	...
  4258cc:	0000 0070 0000 7000 c000 0001 00f0 01e0     ..p....p........
  4258dc:	f000 f001 0001 03f0 01f8 7000 dc07 0001     ...........p....
  4258ec:	0e70 01cf 0000 079c 0000 f800 0003 0000     p...............
  4258fc:	00e0 0000 f800 0003 0000 07bc 0000 1e70     ..............p.
  42590c:	01cf 7000 dc07 0001 03f0 01f8 f000 f001     ...p............
  42591c:	0001 00f0 01e0 7000 c000 0001 0070 0000     .......p....p...
  42592c:	0000 0000 0000 0070 0000 7000 0000 0000     ......p....p....
  42593c:	00f0 0000 f000 0001 0000 07f0 0000 7000     ...............p
  42594c:	c00f 0001 3e70 01c0 0000 fff8 0001 f000     ....p>..........
  42595c:	01ff 0000 fff0 0001 7800 01c0 7000 c03e     .........x...p>.
  42596c:	0001 0f70 0000 f000 0007 0000 01f0 0000     ..p.............
  42597c:	f000 0000 0000 0070 0000 7000 0000 0000     ......p....p....
  42598c:	0000 0000 f000 e003 0001 03f0 01f0 f000     ................
  42599c:	f803 0001 0030 019e 3000 8f00 0001 8030     ....0....0....0.
  4259ac:	0187 3000 81e0 0001 f030 0180 3000 8078     ...0....0....0x.
  4259bc:	0001 1e30 0180 3000 800f 0001 07b0 0180     ..0....0........
  4259cc:	f000 f801 0001 00f0 01f8 7000 f800 0001     ...........p....
	...
  4259f0:	ffff 3fff ff00 ffff 003f ffff 3fff 0700     ...?....?....?..
  425a00:	0000 0038 0007 3800 0000 0000 0000 0000     ..8....8........
	...
  425a18:	0018 0000 7800 0000 0000 01f0 0000 c000     .....x..........
  425a28:	000f 0000 3e00 0000 0000 00f8 0000 e000     .....>..........
  425a38:	0003 0000 1f80 0000 0000 007c 0000 f000     ..........|.....
  425a48:	0001 0000 01c0 0000 0000 0000 0000 0000     ................
  425a58:	0000 0000 0038 0007 3800 0700 0000 0038     ....8....8....8.
  425a68:	ffff 3fff ff00 ffff 003f ffff 3fff 0000     ...?....?....?..
	...
  425a90:	4000 0000 0000 0070 0000 7c00 0000 0000     .@....p....|....
  425aa0:	003f 0000 0fc0 0000 f000 0003 0000 00f8     ?...............
  425ab0:	0000 3800 0000 0000 0078 0000 f800 0003     ...8....x.......
  425ac0:	0000 1ff0 0000 8000 007f 0000 7c00 0000     .............|..
  425ad0:	0000 0060 0000 0000 0000 0000 0000 0008     ..`.............
  425ae0:	0000 0800 0000 0000 0008 0000 0800 0000     ................
  425af0:	0000 0008 0000 0800 0000 0000 0008 0000     ................
  425b00:	0800 0000 0000 0008 0000 0800 0000 0000     ................
  425b10:	0008 0000 0800 0000 0000 0008 0000 0800     ................
  425b20:	0000 0000 0008 0000 0000 1000 0000 0000     ................
  425b30:	0010 0000 3000 0000 0000 0070 0000 e000     .....0....p.....
  425b40:	0000 0000 00c0 0000 8000 0000 0000 0000     ................
  425b50:	0000 0000 7800 0000 3800 00fe 0000 fe38     .....x...8....8.
  425b60:	0000 3c00 01e7 0000 c31c 0001 1c00 01c3     ...<............
  425b70:	0000 c31c 0001 1c00 01c3 0000 e33c 0000     ............<...
  425b80:	f800 01ff 0000 fff8 0001 f000 01ff 0000     ................
  425b90:	c000 0001 0000 01c0 0000 0000 0000 0000     ................
  425ba0:	0000 3800 0000 0000 0038 0000 f800 ffff     ...8....8.......
  425bb0:	0001 fff8 01ff f800 ffff 0001 3800 00e0     .............8..
  425bc0:	0000 c018 0001 1c00 01c0 0000 c01c 0001     ................
  425bd0:	1c00 01c0 0000 c01c 0001 3c00 01e0 0000     ...........<....
  425be0:	f078 0000 f000 007f 0000 3fe0 0000 8000     x..........?....
  425bf0:	001f 0000 0000 0000 0000 0000 0000 0f80     ................
  425c00:	0000 e000 003f 0000 7ff0 0000 7800 00f0     ....?........x..
  425c10:	0000 e038 0000 1c00 01c0 0000 c01c 0001     ..8.............
  425c20:	1c00 01c0 0000 c01c 0001 1c00 01c0 0000     ................
  425c30:	e038 0000 7000 00f0 0000 7070 0000 7000     8....p....pp...p
  425c40:	0010 0000 0000 0000 0000 0000 0000 0fc0     ................
  425c50:	0000 e000 003f 0000 7ff0 0000 7800 00f0     ....?........x..
  425c60:	0000 e03c 0001 1c00 01c0 0000 c01c 0001     ..<.............
  425c70:	1c00 01c0 0000 c01c 0001 1c38 01c0 3800     ..........8....8
  425c80:	e038 0000 fff8 01ff f800 ffff 0001 fff8     8...............
  425c90:	01ff 0000 c000 0001 0000 01c0 0000 0000     ................
	...
  425ca8:	1f80 0000 e000 003f 0000 7ff0 0000 7800     ......?........x
  425cb8:	00f3 0000 e33c 0001 1c00 01c3 0000 c31c     ....<...........
  425cc8:	0001 1c00 01c3 0000 c31c 0001 1c00 01c3     ................
  425cd8:	0000 c338 0000 f800 00e3 0000 63f0 0000     ..8..........c..
  425ce8:	c000 0003 0000 0000 0000 0000 0000 0000     ................
	...
  425d00:	0000 c00c 0001 0c00 01c0 c000 ffff 0001     ................
  425d10:	fff0 01ff f000 ffff 0001 0c78 01c0 3800     ..........x....8
  425d20:	c00c 0001 0038 0000 3800 0000 0000 0000     ....8....8......
  425d30:	0000 0000 0fc0 0020 e000 303f 0000 7ff0     ...... ...?0....
  425d40:	0070 7800 70f0 0000 e03c 00e1 1c00 e1c0     p..x.p..<.......
  425d50:	0000 c01c 00e1 1c00 e1c0 0000 c01c 00e1     ................
  425d60:	1c00 f0c0 0000 e03c 0078 fc00 7fff 0000     ......<.x.......
  425d70:	fffc 003f fc00 0fff 0000 0000 0000 0000     ..?.............
	...
  425d8c:	3800 c000 0001 0038 01c0 f800 ffff 0001     .8....8.........
  425d9c:	fff8 01ff f800 ffff 0001 3800 01c0 0000     ...........8....
  425dac:	c018 0001 1c00 0000 0000 001c 0000 1c00     ................
  425dbc:	01c0 0000 c03c 0001 fc00 01ff 0000 fff8     ....<...........
  425dcc:	0001 f000 01ff 0000 c000 0001 0000 01c0     ................
	...
  425de8:	c01c 0001 1c00 01c0 3000 fffc 0001 fc78     .........0....x.
  425df8:	01ff 7800 fffc 0001 0030 01c0 0000 c000     ...x....0.......
  425e08:	0001 0000 0000 0000 0000 0000 1c00 c000     ................
  425e18:	0000 001c 00e0 fc30 7fff 7800 fffc 003f     ......0....x..?.
  425e28:	fc78 1fff 3000 0000 0000 0000 0000 0000     x....0..........
	...
  425e44:	0000 0038 01c0 3800 c000 0001 fff8 01ff     ..8....8........
  425e54:	f800 ffff 0001 fff8 01ff 0000 c300 0001     ................
  425e64:	0000 01c3 0000 0300 0000 8000 0007 0000     ................
  425e74:	1fdc 0000 fc00 003f 0000 f87c 0000 3c00     ......?...|....<
  425e84:	01e0 0000 c01c 0001 1c00 01c0 0000 0000     ................
  425e94:	0000 0000 0000 3800 c000 0001 0038 01c0     .......8....8...
  425ea4:	f800 ffff 0001 fff8 01ff f800 ffff 0001     ................
  425eb4:	0000 01c0 0000 c000 0001 0000 0000 0000     ................
  425ec4:	0000 0000 1c00 01c0 0000 c01c 0001 fc00     ................
  425ed4:	01ff 0000 fffc 0001 fc00 01ff 0000 c038     ..............8.
  425ee4:	0001 1800 01c0 0000 001c 0000 1c00 0000     ................
  425ef4:	0000 001c 0000 1c00 01c0 0000 c03c 0001     ............<...
  425f04:	f800 01ff 0000 fff8 0001 f000 01ff 0000     ................
  425f14:	c038 0001 1800 01c0 0000 001c 0000 1c00     8...............
  425f24:	0000 0000 001c 0000 1c00 01c0 0000 c03c     ..............<.
  425f34:	0001 f800 01ff 0000 fff8 0001 e000 01ff     ................
  425f44:	0000 c000 0001 0000 01c0 0000 0000 0000     ................
  425f54:	0000 0000 0000 c01c 0001 1c00 01c0 0000     ................
  425f64:	fffc 0001 fc00 01ff 0000 fffc 0001 3800     ...............8
  425f74:	01c0 0000 c018 0001 1c00 0000 0000 001c     ................
  425f84:	0000 1c00 0000 0000 c01c 0001 3c00 01c0     .............<..
  425f94:	0000 fff8 0001 f800 01ff 0000 ffe0 0001     ................
  425fa4:	0000 01c0 0000 c000 0001 0000 0000 0000     ................
  425fb4:	0000 0000 8000 000f 0000 3fe0 0000 f000     ...........?....
  425fc4:	007f 0000 f078 0000 3800 00e0 0000 c01c     ....x....8......
  425fd4:	0001 1c00 01c0 0000 c01c 0001 1c00 01c0     ................
  425fe4:	0000 c01c 0001 3800 00e0 0000 f078 0000     .......8....x...
  425ff4:	f000 007f 0000 3fe0 0000 8000 000f 0000     .......?........
	...
  42600c:	0000 001c 00e0 1c00 e000 0000 fffc 00ff     ................
  42601c:	fc00 ffff 0000 fffc 00ff 3800 e0e0 0000     ...........8....
  42602c:	c01c 00e1 1c00 01c0 0000 c01c 0001 1c00     ................
  42603c:	01c0 0000 c01c 0001 3c00 00e0 0000 f078     .........<....x.
  42604c:	0000 f800 007f 0000 3ff0 0000 c000 000f     .........?......
	...
  426068:	0fc0 0000 e000 003f 0000 7ff0 0000 7800     ......?........x
  426078:	00f0 0000 e038 0001 1c00 01c0 0000 c01c     ....8...........
  426088:	0001 1c00 01c0 0000 c01c 0001 1c00 e1c0     ................
  426098:	0000 e03c 00e0 fc00 ffff 0000 fffc 00ff     ..<.............
  4260a8:	fc00 ffff 0000 0000 00e0 0000 e000 0000     ................
  4260b8:	0000 0000 1c00 01c0 0000 c01c 0001 fc00     ................
  4260c8:	01ff 0000 fffc 0001 fc00 01ff 0000 c030     ..............0.
  4260d8:	0001 1800 01c0 0000 001c 0000 3c00 0000     .............<..
  4260e8:	0000 003c 0000 3c00 0000 0000 0000 0000     ..<....<........
	...
  426104:	0070 0000 70f0 0000 f800 00f1 0000 e3fc     p....p..........
  426114:	0001 9c00 01c3 0000 c71c 0001 1c00 01c7     ................
  426124:	0000 ef1c 0001 3800 01fe 0000 fe78 0000     .......8....x...
  426134:	7000 007c 0000 0000 0000 0000 0000 0000     .p|.............
  426144:	0000 0000 0c00 0000 0000 000c 0000 ffe0     ................
  426154:	007f e000 ffff 0000 ffe0 01ff 0000 c00c     ................
  426164:	0001 0c00 01c0 0000 c000 0001 0000 01c0     ................
	...
  426180:	001c 0000 1c00 0000 0000 7ffc 0000 fc00     ................
  426190:	00ff 0000 fffc 0001 0000 01e0 0000 c000     ................
  4261a0:	0001 0000 01c0 0000 c000 0001 1c00 00c0     ................
  4261b0:	0000 e01c 0000 fc00 007f 0000 fffc 0001     ................
  4261c0:	fc00 01ff 0000 c000 0001 0000 01c0 0000     ................
	...
  4261d8:	0000 001c 0000 3c00 0000 0000 01fc 0000     .......<........
  4261e8:	fc00 000f 0000 7fdc 0000 0000 01fe 0000     ................
  4261f8:	f000 0001 0000 0180 0000 f000 0001 0000     ................
  426208:	01fe 0000 7fdc 0000 fc00 000f 0000 01fc     ................
  426218:	0000 3c00 0000 0000 001c 0000 0000 0000     ...<............
  426228:	0000 001c 0000 7c00 0000 0000 03fc 0000     .......|........
  426238:	fc00 003f 0000 ff9c 0001 0000 01fc 0000     ..?.............
  426248:	c000 0001 0000 01fc 0000 ffc0 0001 f800     ................
  426258:	001f 0000 03fc 0000 3c00 0000 0000 07fc     .........<......
  426268:	0000 fc00 00ff 0000 ff80 0001 0000 01f0     ................
  426278:	0000 f800 0001 9c00 01ff 0000 7ffc 0000     ................
  426288:	fc00 0007 0000 007c 0000 1c00 0000 0000     ......|.........
	...
  4262a0:	0000 c01c 0001 1c00 01e0 0000 f03c 0001     ............<...
  4262b0:	7c00 01f8 0000 dcdc 0001 8000 000f 0000     .|..............
  4262c0:	0700 0000 8000 000f 0000 dddc 0001 fc00     ................
  4262d0:	01f8 0000 f07c 0001 3c00 01e0 0000 c01c     ....|....<......
  4262e0:	0001 0000 0000 0000 0000 0000 1c00 0000     ................
  4262f0:	0000 003c 0000 fc00 e001 0000 0ffc 00e0     ..<.............
  426300:	dc00 f03f 0000 fe1c 00ff 0000 fff0 0000     ..?.............
  426310:	f000 00ef 1c00 e1fe 0000 3fdc 0000 fc00     ...........?....
  426320:	000f 0000 01fc 0000 3c00 0000 0000 001c     .........<......
  426330:	0000 1c00 0000 0000 0000 0000 0000 0000     ................
  426340:	0000 c07c 0001 7c00 01e0 0000 f07c 0001     ..|....|....|...
  426350:	0c00 01bc 0000 9e0c 0001 8c00 018f 0000     ................
  426360:	83cc 0001 ec00 0181 0000 807c 0001 3c00     ..........|....<
  426370:	01f0 0000 f01c 0001 0000 01f0 0000 0000     ................
	...
  426388:	01c0 0000 e000 0003 fc00 ffff 000f 7fff     ................
  426398:	3fff ff00 fe3f 003f 0007 3800 0700 0000     .?..?.?....8....
  4263a8:	0038 0000 0000 0000 0000 0000 0000 0000     8...............
  4263b8:	ff00 ffff 001f ffff 1fff ff00 ffff 001f     ................
	...
  4263d0:	0000 0007 3800 0700 0000 0038 3fff 3ffe     .....8....8..?.?
  4263e0:	ff00 ff7f 003f fffc 0fff 0000 03e0 0000     ....?...........
  4263f0:	c000 0001 0000 0000 0000 0000 0000 0000     ................
	...
  426408:	0000 0c00 0000 0000 000e 0000 0700 0000     ................
  426418:	0000 0007 0000 0700 0000 0000 0007 0000     ................
  426428:	0f00 0000 0000 000e 0000 0e00 0000 0000     ................
  426438:	000e 0000 0e00 0000 0000 0007 0000 0300     ................
	...

00426454 <Arvo_18pt_CharCount>:
  426454:	0805 1108 140e 0411 0808 0f0a 0907 0a05     ................
  426464:	0a10 0d0d 0d0f 0d0f 0f0f 0606 0b0c 0c0d     ................
  426474:	121b 1210 0f12 140f 0916 1208 1a0f 1313     ................
  426484:	130f 0e11 1211 1e11 1012 080e 080b 0c0e     ................
  426494:	0d07 0d0f 0e0f 0e09 0810 0f07 1808 0e10     ................
  4264a4:	0e0f 0c0b 1009 130d 0e0d 080b 0805 000e     ................

004264b4 <Arvo_18pt_Table>:
	...
  4264d0:	ff00 039f ff00 039f 0000 0000 0000 0000     ................
	...
  4264e8:	3f00 0000 3f00 0000 0000 0000 0000 0000     .?...?..........
  4264f8:	3f00 0000 3f00 0000 0000 0000 0000 0000     .?...?..........
  426508:	0000 0018 2000 0018 3000 0318 3000 03f8     ..... ...0...0..
  426518:	b000 00ff fc00 001f 7f00 0018 3300 0018     .............3..
  426528:	3000 0018 3000 0398 3000 03fe f800 007f     .0...0...0......
  426538:	ff00 001b 3700 0018 3000 0018 3000 0000     .....7...0...0..
	...
  426550:	0000 0060 c000 0063 c000 00e7 e000 01ce     ..`...c.........
  426560:	6000 018c 7e00 1f8c 7e00 1f8c 6000 0198     .`...~...~...`..
  426570:	c000 0199 c000 00f9 8000 0071 0000 0000     ..........q.....
	...
  426588:	3c00 0000 7e00 0200 e700 0300 c300 0380     .<...~..........
  426598:	c300 00e0 e700 0070 7e00 003c 3c00 000e     ......p..~<..<..
  4265a8:	0000 0007 c000 0001 e000 00f0 7800 01f8     .............x..
  4265b8:	1c00 039c 0e00 030c 0300 030c 0100 039c     ................
  4265c8:	0000 01f8 0000 00f0 0000 0000 0000 0000     ................
  4265d8:	0000 0000 0000 0078 3c00 01fc fe00 018e     ......x..<......
  4265e8:	c700 0307 8300 0303 0300 0303 8300 0307     ................
  4265f8:	c700 038d fe00 0198 7c00 00f0 0000 00fc     .........|......
  426608:	0000 01de 0000 0386 0000 0300 0000 0200     ................
  426618:	1f00 0000 1f00 0000 0000 0000 0000 0000     ................
	...
  426630:	c000 003f fc00 03ff 3f00 0fc0 0780 1e00     ..?......?......
  426640:	00e0 7000 0040 2000 0040 2000 00e0 7000     ...p@.. @.. ...p
  426650:	0780 1e00 3f00 0fc0 fc00 03ff c000 003f     .....?........?.
	...
  42666c:	0c00 0000 4c00 0000 e800 0000 3f00 0000     .....L.......?..
  42667c:	3f00 0000 e800 0000 4c00 0000 0c00 0000     .?.......L......
	...
  426698:	0000 0006 0000 0006 0000 0006 0000 0006     ................
  4266a8:	0000 0006 f000 00ff f000 00ff 0000 0006     ................
  4266b8:	0000 0006 0000 0006 0000 0006 0000 0006     ................
  4266c8:	0000 0000 0000 0800 0000 0e00 0000 0700     ................
  4266d8:	0000 0300 0000 0100 0000 0000 0000 0000     ................
  4266e8:	0000 0000 0000 000c 0000 000c 0000 000c     ................
  4266f8:	0000 000c 0000 000c 0000 000c 0000 000c     ................
	...
  426710:	0000 0380 0000 0380 0000 0000 0000 0000     ................
  426720:	0000 0200 0000 03c0 0000 01f0 0000 003e     ..............>.
  426730:	c000 000f f000 0001 7e00 0000 0f00 0000     .........~......
  426740:	0300 0000 0000 0000 0000 0000 e000 001f     ................
  426750:	f800 007f 1c00 01e0 0600 0180 0700 0300     ................
  426760:	0300 0300 0300 0300 0300 0300 0300 0300     ................
  426770:	0700 0380 0600 0180 1e00 01e0 fc00 007f     ................
  426780:	e000 001f 0000 0000 0000 0000 0000 0000     ................
  426790:	0c00 0000 0e00 0300 0600 0300 ff00 03ff     ................
  4267a0:	ff00 03ff 0000 0300 0000 0300 0000 0000     ................
  4267b0:	0000 0000 1800 0380 1e00 03c0 0600 03e0     ................
  4267c0:	0300 0330 0300 031c 0300 030e 0300 0307     ..0.............
  4267d0:	c600 0301 fe00 0300 7800 0300 0000 0000     .........x......
	...
  4267e8:	1800 00c0 1c00 01c0 0600 0180 0300 0300     ................
  4267f8:	0300 0303 0300 0303 0300 0303 8600 0387     ................
  426808:	fe00 0186 7800 00fc 0000 0078 0000 0000     .....x....x.....
  426818:	0000 0000 0000 001c 0000 001f c000 001b     ................
  426828:	e000 0019 7800 0018 1e00 0018 0700 0318     .....x..........
  426838:	0100 0318 0000 03ff 0000 03ff 0000 0318     ................
  426848:	0000 0318 0000 0018 0000 0000 0000 0000     ................
  426858:	0000 0040 ff00 00e3 ff00 01c3 0300 0383     ..@.............
  426868:	8300 0301 8300 0301 8300 0301 8300 0383     ................
  426878:	0300 01c7 0300 00fe 0000 007c 0000 0000     ..........|.....
  426888:	0000 0000 0000 003c 0000 00ff c000 01c3     ......<.........
  426898:	f000 0181 f800 0300 de00 0300 c700 0300     ................
  4268a8:	c100 0300 c000 0300 c000 0181 8000 01c3     ................
  4268b8:	0000 00ff 0000 003e 0000 0000 0700 0000     ......>.........
  4268c8:	0700 0000 0300 0000 0300 0300 0300 03c0     ................
  4268d8:	0300 03f8 0300 03ff c300 0307 fb00 0001     ................
  4268e8:	3f00 0000 0700 0000 0300 0000 0000 0000     .?..............
	...
  426900:	3800 007c 7e00 00fe c600 01c7 8300 0383     .8|..~..........
  426910:	8300 0301 8300 0301 8300 0301 c700 0383     ................
  426920:	fe00 01c7 3c00 00fe 0000 007c 0000 0000     .....<....|.....
	...
  426938:	f000 0000 fc00 0003 0e00 0007 0600 0006     ................
  426948:	0300 020c 0300 030c 0300 01cc 0300 00ec     ................
  426958:	0300 003c 0600 001e 0e00 0007 fc00 0003     ..<.............
  426968:	f000 0000 0000 0000 0000 0000 c000 0381     ................
  426978:	c000 0381 0000 0000 0000 0000 0000 0000     ................
  426988:	0000 0800 c000 0f01 c000 0781 0000 0180     ................
	...
  4269a0:	0000 000e 0000 000f 0000 001f 8000 0019     ................
  4269b0:	8000 0039 c000 0030 c000 0030 6000 0060     ..9...0...0..``.
  4269c0:	6000 0060 3000 00c0 0000 0000 0000 0000     .``..0..........
  4269d0:	0000 0000 0000 0066 0000 0066 0000 0066     ......f...f...f.
  4269e0:	0000 0066 0000 0066 0000 0066 0000 0066     ..f...f...f...f.
  4269f0:	0000 0066 0000 0066 0000 0000 0000 0000     ..f...f.........
  426a00:	0000 0000 3000 00c0 6000 0060 6000 0060     .....0...``..``.
  426a10:	c000 0030 c000 0030 8000 0039 8000 0019     ..0...0...9.....
  426a20:	0000 001f 0000 000f 0000 000e 0000 0000     ................
  426a30:	0000 0000 1800 0000 1e00 0000 0600 0380     ................
  426a40:	0300 03bc 0300 003e 0300 0007 8300 0001     ......>.........
  426a50:	c700 0001 fe00 0000 7c00 0000 0000 0000     .........|......
	...
  426a68:	0000 00ff c000 03ff e000 0781 7800 1e00     .............x..
  426a78:	1c00 3800 0c00 3000 0600 707e 0600 60ff     ...8...0..~p...`
  426a88:	8700 e1c3 c300 c381 c300 c300 c300 c300     ................
  426a98:	c300 c300 c300 c301 8300 e181 c600 61ff     ...............a
  426aa8:	c600 73ff 0c00 0300 1c00 0300 3800 0300     ...s.........8..
  426ab8:	f000 01c0 c000 00ff 0000 003f 0000 0000     ..........?.....
  426ac8:	0000 0000 0000 0300 0000 0300 0000 03c0     ................
  426ad8:	0000 03f8 0000 037f e000 030f fc00 000c     ................
  426ae8:	1f00 000c 0300 000c 1f00 000c 7c00 000c     .............|..
  426af8:	f000 000f 8000 000f 0000 037e 0000 03f0     ..........~.....
  426b08:	0000 03c0 0000 0300 0000 0300 0000 0000     ................
  426b18:	0300 0300 0300 0300 ff00 03ff ff00 03ff     ................
  426b28:	0300 0303 0300 0303 0300 0303 0300 0303     ................
  426b38:	0300 0303 0300 0303 0700 0383 8e00 01c7     ................
  426b48:	fc00 00fc 7800 0078 0000 0000 0000 0000     .....xx.........
  426b58:	c000 000f f000 003f 3800 0070 1c00 00c0     ......?..8p.....
  426b68:	0600 0180 0600 0180 0300 0300 0300 0300     ................
  426b78:	0300 0300 0300 0300 0300 0300 0700 0380     ................
  426b88:	0600 0180 1c00 01c0 1c00 00f0 1800 0070     ..............p.
	...
  426ba0:	0300 0300 0300 0300 ff00 03ff ff00 03ff     ................
  426bb0:	0300 0300 0300 0300 0300 0300 0300 0300     ................
  426bc0:	0300 0300 0300 0300 0600 0180 0e00 01c0     ................
  426bd0:	1c00 00e0 3800 0070 f000 003f c000 000f     .....8p...?.....
	...
  426be8:	0300 0300 0300 0300 ff00 03ff ff00 03ff     ................
  426bf8:	0300 0303 0300 0303 0300 0303 0300 0303     ................
  426c08:	0300 0303 0300 0303 0300 0300 1f00 03e0     ................
  426c18:	1f00 03e0 0000 0000 0000 0000 0300 0300     ................
  426c28:	0300 0300 ff00 03ff ff00 03ff 0300 0303     ................
  426c38:	0300 0303 0300 0003 0300 0003 0300 0003     ................
  426c48:	0300 0003 0300 0003 1f00 0000 1f00 0000     ................
	...
  426c60:	c000 000f f000 003f 3800 00f0 0c00 00c0     ......?..8......
  426c70:	0600 0180 0600 0380 0300 0300 0300 0300     ................
  426c80:	0300 0300 0300 0300 0300 0306 0700 0186     ................
  426c90:	0600 0186 1c00 00c6 1c00 0076 1800 03fe     ..........v.....
  426ca0:	0000 03fe 0000 0000 0000 0000 0000 0000     ................
  426cb0:	0300 0300 0300 0300 ff00 03ff ff00 03ff     ................
  426cc0:	8300 0301 8300 0301 8000 0001 8000 0001     ................
  426cd0:	8000 0001 8000 0001 8000 0001 8000 0001     ................
  426ce0:	8000 0001 8000 0001 8300 0301 8300 0301     ................
  426cf0:	ff00 03ff ff00 03ff 0300 0300 0300 0300     ................
	...
  426d08:	0300 0300 0300 0300 ff00 03ff ff00 03ff     ................
  426d18:	0300 0300 0300 0300 0000 0000 0000 0000     ................
	...
  426d30:	0300 1800 0300 1e00 ff00 0fff ff00 03ff     ................
  426d40:	0300 0000 0300 0000 0000 0000 0300 0300     ................
  426d50:	0300 0300 ff00 03ff ff00 03ff 0300 0301     ................
  426d60:	8300 0301 8000 0003 c000 0006 6000 000c     .............`..
  426d70:	3000 0018 3800 0030 1800 0060 0f00 03c0     .0...80...`.....
  426d80:	0700 0380 0300 0300 0300 0300 0000 0000     ................
  426d90:	0000 0000 0300 0300 0300 0300 ff00 03ff     ................
  426da0:	ff00 03ff 0300 0300 0300 0300 0000 0300     ................
  426db0:	0000 0300 0000 0300 0000 0300 0000 0300     ................
  426dc0:	0000 03e0 0000 03e0 0000 0000 0000 0000     ................
  426dd0:	0000 0000 0300 0300 0300 0300 ff00 03ff     ................
  426de0:	ff00 03ff 0700 0300 3f00 0300 f800 0000     .........?......
  426df0:	e000 0007 0000 001f 0000 00fc 0000 03e0     ................
  426e00:	0000 0380 0000 03e0 0000 00f8 0000 001f     ................
  426e10:	c000 0007 f800 0000 3e00 0300 0700 0300     .........>......
  426e20:	ff00 03ff ff00 03ff 0300 0300 0300 0300     ................
	...
  426e38:	0300 0300 0300 0300 ff00 03ff ff00 03ff     ................
  426e48:	0f00 0300 3c00 0300 7000 0000 e000 0001     .....<...p......
  426e58:	8000 0007 0000 000e 0000 003c 0000 00f0     ..........<.....
  426e68:	0300 01c0 0300 0380 ff00 03ff ff00 03ff     ................
  426e78:	0300 0000 0300 0000 0000 0000 c000 000f     ................
  426e88:	f000 003f 3c00 0070 0c00 00c0 0600 0180     ..?..<p.........
  426e98:	0600 0180 0300 0300 0300 0300 0300 0300     ................
  426ea8:	0300 0300 0300 0300 0600 0180 0600 0180     ................
  426eb8:	0c00 00c0 3c00 00f0 f000 003f c000 000f     .....<....?.....
	...
  426ed0:	0300 0300 0300 0300 ff00 03ff ff00 03ff     ................
  426ee0:	0300 0303 0300 0303 0300 0003 0300 0003     ................
  426ef0:	0300 0003 0300 0003 8600 0001 fe00 0000     ................
  426f00:	7800 0000 0000 0000 0000 0000 c000 000f     .x..............
  426f10:	f000 003f 3c00 00f0 0c00 00c0 0600 0180     ..?..<..........
  426f20:	0600 0380 0300 0300 0300 1f00 0300 1f00     ................
  426f30:	0300 1f00 0300 3b00 0600 3380 0600 6180     .......;...3...a
  426f40:	0c00 60c0 3c00 60f0 f000 303f c000 100f     ...`.<.`..?0....
	...
  426f58:	0300 0300 0300 0300 ff00 03ff ff00 03ff     ................
  426f68:	0300 0303 0300 0303 0300 0003 0300 0003     ................
  426f78:	0300 0007 0300 000f 8600 00fd fe00 03f8     ................
  426f88:	7800 03c0 0000 0300 0000 0300 0000 0000     .x..............
  426f98:	0000 0000 0000 0030 7800 0070 fe00 01f0     ......0..xp.....
  426fa8:	c600 0181 8300 0381 8300 0303 0300 0303     ................
  426fb8:	0300 0303 0700 0307 1e00 018e 1c00 01fe     ................
  426fc8:	1800 0078 0000 0000 0000 0000 0f00 0000     ..x.............
  426fd8:	0f00 0000 0300 0000 0300 0000 0300 0000     ................
  426fe8:	0300 0300 0300 0300 ff00 03ff ff00 03ff     ................
  426ff8:	0300 0300 0300 0300 0300 0000 0300 0000     ................
  427008:	0300 0000 0f00 0000 0f00 0000 0000 0000     ................
  427018:	0300 0000 0300 0000 ff00 003f ff00 007f     ..........?.....
  427028:	0300 01e0 0300 0180 0000 0300 0000 0300     ................
  427038:	0000 0300 0000 0300 0000 0300 0300 0180     ................
  427048:	0300 01c0 ff00 007f ff00 001f 0300 0000     ................
  427058:	0300 0000 0300 0000 0700 0000 3f00 0000     .............?..
  427068:	fb00 0000 e300 0003 0000 001f 0000 007c     ..............|.
  427078:	0000 01f0 0000 0380 0000 03c0 0000 03f8     ................
  427088:	0000 007f e300 000f ff00 0001 3f00 0000     .............?..
  427098:	0700 0000 0300 0000 0300 0000 0300 0000     ................
  4270a8:	0f00 0000 7f00 0000 fb00 0003 8300 001f     ................
  4270b8:	0000 00fc 0000 03e0 0000 0300 0000 03e0     ................
  4270c8:	0000 00fe c000 001f f800 0003 7f00 0000     ................
  4270d8:	0700 0000 0f00 0000 7e00 0000 f000 0003     .........~......
  4270e8:	8000 001f 0000 00fc 0000 03e0 0000 0300     ................
  4270f8:	0000 03e0 0000 01fc 8300 001f fb00 0003     ................
  427108:	7f00 0000 0f00 0000 0300 0000 0300 0000     ................
	...
  427120:	0300 0300 0700 0380 0f00 03c0 1f00 03e0     ................
  427130:	7300 0338 e000 001c c000 000f 0000 0003     .s8.............
  427140:	c000 000f e000 001c 7300 0338 1f00 03e0     .........s8.....
  427150:	0f00 03c0 0700 0380 0300 0300 0000 0000     ................
  427160:	0000 0000 0300 0000 0300 0000 0700 0000     ................
  427170:	1f00 0000 7b00 0300 e300 0301 8000 03ff     .....{..........
  427180:	8000 03ff c000 0301 f300 0300 3b00 0000     .............;..
  427190:	1f00 0000 0700 0000 0300 0000 0300 0000     ................
  4271a0:	0000 0000 1f00 03c0 1f00 03e0 0300 0370     ..............p.
  4271b0:	0300 031c 0300 030e 0300 0307 8300 0303     ................
  4271c0:	e300 0300 7300 0300 3b00 0300 0f00 03e0     .....s...;......
  4271d0:	0700 03e0 0000 0000 0000 0000 0000 0000     ................
  4271e0:	0000 0000 ffe0 3fff ffe0 3fff 0060 3000     .......?...?`..0
  4271f0:	0060 3000 0000 0000 0080 0000 0380 0000     `..0............
  427200:	0f00 0000 3c00 0000 f000 0001 8000 0007     .....<..........
  427210:	0000 001e 0000 0078 0000 03e0 0000 0300     ......x.........
	...
  427228:	0000 3000 0060 3000 0060 3000 ffe0 3fff     ...0`..0`..0...?
  427238:	ffe0 3fff 0000 0000 0000 0000 0000 0000     ...?............
  427248:	0000 0000 0000 0002 8000 0003 e000 0001     ................
  427258:	7800 0000 1e00 0000 0700 0000 0700 0000     .x..............
  427268:	3f00 0000 f800 0001 e000 0003 0000 0003     .?..............
  427278:	0000 0000 0000 1000 0000 1000 0000 1000     ................
  427288:	0000 1000 0000 1000 0000 1000 0000 1000     ................
  427298:	0000 1000 0000 1000 0000 1000 0000 1000     ................
  4272a8:	0000 1000 0000 0000 0100 0000 0300 0000     ................
  4272b8:	0700 0000 0e00 0000 0800 0000 0000 0000     ................
  4272c8:	0000 0000 0000 00e0 8000 01f1 c000 0338     ..............8.
  4272d8:	c000 0318 c000 0318 c000 0318 c000 0199     ................
  4272e8:	8000 03ff 0000 03ff 0000 0300 0000 0300     ................
  4272f8:	0000 0000 0300 0000 0300 0000 ff00 03ff     ................
  427308:	ff00 03ff 8000 0381 c000 0300 c000 0300     ................
  427318:	c000 0300 c000 0300 c000 0300 8000 0181     ................
  427328:	8000 01c3 0000 00ff 0000 003e 0000 0000     ..........>.....
  427338:	0000 0000 0000 007e 0000 00ff 8000 01c3     ......~.........
  427348:	c000 0381 c000 0300 c000 0300 c000 0300     ................
  427358:	c000 0380 8000 0181 0000 01c3 0000 00c3     ................
	...
  427370:	0000 007e 0000 00ff 8000 01c3 c000 0381     ..~.............
  427380:	c000 0300 c000 0300 c000 0300 c300 0300     ................
  427390:	8300 0181 ff00 03ff ff00 03ff 0000 0300     ................
  4273a0:	0000 0300 0000 0000 0000 0000 0000 007e     ..............~.
  4273b0:	0000 00ff 8000 01db c000 0399 c000 0318     ................
  4273c0:	c000 0318 c000 0318 c000 0318 8000 0319     ................
  4273d0:	8000 019f 0000 011e 0000 0000 0000 0000     ................
  4273e0:	0000 0000 c000 0300 c000 0300 fc00 03ff     ................
  4273f0:	fe00 03ff c700 0300 c300 0300 0300 0000     ................
  427400:	0300 0000 0000 0000 0000 007e 0000 60ff     ..........~....`
  427410:	8000 e1c3 c000 c381 c000 c300 c000 c300     ................
  427420:	c000 c300 c000 c300 c000 7181 c000 7fff     ...........q....
  427430:	c000 1fff 0000 0000 0000 0000 0000 0000     ................
  427440:	0300 0300 0300 0300 ff00 03ff ff00 03ff     ................
  427450:	8000 0301 8000 0300 c000 0000 c000 0000     ................
  427460:	c000 0300 c000 0301 8000 03ff 0000 03ff     ................
  427470:	0000 0300 0000 0300 0000 0000 0000 0000     ................
  427480:	c000 0300 c000 0300 c700 03ff c700 03ff     ................
  427490:	0000 0300 0000 0300 0000 0000 0000 0000     ................
  4274a0:	c000 c000 c000 6000 c700 7fff c700 3fff     .......`.......?
	...
  4274bc:	0300 0300 0300 0300 ff00 03ff ff00 03ff     ................
  4274cc:	0000 0318 0000 0318 0000 0018 0000 0038     ..............8.
  4274dc:	0000 007e c000 00e7 c000 0183 c000 0301     ..~.............
  4274ec:	c000 0300 c000 0300 0000 0000 0300 0300     ................
  4274fc:	0300 0300 ff00 03ff ff00 03ff 0000 0300     ................
  42750c:	0000 0300 0000 0000 0000 0000 c000 0300     ................
  42751c:	c000 0300 c000 03ff c000 03ff 8000 0301     ................
  42752c:	c000 0300 c000 0000 c000 0000 c000 0300     ................
  42753c:	c000 0301 8000 03ff 0000 03ff 8000 0301     ................
  42754c:	8000 0300 c000 0000 c000 0000 c000 0300     ................
  42755c:	c000 0301 8000 03ff 0000 03ff 0000 0300     ................
  42756c:	0000 0300 0000 0000 0000 0000 c000 0300     ................
  42757c:	c000 0300 c000 03ff c000 03ff 8000 0300     ................
  42758c:	c000 0300 c000 0000 c000 0000 c000 0300     ................
  42759c:	c000 0301 8000 03ff 0000 03ff 0000 0300     ................
  4275ac:	0000 0300 0000 0000 0000 0000 0000 007e     ..............~.
  4275bc:	0000 00ff 8000 01c3 c000 0381 c000 0300     ................
  4275cc:	c000 0300 c000 0300 c000 0300 c000 0381     ................
  4275dc:	8000 01c3 0000 00ff 0000 007e 0000 0000     ..........~.....
  4275ec:	c000 c000 c000 c000 c000 ffff c000 ffff     ................
  4275fc:	8000 c181 c000 c300 c000 0300 c000 0300     ................
  42760c:	c000 0300 c000 0300 c000 0181 8000 01c3     ................
  42761c:	0000 00ff 0000 003e 0000 0000 0000 0000     ......>.........
  42762c:	0000 007e 0000 00ff 8000 01c3 c000 0381     ..~.............
  42763c:	c000 0300 c000 0300 c000 0300 c000 c300     ................
  42764c:	c000 c181 c000 ffff c000 ffff 0000 c000     ................
  42765c:	0000 c000 0000 0000 c000 0300 c000 0300     ................
  42766c:	c000 03ff c000 03ff 8000 0301 c000 0300     ................
  42767c:	c000 0000 c000 0001 c000 0001 0000 0000     ................
  42768c:	0000 0000 8000 00c7 8000 01cf c000 038c     ................
  42769c:	c000 0308 c000 0318 c000 0318 c000 0318     ................
  4276ac:	8000 03b3 8000 01f3 0000 01e3 0000 0000     ................
  4276bc:	0000 0000 c000 0000 c000 0000 f800 01ff     ................
  4276cc:	fc00 03ff c000 0300 c000 0300 0000 0300     ................
  4276dc:	0000 0000 c000 0000 c000 0000 c000 00ff     ................
  4276ec:	c000 01ff 0000 0380 0000 0300 0000 0300     ................
  4276fc:	0000 0300 0000 0300 c000 0100 c000 0180     ................
  42770c:	c000 03ff c000 03ff 0000 0300 0000 0300     ................
  42771c:	0000 0000 c000 0000 c000 0001 c000 000f     ................
  42772c:	c000 007e 0000 03f0 0000 0380 0000 0380     ..~.............
  42773c:	0000 03f0 c000 007e c000 000f c000 0001     ......~.........
  42774c:	c000 0000 0000 0000 c000 0000 c000 0001     ................
  42775c:	c000 000f c000 007e 0000 03f0 0000 0380     ......~.........
  42776c:	0000 03f0 0000 00ff c000 000f c000 0000     ................
  42777c:	c000 003f 0000 03fe 0000 03c0 0000 03e0     ..?.............
  42778c:	c000 00fe c000 001f c000 0003 c000 0000     ................
	...
  4277a4:	c000 0300 c000 0381 c000 03c3 c000 03e7     ................
  4277b4:	0000 007e 0000 001c 0000 003e c000 0367     ..~.......>...g.
  4277c4:	c000 03c3 c000 0381 c000 0300 0000 0000     ................
  4277d4:	c000 0000 c000 0001 c000 0007 c000 c03e     ..............>.
  4277e4:	0000 e0f8 0000 ffe0 0000 3f80 0000 03f0     ...........?....
  4277f4:	c000 007e c000 000f c000 0003 c000 0000     ..~.............
	...
  427810:	c000 0301 c000 0381 c000 03e0 c000 0370     ..............p.
  427820:	c000 033c c000 030e c000 0307 c000 03c1     ..<.............
  427830:	c000 03c0 0000 0000 0000 0000 0000 0000     ................
  427840:	0000 0006 0000 000f ffc0 1fff ffe0 3ff9     ...............?
  427850:	0060 3000 0060 3000 0000 0000 0000 0000     `..0`..0........
  427860:	ffe0 ffff ffe0 ffff 0000 0000 0000 0000     ................
  427870:	0060 3000 0060 3000 ffe0 3ff9 ffc0 1fff     `..0`..0...?....
  427880:	0000 000f 0000 0006 0000 0000 0000 0000     ................
  427890:	0000 0000 0000 0018 0000 001c 0000 000c     ................
  4278a0:	0000 000c 0000 000c 0000 0018 0000 0018     ................
  4278b0:	0000 0018 0000 001c 0000 000c 0000 0000     ................
  4278c0:	0000 0000                                   ....

004278c4 <Arvo_14pt_CharCount>:
  4278c4:	0604 0d06 100b 030e 0707 0c08 0705 0804     ................
  4278d4:	080c 0a0a 0b0c 0a0c 0c0c 0505 0909 0a0b     ................
  4278e4:	0e15 0e0d 0c0e 100c 0711 0f06 140c 0f0f     ................
  4278f4:	0f0c 0b0e 0e0d 180e 0d0e 070b 0709 0a0b     ................
  427904:	0a05 0a0c 0b0c 0b07 060d 0c06 1306 0b0d     ................
  427914:	0b0c 0909 0d07 0f0a 0b0a 0709 0704 000b     ................

00427924 <Arvo_14pt_Table>:
	...
  427934:	0000 ffe0 e006 06ff 0000 0000 0000 01f0     ................
  427944:	f000 0001 0000 f000 0001 01f0 0000 0000     ................
  427954:	0000 0000 00c0 c300 0006 07f3 ff80 e001     ................
  427964:	00cf c360 0000 06c3 f300 8007 01ff cfe0     ..`.............
  427974:	e000 00c3 0300 0000 0000 c000 0000 00ce     ................
  427984:	df00 e001 0333 33e0 001f 1f33 ee00 0003     ....3..3..3.....
  427994:	01ec 0000 0000 0000 0000 c000 0001 07f0     ................
  4279a4:	3004 0606 8630 f003 01c7 71c0 0000 0038     .0..0......q..8.
  4279b4:	0e00 0000 01c7 f1c0 e007 0630 3030 1006     ..........0.00..
  4279c4:	07f0 c000 0001 0000 0000 0000 01c0 f380     ................
  4279d4:	c003 0737 1ce0 6006 0618 3860 e006 067c     ..7....`..`8..|.
  4279e4:	e7c0 8007 03c3 f000 0003 0630 0000 0004     ..........0.....
  4279f4:	0000 00f0 f000 0000 0000 0000 0000 fe00     ................
  427a04:	c001 0fff 01e0 781e 7800 0010 0020 0000     .......x.x.. ...
  427a14:	0000 1000 2000 0078 e078 1e01 ffc0 000f     ..... x.x.......
  427a24:	01fe 0000 0000 0000 0040 c000 0006 03f0     ........@.......
  427a34:	c000 0003 06c0 4000 0000 0000 0000 0000     .......@........
  427a44:	1800 0000 0018 1800 0000 0018 ff80 8001     ................
  427a54:	01ff 1800 0000 0018 1800 0000 0018 0000     ................
  427a64:	0000 1000 0000 001e 0e00 0000 0002 0000     ................
  427a74:	6000 0000 0060 6000 0000 0060 6000 0000     .`..`..`..`..`..
  427a84:	0060 0000 0000 0000 0000 0006 0600 0000     `...............
  427a94:	0000 0400 8000 0007 03e0 7c00 0000 001f     ...........|....
  427aa4:	03e0 f000 0000 0010 0000 0000 fe00 8000     ................
  427ab4:	03ff 81c0 6003 0600 0060 6006 0600 0060     .....`..`..`..`.
  427ac4:	c006 0381 ffc0 0003 00ff 0000 0000 0000     ................
  427ad4:	0080 c000 0000 0040 e006 07ff ffe0 0007     ......@.........
  427ae4:	0600 0000 0000 0000 0180 c007 0781 c0e0     ................
  427af4:	6007 0660 3060 e006 0618 0fc0 8006 0607     .``.`0..........
  427b04:	0000 0000 0000 8100 c001 0381 00e0 6007     ...............`
  427b14:	060c 0c60 e006 071e fbc0 8003 01f3 0000     ..`.............
  427b24:	0000 0000 7000 0000 0078 6e00 8000 0067     .....p..x..n..g.
  427b34:	61c0 6000 0660 f820 0007 07f8 6000 0006     .a.``. ......`..
  427b44:	0060 0000 0000 0080 9fe0 e001 031f 0c60     `.............`.
  427b54:	6006 060c 0c60 6006 060c 1860 6003 03f8     .`..`..`..`..`..
  427b64:	f060 0000 0000 0000 0000 00f0 f800 0003     `...............
  427b74:	031e 0f80 c006 060d 0c60 2006 060c 1c00     ........`.. ....
  427b84:	0003 03f8 f000 0000 0000 00e0 e000 0000     ................
  427b94:	0060 6006 0700 e060 6007 06fc 1f60 e000     `..`..`..`..`...
  427ba4:	0003 00e0 0000 0000 0000 0000 01e0 f780     ................
  427bb4:	c003 073f 1ce0 6006 0618 1860 e006 073c     ..?....`..`...<.
  427bc4:	f7c0 8003 01e3 0000 0000 0000 0000 0000     ................
  427bd4:	000f 1fc0 c000 0038 3060 6004 0630 b060     ......8.`0.`0.`.
  427be4:	6003 01f0 78c0 c000 001f 0f00 0000 0000     .`...x..........
  427bf4:	0000 0000 0606 0600 0006 0000 0000 0000     ................
  427c04:	1800 0e00 001e 070e 0000 0000 0000 7000     ...............p
  427c14:	0000 0078 d800 0000 00cc 8c00 0001 0186     ..x.............
  427c24:	8600 0001 0303 0000 0000 0000 b000 0001     ................
  427c34:	01b0 b000 0001 01b0 b000 0001 01b0 b000     ................
  427c44:	0001 0000 0000 0000 0000 0300 0003 0186     ................
  427c54:	8600 0001 00cc d800 0000 0078 7000 0000     ..........x..p..
	...
  427c6c:	0100 c000 0001 e0e0 6006 06f0 1860 e000     .........`..`...
  427c7c:	000c 07c0 8000 0003 0000 0000 0000 f800     ................
  427c8c:	0001 07fe 0700 800e 1c03 01c0 c038 31f0     ............8..1
  427c9c:	f860 6063 671c 0c60 6066 660c 1c60 6067     `.c`.g`.f`.f`.g`
  427cac:	63fc fcc0 c037 3601 0380 0006 0707 fe00     .c..7..6........
  427cbc:	0003 00f8 0000 0000 0000 0000 0006 0700     ................
  427ccc:	e000 0007 06f8 3e00 c000 0037 31e0 2000     .......>..7..1. 
  427cdc:	0030 31e0 c000 003f 7e00 0006 07f0 8000     0..1..?..~......
  427cec:	0007 0600 0000 0000 0000 0060 e006 07ff     ..........`.....
  427cfc:	ffe0 6007 0618 1860 6006 0618 1860 e006     ...`..`..`..`...
  427d0c:	073c ffc0 8003 01e7 0000 0000 0000 7e00     <..............~
  427d1c:	8000 01ff c3c0 c003 0300 0060 6006 0600     ..........`..`..
  427d2c:	0060 6006 0600 00e0 c007 0381 81c0 8001     `..`............
  427d3c:	0081 0000 0000 0000 0000 6000 0600 ffe0     ...........`....
  427d4c:	e007 07ff 0060 6006 0600 0060 6006 0600     ....`..`..`..`..
  427d5c:	00c0 c003 03c3 ff80 0001 007e 0000 0000     ..........~.....
  427d6c:	0000 0060 e006 07ff ffe0 6007 0618 1860     ..`........`..`.
  427d7c:	6006 0618 1860 6006 0600 81e0 e007 0781     .`..`..`........
	...
  427d94:	6000 0600 ffe0 e007 07ff 1860 6006 0018     .`........`..`..
  427da4:	1860 6000 0018 01e0 e000 0001 0000 0000     `..`............
  427db4:	0000 7e00 0000 01ff c380 c003 0300 00e0     ...~............
  427dc4:	6007 0600 0060 6006 0630 3060 e006 0330     .`..`..`0.`0..0.
  427dd4:	b1c0 8001 07f1 f180 0007 0000 0000 0000     ................
  427de4:	0000 0000 6000 0600 ffe0 e007 07ff 1860     .....`........`.
  427df4:	0006 0018 1800 0000 0018 1800 0000 0018     ................
  427e04:	1860 e006 07ff ffe0 6007 0600 0000 0000     `........`......
	...
  427e1c:	0060 e006 07ff ffe0 6007 0600 0000 0000     `........`......
  427e2c:	0000 0000 6010 1c00 ffe0 e00f 07ff 0060     .....`........`.
  427e3c:	0000 0000 0000 6000 0600 ffe0 e007 07ff     .......`........
  427e4c:	0860 0006 001c 3600 0000 0063 c300 8000     `......6..c.....
  427e5c:	0181 00e0 6007 0600 0060 0006 0000 0000     .....`..`.......
  427e6c:	0000 0000 0060 e006 07ff ffe0 6007 0600     ....`........`..
  427e7c:	0000 0006 0600 0000 0006 07c0 c000 0007     ................
  427e8c:	0000 0000 6000 0600 ffe0 e007 07ff 00e0     .....`..........
  427e9c:	c006 0007 3e00 0000 01f8 c000 0007 0600     .....>..........
  427eac:	c000 0007 01f8 3f00 e000 0607 00e0 e006     .......?........
  427ebc:	07ff ffe0 6007 0600 0000 0000 0000 0000     .....`..........
  427ecc:	0000 0000 0060 e006 07ff ffe0 e007 0600     ....`...........
  427edc:	03c0 0000 000f 3c00 0000 00f0 c060 6003     .......<....`..`
  427eec:	0700 ffe0 e007 07ff 0060 0000 0000 7e00     ........`......~
  427efc:	8000 01ff c3c0 c003 0300 0060 6007 0600     ..........`..`..
  427f0c:	0060 6006 0600 0060 c006 0300 c3c0 8003     `..`..`.........
  427f1c:	01ff 7e00 0000 0000 0000 0000 0000 0060     ...~..........`.
  427f2c:	e006 07ff ffe0 6007 0618 1860 6000 0018     .......`..`..`..
  427f3c:	1860 e000 001c 0fc0 8000 0007 0000 0000     `...............
  427f4c:	007e ff80 c001 03c3 00c0 6003 0700 0060     ~..........`..`.
  427f5c:	6006 1e00 0060 603e 3600 00c0 c063 63c3     .`..`.>`.6..c..c
  427f6c:	ff80 0071 307e 0000 0000 0000 0000 6000     ..q.~0.........`
  427f7c:	0600 ffe0 e007 07ff 1860 6006 0018 1860     ........`..`..`.
  427f8c:	6000 0038 fce0 c001 07ef 8780 0007 0600     .`8.............
  427f9c:	0000 0000 0180 8780 c003 038f 0ce0 6007     ...............`
  427fac:	0618 1860 6006 0618 30e0 c007 03f1 e180     ..`..`...0......
  427fbc:	8001 0001 0000 e000 0001 01e0 6000 0000     .............`..
  427fcc:	0060 6000 0600 ffe0 e007 07ff 0060 6006     `..`........`..`
  427fdc:	0000 0060 e000 0001 01e0 0000 0000 0060     ..`...........`.
  427fec:	e000 00ff ffe0 6001 0380 0000 0006 0600     .......`........
  427ffc:	0000 0006 0600 0000 6006 0380 ffe0 e001     .........`......
  42800c:	00ff 0060 6000 0000 00e0 e000 0007 1f60     ..`..`........`.
  42801c:	0000 00f8 e000 0003 0700 0000 0007 03e0     ................
  42802c:	f800 6000 001f 07e0 e000 0000 0060 6000     ...`........`..`
  42803c:	0000 00e0 e000 0007 3f60 0000 00f8 c000     ........`?......
  42804c:	0007 0600 8000 0007 03f8 7f00 e000 0007     ................
  42805c:	00e0 e000 0001 1fe0 0000 03fe f000 0007     ................
  42806c:	0780 0000 0006 07c0 f800 6001 003f 07e0     ...........`?...
  42807c:	e000 0000 0060 0000 0000 0000 6000 0600     ....`........`..
  42808c:	00e0 e007 0781 c360 0006 006e 3c00 0000     ......`...n..<..
  42809c:	003c 6600 6000 06c3 81e0 e007 0700 0060     <..f.`........`.
  4280ac:	6006 0000 0060 e000 0000 03e0 6000 060f     .`..`........`..
  4280bc:	fc00 0007 07fc 0e00 6006 0003 01e0 e000     .........`......
  4280cc:	0000 0060 0000 0000 0000 e000 0701 81e0     ..`.............
  4280dc:	6007 06c0 6060 6006 0630 1860 6006 060c     .`..``.`0.`..`..
  4280ec:	0660 6006 0603 81e0 0007 0000 0000 f800     `..`............
  4280fc:	7fff fff8 187f 6000 0000 0000 0000 0010     .......`........
  42810c:	7000 0000 01c0 0000 0007 3c00 0000 00e0     .p.........<....
  42811c:	8000 0003 0600 0000 0000 0000 0000 1860     ..............`.
  42812c:	6000 fff8 f87f 7fff 0000 0000 0000 0000     .`..............
  42813c:	0000 0008 0e00 8000 0007 01e0 7000 0000     .............p..
  42814c:	0070 e000 0001 0780 0000 000e 0800 0000     p...............
  42815c:	1000 0000 0010 1000 0000 0010 1000 0000     ................
  42816c:	0010 1000 0000 0010 1000 0000 0010 0000     ................
  42817c:	0020 6000 0000 00e0 8000 0000 0000 0000      ..`............
  42818c:	03c0 ec00 0007 0666 6600 0006 0266 fe00     ......f..f..f...
  42819c:	0007 07fc 0000 0006 0000 0000 3000 0000     .............0..
  4281ac:	fff0 f007 07ff 0c00 0006 0606 0600 0006     ................
  4281bc:	0606 0c00 0003 03fc f000 0000 0000 0000     ................
  4281cc:	0000 00f0 fc00 0003 070e 0600 0006 0606     ................
  4281dc:	0600 0006 030c 0800 0001 0000 0000 0000     ................
  4281ec:	00f8 fc00 0003 070e 0600 0006 0606 0600     ................
  4281fc:	3006 0606 fff0 f007 07ff 0000 0006 0000     .0..............
  42820c:	0000 0000 00f0 fc00 0003 076e 6600 0006     ..........n..f..
  42821c:	0666 6600 0006 066e 7c00 0003 0078 0000     f..f..n..|..x...
  42822c:	0000 0000 0600 e006 07ff fff0 3007 0606     .............0..
  42823c:	0630 3000 0000 0000 0000 20f0 fc00 0033     0..0....... ..3.
  42824c:	670e 0600 0066 6606 0600 0066 7206 fe00     .g..f..f..f..r..
  42825c:	003f 1ffe 0000 0000 0000 0030 f006 07ff     ?.........0.....
  42826c:	fff0 0007 060c 0600 0000 0006 0600 0000     ................
  42827c:	060e fe00 0007 07fc 0000 0006 0000 0000     ................
  42828c:	0000 0606 fe60 6007 07fe 0000 0006 0000     ....`..`........
  42829c:	0000 0040 6006 fe60 607f 3ffe 0000 0000     ..@..``..`.?....
  4282ac:	0000 0000 3006 0600 fff0 f007 07ff 4000     .....0.........@
  4282bc:	0006 00e0 b000 0001 031e 0e00 0006 0606     ................
  4282cc:	0600 0006 0000 0000 3000 0600 fff0 f007     .........0......
  4282dc:	07ff 0000 0006 0000 0000 0000 0606 fe00     ................
  4282ec:	0007 07fe 0400 0006 0006 0600 0000 0006     ................
  4282fc:	0e00 0006 07fc fc00 0007 0606 0600 0000     ................
  42830c:	0006 0600 0006 07fe fc00 0007 0600 0000     ................
  42831c:	0000 0000 0600 0006 07fe fe00 0007 060c     ................
  42832c:	0400 0000 0006 0600 0000 0606 fe00 0007     ................
  42833c:	07fc 0000 0006 0000 0000 0000 00f0 fc00     ................
  42834c:	0003 070e 0600 0006 0606 0600 0006 070e     ................
  42835c:	fc00 0003 00f0 0000 0000 0000 0600 0060     ..............`.
  42836c:	7ffe fe00 007f 6606 0600 0006 0606 0600     .......f........
  42837c:	0006 030e fc00 0003 00f8 0000 0000 0000     ................
  42838c:	f800 0001 03fc 0e00 0007 0606 0600 0006     ................
  42839c:	6206 fe00 007f 7ffe 0000 0060 0000 0000     .b........`.....
  4283ac:	0000 0606 fe00 0007 07fe 0c00 0006 0006     ................
  4283bc:	0e00 0000 000e 0000 0000 0000 1c00 0003     ................
  4283cc:	073e 6600 0006 0666 6600 0006 07ce 8c00     >..f..f..f......
  4283dc:	0003 0000 0000 0000 0006 ff80 c003 07ff     ................
  4283ec:	0600 0006 0606 0000 0006 0000 0600 0000     ................
  4283fc:	03fe fe00 0007 0700 0000 0006 0600 0600     ................
  42840c:	0002 07fe fe00 0007 0600 0000 0000 0000     ................
  42841c:	0600 0000 000e 7e00 0000 03f6 8000 0007     .......~........
  42842c:	0700 f600 0007 00fe 1e00 0000 0006 0600     ................
  42843c:	0000 001e fe00 0001 07e6 0000 0006 07f0     ................
  42844c:	fe00 0001 0006 fe00 0001 07f0 0000 0007     ................
  42845c:	07e0 fe00 0001 001e 0600 0000 0606 0600     ................
  42846c:	0006 070e 9600 0007 00e0 f000 0000 07b6     ................
  42847c:	1e00 0007 060e 0600 0006 0006 0e00 0000     ................
  42848c:	607e f600 0073 7f80 8000 006f 01f6 7e00     ~`..s.....o....~
  42849c:	0000 000e 0600 0000 0000 0000 0000 060e     ................
  4284ac:	0e00 0007 07c6 e600 0006 0676 1e00 0007     ..........v.....
  4284bc:	070e 0000 0000 0000 0000 0000 0070 fff0     ............p...
  4284cc:	f83f 7fcf 0018 0060 0000 0000 f800 7fff     ?.....`.........
  4284dc:	fff8 007f 0000 0000 1800 6000 cff8 f07f     ...........`....
  4284ec:	3fff 3000 0000 0000 0000 0000 0000 c000     .?.0............
  4284fc:	0000 0060 6000 0000 0060 e000 0000 00c0     ..`..`..`.......
  42850c:	c000 0000 00c0 6000 0000 0000               .......`....

00428518 <Arvo_10pt_CharCount>:
  428518:	0403 0904 0b08 0209 0505 0805 0504 0503     ................
  428528:	0508 0707 0708 0708 0808 0303 0606 0707     ................
  428538:	0a0f 0a09 080a 0b08 050c 0a04 0e08 0a0a     ................
  428548:	0a08 0809 0a09 1009 090a 0508 0506 0708     ................
  428558:	0704 0708 0708 0805 0409 0804 0d04 0809     ................
  428568:	0808 0606 0905 0a07 0707 0506 0503 0008     ................

00428578 <Arvo_10pt_Table>:
	...
  428580:	1bf0 0000 0000 0038 0000 0038 0000 0200     ......8...8.....
  428590:	0e20 07e0 0270 0220 0e20 07e0 0270 0020      ...p. . ...p. .
  4285a0:	0000 0980 1b40 7270 1240 16c0 0c80 0000     ....@.pr@.......
  4285b0:	0030 1048 0848 0630 0100 0080 0c60 1210     0.H.H.0.....`...
  4285c0:	1208 0c00 0000 0000 0c00 12e0 1110 1390     ................
  4285d0:	0ee0 0c00 1b00 1000 0038 0000 0000 0fc0     ........8.......
  4285e0:	7038 c00c 0000 c00c 3038 0fc0 0000 0000     8p......80......
  4285f0:	0010 0050 0038 0050 0010 0000 0100 0100     ..P.8.P.........
  428600:	0100 0fe0 0100 0100 0100 2000 1000 0000     ........... ....
  428610:	0000 0000 0200 0200 0200 0000 0000 1800     ................
  428620:	0000 1000 0e00 0180 0070 0008 0000 07c0     ........p.......
  428630:	1830 1010 1010 1830 07c0 0000 0000 1020     0.....0....... .
  428640:	1ff0 1000 0000 0000 1860 1410 1210 1110     ........`.......
  428650:	10e0 0000 0000 0820 1010 1110 1110 0ee0     ...... .........
  428660:	0000 0000 0300 02c0 0220 1210 1f80 1200     ........ .......
  428670:	0000 0000 09f0 1090 1090 1990 0f10 0000     ................
  428680:	0000 0f00 1980 10e0 1090 1980 0f00 0000     ................
  428690:	0030 1010 1810 1710 00d0 0030 0000 0000     0.........0.....
  4286a0:	0ee0 1b10 1110 1110 1bb0 0ee0 0000 0000     ................
  4286b0:	01e0 0330 1210 0a10 0730 01e0 0000 0000     ..0.....0.......
  4286c0:	18c0 0000 2000 18c0 0000 0100 0280 0240     ..... ........@.
  4286d0:	0440 0820 0000 0000 0500 0500 0500 0500     @. .............
  4286e0:	0000 0000 0820 0440 0240 0280 0100 0000     .... .@.@.......
  4286f0:	0000 0060 1b10 0090 0090 0060 0000 0000     ..`.......`.....
  428700:	0f00 30c0 6060 4720 8890 9050 9050 9050     ...0`` G..P.P.P.
  428710:	d8d0 1fe0 1020 10c0 0f80 0000 1000 1800     .... ...........
  428720:	1700 02e0 0210 0230 13c0 1c00 1000 0000     ......0.........
  428730:	0000 1010 1ff0 1110 1110 1110 1110 0ee0     ................
  428740:	0000 0000 03c0 0c60 0830 1010 1010 1010     ......`.0.......
  428750:	1810 0c20 0420 0000 1010 1ff0 1010 1010     .. . ...........
  428760:	1010 1830 0c60 07c0 0000 0000 1010 1ff0     ..0.`...........
  428770:	1110 1110 1010 1c30 0000 0000 1010 1ff0     ......0.........
  428780:	1110 0110 0110 0030 0000 0000 03c0 0c60     ......0.......`.
  428790:	1830 1010 1010 1210 1230 0a20 1e20 0000     0.......0. . ...
  4287a0:	0000 1010 1ff0 1110 0100 0100 0100 0100     ................
  4287b0:	1110 1ff0 1010 0000 0000 1010 1ff0 1010     ................
  4287c0:	0000 0000 4010 3ff0 0010 0000 1010 1ff0     .....@.?........
  4287d0:	1110 0100 0280 0440 1820 1010 1010 0000     ......@. .......
  4287e0:	1010 1ff0 1010 1000 1000 1c00 0000 0000     ................
  4287f0:	1010 1ff0 1030 00c0 0700 1800 1800 0700     ....0...........
  428800:	00c0 1030 1ff0 1010 0000 0000 1010 1ff0     ..0.............
  428810:	1030 0040 0180 0600 0810 1ff0 0010 07c0     0.@.............
  428820:	0c60 1830 1010 1010 1010 1830 0c60 07c0     `.0.......0.`...
  428830:	0000 0000 1010 1ff0 1110 0110 0110 0110     ................
  428840:	00e0 07c0 0c60 1830 1010 3010 3010 5830     ....`.0....0.00X
  428850:	4c60 27c0 0000 0000 1010 1ff0 1110 0110     `L.'............
  428860:	0110 0710 1ce0 1000 0400 0ce0 1190 1110     ................
  428870:	1110 1330 0e20 0000 0000 0030 0010 0010     ..0. .....0.....
  428880:	1010 1ff0 1010 0010 0010 0000 0010 07f0     ................
  428890:	0810 1000 1000 1000 0810 07f0 0010 0010     ................
  4288a0:	0030 00d0 0700 1800 1c00 0390 0070 0010     0...........p...
  4288b0:	0010 0030 01d0 0e00 1000 0e00 01c0 0030     ..0...........0.
  4288c0:	0030 01c0 0e00 1800 0e00 0190 0070 0010     0...........p...
  4288d0:	0000 1010 1830 1450 0280 0100 0280 1450     ....0.P.......P.
  4288e0:	1830 1010 0000 0010 0030 10d0 1f80 10d0     0.......0.......
  4288f0:	0030 0010 0000 0000 1870 1410 1210 1110     0.......p.......
  428900:	1090 1050 1c30 0000 0000 7ffc 4004 0000     ..P.0........@..
  428910:	0008 0038 00c0 0300 1c00 0000 0000 4004     ..8............@
  428920:	7ffc 0000 0000 0000 0080 0060 0010 0008     ..........`.....
  428930:	0070 0080 0000 4000 4000 4000 4000 4000     p......@.@.@.@.@
  428940:	4000 4000 0000 0010 0030 0020 0c40 1240     .@.@....0. .@.@.
  428950:	1240 1240 1f80 1000 0000 0008 1ff8 1040     @.@...........@.
  428960:	1040 1040 0880 0700 0000 0700 0880 1040     @.@...........@.
  428970:	1040 1040 0880 0000 0780 18c0 1040 1040     @.@.........@.@.
  428980:	1048 1ff8 1000 0000 0000 0f80 1240 1240     H...........@.@.
  428990:	1240 1380 0000 0000 1040 1ff8 1048 0008     @.......@...H...
  4289a0:	0000 0780 98c0 9040 9040 d040 7fc0 0000     ......@.@.@.....
  4289b0:	0000 1008 1ff8 1040 0040 0040 1040 1f80     ......@.@.@.@...
  4289c0:	1000 0000 1040 1fd8 1000 4040 7fcc 0000     ....@.....@@....
  4289d0:	0000 0000 1008 1ff8 1200 0700 0880 1040     ..............@.
  4289e0:	1040 0000 1008 1ff8 1000 0000 1040 1fc0     @...........@...
  4289f0:	1040 0040 1040 1f80 1080 0040 1040 1f80     @.@.@.....@.@...
  428a00:	1000 0000 0000 1040 1fc0 1080 0040 1040     ......@.....@.@.
  428a10:	1f80 1000 0000 0000 0f80 1040 1040 1040     ..........@.@.@.
  428a20:	1040 0f80 0000 8040 ffc0 9040 1040 1040     @.....@...@.@.@.
  428a30:	08c0 0780 0000 0000 0780 18c0 1040 1040     ............@.@.
  428a40:	9040 ffc0 8000 1040 1fc0 1080 0040 00c0     @.....@.....@...
  428a50:	0000 0980 1240 1240 1240 0c80 0000 0040     ....@.@.@.....@.
  428a60:	1ff0 1040 1000 0000 0040 0fc0 1000 1000     ..@.....@.......
  428a70:	1000 1040 1fc0 1000 0000 0040 01c0 0e40     ..@.......@...@.
  428a80:	1000 0e40 01c0 0040 01c0 0e40 1800 0700     ..@...@...@.....
  428a90:	00c0 0f80 1800 0e40 01c0 0040 1040 18c0     ......@...@.@...
  428aa0:	1540 0200 1540 18c0 1040 0040 81c0 ce40     @...@...@.@...@.
  428ab0:	b800 0740 00c0 0040 18c0 1440 1240 1140     ..@...@...@.@.@.
  428ac0:	10c0 1800 0000 0100 7efc 4004 0000 0000     .........~.@....
  428ad0:	fffc 0000 0000 4004 7efc 0100 0000 0000     .......@.~......
  428ae0:	0600 0200 0200 0400 0400 0600 0000 0000     ................

00428af0 <Arvo_8pt_CharCount>:
  428af0:	0402 0803 0906 0208 0404 0704 0403 0502     ................
  428b00:	0507 0606 0607 0607 0707 0303 0505 0606     ................
  428b10:	080c 0807 0708 0907 040a 0804 0c07 0909     ................
  428b20:	0907 0608 0808 0e08 0708 0407 0405 0607     ................
  428b30:	0603 0607 0607 0604 0407 0703 0b04 0707     ................
  428b40:	0607 0505 0704 0906 0606 0405 0402 0007     ................

00428b50 <Arvo_8pt_Table>:
  428b50:	0000 0000 0000 17e0 0000 0000 0060 0000     ............`...
  428b60:	0060 0400 1c80 0780 04e0 1c80 0780 04e0     `...............
  428b70:	0080 0000 0b00 1280 74e0 1480 0d00 00c0     .........t......
  428b80:	1120 0920 04c0 0f00 1280 1240 0c20 0000      . .......@. ...
  428b90:	0000 0ec0 1120 1120 1320 1cc0 0a00 1000     .... . . .......
  428ba0:	0060 0000 0000 0fc0 3030 4008 4008 3030     `.......00.@.@00
  428bb0:	0fc0 0000 0120 00c0 00c0 0120 0000 0200     .... ..... .....
  428bc0:	0200 0f80 0200 0200 0000 2000 1000 0000     ........... ....
  428bd0:	0000 0200 0200 0000 0000 1000 1000 0e00     ................
  428be0:	01c0 0020 0000 0f80 1860 1020 1020 1860     .. .....`. . .`.
  428bf0:	0fc0 0000 0040 1020 1fe0 1000 0000 0000     ....@. .........
  428c00:	1840 1420 1220 11c0 0000 0000 0840 1120     @. . .......@. .
  428c10:	1120 0ec0 0000 0000 0600 05c0 1420 1e00      ........... ...
  428c20:	1400 0000 0000 19e0 1120 1120 0e20 0000     ........ . . ...
  428c30:	0000 0f00 1180 1140 1120 0e00 0000 0060     ......@. .....`.
  428c40:	1020 1c20 13a0 0060 0000 0000 0ec0 1120      . ...`....... .
  428c50:	1120 1120 0ec0 0000 0000 01c0 1220 0a20      . ......... . .
  428c60:	0620 01c0 0000 0000 1000 0000 2000 1080      ............ ..
  428c70:	0000 0200 0500 0500 0500 0880 0a00 0a00     ................
  428c80:	0a00 0a00 0a00 0000 0880 0500 0500 0200     ................
  428c90:	0000 0000 0040 1620 0120 00c0 0000 0000     ....@. . .......
  428ca0:	1f00 2080 4040 8f20 90a0 90a0 9fa0 5040     ... @@ .......@P
  428cb0:	10c0 0f00 0000 1000 1c00 1380 0260 0260     ............`.`.
  428cc0:	1380 1c00 1000 0000 1020 1fe0 1220 1220     ........ ... . .
  428cd0:	0dc0 0000 0000 0780 0840 1020 1020 1020     ........@. . . .
  428ce0:	0840 0000 0000 1020 1fe0 1020 1020 0840     @..... ... . .@.
  428cf0:	0780 0000 0000 1020 1fe0 1120 1020 1860     ...... ... . .`.
  428d00:	0000 0000 1020 1fe0 1120 0120 0060 0000     .... ... . .`...
  428d10:	0000 0780 0840 1020 1020 1220 0a40 1e40     ....@. . . .@.@.
  428d20:	0000 0000 1020 1fe0 1120 0100 0100 1120     .... ... ..... .
  428d30:	1fe0 1020 0000 0000 1020 1fe0 1020 0000     .. ..... ... ...
  428d40:	2020 1fe0 0020 0000 1020 1fe0 1120 0280       .. ... ... ...
  428d50:	0440 1820 1020 0000 1020 1fe0 1020 1000     @. . ... ... ...
  428d60:	1800 0000 0000 1020 1fe0 1060 0380 1c00     ...... ...`.....
  428d70:	1c00 0300 10e0 1fe0 1020 0000 0000 1020     ........ ..... .
  428d80:	1fe0 1060 0380 0c00 1820 1fe0 0020 0780     ..`..... ... ...
  428d90:	0840 1020 1020 1020 1020 0840 0780 0000     @. . . . .@.....
  428da0:	0000 1020 1fe0 1120 0120 0120 00c0 0780     .. ... . . .....
  428db0:	0840 1020 1020 3020 5020 4840 4780 0000     @. . . 0 P@H.G..
  428dc0:	0000 1020 1fe0 1120 0120 0720 1cc0 1000     .. ... . . .....
  428dd0:	0000 19c0 1120 1120 1220 0e40 0000 0060     .... . . .@...`.
  428de0:	0020 1020 1fe0 1020 0020 0060 0020 0fe0      . ... . .`. ...
  428df0:	1820 1000 1000 1820 0fe0 0020 0020 00e0      ..... ... . ...
  428e00:	0320 1c00 1c00 0320 00e0 0020 0020 00e0      ..... ... . ...
  428e10:	0720 1800 1c00 0780 0060 00e0 0700 1c00      .......`.......
  428e20:	1800 0720 00e0 0020 0000 1020 1860 14a0     .. ... ... .`...
  428e30:	0300 14a0 1860 1020 0020 0060 10a0 1f00     ....`. . .`.....
  428e40:	10a0 0060 0020 0000 1860 1420 1220 1120     ..`. ...`. . . .
  428e50:	10a0 1860 0000 7ff8 4008 0000 0000 00e0     ..`......@......
  428e60:	0300 0c00 1000 0000 4008 7ff8 0000 0000     .........@......
  428e70:	0100 00c0 0020 00c0 0100 0000 4000 4000     .... ........@.@
  428e80:	4000 4000 4000 4000 0000 0020 0040 0000     .@.@.@.@.. .@...
  428e90:	1c80 1480 1480 1f00 1000 0020 1fe0 1080     .......... .....
  428ea0:	1080 1880 0f00 0000 0000 0f00 1080 1080     ................
  428eb0:	1080 0900 0000 0f00 1980 1080 10a0 1fe0     ................
  428ec0:	1000 0f00 1280 1280 1280 1300 0000 1080     ................
  428ed0:	1fe0 10a0 0020 0000 4f00 9080 9080 7f80     .... ....O......
  428ee0:	0000 1020 1fe0 1080 0080 1080 1f00 1000     .. .............
  428ef0:	1080 1fa0 1000 0000 4080 7fa0 0000 1020     .........@.... .
  428f00:	1fe0 1400 0c00 1200 1180 1080 1020 1fe0     ............ ...
  428f10:	1000 0000 1080 1f80 1080 0080 1080 1f00     ................
  428f20:	1080 0080 1080 1f00 1000 1080 1f80 1100     ................
  428f30:	0080 0080 1f00 1000 0f00 1080 1080 1080     ................
  428f40:	0f00 0000 0000 8080 ff80 9080 1080 1880     ................
  428f50:	0f00 0000 0000 0f00 1080 9080 ff80 8000     ................
  428f60:	1080 1f80 1100 0080 0180 0000 1380 1680     ................
  428f70:	1c80 0000 0080 1fe0 1080 1000 0080 1f80     ................
  428f80:	1000 1080 1f80 1000 0000 0080 0380 1c00     ................
  428f90:	1c00 0380 0080 0080 0780 1880 0e00 0180     ................
  428fa0:	0e00 1800 0780 0080 1080 1980 0600 1980     ................
  428fb0:	1080 0000 0080 8380 fc00 9c00 0380 0080     ................
  428fc0:	1980 1480 1280 1980 0000 0000 0600 7df8     ...............}
  428fd0:	4008 0000 fff8 4008 7df8 0200 0000 0000     .@.....@.}......
  428fe0:	0600 0200 0600 0400 0600 0000               ............

00428fec <Anton_16pt_CharCount>:
  428fec:	0505 0b09 160a 040b 0606 0709 0705 0905     ................
  428ffc:	070a 0a0a 0a0a 0a0a 0b0a 0505 0707 0a07     ................
  42900c:	0a12 0a0a 090a 0a08 050a 0a0a 1008 0a0a     ................
  42901c:	0a0a 0a0a 0a08 0f0a 090a 0709 0709 080a     ................
  42902c:	0a07 0a0b 0a0a 0b06 050b 0a06 1005 0a0a     ................
  42903c:	0a0a 0a07 0a06 0f0a 0a0a 0708 0705 000a     ................

0042904c <Anton_16pt_Table>:
	...
  429064:	ffc0 01cf ffc0 01cf ffc0 01cf 0000 0000     ................
  429074:	0040 0000 1fc0 0000 1fc0 0000 07c0 0000     @...............
  429084:	0000 0000 03c0 0000 1fc0 0000 1fc0 0000     ................
  429094:	0040 0000 0000 010e 6000 01fe e000 01ff     @........`......
  4290a4:	ff00 00ff ff00 000f 7f00 018e 6000 01fe     .............`..
  4290b4:	f000 01ff ff00 003f ff00 000e 6700 000e     ......?......g..
  4290c4:	0000 0018 7c00 0078 fe00 00f8 ff00 00f9     .....|x.........
  4290d4:	e780 03e3 c780 03e7 9f00 00ff 1e00 00ff     ................
  4290e4:	1c00 007e 0000 0000 fc00 0000 ff80 0007     ..~.............
  4290f4:	ffc0 0007 03c0 000f 01c0 000e ffc0 000f     ................
  429104:	ffc0 0007 ff80 01c3 0000 01f8 0000 01ff     ................
  429114:	f000 00ff fe00 000f ffc0 0001 1fc0 0000     ................
  429124:	c3c0 007f e040 00ff f000 01ff 7000 01c0     ....@........p..
  429134:	7000 01c0 f000 01ff e000 00ff 8000 003f     .p............?.
  429144:	0000 0038 0000 00ff fe00 01ff ff00 01ff     ..8.............
  429154:	ff00 01c7 e700 00ff ff00 01ff 7e00 01ff     .............~..
  429164:	9c00 01ef 8000 0183 0000 0000 0040 0000     ............@...
  429174:	1fc0 0000 1fc0 0000 07c0 0000 f000 0007     ................
  429184:	ff00 007f ff80 00ff ffc0 01ff 03c0 01e0     ................
  429194:	01c0 01c0 01c0 01c0 03c0 01e0 ffc0 01ff     ................
  4291a4:	ff80 00ff ff00 007f f800 000f 2800 0000     .............(..
  4291b4:	ee00 0000 6c00 0000 3800 0000 ff00 0001     .....l...8......
  4291c4:	ff00 0001 7c00 0000 ee00 0000 6c00 0000     .....|.......l..
  4291d4:	0000 000e 0000 000e 0000 000e 8000 003f     ..............?.
  4291e4:	8000 003f 0000 000e 0000 000e 0000 0000     ..?.............
  4291f4:	0000 05c0 0000 07c0 0000 07c0 0000 0000     ................
  429204:	0000 0000 0000 000e 0000 000e 0000 000e     ................
  429214:	0000 000e 0000 000e 0000 0000 0000 0000     ................
  429224:	0000 01c0 0000 01c0 0000 01c0 0000 0000     ................
  429234:	0000 0100 0000 01f0 8000 01ff f800 01ff     ................
  429244:	ffc0 007f ffc0 0003 3fc0 0000 01c0 0000     .........?......
  429254:	0000 0000 fc00 001f ff00 007f ff80 00ff     ................
  429264:	ffc0 01ff 01c0 01c0 01c0 01c0 ffc0 01ff     ................
  429274:	ffc0 01ff ff80 00ff fe00 003f 0700 0000     ..........?.....
  429284:	0700 0000 ff80 01ff ffc0 01ff ffc0 01ff     ................
  429294:	ffc0 01ff 0000 0000 0000 0000 1f00 01f0     ................
  4292a4:	1f80 01f8 1fc0 01fe 03c0 01ff c1c0 01df     ................
  4292b4:	ffc0 01cf ffc0 01c3 ff80 01c1 7f00 01c0     ................
  4292c4:	0c00 001c 0f80 00fc 0f80 00fc 0fc0 01fc     ................
  4292d4:	e1c0 01c0 e1c0 01c0 ffc0 01ff ffc0 00ff     ................
  4292e4:	bf80 00ff 1e00 003f 0000 003c c000 003f     ......?...<...?.
  4292f4:	fc00 003f ffc0 003f 3fc0 0038 03c0 0038     ..?...?..?8...8.
  429304:	ffc0 01ff ffc0 01ff ffc0 01ff 0000 0038     ..............8.
  429314:	0000 001c ffc0 00fc ffc0 00fc ffc0 01fc     ................
  429324:	31c0 01c0 39c0 01c0 f9c0 01ff f9c0 01ff     .1...9..........
  429334:	f1c0 00ff e000 003f 0000 0000 ff00 007f     ......?.........
  429344:	ff80 00ff ffc0 01ff c1c0 01e1 e1c0 01c0     ................
  429354:	e7c0 01ff e7c0 01ff e780 00ff 8700 003f     ..............?.
  429364:	0000 0000 01c0 0000 01c0 01f8 01c0 01ff     ................
  429374:	e1c0 01ff fdc0 01ff ffc0 0007 7fc0 0000     ................
  429384:	1fc0 0000 03c0 0000 0c00 000e bf80 007f     ................
  429394:	ff80 00ff ffc0 01ff e1c0 01e0 e1c0 01e0     ................
  4293a4:	ffc0 01ff ffc0 01ff bf80 00ff 1f00 003f     ..............?.
  4293b4:	0000 0000 ff00 00f1 ff80 01f3 ffc0 01f3     ................
  4293c4:	c3c0 01c3 81c0 01c3 ffc0 01ff ffc0 01ff     ................
  4293d4:	ff80 00ff ff00 003f 0000 0000 0000 0000     ......?.........
  4293e4:	3800 0038 3800 0038 3800 0038 0000 0000     .88..88..88.....
  4293f4:	0000 0000 7000 0138 7000 01f8 7000 01f8     .....p8..p...p..
  429404:	0000 0038 8000 0007 c000 000f c000 001f     ..8.............
  429414:	e000 001d f000 003c 7800 0078 0000 0000     ......<..xx.....
  429424:	0000 0000 e000 000e e000 000e e000 000e     ................
  429434:	e000 000e e000 000e 0000 0000 0000 0000     ................
  429444:	f800 0078 e000 003c e000 001f c000 000f     ..x...<.........
  429454:	c000 000f 0000 0000 1c00 0000 1f80 01cf     ................
  429464:	1f80 01cf 1fc0 01cf 01c0 01cf 81c0 0003     ................
  429474:	ffc0 0003 ffc0 0003 ff80 0001 7f00 0000     ................
  429484:	0000 0000 f000 003f fc00 00ff ff00 01ff     ......?.........
  429494:	0f80 03e0 8780 038f f3c0 07bf f1c0 077f     ................
  4294a4:	f1c0 0778 31c0 0730 f1c0 071f f1c0 073f     ..x..10.......?.
  4294b4:	f3c0 047f 0380 0070 0f00 0070 fe00 003f     ......p...p...?.
  4294c4:	fc00 001f c000 0003 0000 0180 f000 01ff     ................
  4294d4:	ffc0 01ff ffc0 01ff ffc0 0038 3fc0 0038     ..........8..?8.
  4294e4:	ffc0 01ff ffc0 01ff fc00 01ff 0000 01e0     ................
  4294f4:	0000 0000 ffc0 01ff ffc0 01ff ffc0 01ff     ................
  429504:	e1c0 01c0 e1c0 01c0 ffc0 01ff ffc0 01ff     ................
  429514:	bf80 00ff 0000 001e 0000 0000 ff00 007f     ................
  429524:	ff80 00ff ffc0 01ff 01c0 01c0 01c0 01c0     ................
  429534:	1fc0 01fe 1f80 01fe 1f80 00fe 1c00 001e     ................
  429544:	0000 0000 ffc0 01ff ffc0 01ff ffc0 01ff     ................
  429554:	01c0 01c0 01c0 01c0 ffc0 01ff ffc0 01ff     ................
  429564:	ff80 00ff fe00 003f 0000 0000 ffc0 01ff     ......?.........
  429574:	ffc0 01ff ffc0 01ff c3c0 01e1 c3c0 01e1     ................
  429584:	c3c0 01e1 c3c0 01e1 0000 0000 0000 0000     ................
  429594:	ffc0 01ff ffc0 01ff ffc0 01ff e3c0 0001     ................
  4295a4:	e3c0 0001 e3c0 0001 e3c0 0001 0000 0000     ................
  4295b4:	ff00 007f ff80 00ff ffc0 01ff 01c0 01c0     ................
  4295c4:	c1c0 01c1 cfc0 01ff cfc0 00ff cf80 01ff     ................
  4295d4:	cc00 01ff 0000 0000 ffc0 01ff ffc0 01ff     ................
  4295e4:	ffc0 01ff e000 0000 e000 0000 ffc0 01ff     ................
  4295f4:	ffc0 01ff ffc0 01ff ffc0 01ff 0000 0000     ................
  429604:	ffc0 01ff ffc0 01ff ffc0 01ff 0000 0000     ................
  429614:	0000 003f 0000 00ff 0000 00ff 0000 01ff     ..?.............
  429624:	0000 01c0 0000 01c0 ffc0 01ff ffc0 00ff     ................
  429634:	ffc0 007f 0000 0000 0000 0000 ffc0 01ff     ................
  429644:	ffc0 01ff ffc0 01ff e000 0000 fe00 001f     ................
  429654:	ffc0 01ff ffc0 01ff 07c0 01fc 0040 01c0     ............@...
  429664:	0000 0000 ffc0 01ff ffc0 01ff ffc0 01ff     ................
  429674:	0000 01c0 0000 01c0 0000 01c0 0000 01c0     ................
  429684:	0000 0000 ffc0 01ff ffc0 01ff ffc0 01ff     ................
  429694:	3fc0 0000 ffc0 000f ff00 01ff 8000 01ff     .?..............
  4296a4:	f000 01ff ffc0 01ff ffc0 0003 0fc0 0000     ................
  4296b4:	ffc0 01ff ffc0 01ff ffc0 01ff 0000 0000     ................
  4296c4:	0000 0000 ffc0 01ff ffc0 01ff ffc0 01ff     ................
  4296d4:	ffc0 0000 f800 003f ffc0 01ff ffc0 01ff     ......?.........
  4296e4:	ffc0 01ff ffc0 01ff 0000 0000 ff00 007f     ................
  4296f4:	ff80 00ff ffc0 01ff 01c0 01c0 01c0 01c0     ................
  429704:	ffc0 01ff ff80 00ff ff80 00ff fc00 001f     ................
  429714:	0000 0000 ffc0 01ff ffc0 01ff ffc0 01ff     ................
  429724:	c1c0 0001 c1c0 0001 ffc0 0001 ffc0 0001     ................
  429734:	ff80 0000 1c00 0000 0000 0000 ff80 007f     ................
  429744:	ff80 00ff ffc0 01ff 01c0 01c0 01c0 01c0     ................
  429754:	ffc0 01ff ff80 03ff ff80 07ff 0000 0300     ................
  429764:	0000 0000 ffc0 01ff ffc0 01ff ffc0 01ff     ................
  429774:	e1c0 0000 e1c0 0000 ffc0 01ff ffc0 01ff     ................
  429784:	bf80 01ff 1e00 0000 0c00 001c 3f80 00fc     .............?..
  429794:	7fc0 01fc ffc0 01fd f9c0 01c3 f7c0 01c7     ................
  4297a4:	e7c0 01ff c780 00ff 0700 007f 0000 0000     ................
  4297b4:	03c0 0000 03c0 0000 ffc0 01ff ffc0 01ff     ................
  4297c4:	ffc0 01ff ffc0 01ff 03c0 0000 03c0 0000     ................
  4297d4:	0000 0000 ffc0 007f ffc0 00ff ffc0 01ff     ................
  4297e4:	0000 01c0 0000 01c0 ffc0 01ff ffc0 00ff     ................
  4297f4:	ffc0 007f 0000 0000 00c0 0000 ffc0 0001     ................
  429804:	ffc0 01ff ffc0 01ff c000 01ff e000 01ff     ................
  429814:	ffc0 01ff ffc0 00ff ffc0 0000 0040 0000     ............@...
  429824:	00c0 0000 ffc0 0003 ffc0 01ff ffc0 01ff     ................
  429834:	c000 01ff fc00 01ff ffc0 01ff ffc0 0000     ................
  429844:	ffc0 01ff fc00 01ff c000 01ff ffc0 01ff     ................
  429854:	ffc0 01ff ffc0 0001 00c0 0000 0000 0100     ................
  429864:	07c0 01f8 ffc0 01ff ffc0 01ff ff00 003f     ..............?.
  429874:	fc00 000f ffc0 01ff ffc0 01ff 0fc0 01fc     ................
  429884:	0040 0180 00c0 0000 0fc0 0000 ffc0 0001     @...............
  429894:	ffc0 01ff f800 01ff ff80 01ff ffc0 0003     ................
  4298a4:	3fc0 0000 01c0 0000 0000 01c0 01c0 01fc     .?..............
  4298b4:	81c0 01ff f1c0 01ff ffc0 01df ffc0 01c3     ................
  4298c4:	3fc0 01c0 07c0 01c0 0000 0000 0000 0000     .?..............
  4298d4:	ffc0 01ff ffc0 01ff ffc0 01ff 01c0 01c0     ................
  4298e4:	01c0 01c0 0000 0000 0040 0000 0fc0 0000     ........@.......
  4298f4:	ffc0 0000 ffc0 001f ff00 01ff e000 01ff     ................
  429904:	0000 01fe 0000 01c0 0000 0000 01c0 01c0     ................
  429914:	01c0 01c0 ffc0 01ff ffc0 01ff ffc0 01ff     ................
  429924:	ffc0 01ff 0000 0000 0000 0008 0000 000f     ................
  429934:	f000 000f fc00 000f fc00 0001 fc00 0001     ................
  429944:	fc00 000f f000 000f 0000 000f 0000 0008     ................
  429954:	0000 1c00 0000 1c00 0000 1c00 0000 1c00     ................
  429964:	0000 1c00 0000 1c00 0000 1c00 0000 0000     ................
  429974:	0000 0000 00f0 0000 00e0 0000 00e0 0000     ................
  429984:	00c0 0000 01c0 0000 0000 0000 0000 0038     ..............8.
  429994:	3c00 00fe 3e00 01ff 3e00 01ff 8e00 01c1     .<...>...>......
  4299a4:	8e00 00c1 fe00 01ff fe00 01ff fc00 01ff     ................
	...
  4299bc:	ffc0 01ff ffc0 01ff ffc0 01ff ffc0 01ff     ................
  4299cc:	0e00 01c0 fe00 01ff fe00 01ff fe00 00ff     ................
  4299dc:	f800 007f 0000 0000 0000 0000 f800 007f     ................
  4299ec:	fc00 00ff fe00 01ff 0e00 01c0 0e00 01c0     ................
  4299fc:	7e00 01fc 7e00 01fc 7c00 00fc 7800 003c     .~...~...|...x<.
  429a0c:	0000 0000 fc00 00ff fe00 01ff fe00 01ff     ................
  429a1c:	0e00 01c0 0e00 00c0 ffc0 01ff ffc0 01ff     ................
  429a2c:	ffc0 01ff ffc0 01ff 0000 0000 fc00 007f     ................
  429a3c:	fc00 00ff fe00 01ff 8e00 01c1 8e00 01c1     ................
  429a4c:	fe00 01f9 fe00 01f9 fc00 00f9 f000 0019     ................
  429a5c:	1c00 0000 ff80 01ff ffc0 01ff ffc0 01ff     ................
  429a6c:	ffc0 01ff 0000 0000 0000 0000 fc00 023f     ..............?.
  429a7c:	fe00 077f fe00 077f 0e00 0778 0c00 0730     ..........x...0.
  429a8c:	fe00 07ff fe00 07ff fe00 03ff fe00 01ff     ................
	...
  429aa4:	ffc0 01ff ffc0 01ff ffc0 01ff ffc0 01ff     ................
  429ab4:	0e00 0000 fe00 01ff fe00 01ff fe00 01ff     ................
  429ac4:	f800 01ff 0000 0000 0000 0000 fee0 01ff     ................
  429ad4:	fee0 01ff fee0 01ff 0000 0000 0000 0700     ................
  429ae4:	fee0 07ff fee0 07ff fee0 03ff fee0 01ff     ................
	...
  429afc:	ffc0 01ff ffc0 01ff ffc0 01ff c000 0003     ................
  429b0c:	f800 001f fe00 00ff fe00 01ff 1e00 01f8     ................
  429b1c:	0200 01c0 0000 0000 ffc0 01ff ffc0 01ff     ................
  429b2c:	ffc0 01ff 0000 0000 0000 0000 fe00 01ff     ................
  429b3c:	fe00 01ff fe00 01ff 1c00 0000 0e00 0000     ................
  429b4c:	fe00 01ff fe00 01ff fe00 01ff fc00 01ff     ................
  429b5c:	0e00 0000 fe00 01ff fe00 01ff fe00 01ff     ................
  429b6c:	fc00 01ff 0000 0000 0000 0000 fe00 01ff     ................
  429b7c:	fe00 01ff fe00 01ff 1800 0000 0e00 0000     ................
  429b8c:	fe00 01ff fe00 01ff fe00 01ff f800 01ff     ................
  429b9c:	0000 0000 f800 007f fc00 00ff fe00 01ff     ................
  429bac:	0e00 01c0 0e00 01c0 fe00 01ff fe00 01ff     ................
  429bbc:	fc00 00ff f000 003f 0000 0000 fe00 0fff     ......?.........
  429bcc:	fe00 0fff fe00 0fff 1c00 00e0 0e00 01c0     ................
  429bdc:	fe00 01ff fe00 01ff fe00 00ff f800 007f     ................
  429bec:	0000 0000 fc00 00ff fe00 01ff fe00 01ff     ................
  429bfc:	0e00 01c0 0c00 00c0 fe00 0fff fe00 0fff     ................
  429c0c:	fe00 0fff fe00 0fff 0000 0000 fe00 01ff     ................
  429c1c:	fe00 01ff fe00 01ff 0c00 0000 0e00 0000     ................
  429c2c:	0e00 0000 3000 0038 fc00 00f8 fc00 01f9     .....08.........
  429c3c:	fe00 01fb ce00 01c3 8e00 01cf be00 01ff     ................
  429c4c:	3c00 00ff 3c00 00fe 0000 0038 1c00 0000     .<...<....8.....
  429c5c:	ffc0 00ff ffc0 01ff ffc0 01ff ffc0 01ff     ................
  429c6c:	1c00 01c0 0000 0000 fe00 00ff fe00 01ff     ................
  429c7c:	fe00 01ff 0000 01c0 0000 00c0 fe00 01ff     ................
  429c8c:	fe00 01ff fe00 01ff fe00 01ff 0600 0000     ................
  429c9c:	fe00 0001 fe00 00ff fe00 01ff 8000 01ff     ................
  429cac:	f000 01ff fe00 01ff fe00 003f 7e00 0000     ..........?..~..
  429cbc:	0000 0000 0200 0000 fe00 0003 fe00 01ff     ................
  429ccc:	fe00 01ff 0000 01ff fe00 01ff fe00 00ff     ................
  429cdc:	fe00 0001 fe00 01ff 8000 01ff f800 01ff     ................
  429cec:	fe00 01ff fe00 003f 3e00 0000 0000 0000     ......?..>......
  429cfc:	0200 0100 0e00 01e0 7e00 01fc fe00 007f     .........~......
  429d0c:	fc00 001f e000 00ff fc00 01ff 7e00 01f8     .............~..
  429d1c:	0e00 01c0 0200 0100 0600 0600 fe00 0601     ................
  429d2c:	fe00 06ff fe00 07ff 0000 07fc e000 07ff     ................
  429d3c:	fe00 03ff fe00 000f 3e00 0000 0000 0000     .........>......
  429d4c:	0e00 01c0 0e00 01f8 0e00 01ff ce00 01ff     ................
  429d5c:	fe00 01ff fe00 01c7 fe00 01c0 1e00 01c0     ................
  429d6c:	0000 0003 8000 0003 ff80 03ff ffc0 07fe     ................
  429d7c:	ffc0 07fe 01c0 0700 01c0 0700 0000 0000     ................
  429d8c:	ffe0 03ff ffe0 03ff ffe0 03ff 0000 0000     ................
  429d9c:	01c0 0700 01c0 0700 ffc0 07fe ffc0 07fe     ................
  429dac:	ff80 03ff c000 0007 8000 0003 c000 0000     ................
  429dbc:	e000 0000 f000 0000 7000 0000 7000 0000     .........p...p..
  429dcc:	f000 0000 e000 0000 e000 0000 f000 0000     ................
  429ddc:	7000 0000                                   .p..

00429de0 <__sf_fake_stderr>:
	...

00429e00 <__sf_fake_stdin>:
	...

00429e20 <__sf_fake_stdout>:
	...

00429e40 <_init>:
  429e40:	b5f8      	push	{r3, r4, r5, r6, r7, lr}
  429e42:	bf00      	nop
  429e44:	bcf8      	pop	{r3, r4, r5, r6, r7}
  429e46:	bc08      	pop	{r3}
  429e48:	469e      	mov	lr, r3
  429e4a:	4770      	bx	lr

00429e4c <__init_array_start>:
  429e4c:	0040012d 	.word	0x0040012d

00429e50 <_fini>:
  429e50:	b5f8      	push	{r3, r4, r5, r6, r7, lr}
  429e52:	bf00      	nop
  429e54:	bcf8      	pop	{r3, r4, r5, r6, r7}
  429e56:	bc08      	pop	{r3}
  429e58:	469e      	mov	lr, r3
  429e5a:	4770      	bx	lr

00429e5c <__fini_array_start>:
  429e5c:	00400109 	.word	0x00400109
